(lp0
(lp1
(dp2
S'action'
p3
cnumpy.core.multiarray
scalar
p4
(cnumpy
dtype
p5
(S'S4'
p6
I0
I1
tp7
Rp8
(I3
S'|'
p9
NNNI4
I1
I0
tp10
bS'move'
p11
tp12
Rp13
sS'recipient'
p14
NsS'patient'
p15
S'oidx_15'
p16
sS'goal'
p17
S'3518'
p18
sS'source'
p19
S'3516'
p20
sa(dp21
g3
g4
(g5
(S'S5'
p22
I0
I1
tp23
Rp24
(I3
S'|'
p25
NNNI5
I1
I0
tp26
bS'bring'
p27
tp28
Rp29
sg14
g4
(g5
(S'S1'
p30
I0
I1
tp31
Rp32
(I3
S'|'
p33
NNNI1
I1
I0
tp34
bS'h'
p35
tp36
Rp37
sg15
g4
(g5
(S'S7'
p38
I0
I1
tp39
Rp40
(I3
S'|'
p41
NNNI7
I1
I0
tp42
bS'oidx_12'
p43
tp44
Rp45
sg17
Nsg19
Nsa(dp46
g3
g4
(g5
(S'S4'
p47
I0
I1
tp48
Rp49
(I3
S'|'
p50
NNNI4
I1
I0
tp51
bS'walk'
p52
tp53
Rp54
sg14
Nsg15
Nsg17
S'3414b'
p55
sg19
Nsaa(lp56
(dp57
S'all'
p58
(lp59
S'exit the office and turn right'
p60
asg15
(lp61
sg17
(lp62
sg19
(lp63
sg3
(lp64
sg14
(lp65
sa(dp66
g58
(lp67
S'bring the object to dr heidi hughes'
p68
asg15
(lp69
sg17
(lp70
sg19
(lp71
sg3
(lp72
sg14
(lp73
sa(dp74
g58
(lp75
S'bring the pill bottle to richard rogue in his office'
p76
asg15
(lp77
sg17
(lp78
sg19
(lp79
sg3
(lp80
sg14
(lp81
saa(lp82
(g4
(g5
(S'S9'
p83
I0
I1
tp84
Rp85
(I3
S'|'
p86
NNNI9
I1
I0
tp87
bS'container'
p88
tp89
Rp90
I2
I1
tp91
a(g4
(g5
(S'S5'
p92
I0
I1
tp93
Rp94
(I3
S'|'
p95
NNNI5
I1
I0
tp96
bS'peach'
p97
tp98
Rp99
I10
I0
tp100
a(g99
I3
I0
tp101
a(g99
I27
I0
tp102
a(g99
I7
I0
tp103
a(g99
I18
I0
tp104
a(g99
I2
I0
tp105
a(g99
I20
I0
tp106
a(g99
I17
I0
tp107
a(g4
(g5
(S'S5'
p108
I0
I1
tp109
Rp110
(I3
S'|'
p111
NNNI5
I1
I0
tp112
bS'tower'
p113
tp114
Rp115
I10
I0
tp116
a(g115
I3
I0
tp117
a(g115
I27
I0
tp118
a(g115
I7
I0
tp119
a(g115
I18
I0
tp120
a(g115
I2
I0
tp121
a(g115
I20
I0
tp122
a(g115
I17
I0
tp123
a(g4
(g5
(S'S6'
p124
I0
I1
tp125
Rp126
(I3
S'|'
p127
NNNI6
I1
I0
tp128
bS'column'
p129
tp130
Rp131
I20
I1
tp132
a(g4
(g5
(S'S9'
p133
I0
I1
tp134
Rp135
(I3
S'|'
p136
NNNI9
I1
I0
tp137
bS'container'
p138
tp139
Rp140
I3
I0
tp141
aa(lp142
(S'bottle'
p143
S'container'
p144
I01
tp145
aa.