(lp0
(lp1
(dp2
S'action'
p3
cnumpy.core.multiarray
scalar
p4
(cnumpy
dtype
p5
(S'S5'
p6
I0
I1
tp7
Rp8
(I3
S'|'
p9
NNNI5
I1
I0
tp10
bS'bring'
p11
tp12
Rp13
sS'recipient'
p14
g4
(g5
(S'S1'
p15
I0
I1
tp16
Rp17
(I3
S'|'
p18
NNNI1
I1
I0
tp19
bS'p'
p20
tp21
Rp22
sS'patient'
p23
S'oidx_12'
p24
sS'goal'
p25
NsS'source'
p26
Nsa(dp27
g3
g4
(g5
(S'S5'
p28
I0
I1
tp29
Rp30
(I3
S'|'
p31
NNNI5
I1
I0
tp32
bS'bring'
p33
tp34
Rp35
sg14
g4
(g5
(S'S1'
p36
I0
I1
tp37
Rp38
(I3
S'|'
p39
NNNI1
I1
I0
tp40
bS'r'
p41
tp42
Rp43
sg23
g4
(g5
(S'S7'
p44
I0
I1
tp45
Rp46
(I3
S'|'
p47
NNNI7
I1
I0
tp48
bS'oidx_13'
p49
tp50
Rp51
sg25
Nsg26
Nsa(dp52
g3
g4
(g5
(S'S5'
p53
I0
I1
tp54
Rp55
(I3
S'|'
p56
NNNI5
I1
I0
tp57
bS'bring'
p58
tp59
Rp60
sg14
S'm'
p61
sg23
S'oidx_22'
p62
sg25
Nsg26
Nsaa(lp63
(dp64
S'all'
p65
(lp66
S"go to the printer that is across from peggy parker 's office"
p67
asg23
(lp68
sg25
(lp69
sg26
(lp70
sg3
(lp71
sg14
(lp72
S'peggy parker'
p73
asa(dp74
g65
(lp75
S'give the pringles to richard rogue'
p76
asg23
(lp77
sg25
(lp78
sg26
(lp79
sg3
(lp80
sg14
(lp81
sa(dp82
g65
(lp83
S'deliver the jar from the lab to bob brown'
p84
asg23
(lp85
sg25
(lp86
sg26
(lp87
sg3
(lp88
sg14
(lp89
saa(lp90
(g4
(g5
(S'S5'
p91
I0
I1
tp92
Rp93
(I3
S'|'
p94
NNNI5
I1
I0
tp95
bS'empty'
p96
tp97
Rp98
I18
I1
tp99
a(g4
(g5
(S'S8'
p100
I0
I1
tp101
Rp102
(I3
S'|'
p103
NNNI8
I1
I0
tp104
bS'pringles'
p105
tp106
Rp107
I10
I0
tp108
a(g107
I3
I0
tp109
a(g107
I27
I0
tp110
a(g107
I7
I0
tp111
a(g107
I18
I0
tp112
a(g107
I2
I0
tp113
a(g107
I20
I0
tp114
a(g107
I17
I0
tp115
a(g4
(g5
(S'S9'
p116
I0
I1
tp117
Rp118
(I3
S'|'
p119
NNNI9
I1
I0
tp120
bS'container'
p121
tp122
Rp123
I17
I1
tp124
a(g4
(g5
(S'S5'
p125
I0
I1
tp126
Rp127
(I3
S'|'
p128
NNNI5
I1
I0
tp129
bS'spice'
p130
tp131
Rp132
I2
I1
tp133
a(g4
(g5
(S'S6'
p134
I0
I1
tp135
Rp136
(I3
S'|'
p137
NNNI6
I1
I0
tp138
bS'column'
p139
tp140
Rp141
I20
I1
tp142
a(g4
(g5
(S'S3'
p143
I0
I1
tp144
Rp145
(I3
S'|'
p146
NNNI3
I1
I0
tp147
bS'can'
p148
tp149
Rp150
I2
I1
tp151
a(g4
(g5
(S'S8'
p152
I0
I1
tp153
Rp154
(I3
S'|'
p155
NNNI8
I1
I0
tp156
bS'metallic'
p157
tp158
Rp159
I10
I0
tp160
a(g159
I3
I0
tp161
a(g159
I27
I0
tp162
a(g159
I7
I0
tp163
a(g159
I18
I0
tp164
a(g159
I2
I0
tp165
a(g159
I20
I0
tp166
a(g159
I17
I0
tp167
a(g4
(g5
(S'S9'
p168
I0
I1
tp169
Rp170
(I3
S'|'
p171
NNNI9
I1
I0
tp172
bS'container'
p173
tp174
Rp175
I27
I0
tp176
a(g4
(g5
(S'S6'
p177
I0
I1
tp178
Rp179
(I3
S'|'
p180
NNNI6
I1
I0
tp181
bS'yellow'
p182
tp183
Rp184
I10
I0
tp185
a(g184
I3
I0
tp186
a(g184
I27
I0
tp187
a(g184
I7
I0
tp188
a(g184
I18
I0
tp189
a(g184
I2
I0
tp190
a(g184
I20
I0
tp191
a(g184
I17
I0
tp192
a(g4
(g5
(S'S5'
p193
I0
I1
tp194
Rp195
(I3
S'|'
p196
NNNI5
I1
I0
tp197
bS'empty'
p198
tp199
Rp200
I20
I0
tp201
aa(lp202
(S'is'
p203
S'can'
p204
I00
tp205
a(S'jar'
p206
S'container'
p207
I01
tp208
aa.