(lp0
(lp1
(dp2
S'action'
p3
cnumpy.core.multiarray
scalar
p4
(cnumpy
dtype
p5
(S'S4'
p6
I0
I1
tp7
Rp8
(I3
S'|'
p9
NNNI4
I1
I0
tp10
bS'walk'
p11
tp12
Rp13
sS'recipient'
p14
NsS'patient'
p15
NsS'goal'
p16
g4
(g5
(S'S4'
p17
I0
I1
tp18
Rp19
(I3
S'|'
p20
NNNI4
I1
I0
tp21
bS'3502'
p22
tp23
Rp24
sS'source'
p25
Nsa(dp26
g3
g4
(g5
(S'S5'
p27
I0
I1
tp28
Rp29
(I3
S'|'
p30
NNNI5
I1
I0
tp31
bS'bring'
p32
tp33
Rp34
sg14
g4
(g5
(S'S1'
p35
I0
I1
tp36
Rp37
(I3
S'|'
p38
NNNI1
I1
I0
tp39
bS'w'
p40
tp41
Rp42
sg15
g4
(g5
(S'S7'
p43
I0
I1
tp44
Rp45
(I3
S'|'
p46
NNNI7
I1
I0
tp47
bS'oidx_28'
p48
tp49
Rp50
sg16
Nsg25
Nsa(dp51
g3
g4
(g5
(S'S5'
p52
I0
I1
tp53
Rp54
(I3
S'|'
p55
NNNI5
I1
I0
tp56
bS'bring'
p57
tp58
Rp59
sg14
g4
(g5
(S'S1'
p60
I0
I1
tp61
Rp62
(I3
S'|'
p63
NNNI1
I1
I0
tp64
bS'n'
p65
tp66
Rp67
sg15
S'oidx_25'
p68
sg16
Nsg25
Nsaa(lp69
(dp70
S'all'
p71
(lp72
S"go to mallory maroon 's office"
p73
asg15
(lp74
sg16
(lp75
S"mallory 's office"
p76
asg25
(lp77
sg3
(lp78
sg14
(lp79
sa(dp80
g71
(lp81
S'give the long white object to walter ward'
p82
asg15
(lp83
sg16
(lp84
sg25
(lp85
sg3
(lp86
sg14
(lp87
sa(dp88
g71
(lp89
S'take the jar from the leftmost lab and bring it to nancy nagel'
p90
asg15
(lp91
sg16
(lp92
sg25
(lp93
sg3
(lp94
sg14
(lp95
S'nancy nagel'
p96
asaa(lp97
(g4
(g5
(S'S6'
p98
I0
I1
tp99
Rp100
(I3
S'|'
p101
NNNI6
I1
I0
tp102
bS'maroon'
p103
tp104
Rp105
I10
I0
tp106
a(g105
I3
I0
tp107
a(g105
I27
I0
tp108
a(g105
I7
I0
tp109
a(g105
I18
I0
tp110
a(g105
I2
I0
tp111
a(g105
I20
I0
tp112
a(g105
I17
I0
tp113
a(g4
(g5
(S'S5'
p114
I0
I1
tp115
Rp116
(I3
S'|'
p117
NNNI5
I1
I0
tp118
bS'clear'
p119
tp120
Rp121
I2
I1
tp122
a(g4
(g5
(S'S8'
p123
I0
I1
tp124
Rp125
(I3
S'|'
p126
NNNI8
I1
I0
tp127
bS'metallic'
p128
tp129
Rp130
I10
I0
tp131
a(g130
I3
I0
tp132
a(g130
I27
I0
tp133
a(g130
I7
I0
tp134
a(g130
I18
I0
tp135
a(g130
I2
I0
tp136
a(g130
I20
I0
tp137
a(g130
I17
I0
tp138
a(g4
(g5
(S'S5'
p139
I0
I1
tp140
Rp141
(I3
S'|'
p142
NNNI5
I1
I0
tp143
bS'empty'
p144
tp145
Rp146
I3
I1
tp147
a(g4
(g5
(S'S4'
p148
I0
I1
tp149
Rp150
(I3
S'|'
p151
NNNI4
I1
I0
tp152
bS'long'
p153
tp154
Rp155
I3
I1
tp156
a(g4
(g5
(S'S4'
p157
I0
I1
tp158
Rp159
(I3
S'|'
p160
NNNI4
I1
I0
tp161
bS'long'
p162
tp163
Rp164
I27
I0
tp165
a(g4
(g5
(S'S5'
p166
I0
I1
tp167
Rp168
(I3
S'|'
p169
NNNI5
I1
I0
tp170
bS'spice'
p171
tp172
Rp173
I10
I0
tp174
a(g173
I3
I0
tp175
a(g173
I27
I0
tp176
a(g173
I7
I0
tp177
a(g173
I18
I0
tp178
a(g173
I2
I0
tp179
a(g173
I20
I0
tp180
a(g173
I17
I0
tp181
a(g4
(g5
(S'S5'
p182
I0
I1
tp183
Rp184
(I3
S'|'
p185
NNNI5
I1
I0
tp186
bS'peach'
p187
tp188
Rp189
I10
I0
tp190
a(g189
I3
I0
tp191
a(g189
I27
I0
tp192
a(g189
I7
I0
tp193
a(g189
I18
I0
tp194
a(g189
I2
I0
tp195
a(g189
I20
I0
tp196
a(g189
I17
I0
tp197
a(g4
(g5
(S'S4'
p198
I0
I1
tp199
Rp200
(I3
S'|'
p201
NNNI4
I1
I0
tp202
bS'long'
p203
tp204
Rp205
I3
I1
tp206
a(g4
(g5
(S'S4'
p207
I0
I1
tp208
Rp209
(I3
S'|'
p210
NNNI4
I1
I0
tp211
bS'long'
p212
tp213
Rp214
I27
I0
tp215
a(g4
(g5
(S'S3'
p216
I0
I1
tp217
Rp218
(I3
S'|'
p219
NNNI3
I1
I0
tp220
bS'can'
p221
tp222
Rp223
I2
I1
tp224
a(g4
(g5
(S'S9'
p225
I0
I1
tp226
Rp227
(I3
S'|'
p228
NNNI9
I1
I0
tp229
bS'container'
p230
tp231
Rp232
I2
I1
tp233
a(g4
(g5
(S'S5'
p234
I0
I1
tp235
Rp236
(I3
S'|'
p237
NNNI5
I1
I0
tp238
bS'empty'
p239
tp240
Rp241
I10
I0
tp242
a(g4
(g5
(S'S5'
p243
I0
I1
tp244
Rp245
(I3
S'|'
p246
NNNI5
I1
I0
tp247
bS'clear'
p248
tp249
Rp250
I10
I1
tp251
a(g250
I3
I1
tp252
a(g250
I27
I1
tp253
a(g250
I7
I1
tp254
a(g250
I18
I1
tp255
a(g250
I2
I1
tp256
a(g250
I20
I1
tp257
a(g250
I17
I1
tp258
a(g4
(g5
(S'S5'
p259
I0
I1
tp260
Rp261
(I3
S'|'
p262
NNNI5
I1
I0
tp263
bS'tower'
p264
tp265
Rp266
I10
I0
tp267
a(g266
I3
I0
tp268
a(g266
I27
I0
tp269
a(g266
I7
I0
tp270
a(g266
I18
I0
tp271
a(g266
I2
I0
tp272
a(g266
I20
I0
tp273
a(g266
I17
I0
tp274
aa(lp275
(S'maroon'
p276
S'white'
p277
I00
tp278
a(g276
S'yellow'
p279
I00
tp280
a(g276
S'blue'
p281
I00
tp282
aa.