(lp0
(lp1
(dp2
S'action'
p3
cnumpy.core.multiarray
scalar
p4
(cnumpy
dtype
p5
(S'S4'
p6
I0
I1
tp7
Rp8
(I3
S'|'
p9
NNNI4
I1
I0
tp10
bS'walk'
p11
tp12
Rp13
sS'recipient'
p14
NsS'patient'
p15
NsS'goal'
p16
g4
(g5
(S'S5'
p17
I0
I1
tp18
Rp19
(I3
S'|'
p20
NNNI5
I1
I0
tp21
bS'3414a'
p22
tp23
Rp24
sS'source'
p25
Nsa(dp26
g3
g4
(g5
(S'S5'
p27
I0
I1
tp28
Rp29
(I3
S'|'
p30
NNNI5
I1
I0
tp31
bS'bring'
p32
tp33
Rp34
sg14
g4
(g5
(S'S1'
p35
I0
I1
tp36
Rp37
(I3
S'|'
p38
NNNI1
I1
I0
tp39
bS'n'
p40
tp41
Rp42
sg15
g4
(g5
(S'S7'
p43
I0
I1
tp44
Rp45
(I3
S'|'
p46
NNNI7
I1
I0
tp47
bS'oidx_13'
p48
tp49
Rp50
sg16
Nsg25
Nsa(dp51
g3
g4
(g5
(S'S4'
p52
I0
I1
tp53
Rp54
(I3
S'|'
p55
NNNI4
I1
I0
tp56
bS'walk'
p57
tp58
Rp59
sg14
Nsg15
Nsg16
g4
(g5
(S'S4'
p60
I0
I1
tp61
Rp62
(I3
S'|'
p63
NNNI4
I1
I0
tp64
bS'3410'
p65
tp66
Rp67
sg25
Nsaa(lp68
(dp69
S'all'
p70
(lp71
S'go to the lab'
p72
asg15
(lp73
sg16
(lp74
S'the lab'
p75
aS'the lab near the printer'
p76
asg25
(lp77
sg3
(lp78
sg14
(lp79
sa(dp80
g70
(lp81
S'bring dr nancy nagel the pringles'
p82
asg15
(lp83
sg16
(lp84
sg25
(lp85
sg3
(lp86
sg14
(lp87
sa(dp88
g70
(lp89
S'o to the pod near the printer and take the can of peaches to the lounge'
p90
asg15
(lp91
sg16
(lp92
S'the pod near the printer and take the can of peaches to the lounge'
p93
aS'the pod near the printer'
p94
aS'the pod near the printer'
p95
aS'thepod'
p96
aS'the pod near the printer'
p97
asg25
(lp98
sg3
(lp99
sg14
(lp100
saa(lp101
(g4
(g5
(S'S5'
p102
I0
I1
tp103
Rp104
(I3
S'|'
p105
NNNI5
I1
I0
tp106
bS'clear'
p107
tp108
Rp109
I10
I0
tp110
a(g109
I3
I0
tp111
a(g109
I27
I0
tp112
a(g109
I7
I0
tp113
a(g109
I18
I0
tp114
a(g109
I2
I0
tp115
a(g109
I20
I0
tp116
a(g109
I17
I0
tp117
a(g4
(g5
(S'S9'
p118
I0
I1
tp119
Rp120
(I3
S'|'
p121
NNNI9
I1
I0
tp122
bS'rectangle'
p123
tp124
Rp125
I10
I0
tp126
a(g125
I3
I0
tp127
a(g125
I27
I0
tp128
a(g125
I7
I0
tp129
a(g125
I18
I0
tp130
a(g125
I2
I0
tp131
a(g125
I20
I0
tp132
a(g125
I17
I0
tp133
a(g4
(g5
(S'S8'
p134
I0
I1
tp135
Rp136
(I3
S'|'
p137
NNNI8
I1
I0
tp138
bS'cylinder'
p139
tp140
Rp141
I2
I1
tp142
a(g4
(g5
(S'S6'
p143
I0
I1
tp144
Rp145
(I3
S'|'
p146
NNNI6
I1
I0
tp147
bS'column'
p148
tp149
Rp150
I20
I1
tp151
a(g4
(g5
(S'S4'
p152
I0
I1
tp153
Rp154
(I3
S'|'
p155
NNNI4
I1
I0
tp156
bS'bean'
p157
tp158
Rp159
I10
I0
tp160
a(g159
I3
I0
tp161
a(g159
I27
I0
tp162
a(g159
I7
I0
tp163
a(g159
I18
I0
tp164
a(g159
I2
I0
tp165
a(g159
I20
I0
tp166
a(g159
I17
I0
tp167
a(g4
(g5
(S'S8'
p168
I0
I1
tp169
Rp170
(I3
S'|'
p171
NNNI8
I1
I0
tp172
bS'pringles'
p173
tp174
Rp175
I10
I0
tp176
a(g175
I3
I0
tp177
a(g175
I27
I0
tp178
a(g175
I7
I0
tp179
a(g175
I18
I0
tp180
a(g175
I2
I0
tp181
a(g175
I20
I0
tp182
a(g175
I17
I0
tp183
a(g4
(g5
(S'S6'
p184
I0
I1
tp185
Rp186
(I3
S'|'
p187
NNNI6
I1
I0
tp188
bS'coffee'
p189
tp190
Rp191
I2
I1
tp192
a(g4
(g5
(S'S8'
p193
I0
I1
tp194
Rp195
(I3
S'|'
p196
NNNI8
I1
I0
tp197
bS'metallic'
p198
tp199
Rp200
I10
I0
tp201
a(g200
I3
I0
tp202
a(g200
I27
I0
tp203
a(g200
I7
I0
tp204
a(g200
I18
I0
tp205
a(g200
I2
I0
tp206
a(g200
I20
I0
tp207
a(g200
I17
I0
tp208
a(g4
(g5
(S'S5'
p209
I0
I1
tp210
Rp211
(I3
S'|'
p212
NNNI5
I1
I0
tp213
bS'white'
p214
tp215
Rp216
I10
I1
tp217
a(g4
(g5
(S'S5'
p218
I0
I1
tp219
Rp220
(I3
S'|'
p221
NNNI5
I1
I0
tp222
bS'white'
p223
tp224
Rp225
I7
I0
tp226
a(g4
(g5
(S'S6'
p227
I0
I1
tp228
Rp229
(I3
S'|'
p230
NNNI6
I1
I0
tp231
bS'coffee'
p232
tp233
Rp234
I3
I0
tp235
a(g4
(g5
(S'S8'
p236
I0
I1
tp237
Rp238
(I3
S'|'
p239
NNNI8
I1
I0
tp240
bS'cylinder'
p241
tp242
Rp243
I27
I0
tp244
a(g4
(g5
(S'S8'
p245
I0
I1
tp246
Rp247
(I3
S'|'
p248
NNNI8
I1
I0
tp249
bS'cylinder'
p250
tp251
Rp252
I20
I1
tp253
a(g4
(g5
(S'S5'
p254
I0
I1
tp255
Rp256
(I3
S'|'
p257
NNNI5
I1
I0
tp258
bS'spice'
p259
tp260
Rp261
I10
I0
tp262
a(g261
I3
I0
tp263
a(g261
I27
I0
tp264
a(g261
I7
I0
tp265
a(g261
I18
I0
tp266
a(g261
I2
I0
tp267
a(g261
I20
I0
tp268
a(g261
I17
I0
tp269
a(g4
(g5
(S'S8'
p270
I0
I1
tp271
Rp272
(I3
S'|'
p273
NNNI8
I1
I0
tp274
bS'cylinder'
p275
tp276
Rp277
I17
I1
tp278
aa(lp279
a.