(lp0
(lp1
(dp2
S'action'
p3
cnumpy.core.multiarray
scalar
p4
(cnumpy
dtype
p5
(S'S4'
p6
I0
I1
tp7
Rp8
(I3
S'|'
p9
NNNI4
I1
I0
tp10
bS'walk'
p11
tp12
Rp13
sS'recipient'
p14
NsS'patient'
p15
NsS'goal'
p16
g4
(g5
(S'S4'
p17
I0
I1
tp18
Rp19
(I3
S'|'
p20
NNNI4
I1
I0
tp21
bS'3502'
p22
tp23
Rp24
sS'source'
p25
Nsa(dp26
g3
g4
(g5
(S'S5'
p27
I0
I1
tp28
Rp29
(I3
S'|'
p30
NNNI5
I1
I0
tp31
bS'bring'
p32
tp33
Rp34
sg14
g4
(g5
(S'S1'
p35
I0
I1
tp36
Rp37
(I3
S'|'
p38
NNNI1
I1
I0
tp39
bS'd'
p40
tp41
Rp42
sg15
g4
(g5
(S'S7'
p43
I0
I1
tp44
Rp45
(I3
S'|'
p46
NNNI7
I1
I0
tp47
bS'oidx_26'
p48
tp49
Rp50
sg16
Nsg25
Nsa(dp51
g3
g4
(g5
(S'S4'
p52
I0
I1
tp53
Rp54
(I3
S'|'
p55
NNNI4
I1
I0
tp56
bS'move'
p57
tp58
Rp59
sg14
Nsg15
S'oidx_21'
p60
sg16
S'3402'
p61
sg25
S'3404'
p62
saa(lp63
(dp64
S'all'
p65
(lp66
S"walk to dave 's office"
p67
asg15
(lp68
sg16
(lp69
S"to dave 's office"
p70
aS"walk to dave 's office"
p71
aS'office'
p72
aS'to the lab'
p73
aS'lab'
p74
aS'printer'
p75
asg25
(lp76
sg3
(lp77
sg14
(lp78
sa(dp79
g65
(lp80
S'give this person the object'
p81
asg15
(lp82
sg16
(lp83
sg25
(lp84
sg3
(lp85
sg14
(lp86
sa(dp87
g65
(lp88
S"move the object from peggy 's office to the office next to dr sybil"
p89
asg15
(lp90
sg16
(lp91
sg25
(lp92
sg3
(lp93
sg14
(lp94
saa(lp95
(g4
(g5
(S'S3'
p96
I0
I1
tp97
Rp98
(I3
S'|'
p99
NNNI3
I1
I0
tp100
bS'can'
p101
tp102
Rp103
I10
I0
tp104
a(g103
I3
I0
tp105
a(g103
I27
I0
tp106
a(g103
I7
I0
tp107
a(g103
I18
I0
tp108
a(g103
I2
I0
tp109
a(g103
I20
I0
tp110
a(g103
I17
I0
tp111
a(g4
(g5
(S'S5'
p112
I0
I1
tp113
Rp114
(I3
S'|'
p115
NNNI5
I1
I0
tp116
bS'peach'
p117
tp118
Rp119
I27
I1
tp120
a(g4
(g5
(S'S4'
p121
I0
I1
tp122
Rp123
(I3
S'|'
p124
NNNI4
I1
I0
tp125
bS'long'
p126
tp127
Rp128
I3
I1
tp129
a(g4
(g5
(S'S4'
p130
I0
I1
tp131
Rp132
(I3
S'|'
p133
NNNI4
I1
I0
tp134
bS'blue'
p135
tp136
Rp137
I18
I1
tp138
a(g4
(g5
(S'S5'
p139
I0
I1
tp140
Rp141
(I3
S'|'
p142
NNNI5
I1
I0
tp143
bS'peach'
p144
tp145
Rp146
I20
I0
tp147
a(g4
(g5
(S'S9'
p148
I0
I1
tp149
Rp150
(I3
S'|'
p151
NNNI9
I1
I0
tp152
bS'container'
p153
tp154
Rp155
I2
I1
tp156
a(g4
(g5
(S'S9'
p157
I0
I1
tp158
Rp159
(I3
S'|'
p160
NNNI9
I1
I0
tp161
bS'container'
p162
tp163
Rp164
I20
I0
tp165
a(g4
(g5
(S'S9'
p166
I0
I1
tp167
Rp168
(I3
S'|'
p169
NNNI9
I1
I0
tp170
bS'container'
p171
tp172
Rp173
I18
I1
tp174
a(g4
(g5
(S'S9'
p175
I0
I1
tp176
Rp177
(I3
S'|'
p178
NNNI9
I1
I0
tp179
bS'container'
p180
tp181
Rp182
I27
I0
tp183
a(g4
(g5
(S'S9'
p184
I0
I1
tp185
Rp186
(I3
S'|'
p187
NNNI9
I1
I0
tp188
bS'container'
p189
tp190
Rp191
I7
I1
tp192
aa(lp193
(S'object'
p194
S'container'
p195
I01
tp196
aa.