(lp0
(lp1
(dp2
S'action'
p3
cnumpy.core.multiarray
scalar
p4
(cnumpy
dtype
p5
(S'S4'
p6
I0
I1
tp7
Rp8
(I3
S'|'
p9
NNNI4
I1
I0
tp10
bS'walk'
p11
tp12
Rp13
sS'recipient'
p14
NsS'patient'
p15
NsS'goal'
p16
g4
(g5
(S'S4'
p17
I0
I1
tp18
Rp19
(I3
S'|'
p20
NNNI4
I1
I0
tp21
bS'3520'
p22
tp23
Rp24
sS'source'
p25
Nsa(dp26
g3
g4
(g5
(S'S5'
p27
I0
I1
tp28
Rp29
(I3
S'|'
p30
NNNI5
I1
I0
tp31
bS'bring'
p32
tp33
Rp34
sg14
g4
(g5
(S'S1'
p35
I0
I1
tp36
Rp37
(I3
S'|'
p38
NNNI1
I1
I0
tp39
bS'r'
p40
tp41
Rp42
sg15
g4
(g5
(S'S6'
p43
I0
I1
tp44
Rp45
(I3
S'|'
p46
NNNI6
I1
I0
tp47
bS'oidx_6'
p48
tp49
Rp50
sg16
Nsg25
Nsa(dp51
g3
g4
(g5
(S'S4'
p52
I0
I1
tp53
Rp54
(I3
S'|'
p55
NNNI4
I1
I0
tp56
bS'move'
p57
tp58
Rp59
sg14
Nsg15
g4
(g5
(S'S7'
p60
I0
I1
tp61
Rp62
(I3
S'|'
p63
NNNI7
I1
I0
tp64
bS'oidx_25'
p65
tp66
Rp67
sg16
g4
(g5
(S'S4'
p68
I0
I1
tp69
Rp70
(I3
S'|'
p71
NNNI4
I1
I0
tp72
bS'3512'
p73
tp74
Rp75
sg25
g4
(g5
(S'S4'
p76
I0
I1
tp77
Rp78
(I3
S'|'
p79
NNNI4
I1
I0
tp80
bS'3436'
p81
tp82
Rp83
saa(lp84
(dp85
S'all'
p86
(lp87
S'go to the kitchen'
p88
asg15
(lp89
sg16
(lp90
S'kitchen'
p91
asg25
(lp92
sg3
(lp93
sg14
(lp94
sa(dp95
g86
(lp96
S'give richard rogue the pill bottle'
p97
asg15
(lp98
sg16
(lp99
sg25
(lp100
sg3
(lp101
sg14
(lp102
sa(dp103
g86
(lp104
S'move the container from the lab to the office'
p105
asg15
(lp106
sg16
(lp107
sg25
(lp108
sg3
(lp109
sg14
(lp110
saa(lp111
(g4
(g5
(S'S6'
p112
I0
I1
tp113
Rp114
(I3
S'|'
p115
NNNI6
I1
I0
tp116
bS'coffee'
p117
tp118
Rp119
I10
I0
tp120
a(g119
I3
I0
tp121
a(g119
I27
I0
tp122
a(g119
I7
I0
tp123
a(g119
I18
I0
tp124
a(g119
I2
I0
tp125
a(g119
I20
I0
tp126
a(g119
I17
I0
tp127
a(g4
(g5
(S'S8'
p128
I0
I1
tp129
Rp130
(I3
S'|'
p131
NNNI8
I1
I0
tp132
bS'pringles'
p133
tp134
Rp135
I10
I0
tp136
a(g135
I3
I0
tp137
a(g135
I27
I0
tp138
a(g135
I7
I0
tp139
a(g135
I18
I0
tp140
a(g135
I2
I0
tp141
a(g135
I20
I0
tp142
a(g135
I17
I0
tp143
a(g4
(g5
(S'S5'
p144
I0
I1
tp145
Rp146
(I3
S'|'
p147
NNNI5
I1
I0
tp148
bS'peach'
p149
tp150
Rp151
I10
I0
tp152
a(g151
I3
I0
tp153
a(g151
I27
I0
tp154
a(g151
I7
I0
tp155
a(g151
I18
I0
tp156
a(g151
I2
I0
tp157
a(g151
I20
I0
tp158
a(g151
I17
I0
tp159
a(g4
(g5
(S'S5'
p160
I0
I1
tp161
Rp162
(I3
S'|'
p163
NNNI5
I1
I0
tp164
bS'tower'
p165
tp166
Rp167
I10
I0
tp168
a(g167
I3
I0
tp169
a(g167
I27
I0
tp170
a(g167
I7
I0
tp171
a(g167
I18
I0
tp172
a(g167
I2
I0
tp173
a(g167
I20
I0
tp174
a(g167
I17
I0
tp175
a(g4
(g5
(S'S4'
p176
I0
I1
tp177
Rp178
(I3
S'|'
p179
NNNI4
I1
I0
tp180
bS'bean'
p181
tp182
Rp183
I10
I0
tp184
a(g183
I3
I0
tp185
a(g183
I27
I0
tp186
a(g183
I7
I0
tp187
a(g183
I18
I0
tp188
a(g183
I2
I0
tp189
a(g183
I20
I0
tp190
a(g183
I17
I0
tp191
a(g4
(g5
(S'S9'
p192
I0
I1
tp193
Rp194
(I3
S'|'
p195
NNNI9
I1
I0
tp196
bS'container'
p197
tp198
Rp199
I2
I1
tp200
a(g4
(g5
(S'S9'
p201
I0
I1
tp202
Rp203
(I3
S'|'
p204
NNNI9
I1
I0
tp205
bS'container'
p206
tp207
Rp208
I3
I0
tp209
a(g4
(g5
(S'S8'
p210
I0
I1
tp211
Rp212
(I3
S'|'
p213
NNNI8
I1
I0
tp214
bS'metallic'
p215
tp216
Rp217
I10
I0
tp218
a(g217
I3
I0
tp219
a(g217
I27
I0
tp220
a(g217
I7
I0
tp221
a(g217
I18
I0
tp222
a(g217
I2
I0
tp223
a(g217
I20
I0
tp224
a(g217
I17
I0
tp225
a(g4
(g5
(S'S9'
p226
I0
I1
tp227
Rp228
(I3
S'|'
p229
NNNI9
I1
I0
tp230
bS'container'
p231
tp232
Rp233
I2
I1
tp234
a(g4
(g5
(S'S4'
p235
I0
I1
tp236
Rp237
(I3
S'|'
p238
NNNI4
I1
I0
tp239
bS'blue'
p240
tp241
Rp242
I18
I1
tp243
a(g4
(g5
(S'S9'
p244
I0
I1
tp245
Rp246
(I3
S'|'
p247
NNNI9
I1
I0
tp248
bS'container'
p249
tp250
Rp251
I3
I0
tp252
a(g4
(g5
(S'S9'
p253
I0
I1
tp254
Rp255
(I3
S'|'
p256
NNNI9
I1
I0
tp257
bS'container'
p258
tp259
Rp260
I2
I1
tp261
a(g4
(g5
(S'S9'
p262
I0
I1
tp263
Rp264
(I3
S'|'
p265
NNNI9
I1
I0
tp266
bS'container'
p267
tp268
Rp269
I3
I0
tp270
a(g4
(g5
(S'S9'
p271
I0
I1
tp272
Rp273
(I3
S'|'
p274
NNNI9
I1
I0
tp275
bS'container'
p276
tp277
Rp278
I2
I1
tp279
a(g4
(g5
(S'S9'
p280
I0
I1
tp281
Rp282
(I3
S'|'
p283
NNNI9
I1
I0
tp284
bS'container'
p285
tp286
Rp287
I20
I0
tp288
aa(lp289
(S'bottle'
p290
S'container'
p291
I01
tp292
aa.