(lp0
(lp1
(dp2
S'action'
p3
cnumpy.core.multiarray
scalar
p4
(cnumpy
dtype
p5
(S'S4'
p6
I0
I1
tp7
Rp8
(I3
S'|'
p9
NNNI4
I1
I0
tp10
bS'walk'
p11
tp12
Rp13
sS'recipient'
p14
NsS'patient'
p15
NsS'goal'
p16
g4
(g5
(S'S4'
p17
I0
I1
tp18
Rp19
(I3
S'|'
p20
NNNI4
I1
I0
tp21
bS'3516'
p22
tp23
Rp24
sS'source'
p25
Nsa(dp26
g3
g4
(g5
(S'S5'
p27
I0
I1
tp28
Rp29
(I3
S'|'
p30
NNNI5
I1
I0
tp31
bS'bring'
p32
tp33
Rp34
sg14
g4
(g5
(S'S1'
p35
I0
I1
tp36
Rp37
(I3
S'|'
p38
NNNI1
I1
I0
tp39
bS'n'
p40
tp41
Rp42
sg15
g4
(g5
(S'S7'
p43
I0
I1
tp44
Rp45
(I3
S'|'
p46
NNNI7
I1
I0
tp47
bS'oidx_13'
p48
tp49
Rp50
sg16
Nsg25
Nsa(dp51
g3
g4
(g5
(S'S4'
p52
I0
I1
tp53
Rp54
(I3
S'|'
p55
NNNI4
I1
I0
tp56
bS'walk'
p57
tp58
Rp59
sg14
Nsg15
Nsg16
g4
(g5
(S'S4'
p60
I0
I1
tp61
Rp62
(I3
S'|'
p63
NNNI4
I1
I0
tp64
bS'3508'
p65
tp66
Rp67
sg25
Nsaa(lp68
(dp69
S'all'
p70
(lp71
S"go to dave 's office"
p72
asg15
(lp73
sg16
(lp74
S"dave 's office"
p75
aS'd'
p76
aS'd office'
p77
aS'lounge'
p78
aS'go to the lounge'
p79
aS'to the conference room'
p80
aS'conference room'
p81
aS'conference room'
p82
aS'conference room'
p83
aS'conference'
p84
aS'south conference room'
p85
aS'conference room'
p86
aS'conference room'
p87
asg25
(lp88
sg3
(lp89
sg14
(lp90
sa(dp91
g70
(lp92
S'give the pringles to dr nancy nagel'
p93
asg15
(lp94
sg16
(lp95
sg25
(lp96
sg3
(lp97
sg14
(lp98
sa(dp99
g70
(lp100
S'deliver the empty can from peggy parker to richard rogue'
p101
asg15
(lp102
sg16
(lp103
S'peggy parker'
p104
aS'office p'
p105
aS"peggy 's office"
p106
asg25
(lp107
sg3
(lp108
sg14
(lp109
saa(lp110
(g4
(g5
(S'S5'
p111
I0
I1
tp112
Rp113
(I3
S'|'
p114
NNNI5
I1
I0
tp115
bS'block'
p116
tp117
Rp118
I10
I0
tp119
a(g118
I3
I0
tp120
a(g118
I27
I0
tp121
a(g118
I7
I0
tp122
a(g118
I18
I0
tp123
a(g118
I2
I0
tp124
a(g118
I20
I0
tp125
a(g118
I17
I0
tp126
a(g4
(g5
(S'S8'
p127
I0
I1
tp128
Rp129
(I3
S'|'
p130
NNNI8
I1
I0
tp131
bS'cylinder'
p132
tp133
Rp134
I3
I1
tp135
a(g4
(g5
(S'S8'
p136
I0
I1
tp137
Rp138
(I3
S'|'
p139
NNNI8
I1
I0
tp140
bS'pringles'
p141
tp142
Rp143
I10
I0
tp144
a(g143
I3
I0
tp145
a(g143
I27
I0
tp146
a(g143
I7
I0
tp147
a(g143
I18
I0
tp148
a(g143
I2
I0
tp149
a(g143
I20
I0
tp150
a(g143
I17
I0
tp151
a(g4
(g5
(S'S5'
p152
I0
I1
tp153
Rp154
(I3
S'|'
p155
NNNI5
I1
I0
tp156
bS'clear'
p157
tp158
Rp159
I10
I0
tp160
a(g159
I3
I0
tp161
a(g159
I27
I0
tp162
a(g159
I7
I0
tp163
a(g159
I18
I0
tp164
a(g159
I2
I0
tp165
a(g159
I20
I0
tp166
a(g159
I17
I0
tp167
a(g4
(g5
(S'S4'
p168
I0
I1
tp169
Rp170
(I3
S'|'
p171
NNNI4
I1
I0
tp172
bS'bean'
p173
tp174
Rp175
I10
I0
tp176
a(g175
I3
I0
tp177
a(g175
I27
I0
tp178
a(g175
I7
I0
tp179
a(g175
I18
I0
tp180
a(g175
I2
I0
tp181
a(g175
I20
I0
tp182
a(g175
I17
I0
tp183
a(g4
(g5
(S'S3'
p184
I0
I1
tp185
Rp186
(I3
S'|'
p187
NNNI3
I1
I0
tp188
bS'can'
p189
tp190
Rp191
I2
I1
tp192
a(g4
(g5
(S'S5'
p193
I0
I1
tp194
Rp195
(I3
S'|'
p196
NNNI5
I1
I0
tp197
bS'peach'
p198
tp199
Rp200
I10
I0
tp201
a(g200
I3
I0
tp202
a(g200
I27
I0
tp203
a(g200
I7
I0
tp204
a(g200
I18
I0
tp205
a(g200
I2
I0
tp206
a(g200
I20
I0
tp207
a(g200
I17
I0
tp208
a(g4
(g5
(S'S4'
p209
I0
I1
tp210
Rp211
(I3
S'|'
p212
NNNI4
I1
I0
tp213
bS'blue'
p214
tp215
Rp216
I18
I1
tp217
a(g4
(g5
(S'S5'
p218
I0
I1
tp219
Rp220
(I3
S'|'
p221
NNNI5
I1
I0
tp222
bS'empty'
p223
tp224
Rp225
I3
I1
tp226
a(g4
(g5
(S'S9'
p227
I0
I1
tp228
Rp229
(I3
S'|'
p230
NNNI9
I1
I0
tp231
bS'rectangle'
p232
tp233
Rp234
I10
I0
tp235
a(g234
I3
I0
tp236
a(g234
I27
I0
tp237
a(g234
I7
I0
tp238
a(g234
I18
I0
tp239
a(g234
I2
I0
tp240
a(g234
I20
I0
tp241
a(g234
I17
I0
tp242
a(g4
(g5
(S'S8'
p243
I0
I1
tp244
Rp245
(I3
S'|'
p246
NNNI8
I1
I0
tp247
bS'metallic'
p248
tp249
Rp250
I10
I1
tp251
a(g4
(g5
(S'S5'
p252
I0
I1
tp253
Rp254
(I3
S'|'
p255
NNNI5
I1
I0
tp256
bS'spice'
p257
tp258
Rp259
I10
I0
tp260
a(g259
I3
I0
tp261
a(g259
I27
I0
tp262
a(g259
I7
I0
tp263
a(g259
I18
I0
tp264
a(g259
I2
I0
tp265
a(g259
I20
I0
tp266
a(g259
I17
I0
tp267
a(g4
(g5
(S'S4'
p268
I0
I1
tp269
Rp270
(I3
S'|'
p271
NNNI4
I1
I0
tp272
bS'long'
p273
tp274
Rp275
I3
I1
tp276
a(g4
(g5
(S'S6'
p277
I0
I1
tp278
Rp279
(I3
S'|'
p280
NNNI6
I1
I0
tp281
bS'coffee'
p282
tp283
Rp284
I2
I1
tp285
a(g4
(g5
(S'S8'
p286
I0
I1
tp287
Rp288
(I3
S'|'
p289
NNNI8
I1
I0
tp290
bS'metallic'
p291
tp292
Rp293
I18
I0
tp294
aa(lp295
a.