(lp0
(lp1
(dp2
S'action'
p3
cnumpy.core.multiarray
scalar
p4
(cnumpy
dtype
p5
(S'S4'
p6
I0
I1
tp7
Rp8
(I3
S'|'
p9
NNNI4
I1
I0
tp10
bS'walk'
p11
tp12
Rp13
sS'recipient'
p14
NsS'patient'
p15
NsS'goal'
p16
g4
(g5
(S'S4'
p17
I0
I1
tp18
Rp19
(I3
S'|'
p20
NNNI4
I1
I0
tp21
bS'3514'
p22
tp23
Rp24
sS'source'
p25
Nsa(dp26
g3
g4
(g5
(S'S5'
p27
I0
I1
tp28
Rp29
(I3
S'|'
p30
NNNI5
I1
I0
tp31
bS'bring'
p32
tp33
Rp34
sg14
g4
(g5
(S'S1'
p35
I0
I1
tp36
Rp37
(I3
S'|'
p38
NNNI1
I1
I0
tp39
bS'm'
p40
tp41
Rp42
sg15
g4
(g5
(S'S7'
p43
I0
I1
tp44
Rp45
(I3
S'|'
p46
NNNI7
I1
I0
tp47
bS'oidx_22'
p48
tp49
Rp50
sg16
Nsg25
Nsa(dp51
g3
g4
(g5
(S'S4'
p52
I0
I1
tp53
Rp54
(I3
S'|'
p55
NNNI4
I1
I0
tp56
bS'walk'
p57
tp58
Rp59
sg14
Nsg15
Nsg16
g4
(g5
(S'S5'
p60
I0
I1
tp61
Rp62
(I3
S'|'
p63
NNNI5
I1
I0
tp64
bS'3414a'
p65
tp66
Rp67
sg25
Nsaa(lp68
(dp69
S'all'
p70
(lp71
S'you should go to the small lounge located beside the office marked r that belongs to richard rogue secretary'
p72
asg15
(lp73
sg16
(lp74
S'to the lounge next to office r'
p75
aS'ok'
p76
aS'to the lounge next to office r'
p77
aS'go to the small lounge'
p78
aS'go to the other lounge'
p79
asg25
(lp80
sg3
(lp81
sg14
(lp82
sa(dp83
g70
(lp84
S'give the container to mallory mal maroon'
p85
asg15
(lp86
sg16
(lp87
sg25
(lp88
sg3
(lp89
sg14
(lp90
sa(dp91
g70
(lp92
S'go to office w'
p93
asg15
(lp94
sg16
(lp95
S'go to the lab to get the container'
p96
aS'go to the lab'
p97
aS'go to the lab next to the kitchen'
p98
aS'go to the lab to the left of the kitchen'
p99
aS'to the other lab'
p100
aS'go to the lab'
p101
aS'go to the lab'
p102
asg25
(lp103
sg3
(lp104
sg14
(lp105
saa(lp106
(g4
(g5
(S'S9'
p107
I0
I1
tp108
Rp109
(I3
S'|'
p110
NNNI9
I1
I0
tp111
bS'styrofoam'
p112
tp113
Rp114
I20
I1
tp115
a(g4
(g5
(S'S9'
p116
I0
I1
tp117
Rp118
(I3
S'|'
p119
NNNI9
I1
I0
tp120
bS'container'
p121
tp122
Rp123
I2
I1
tp124
a(g4
(g5
(S'S9'
p125
I0
I1
tp126
Rp127
(I3
S'|'
p128
NNNI9
I1
I0
tp129
bS'container'
p130
tp131
Rp132
I27
I0
tp133
a(g4
(g5
(S'S5'
p134
I0
I1
tp135
Rp136
(I3
S'|'
p137
NNNI5
I1
I0
tp138
bS'white'
p139
tp140
Rp141
I10
I0
tp142
a(g141
I3
I0
tp143
a(g141
I27
I0
tp144
a(g141
I7
I0
tp145
a(g141
I18
I0
tp146
a(g141
I2
I0
tp147
a(g141
I20
I0
tp148
a(g141
I17
I0
tp149
a(g4
(g5
(S'S9'
p150
I0
I1
tp151
Rp152
(I3
S'|'
p153
NNNI9
I1
I0
tp154
bS'container'
p155
tp156
Rp157
I10
I1
tp158
a(g4
(g5
(S'S9'
p159
I0
I1
tp160
Rp161
(I3
S'|'
p162
NNNI9
I1
I0
tp163
bS'container'
p164
tp165
Rp166
I2
I0
tp167
a(g4
(g5
(S'S9'
p168
I0
I1
tp169
Rp170
(I3
S'|'
p171
NNNI9
I1
I0
tp172
bS'container'
p173
tp174
Rp175
I18
I1
tp176
a(g4
(g5
(S'S9'
p177
I0
I1
tp178
Rp179
(I3
S'|'
p180
NNNI9
I1
I0
tp181
bS'container'
p182
tp183
Rp184
I17
I0
tp185
a(g4
(g5
(S'S9'
p186
I0
I1
tp187
Rp188
(I3
S'|'
p189
NNNI9
I1
I0
tp190
bS'container'
p191
tp192
Rp193
I3
I0
tp194
a(g4
(g5
(S'S9'
p195
I0
I1
tp196
Rp197
(I3
S'|'
p198
NNNI9
I1
I0
tp199
bS'container'
p200
tp201
Rp202
I7
I1
tp203
a(g4
(g5
(S'S5'
p204
I0
I1
tp205
Rp206
(I3
S'|'
p207
NNNI5
I1
I0
tp208
bS'spice'
p209
tp210
Rp211
I10
I0
tp212
a(g211
I3
I0
tp213
a(g211
I27
I0
tp214
a(g211
I7
I0
tp215
a(g211
I18
I0
tp216
a(g211
I2
I0
tp217
a(g211
I20
I0
tp218
a(g211
I17
I0
tp219
a(g4
(g5
(S'S8'
p220
I0
I1
tp221
Rp222
(I3
S'|'
p223
NNNI8
I1
I0
tp224
bS'cylinder'
p225
tp226
Rp227
I3
I1
tp228
a(g4
(g5
(S'S4'
p229
I0
I1
tp230
Rp231
(I3
S'|'
p232
NNNI4
I1
I0
tp233
bS'long'
p234
tp235
Rp236
I3
I1
tp237
a(g4
(g5
(S'S9'
p238
I0
I1
tp239
Rp240
(I3
S'|'
p241
NNNI9
I1
I0
tp242
bS'styrofoam'
p243
tp244
Rp245
I20
I0
tp246
a(g4
(g5
(S'S9'
p247
I0
I1
tp248
Rp249
(I3
S'|'
p250
NNNI9
I1
I0
tp251
bS'container'
p252
tp253
Rp254
I20
I0
tp255
aa(lp256
a.