(lp0
(lp1
(dp2
S'action'
p3
cnumpy.core.multiarray
scalar
p4
(cnumpy
dtype
p5
(S'S4'
p6
I0
I1
tp7
Rp8
(I3
S'|'
p9
NNNI4
I1
I0
tp10
bS'walk'
p11
tp12
Rp13
sS'recipient'
p14
NsS'patient'
p15
NsS'goal'
p16
g4
(g5
(S'S4'
p17
I0
I1
tp18
Rp19
(I3
S'|'
p20
NNNI4
I1
I0
tp21
bS'3516'
p22
tp23
Rp24
sS'source'
p25
Nsa(dp26
g3
g4
(g5
(S'S5'
p27
I0
I1
tp28
Rp29
(I3
S'|'
p30
NNNI5
I1
I0
tp31
bS'bring'
p32
tp33
Rp34
sg14
g4
(g5
(S'S1'
p35
I0
I1
tp36
Rp37
(I3
S'|'
p38
NNNI1
I1
I0
tp39
bS'm'
p40
tp41
Rp42
sg15
g4
(g5
(S'S7'
p43
I0
I1
tp44
Rp45
(I3
S'|'
p46
NNNI7
I1
I0
tp47
bS'oidx_13'
p48
tp49
Rp50
sg16
Nsg25
Nsa(dp51
g3
g4
(g5
(S'S4'
p52
I0
I1
tp53
Rp54
(I3
S'|'
p55
NNNI4
I1
I0
tp56
bS'walk'
p57
tp58
Rp59
sg14
Nsg15
Nsg16
g4
(g5
(S'S4'
p60
I0
I1
tp61
Rp62
(I3
S'|'
p63
NNNI4
I1
I0
tp64
bS'3430'
p65
tp66
Rp67
sg25
Nsaa(lp68
(dp69
S'all'
p70
(lp71
S'go to the conference room between the lounge and the pod'
p72
asg15
(lp73
sg16
(lp74
S'go to the conference room between the lounge and the pod'
p75
aS'go to the conference room'
p76
asg25
(lp77
sg3
(lp78
sg14
(lp79
sa(dp80
g70
(lp81
S"pick up the pringle 's container and take it to m"
p82
asg15
(lp83
S'the blue container'
p84
asg16
(lp85
sg25
(lp86
sg3
(lp87
sg14
(lp88
S'mallory'
p89
asa(dp90
g70
(lp91
S'take the yellow container from sybil to walter'
p92
asg15
(lp93
sg16
(lp94
S"sybil 's office"
p95
asg25
(lp96
sg3
(lp97
sg14
(lp98
saa(lp99
(g4
(g5
(S'S6'
p100
I0
I1
tp101
Rp102
(I3
S'|'
p103
NNNI6
I1
I0
tp104
bS'coffee'
p105
tp106
Rp107
I2
I1
tp108
a(g4
(g5
(S'S9'
p109
I0
I1
tp110
Rp111
(I3
S'|'
p112
NNNI9
I1
I0
tp113
bS'container'
p114
tp115
Rp116
I18
I1
tp117
a(g4
(g5
(S'S6'
p118
I0
I1
tp119
Rp120
(I3
S'|'
p121
NNNI6
I1
I0
tp122
bS'coffee'
p123
tp124
Rp125
I27
I0
tp126
a(g4
(g5
(S'S5'
p127
I0
I1
tp128
Rp129
(I3
S'|'
p130
NNNI5
I1
I0
tp131
bS'white'
p132
tp133
Rp134
I10
I0
tp135
a(g134
I3
I0
tp136
a(g134
I27
I0
tp137
a(g134
I7
I0
tp138
a(g134
I18
I0
tp139
a(g134
I2
I0
tp140
a(g134
I20
I0
tp141
a(g134
I17
I0
tp142
a(g4
(g5
(S'S5'
p143
I0
I1
tp144
Rp145
(I3
S'|'
p146
NNNI5
I1
I0
tp147
bS'peach'
p148
tp149
Rp150
I10
I0
tp151
a(g150
I3
I0
tp152
a(g150
I27
I0
tp153
a(g150
I7
I0
tp154
a(g150
I18
I0
tp155
a(g150
I2
I0
tp156
a(g150
I20
I0
tp157
a(g150
I17
I0
tp158
a(g4
(g5
(S'S4'
p159
I0
I1
tp160
Rp161
(I3
S'|'
p162
NNNI4
I1
I0
tp163
bS'blue'
p164
tp165
Rp166
I18
I1
tp167
a(g4
(g5
(S'S9'
p168
I0
I1
tp169
Rp170
(I3
S'|'
p171
NNNI9
I1
I0
tp172
bS'container'
p173
tp174
Rp175
I27
I0
tp176
a(g4
(g5
(S'S9'
p177
I0
I1
tp178
Rp179
(I3
S'|'
p180
NNNI9
I1
I0
tp181
bS'container'
p182
tp183
Rp184
I2
I1
tp185
a(g4
(g5
(S'S9'
p186
I0
I1
tp187
Rp188
(I3
S'|'
p189
NNNI9
I1
I0
tp190
bS'container'
p191
tp192
Rp193
I20
I0
tp194
a(g4
(g5
(S'S9'
p195
I0
I1
tp196
Rp197
(I3
S'|'
p198
NNNI9
I1
I0
tp199
bS'container'
p200
tp201
Rp202
I7
I0
tp203
a(g4
(g5
(S'S6'
p204
I0
I1
tp205
Rp206
(I3
S'|'
p207
NNNI6
I1
I0
tp208
bS'yellow'
p209
tp210
Rp211
I10
I0
tp212
a(g211
I3
I0
tp213
a(g211
I27
I0
tp214
a(g211
I7
I0
tp215
a(g211
I18
I0
tp216
a(g211
I2
I0
tp217
a(g211
I20
I0
tp218
a(g211
I17
I0
tp219
a(g4
(g5
(S'S6'
p220
I0
I1
tp221
Rp222
(I3
S'|'
p223
NNNI6
I1
I0
tp224
bS'column'
p225
tp226
Rp227
I3
I1
tp228
a(g4
(g5
(S'S9'
p229
I0
I1
tp230
Rp231
(I3
S'|'
p232
NNNI9
I1
I0
tp233
bS'rectangle'
p234
tp235
Rp236
I10
I0
tp237
a(g236
I3
I0
tp238
a(g236
I27
I0
tp239
a(g236
I7
I0
tp240
a(g236
I18
I0
tp241
a(g236
I2
I0
tp242
a(g236
I20
I0
tp243
a(g236
I17
I0
tp244
a(g4
(g5
(S'S9'
p245
I0
I1
tp246
Rp247
(I3
S'|'
p248
NNNI9
I1
I0
tp249
bS'container'
p250
tp251
Rp252
I2
I1
tp253
a(g4
(g5
(S'S3'
p254
I0
I1
tp255
Rp256
(I3
S'|'
p257
NNNI3
I1
I0
tp258
bS'can'
p259
tp260
Rp261
I2
I1
tp262
aa(lp263
a.