(lp0
(lp1
(dp2
S'action'
p3
cnumpy.core.multiarray
scalar
p4
(cnumpy
dtype
p5
(S'S4'
p6
I0
I1
tp7
Rp8
(I3
S'|'
p9
NNNI4
I1
I0
tp10
bS'walk'
p11
tp12
Rp13
sS'recipient'
p14
NsS'patient'
p15
NsS'goal'
p16
g4
(g5
(S'S4'
p17
I0
I1
tp18
Rp19
(I3
S'|'
p20
NNNI4
I1
I0
tp21
bS'3520'
p22
tp23
Rp24
sS'source'
p25
Nsa(dp26
g3
g4
(g5
(S'S5'
p27
I0
I1
tp28
Rp29
(I3
S'|'
p30
NNNI5
I1
I0
tp31
bS'bring'
p32
tp33
Rp34
sg14
g4
(g5
(S'S1'
p35
I0
I1
tp36
Rp37
(I3
S'|'
p38
NNNI1
I1
I0
tp39
bS'n'
p40
tp41
Rp42
sg15
g4
(g5
(S'S7'
p43
I0
I1
tp44
Rp45
(I3
S'|'
p46
NNNI7
I1
I0
tp47
bS'oidx_13'
p48
tp49
Rp50
sg16
Nsg25
Nsa(dp51
g3
g4
(g5
(S'S4'
p52
I0
I1
tp53
Rp54
(I3
S'|'
p55
NNNI4
I1
I0
tp56
bS'move'
p57
tp58
Rp59
sg14
Nsg15
g4
(g5
(S'S7'
p60
I0
I1
tp61
Rp62
(I3
S'|'
p63
NNNI7
I1
I0
tp64
bS'oidx_25'
p65
tp66
Rp67
sg16
g4
(g5
(S'S4'
p68
I0
I1
tp69
Rp70
(I3
S'|'
p71
NNNI4
I1
I0
tp72
bS'3404'
p73
tp74
Rp75
sg25
g4
(g5
(S'S4'
p76
I0
I1
tp77
Rp78
(I3
S'|'
p79
NNNI4
I1
I0
tp80
bS'3410'
p81
tp82
Rp83
saa(lp84
(dp85
S'all'
p86
(lp87
S'go to the kitchen'
p88
asg15
(lp89
sg16
(lp90
S'to the kitchen'
p91
asg25
(lp92
sg3
(lp93
sg14
(lp94
sa(dp95
g86
(lp96
S'give dr nancy nagel the long blue can of chips'
p97
asg15
(lp98
sg16
(lp99
sg25
(lp100
sg3
(lp101
sg14
(lp102
sa(dp103
g86
(lp104
S"take the container from the pod room to dr nancy nagel 's office"
p105
asg15
(lp106
sg16
(lp107
sg25
(lp108
sg3
(lp109
sg14
(lp110
saa(lp111
(g4
(g5
(S'S4'
p112
I0
I1
tp113
Rp114
(I3
S'|'
p115
NNNI4
I1
I0
tp116
bS'long'
p117
tp118
Rp119
I3
I1
tp120
a(g4
(g5
(S'S9'
p121
I0
I1
tp122
Rp123
(I3
S'|'
p124
NNNI9
I1
I0
tp125
bS'container'
p126
tp127
Rp128
I2
I1
tp129
a(g4
(g5
(S'S6'
p130
I0
I1
tp131
Rp132
(I3
S'|'
p133
NNNI6
I1
I0
tp134
bS'column'
p135
tp136
Rp137
I10
I0
tp138
a(g137
I3
I0
tp139
a(g137
I27
I0
tp140
a(g137
I7
I0
tp141
a(g137
I18
I0
tp142
a(g137
I2
I0
tp143
a(g137
I20
I0
tp144
a(g137
I17
I0
tp145
a(g4
(g5
(S'S4'
p146
I0
I1
tp147
Rp148
(I3
S'|'
p149
NNNI4
I1
I0
tp150
bS'blue'
p151
tp152
Rp153
I18
I1
tp154
a(g4
(g5
(S'S9'
p155
I0
I1
tp156
Rp157
(I3
S'|'
p158
NNNI9
I1
I0
tp159
bS'rectangle'
p160
tp161
Rp162
I10
I0
tp163
a(g162
I3
I0
tp164
a(g162
I27
I0
tp165
a(g162
I7
I0
tp166
a(g162
I18
I0
tp167
a(g162
I2
I0
tp168
a(g162
I20
I0
tp169
a(g162
I17
I0
tp170
a(g4
(g5
(S'S4'
p171
I0
I1
tp172
Rp173
(I3
S'|'
p174
NNNI4
I1
I0
tp175
bS'long'
p176
tp177
Rp178
I27
I0
tp179
a(g4
(g5
(S'S3'
p180
I0
I1
tp181
Rp182
(I3
S'|'
p183
NNNI3
I1
I0
tp184
bS'can'
p185
tp186
Rp187
I10
I1
tp188
a(g4
(g5
(S'S4'
p189
I0
I1
tp190
Rp191
(I3
S'|'
p192
NNNI4
I1
I0
tp193
bS'long'
p194
tp195
Rp196
I3
I1
tp197
a(g4
(g5
(S'S3'
p198
I0
I1
tp199
Rp200
(I3
S'|'
p201
NNNI3
I1
I0
tp202
bS'can'
p203
tp204
Rp205
I3
I0
tp206
a(g4
(g5
(S'S4'
p207
I0
I1
tp208
Rp209
(I3
S'|'
p210
NNNI4
I1
I0
tp211
bS'long'
p212
tp213
Rp214
I27
I0
tp215
a(g4
(g5
(S'S9'
p216
I0
I1
tp217
Rp218
(I3
S'|'
p219
NNNI9
I1
I0
tp220
bS'container'
p221
tp222
Rp223
I27
I0
tp224
a(g4
(g5
(S'S9'
p225
I0
I1
tp226
Rp227
(I3
S'|'
p228
NNNI9
I1
I0
tp229
bS'container'
p230
tp231
Rp232
I2
I1
tp233
a(g4
(g5
(S'S9'
p234
I0
I1
tp235
Rp236
(I3
S'|'
p237
NNNI9
I1
I0
tp238
bS'container'
p239
tp240
Rp241
I3
I0
tp242
a(g4
(g5
(S'S9'
p243
I0
I1
tp244
Rp245
(I3
S'|'
p246
NNNI9
I1
I0
tp247
bS'container'
p248
tp249
Rp250
I17
I1
tp251
a(g4
(g5
(S'S9'
p252
I0
I1
tp253
Rp254
(I3
S'|'
p255
NNNI9
I1
I0
tp256
bS'container'
p257
tp258
Rp259
I20
I0
tp260
aa(lp261
a.