(lp0
(lp1
(dp2
S'action'
p3
cnumpy.core.multiarray
scalar
p4
(cnumpy
dtype
p5
(S'S4'
p6
I0
I1
tp7
Rp8
(I3
S'|'
p9
NNNI4
I1
I0
tp10
bS'walk'
p11
tp12
Rp13
sS'recipient'
p14
NsS'patient'
p15
NsS'goal'
p16
g4
(g5
(S'S4'
p17
I0
I1
tp18
Rp19
(I3
S'|'
p20
NNNI4
I1
I0
tp21
bS'3514'
p22
tp23
Rp24
sS'source'
p25
Nsa(dp26
g3
g4
(g5
(S'S4'
p27
I0
I1
tp28
Rp29
(I3
S'|'
p30
NNNI4
I1
I0
tp31
bS'walk'
p32
tp33
Rp34
sg14
Nsg15
Nsg16
g4
(g5
(S'S4'
p35
I0
I1
tp36
Rp37
(I3
S'|'
p38
NNNI4
I1
I0
tp39
bS'3420'
p40
tp41
Rp42
sg25
Nsa(dp43
g3
g4
(g5
(S'S4'
p44
I0
I1
tp45
Rp46
(I3
S'|'
p47
NNNI4
I1
I0
tp48
bS'move'
p49
tp50
Rp51
sg14
Nsg15
g4
(g5
(S'S7'
p52
I0
I1
tp53
Rp54
(I3
S'|'
p55
NNNI7
I1
I0
tp56
bS'oidx_28'
p57
tp58
Rp59
sg16
g4
(g5
(S'S4'
p60
I0
I1
tp61
Rp62
(I3
S'|'
p63
NNNI4
I1
I0
tp64
bS'3514'
p65
tp66
Rp67
sg25
g4
(g5
(S'S4'
p68
I0
I1
tp69
Rp70
(I3
S'|'
p71
NNNI4
I1
I0
tp72
bS'3514'
p73
tp74
Rp75
saa(lp76
(dp77
S'all'
p78
(lp79
S'go to office r'
p80
asg15
(lp81
sg16
(lp82
S'go to the lounge'
p83
aS'lounge'
p84
aS'the lounge'
p85
aS'go to the kitchen'
p86
aS'go to the lab'
p87
asg25
(lp88
sg3
(lp89
sg14
(lp90
sa(dp91
g78
(lp92
S'take the object to david dave daniel'
p93
asg15
(lp94
sg16
(lp95
S'david dave"daniel'
p96
aS'david dave daniel'
p97
aS'david dave daniel'
p98
aS'david dave daniel'
p99
aS'david'
p100
aS'go to david dave daniel office'
p101
asg25
(lp102
sg3
(lp103
sg14
(lp104
sa(dp105
g78
(lp106
S'take the container of chips to the lounge'
p107
asg15
(lp108
sg16
(lp109
sg25
(lp110
sg3
(lp111
sg14
(lp112
saa(lp113
(g4
(g5
(S'S6'
p114
I0
I1
tp115
Rp116
(I3
S'|'
p117
NNNI6
I1
I0
tp118
bS'yellow'
p119
tp120
Rp121
I10
I0
tp122
a(g121
I3
I0
tp123
a(g121
I27
I0
tp124
a(g121
I7
I0
tp125
a(g121
I18
I0
tp126
a(g121
I2
I0
tp127
a(g121
I20
I0
tp128
a(g121
I17
I0
tp129
a(g4
(g5
(S'S4'
p130
I0
I1
tp131
Rp132
(I3
S'|'
p133
NNNI4
I1
I0
tp134
bS'long'
p135
tp136
Rp137
I3
I1
tp138
a(g4
(g5
(S'S5'
p139
I0
I1
tp140
Rp141
(I3
S'|'
p142
NNNI5
I1
I0
tp143
bS'peach'
p144
tp145
Rp146
I10
I0
tp147
a(g146
I3
I0
tp148
a(g146
I27
I0
tp149
a(g146
I7
I0
tp150
a(g146
I18
I0
tp151
a(g146
I2
I0
tp152
a(g146
I20
I0
tp153
a(g146
I17
I0
tp154
a(g4
(g5
(S'S5'
p155
I0
I1
tp156
Rp157
(I3
S'|'
p158
NNNI5
I1
I0
tp159
bS'white'
p160
tp161
Rp162
I10
I0
tp163
a(g162
I3
I0
tp164
a(g162
I27
I0
tp165
a(g162
I7
I0
tp166
a(g162
I18
I0
tp167
a(g162
I2
I0
tp168
a(g162
I20
I0
tp169
a(g162
I17
I0
tp170
a(g4
(g5
(S'S6'
p171
I0
I1
tp172
Rp173
(I3
S'|'
p174
NNNI6
I1
I0
tp175
bS'coffee'
p176
tp177
Rp178
I10
I0
tp179
a(g178
I3
I0
tp180
a(g178
I27
I0
tp181
a(g178
I7
I0
tp182
a(g178
I18
I0
tp183
a(g178
I2
I0
tp184
a(g178
I20
I0
tp185
a(g178
I17
I0
tp186
a(g4
(g5
(S'S9'
p187
I0
I1
tp188
Rp189
(I3
S'|'
p190
NNNI9
I1
I0
tp191
bS'styrofoam'
p192
tp193
Rp194
I20
I1
tp195
a(g4
(g5
(S'S9'
p196
I0
I1
tp197
Rp198
(I3
S'|'
p199
NNNI9
I1
I0
tp200
bS'rectangle'
p201
tp202
Rp203
I10
I0
tp204
a(g203
I3
I0
tp205
a(g203
I27
I0
tp206
a(g203
I7
I0
tp207
a(g203
I18
I0
tp208
a(g203
I2
I0
tp209
a(g203
I20
I0
tp210
a(g203
I17
I0
tp211
a(g4
(g5
(S'S5'
p212
I0
I1
tp213
Rp214
(I3
S'|'
p215
NNNI5
I1
I0
tp216
bS'clear'
p217
tp218
Rp219
I10
I0
tp220
a(g219
I3
I0
tp221
a(g219
I27
I0
tp222
a(g219
I7
I0
tp223
a(g219
I18
I0
tp224
a(g219
I2
I0
tp225
a(g219
I20
I0
tp226
a(g219
I17
I0
tp227
a(g4
(g5
(S'S4'
p228
I0
I1
tp229
Rp230
(I3
S'|'
p231
NNNI4
I1
I0
tp232
bS'long'
p233
tp234
Rp235
I10
I0
tp236
a(g4
(g5
(S'S4'
p237
I0
I1
tp238
Rp239
(I3
S'|'
p240
NNNI4
I1
I0
tp241
bS'bean'
p242
tp243
Rp244
I10
I0
tp245
a(g244
I3
I0
tp246
a(g244
I27
I0
tp247
a(g244
I7
I0
tp248
a(g244
I18
I0
tp249
a(g244
I2
I0
tp250
a(g244
I20
I0
tp251
a(g244
I17
I0
tp252
a(g4
(g5
(S'S9'
p253
I0
I1
tp254
Rp255
(I3
S'|'
p256
NNNI9
I1
I0
tp257
bS'container'
p258
tp259
Rp260
I2
I1
tp261
a(g4
(g5
(S'S5'
p262
I0
I1
tp263
Rp264
(I3
S'|'
p265
NNNI5
I1
I0
tp266
bS'chips'
p267
tp268
Rp269
I10
I0
tp270
a(g269
I3
I0
tp271
a(g269
I27
I0
tp272
a(g269
I7
I0
tp273
a(g269
I18
I0
tp274
a(g269
I2
I0
tp275
a(g269
I20
I0
tp276
a(g269
I17
I0
tp277
a(g4
(g5
(S'S9'
p278
I0
I1
tp279
Rp280
(I3
S'|'
p281
NNNI9
I1
I0
tp282
bS'container'
p283
tp284
Rp285
I27
I0
tp286
a(g4
(g5
(S'S9'
p287
I0
I1
tp288
Rp289
(I3
S'|'
p290
NNNI9
I1
I0
tp291
bS'container'
p292
tp293
Rp294
I2
I1
tp295
a(g4
(g5
(S'S9'
p296
I0
I1
tp297
Rp298
(I3
S'|'
p299
NNNI9
I1
I0
tp300
bS'container'
p301
tp302
Rp303
I20
I0
tp304
aa(lp305
(S'object'
p306
S'container'
p307
I01
tp308
a(S'chips'
p309
S'metallic'
p310
I00
tp311
a(g309
S'beans'
p312
I00
tp313
a(g309
S'spices'
p314
I00
tp315
aa.