(lp0
(lp1
(dp2
S'action'
p3
cnumpy.core.multiarray
scalar
p4
(cnumpy
dtype
p5
(S'S4'
p6
I0
I1
tp7
Rp8
(I3
S'|'
p9
NNNI4
I1
I0
tp10
bS'walk'
p11
tp12
Rp13
sS'recipient'
p14
NsS'patient'
p15
NsS'goal'
p16
g4
(g5
(S'S4'
p17
I0
I1
tp18
Rp19
(I3
S'|'
p20
NNNI4
I1
I0
tp21
bS'3520'
p22
tp23
Rp24
sS'source'
p25
Nsa(dp26
g3
g4
(g5
(S'S5'
p27
I0
I1
tp28
Rp29
(I3
S'|'
p30
NNNI5
I1
I0
tp31
bS'bring'
p32
tp33
Rp34
sg14
S'n'
p35
sg15
S'oidx_6'
p36
sg16
Nsg25
Nsa(dp37
g3
g4
(g5
(S'S4'
p38
I0
I1
tp39
Rp40
(I3
S'|'
p41
NNNI4
I1
I0
tp42
bS'walk'
p43
tp44
Rp45
sg14
Nsg15
Nsg16
g4
(g5
(S'S4'
p46
I0
I1
tp47
Rp48
(I3
S'|'
p49
NNNI4
I1
I0
tp50
bS'3406'
p51
tp52
Rp53
sg25
Nsaa(lp54
(dp55
S'all'
p56
(lp57
S'go to the kitchen'
p58
asg15
(lp59
sg16
(lp60
S'the kitchen'
p61
aS'go to the kitchen'
p62
asg25
(lp63
sg3
(lp64
sg14
(lp65
sa(dp66
g56
(lp67
S'get dr nancy nagel the medicine bottle'
p68
asg15
(lp69
S'a medicine bottle it is a small white container'
p70
asg16
(lp71
sg25
(lp72
sg3
(lp73
sg14
(lp74
sa(dp75
g56
(lp76
S'go get a clear bottle with a red lid from the lounge and take it to the pod room'
p77
asg15
(lp78
sg16
(lp79
S'go to the lounge'
p80
asg25
(lp81
sg3
(lp82
sg14
(lp83
saa(lp84
(g4
(g5
(S'S5'
p85
I0
I1
tp86
Rp87
(I3
S'|'
p88
NNNI5
I1
I0
tp89
bS'tower'
p90
tp91
Rp92
I10
I0
tp93
a(g92
I3
I0
tp94
a(g92
I27
I0
tp95
a(g92
I7
I0
tp96
a(g92
I18
I0
tp97
a(g92
I2
I0
tp98
a(g92
I20
I0
tp99
a(g92
I17
I0
tp100
a(g4
(g5
(S'S9'
p101
I0
I1
tp102
Rp103
(I3
S'|'
p104
NNNI9
I1
I0
tp105
bS'container'
p106
tp107
Rp108
I2
I1
tp109
a(g4
(g5
(S'S5'
p110
I0
I1
tp111
Rp112
(I3
S'|'
p113
NNNI5
I1
I0
tp114
bS'empty'
p115
tp116
Rp117
I3
I1
tp118
a(g4
(g5
(S'S8'
p119
I0
I1
tp120
Rp121
(I3
S'|'
p122
NNNI8
I1
I0
tp123
bS'pringles'
p124
tp125
Rp126
I10
I0
tp127
a(g126
I3
I0
tp128
a(g126
I27
I0
tp129
a(g126
I7
I0
tp130
a(g126
I18
I0
tp131
a(g126
I2
I0
tp132
a(g126
I20
I0
tp133
a(g126
I17
I0
tp134
a(g4
(g5
(S'S6'
p135
I0
I1
tp136
Rp137
(I3
S'|'
p138
NNNI6
I1
I0
tp139
bS'coffee'
p140
tp141
Rp142
I10
I0
tp143
a(g142
I3
I0
tp144
a(g142
I27
I0
tp145
a(g142
I7
I0
tp146
a(g142
I18
I0
tp147
a(g142
I2
I0
tp148
a(g142
I20
I0
tp149
a(g142
I17
I0
tp150
a(g4
(g5
(S'S4'
p151
I0
I1
tp152
Rp153
(I3
S'|'
p154
NNNI4
I1
I0
tp155
bS'long'
p156
tp157
Rp158
I3
I1
tp159
a(g4
(g5
(S'S6'
p160
I0
I1
tp161
Rp162
(I3
S'|'
p163
NNNI6
I1
I0
tp164
bS'yellow'
p165
tp166
Rp167
I10
I0
tp168
a(g167
I3
I0
tp169
a(g167
I27
I0
tp170
a(g167
I7
I0
tp171
a(g167
I18
I0
tp172
a(g167
I2
I0
tp173
a(g167
I20
I0
tp174
a(g167
I17
I0
tp175
a(g4
(g5
(S'S8'
p176
I0
I1
tp177
Rp178
(I3
S'|'
p179
NNNI8
I1
I0
tp180
bS'cylinder'
p181
tp182
Rp183
I7
I1
tp184
a(g4
(g5
(S'S5'
p185
I0
I1
tp186
Rp187
(I3
S'|'
p188
NNNI5
I1
I0
tp189
bS'clear'
p190
tp191
Rp192
I10
I0
tp193
a(g192
I3
I0
tp194
a(g192
I27
I0
tp195
a(g192
I7
I0
tp196
a(g192
I18
I0
tp197
a(g192
I2
I0
tp198
a(g192
I20
I0
tp199
a(g192
I17
I0
tp200
a(g4
(g5
(S'S4'
p201
I0
I1
tp202
Rp203
(I3
S'|'
p204
NNNI4
I1
I0
tp205
bS'blue'
p206
tp207
Rp208
I18
I1
tp209
aa(lp210
(S'small'
p211
S'white'
p212
I00
tp213
a(S'red'
p214
g212
I00
tp215
a(g214
S'yellow'
p216
I00
tp217
a(g214
S'blue'
p218
I00
tp219
aa.