(lp0
(lp1
(dp2
S'action'
p3
cnumpy.core.multiarray
scalar
p4
(cnumpy
dtype
p5
(S'S4'
p6
I0
I1
tp7
Rp8
(I3
S'|'
p9
NNNI4
I1
I0
tp10
bS'walk'
p11
tp12
Rp13
sS'recipient'
p14
NsS'patient'
p15
NsS'goal'
p16
g4
(g5
(S'S4'
p17
I0
I1
tp18
Rp19
(I3
S'|'
p20
NNNI4
I1
I0
tp21
bS'3418'
p22
tp23
Rp24
sS'source'
p25
Nsa(dp26
g3
g4
(g5
(S'S5'
p27
I0
I1
tp28
Rp29
(I3
S'|'
p30
NNNI5
I1
I0
tp31
bS'bring'
p32
tp33
Rp34
sg14
g4
(g5
(S'S1'
p35
I0
I1
tp36
Rp37
(I3
S'|'
p38
NNNI1
I1
I0
tp39
bS'w'
p40
tp41
Rp42
sg15
g4
(g5
(S'S7'
p43
I0
I1
tp44
Rp45
(I3
S'|'
p46
NNNI7
I1
I0
tp47
bS'oidx_25'
p48
tp49
Rp50
sg16
Nsg25
Nsa(dp51
g3
g4
(g5
(S'S4'
p52
I0
I1
tp53
Rp54
(I3
S'|'
p55
NNNI4
I1
I0
tp56
bS'walk'
p57
tp58
Rp59
sg14
Nsg15
Nsg16
g4
(g5
(S'S4'
p60
I0
I1
tp61
Rp62
(I3
S'|'
p63
NNNI4
I1
I0
tp64
bS'3520'
p65
tp66
Rp67
sg25
Nsaa(lp68
(dp69
S'all'
p70
(lp71
S'go to the office beside the conference room'
p72
asg15
(lp73
sg16
(lp74
sg25
(lp75
sg3
(lp76
sg14
(lp77
sa(dp78
g70
(lp79
S'give the person the can'
p80
asg15
(lp81
sg16
(lp82
sg25
(lp83
sg3
(lp84
sg14
(lp85
sa(dp86
g70
(lp87
S'take the styrofoam to the kitchen and the pod'
p88
asg15
(lp89
sg16
(lp90
S'to the kitchen and the pod'
p91
aS'to the kitchen and the pod'
p92
aS'to the pod to the left of where you are'
p93
aS'to the kitchen or pod'
p94
aS'to the kitchen'
p95
aS'go to the kitchen'
p96
aS'you should go to the kitchen'
p97
asg25
(lp98
sg3
(lp99
sg14
(lp100
saa(lp101
(g4
(g5
(S'S5'
p102
I0
I1
tp103
Rp104
(I3
S'|'
p105
NNNI5
I1
I0
tp106
bS'block'
p107
tp108
Rp109
I10
I0
tp110
a(g109
I3
I0
tp111
a(g109
I27
I0
tp112
a(g109
I7
I0
tp113
a(g109
I18
I0
tp114
a(g109
I2
I0
tp115
a(g109
I20
I0
tp116
a(g109
I17
I0
tp117
a(g4
(g5
(S'S5'
p118
I0
I1
tp119
Rp120
(I3
S'|'
p121
NNNI5
I1
I0
tp122
bS'spice'
p123
tp124
Rp125
I10
I0
tp126
a(g125
I3
I0
tp127
a(g125
I27
I0
tp128
a(g125
I7
I0
tp129
a(g125
I18
I0
tp130
a(g125
I2
I0
tp131
a(g125
I20
I0
tp132
a(g125
I17
I0
tp133
a(g4
(g5
(S'S4'
p134
I0
I1
tp135
Rp136
(I3
S'|'
p137
NNNI4
I1
I0
tp138
bS'bean'
p139
tp140
Rp141
I2
I1
tp142
a(g4
(g5
(S'S5'
p143
I0
I1
tp144
Rp145
(I3
S'|'
p146
NNNI5
I1
I0
tp147
bS'empty'
p148
tp149
Rp150
I2
I1
tp151
a(g4
(g5
(S'S6'
p152
I0
I1
tp153
Rp154
(I3
S'|'
p155
NNNI6
I1
I0
tp156
bS'coffee'
p157
tp158
Rp159
I10
I1
tp160
a(g4
(g5
(S'S3'
p161
I0
I1
tp162
Rp163
(I3
S'|'
p164
NNNI3
I1
I0
tp165
bS'can'
p166
tp167
Rp168
I2
I1
tp169
a(g4
(g5
(S'S3'
p170
I0
I1
tp171
Rp172
(I3
S'|'
p173
NNNI3
I1
I0
tp174
bS'can'
p175
tp176
Rp177
I20
I0
tp178
a(g4
(g5
(S'S3'
p179
I0
I1
tp180
Rp181
(I3
S'|'
p182
NNNI3
I1
I0
tp183
bS'can'
p184
tp185
Rp186
I2
I1
tp187
a(g4
(g5
(S'S3'
p188
I0
I1
tp189
Rp190
(I3
S'|'
p191
NNNI3
I1
I0
tp192
bS'can'
p193
tp194
Rp195
I3
I0
tp196
a(g4
(g5
(S'S3'
p197
I0
I1
tp198
Rp199
(I3
S'|'
p200
NNNI3
I1
I0
tp201
bS'can'
p202
tp203
Rp204
I2
I1
tp205
a(g4
(g5
(S'S8'
p206
I0
I1
tp207
Rp208
(I3
S'|'
p209
NNNI8
I1
I0
tp210
bS'cylinder'
p211
tp212
Rp213
I3
I1
tp214
a(g4
(g5
(S'S5'
p215
I0
I1
tp216
Rp217
(I3
S'|'
p218
NNNI5
I1
I0
tp219
bS'clear'
p220
tp221
Rp222
I10
I0
tp223
a(g222
I3
I0
tp224
a(g222
I27
I0
tp225
a(g222
I7
I0
tp226
a(g222
I18
I0
tp227
a(g222
I2
I0
tp228
a(g222
I20
I0
tp229
a(g222
I17
I0
tp230
a(g4
(g5
(S'S9'
p231
I0
I1
tp232
Rp233
(I3
S'|'
p234
NNNI9
I1
I0
tp235
bS'styrofoam'
p236
tp237
Rp238
I20
I1
tp239
a(g4
(g5
(S'S4'
p240
I0
I1
tp241
Rp242
(I3
S'|'
p243
NNNI4
I1
I0
tp244
bS'bean'
p245
tp246
Rp247
I27
I0
tp248
a(g4
(g5
(S'S6'
p249
I0
I1
tp250
Rp251
(I3
S'|'
p252
NNNI6
I1
I0
tp253
bS'yellow'
p254
tp255
Rp256
I10
I0
tp257
a(g256
I3
I0
tp258
a(g256
I27
I0
tp259
a(g256
I7
I0
tp260
a(g256
I18
I0
tp261
a(g256
I2
I0
tp262
a(g256
I20
I0
tp263
a(g256
I17
I0
tp264
aa(lp265
a.