(lp0
(lp1
(dp2
S'action'
p3
cnumpy.core.multiarray
scalar
p4
(cnumpy
dtype
p5
(S'S4'
p6
I0
I1
tp7
Rp8
(I3
S'|'
p9
NNNI4
I1
I0
tp10
bS'walk'
p11
tp12
Rp13
sS'recipient'
p14
NsS'patient'
p15
NsS'goal'
p16
g4
(g5
(S'S4'
p17
I0
I1
tp18
Rp19
(I3
S'|'
p20
NNNI4
I1
I0
tp21
bS'3406'
p22
tp23
Rp24
sS'source'
p25
Nsa(dp26
g3
g4
(g5
(S'S4'
p27
I0
I1
tp28
Rp29
(I3
S'|'
p30
NNNI4
I1
I0
tp31
bS'walk'
p32
tp33
Rp34
sg14
Nsg15
Nsg16
g4
(g5
(S'S4'
p35
I0
I1
tp36
Rp37
(I3
S'|'
p38
NNNI4
I1
I0
tp39
bS'3422'
p40
tp41
Rp42
sg25
Nsa(dp43
g3
g4
(g5
(S'S5'
p44
I0
I1
tp45
Rp46
(I3
S'|'
p47
NNNI5
I1
I0
tp48
bS'bring'
p49
tp50
Rp51
sg14
S's'
p52
sg15
S'oidx_7'
p53
sg16
Nsg25
Nsaa(lp54
(dp55
S'all'
p56
(lp57
S'go to the lounge'
p58
asg15
(lp59
sg16
(lp60
S'lounge'
p61
asg25
(lp62
sg3
(lp63
sg14
(lp64
sa(dp65
g56
(lp66
S'take the bottle to walter ward'
p67
asg15
(lp68
sg16
(lp69
S'office w'
p70
aS'walter ward"s office'
p71
asg25
(lp72
sg3
(lp73
sg14
(lp74
sa(dp75
g56
(lp76
S'pick up can in conference on pink map'
p77
asg15
(lp78
sg16
(lp79
sg25
(lp80
sg3
(lp81
sg14
(lp82
saa(lp83
(g4
(g5
(S'S5'
p84
I0
I1
tp85
Rp86
(I3
S'|'
p87
NNNI5
I1
I0
tp88
bS'clear'
p89
tp90
Rp91
I10
I0
tp92
a(g91
I3
I0
tp93
a(g91
I27
I0
tp94
a(g91
I7
I0
tp95
a(g91
I18
I0
tp96
a(g91
I2
I0
tp97
a(g91
I20
I0
tp98
a(g91
I17
I0
tp99
a(g4
(g5
(S'S8'
p100
I0
I1
tp101
Rp102
(I3
S'|'
p103
NNNI8
I1
I0
tp104
bS'metallic'
p105
tp106
Rp107
I10
I0
tp108
a(g107
I3
I0
tp109
a(g107
I27
I0
tp110
a(g107
I7
I0
tp111
a(g107
I18
I0
tp112
a(g107
I2
I0
tp113
a(g107
I20
I0
tp114
a(g107
I17
I0
tp115
a(g4
(g5
(S'S9'
p116
I0
I1
tp117
Rp118
(I3
S'|'
p119
NNNI9
I1
I0
tp120
bS'styrofoam'
p121
tp122
Rp123
I10
I0
tp124
a(g123
I3
I0
tp125
a(g123
I27
I0
tp126
a(g123
I7
I0
tp127
a(g123
I18
I0
tp128
a(g123
I2
I0
tp129
a(g123
I20
I0
tp130
a(g123
I17
I0
tp131
a(g4
(g5
(S'S3'
p132
I0
I1
tp133
Rp134
(I3
S'|'
p135
NNNI3
I1
I0
tp136
bS'can'
p137
tp138
Rp139
I10
I0
tp140
a(g139
I3
I0
tp141
a(g139
I27
I0
tp142
a(g139
I7
I0
tp143
a(g139
I18
I0
tp144
a(g139
I2
I0
tp145
a(g139
I20
I0
tp146
a(g139
I17
I0
tp147
a(g4
(g5
(S'S8'
p148
I0
I1
tp149
Rp150
(I3
S'|'
p151
NNNI8
I1
I0
tp152
bS'cylinder'
p153
tp154
Rp155
I3
I1
tp156
a(g4
(g5
(S'S5'
p157
I0
I1
tp158
Rp159
(I3
S'|'
p160
NNNI5
I1
I0
tp161
bS'empty'
p162
tp163
Rp164
I10
I1
tp165
a(g4
(g5
(S'S5'
p166
I0
I1
tp167
Rp168
(I3
S'|'
p169
NNNI5
I1
I0
tp170
bS'block'
p171
tp172
Rp173
I10
I0
tp174
a(g173
I3
I0
tp175
a(g173
I27
I0
tp176
a(g173
I7
I0
tp177
a(g173
I18
I0
tp178
a(g173
I2
I0
tp179
a(g173
I20
I0
tp180
a(g173
I17
I0
tp181
a(g4
(g5
(S'S5'
p182
I0
I1
tp183
Rp184
(I3
S'|'
p185
NNNI5
I1
I0
tp186
bS'tower'
p187
tp188
Rp189
I10
I0
tp190
a(g189
I3
I0
tp191
a(g189
I27
I0
tp192
a(g189
I7
I0
tp193
a(g189
I18
I0
tp194
a(g189
I2
I0
tp195
a(g189
I20
I0
tp196
a(g189
I17
I0
tp197
a(g4
(g5
(S'S4'
p198
I0
I1
tp199
Rp200
(I3
S'|'
p201
NNNI4
I1
I0
tp202
bS'long'
p203
tp204
Rp205
I10
I0
tp206
a(g205
I3
I0
tp207
a(g205
I27
I0
tp208
a(g205
I7
I0
tp209
a(g205
I18
I0
tp210
a(g205
I2
I0
tp211
a(g205
I20
I0
tp212
a(g205
I17
I0
tp213
a(g4
(g5
(S'S6'
p214
I0
I1
tp215
Rp216
(I3
S'|'
p217
NNNI6
I1
I0
tp218
bS'coffee'
p219
tp220
Rp221
I10
I0
tp222
a(g221
I3
I0
tp223
a(g221
I27
I0
tp224
a(g221
I7
I0
tp225
a(g221
I18
I0
tp226
a(g221
I2
I0
tp227
a(g221
I20
I0
tp228
a(g221
I17
I0
tp229
aa(lp230
(S'pink'
p231
S'white'
p232
I00
tp233
a(g231
S'yellow'
p234
I00
tp235
a(g231
S'blue'
p236
I00
tp237
aa.