(lp0
(lp1
(dp2
S'action'
p3
cnumpy.core.multiarray
scalar
p4
(cnumpy
dtype
p5
(S'S5'
p6
I0
I1
tp7
Rp8
(I3
S'|'
p9
NNNI5
I1
I0
tp10
bS'bring'
p11
tp12
Rp13
sS'recipient'
p14
g4
(g5
(S'S1'
p15
I0
I1
tp16
Rp17
(I3
S'|'
p18
NNNI1
I1
I0
tp19
bS'd'
p20
tp21
Rp22
sS'patient'
p23
g4
(g5
(S'S7'
p24
I0
I1
tp25
Rp26
(I3
S'|'
p27
NNNI7
I1
I0
tp28
bS'oidx_22'
p29
tp30
Rp31
sS'goal'
p32
NsS'source'
p33
Nsa(dp34
g3
g4
(g5
(S'S5'
p35
I0
I1
tp36
Rp37
(I3
S'|'
p38
NNNI5
I1
I0
tp39
bS'bring'
p40
tp41
Rp42
sg14
g4
(g5
(S'S1'
p43
I0
I1
tp44
Rp45
(I3
S'|'
p46
NNNI1
I1
I0
tp47
bS'n'
p48
tp49
Rp50
sg23
g4
(g5
(S'S7'
p51
I0
I1
tp52
Rp53
(I3
S'|'
p54
NNNI7
I1
I0
tp55
bS'oidx_22'
p56
tp57
Rp58
sg32
Nsg33
Nsa(dp59
g3
g4
(g5
(S'S5'
p60
I0
I1
tp61
Rp62
(I3
S'|'
p63
NNNI5
I1
I0
tp64
bS'bring'
p65
tp66
Rp67
sg14
g4
(g5
(S'S1'
p68
I0
I1
tp69
Rp70
(I3
S'|'
p71
NNNI1
I1
I0
tp72
bg48
tp73
Rp74
sg23
g4
(g5
(S'S7'
p75
I0
I1
tp76
Rp77
(I3
S'|'
p78
NNNI7
I1
I0
tp79
bS'oidx_22'
p80
tp81
Rp82
sg32
Nsg33
Nsaa(lp83
(dp84
S'all'
p85
(lp86
S"go to robert brown 's office"
p87
asg23
(lp88
S'a cylinder'
p89
asg32
(lp90
sg33
(lp91
sg3
(lp92
sg14
(lp93
S'dr robert brown'
p94
aS'david daniel'
p95
asa(dp96
g85
(lp97
S'give the object to dr nancy nagel'
p98
asg23
(lp99
sg32
(lp100
sg33
(lp101
sg3
(lp102
sg14
(lp103
sa(dp104
g85
(lp105
S'give the container to robert brown'
p106
asg23
(lp107
sg32
(lp108
sg33
(lp109
sg3
(lp110
sg14
(lp111
S'conference room'
p112
aS'take the container from robert brown and deliver it to conference'
p113
aS'conference'
p114
aS"the second door on the right after david daniel 's office"
p115
aS'robert brown'
p116
aS'robert brown'
p117
aS'dr nancy nagel'
p118
asaa(lp119
(g4
(g5
(S'S8'
p120
I0
I1
tp121
Rp122
(I3
S'|'
p123
NNNI8
I1
I0
tp124
bS'cylinder'
p125
tp126
Rp127
I2
I1
tp128
a(g4
(g5
(S'S5'
p129
I0
I1
tp130
Rp131
(I3
S'|'
p132
NNNI5
I1
I0
tp133
bS'block'
p134
tp135
Rp136
I10
I0
tp137
a(g136
I3
I0
tp138
a(g136
I27
I0
tp139
a(g136
I7
I0
tp140
a(g136
I18
I0
tp141
a(g136
I2
I0
tp142
a(g136
I20
I0
tp143
a(g136
I17
I0
tp144
a(g4
(g5
(S'S4'
p145
I0
I1
tp146
Rp147
(I3
S'|'
p148
NNNI4
I1
I0
tp149
bS'bean'
p150
tp151
Rp152
I10
I0
tp153
a(g152
I3
I0
tp154
a(g152
I27
I0
tp155
a(g152
I7
I0
tp156
a(g152
I18
I0
tp157
a(g152
I2
I0
tp158
a(g152
I20
I0
tp159
a(g152
I17
I0
tp160
a(g4
(g5
(S'S8'
p161
I0
I1
tp162
Rp163
(I3
S'|'
p164
NNNI8
I1
I0
tp165
bS'cylinder'
p166
tp167
Rp168
I27
I0
tp169
a(g4
(g5
(S'S3'
p170
I0
I1
tp171
Rp172
(I3
S'|'
p173
NNNI3
I1
I0
tp174
bS'can'
p175
tp176
Rp177
I2
I1
tp178
a(g4
(g5
(S'S8'
p179
I0
I1
tp180
Rp181
(I3
S'|'
p182
NNNI8
I1
I0
tp183
bS'cylinder'
p184
tp185
Rp186
I20
I1
tp187
a(g4
(g5
(S'S3'
p188
I0
I1
tp189
Rp190
(I3
S'|'
p191
NNNI3
I1
I0
tp192
bS'can'
p193
tp194
Rp195
I20
I0
tp196
a(g4
(g5
(S'S5'
p197
I0
I1
tp198
Rp199
(I3
S'|'
p200
NNNI5
I1
I0
tp201
bS'tower'
p202
tp203
Rp204
I7
I1
tp205
a(g4
(g5
(S'S3'
p206
I0
I1
tp207
Rp208
(I3
S'|'
p209
NNNI3
I1
I0
tp210
bS'can'
p211
tp212
Rp213
I2
I1
tp214
a(g4
(g5
(S'S9'
p215
I0
I1
tp216
Rp217
(I3
S'|'
p218
NNNI9
I1
I0
tp219
bS'container'
p220
tp221
Rp222
I2
I1
tp223
a(g4
(g5
(S'S9'
p224
I0
I1
tp225
Rp226
(I3
S'|'
p227
NNNI9
I1
I0
tp228
bS'container'
p229
tp230
Rp231
I27
I0
tp232
a(g4
(g5
(S'S9'
p233
I0
I1
tp234
Rp235
(I3
S'|'
p236
NNNI9
I1
I0
tp237
bS'container'
p238
tp239
Rp240
I10
I1
tp241
a(g4
(g5
(S'S9'
p242
I0
I1
tp243
Rp244
(I3
S'|'
p245
NNNI9
I1
I0
tp246
bS'container'
p247
tp248
Rp249
I27
I0
tp250
a(g4
(g5
(S'S9'
p251
I0
I1
tp252
Rp253
(I3
S'|'
p254
NNNI9
I1
I0
tp255
bS'container'
p256
tp257
Rp258
I2
I1
tp259
a(g4
(g5
(S'S9'
p260
I0
I1
tp261
Rp262
(I3
S'|'
p263
NNNI9
I1
I0
tp264
bS'container'
p265
tp266
Rp267
I3
I0
tp268
aa(lp269
a.