(lp0
(lp1
(dp2
S'action'
p3
cnumpy.core.multiarray
scalar
p4
(cnumpy
dtype
p5
(S'S4'
p6
I0
I1
tp7
Rp8
(I3
S'|'
p9
NNNI4
I1
I0
tp10
bS'walk'
p11
tp12
Rp13
sS'recipient'
p14
NsS'patient'
p15
NsS'goal'
p16
g4
(g5
(S'S5'
p17
I0
I1
tp18
Rp19
(I3
S'|'
p20
NNNI5
I1
I0
tp21
bS'3414a'
p22
tp23
Rp24
sS'source'
p25
Nsa(dp26
g3
g4
(g5
(S'S4'
p27
I0
I1
tp28
Rp29
(I3
S'|'
p30
NNNI4
I1
I0
tp31
bS'walk'
p32
tp33
Rp34
sg14
Nsg15
Nsg16
g4
(g5
(S'S4'
p35
I0
I1
tp36
Rp37
(I3
S'|'
p38
NNNI4
I1
I0
tp39
bS'3502'
p40
tp41
Rp42
sg25
Nsa(dp43
g3
g4
(g5
(S'S4'
p44
I0
I1
tp45
Rp46
(I3
S'|'
p47
NNNI4
I1
I0
tp48
bS'walk'
p49
tp50
Rp51
sg14
Nsg15
Nsg16
g4
(g5
(S'S4'
p52
I0
I1
tp53
Rp54
(I3
S'|'
p55
NNNI4
I1
I0
tp56
bS'3402'
p57
tp58
Rp59
sg25
Nsaa(lp60
(dp61
S'all'
p62
(lp63
S'go to the lab beside the printer'
p64
asg15
(lp65
sg16
(lp66
S'go to the lab across from david\xe2\x80\x99s office'
p67
aS'go to the lab in the middle'
p68
aS'go to the lab by the printer'
p69
asg25
(lp70
sg3
(lp71
sg14
(lp72
sa(dp73
g62
(lp74
S'give the bottle on the table to mallory'
p75
asg15
(lp76
sg16
(lp77
S'to the table'
p78
aS'to mallory\xe2\x80\x99s office'
p79
aS'to mal\xe2\x80\x99s office'
p80
aS'to the office with the m'
p81
aS'to the office on the bottom left'
p82
aS'to the office by the pod'
p83
aS'to the other office by the pod'
p84
aS'to the other office by the pod'
p85
asg25
(lp86
sg3
(lp87
sg14
(lp88
sa(dp89
g62
(lp90
S'go to the office near the lounge'
p91
asg15
(lp92
sg16
(lp93
S'go to the office by the lounge'
p94
aS'the other office by the lounge'
p95
aS'the office across from the lounge'
p96
aS'thw other office across from the lounge'
p97
aS'the other office across from the lounge'
p98
aS'the other office across from the lounge'
p99
asg25
(lp100
sg3
(lp101
sg14
(lp102
saa(lp103
(g4
(g5
(S'S5'
p104
I0
I1
tp105
Rp106
(I3
S'|'
p107
NNNI5
I1
I0
tp108
bS'peach'
p109
tp110
Rp111
I10
I0
tp112
a(g111
I3
I0
tp113
a(g111
I27
I0
tp114
a(g111
I7
I0
tp115
a(g111
I18
I0
tp116
a(g111
I2
I0
tp117
a(g111
I20
I0
tp118
a(g111
I17
I0
tp119
a(g4
(g5
(S'S5'
p120
I0
I1
tp121
Rp122
(I3
S'|'
p123
NNNI5
I1
I0
tp124
bS'block'
p125
tp126
Rp127
I10
I0
tp128
a(g127
I3
I0
tp129
a(g127
I27
I0
tp130
a(g127
I7
I0
tp131
a(g127
I18
I0
tp132
a(g127
I2
I0
tp133
a(g127
I20
I0
tp134
a(g127
I17
I0
tp135
a(g4
(g5
(S'S6'
p136
I0
I1
tp137
Rp138
(I3
S'|'
p139
NNNI6
I1
I0
tp140
bS'yellow'
p141
tp142
Rp143
I10
I0
tp144
a(g143
I3
I0
tp145
a(g143
I27
I0
tp146
a(g143
I7
I0
tp147
a(g143
I18
I0
tp148
a(g143
I2
I0
tp149
a(g143
I20
I0
tp150
a(g143
I17
I0
tp151
a(g4
(g5
(S'S6'
p152
I0
I1
tp153
Rp154
(I3
S'|'
p155
NNNI6
I1
I0
tp156
bS'column'
p157
tp158
Rp159
I3
I1
tp160
a(g4
(g5
(S'S5'
p161
I0
I1
tp162
Rp163
(I3
S'|'
p164
NNNI5
I1
I0
tp165
bS'spice'
p166
tp167
Rp168
I10
I0
tp169
a(g168
I3
I0
tp170
a(g168
I27
I0
tp171
a(g168
I7
I0
tp172
a(g168
I18
I0
tp173
a(g168
I2
I0
tp174
a(g168
I20
I0
tp175
a(g168
I17
I0
tp176
a(g4
(g5
(S'S8'
p177
I0
I1
tp178
Rp179
(I3
S'|'
p180
NNNI8
I1
I0
tp181
bS'metallic'
p182
tp183
Rp184
I10
I0
tp185
a(g184
I3
I0
tp186
a(g184
I27
I0
tp187
a(g184
I7
I0
tp188
a(g184
I18
I0
tp189
a(g184
I2
I0
tp190
a(g184
I20
I0
tp191
a(g184
I17
I0
tp192
a(g4
(g5
(S'S3'
p193
I0
I1
tp194
Rp195
(I3
S'|'
p196
NNNI3
I1
I0
tp197
bS'can'
p198
tp199
Rp200
I2
I1
tp201
a(g4
(g5
(S'S4'
p202
I0
I1
tp203
Rp204
(I3
S'|'
p205
NNNI4
I1
I0
tp206
bS'bean'
p207
tp208
Rp209
I10
I0
tp210
a(g209
I3
I0
tp211
a(g209
I27
I0
tp212
a(g209
I7
I0
tp213
a(g209
I18
I0
tp214
a(g209
I2
I0
tp215
a(g209
I20
I0
tp216
a(g209
I17
I0
tp217
a(g4
(g5
(S'S6'
p218
I0
I1
tp219
Rp220
(I3
S'|'
p221
NNNI6
I1
I0
tp222
bS'column'
p223
tp224
Rp225
I27
I0
tp226
a(g4
(g5
(S'S4'
p227
I0
I1
tp228
Rp229
(I3
S'|'
p230
NNNI4
I1
I0
tp231
bS'blue'
p232
tp233
Rp234
I18
I1
tp235
a(g4
(g5
(S'S4'
p236
I0
I1
tp237
Rp238
(I3
S'|'
p239
NNNI4
I1
I0
tp240
bS'blue'
p241
tp242
Rp243
I27
I0
tp244
a(g4
(g5
(S'S6'
p245
I0
I1
tp246
Rp247
(I3
S'|'
p248
NNNI6
I1
I0
tp249
bS'column'
p250
tp251
Rp252
I3
I1
tp253
a(g4
(g5
(S'S5'
p254
I0
I1
tp255
Rp256
(I3
S'|'
p257
NNNI5
I1
I0
tp258
bS'tower'
p259
tp260
Rp261
I10
I0
tp262
a(g261
I3
I0
tp263
a(g261
I27
I0
tp264
a(g261
I7
I0
tp265
a(g261
I18
I0
tp266
a(g261
I2
I0
tp267
a(g261
I20
I0
tp268
a(g261
I17
I0
tp269
a(g4
(g5
(S'S5'
p270
I0
I1
tp271
Rp272
(I3
S'|'
p273
NNNI5
I1
I0
tp274
bS'white'
p275
tp276
Rp277
I10
I0
tp278
a(g277
I3
I0
tp279
a(g277
I27
I0
tp280
a(g277
I7
I0
tp281
a(g277
I18
I0
tp282
a(g277
I2
I0
tp283
a(g277
I20
I0
tp284
a(g277
I17
I0
tp285
a(g4
(g5
(S'S5'
p286
I0
I1
tp287
Rp288
(I3
S'|'
p289
NNNI5
I1
I0
tp290
bS'empty'
p291
tp292
Rp293
I20
I1
tp294
aa(lp295
a.