(lp0
(lp1
(dp2
S'action'
p3
cnumpy.core.multiarray
scalar
p4
(cnumpy
dtype
p5
(S'S4'
p6
I0
I1
tp7
Rp8
(I3
S'|'
p9
NNNI4
I1
I0
tp10
bS'walk'
p11
tp12
Rp13
sS'recipient'
p14
NsS'patient'
p15
NsS'goal'
p16
g4
(g5
(S'S4'
p17
I0
I1
tp18
Rp19
(I3
S'|'
p20
NNNI4
I1
I0
tp21
bS'3404'
p22
tp23
Rp24
sS'source'
p25
Nsa(dp26
g3
g4
(g5
(S'S4'
p27
I0
I1
tp28
Rp29
(I3
S'|'
p30
NNNI4
I1
I0
tp31
bS'walk'
p32
tp33
Rp34
sg14
Nsg15
Nsg16
g4
(g5
(S'S4'
p35
I0
I1
tp36
Rp37
(I3
S'|'
p38
NNNI4
I1
I0
tp39
bS'3420'
p40
tp41
Rp42
sg25
Nsa(dp43
g3
g4
(g5
(S'S4'
p44
I0
I1
tp45
Rp46
(I3
S'|'
p47
NNNI4
I1
I0
tp48
bS'walk'
p49
tp50
Rp51
sg14
Nsg15
Nsg16
g4
(g5
(S'S4'
p52
I0
I1
tp53
Rp54
(I3
S'|'
p55
NNNI4
I1
I0
tp56
bS'3518'
p57
tp58
Rp59
sg25
Nsaa(lp60
(dp61
S'all'
p62
(lp63
S'go to the office of dr nancy nagel'
p64
asg15
(lp65
sg16
(lp66
S'go to the office of nancy nagel'
p67
asg25
(lp68
sg3
(lp69
sg14
(lp70
sa(dp71
g62
(lp72
S'go to the office of david daniel'
p73
asg15
(lp74
sg16
(lp75
S'go to the office of david daniel and pick up the white styrofoam tower'
p76
asg25
(lp77
sg3
(lp78
sg14
(lp79
sa(dp80
g62
(lp81
S'go to the pod next to the conference room and pick up the glass jar with the red top'
p82
asg15
(lp83
sg16
(lp84
S'go to the pod next to the conference room and pick up the glass jar with the red top'
p85
aS'pod next to the conferenceerence room'
p86
aS'go to the pod next to the conference room'
p87
asg25
(lp88
sg3
(lp89
sg14
(lp90
saa(lp91
(g4
(g5
(S'S6'
p92
I0
I1
tp93
Rp94
(I3
S'|'
p95
NNNI6
I1
I0
tp96
bS'yellow'
p97
tp98
Rp99
I10
I0
tp100
a(g99
I3
I0
tp101
a(g99
I27
I0
tp102
a(g99
I7
I0
tp103
a(g99
I18
I0
tp104
a(g99
I2
I0
tp105
a(g99
I20
I0
tp106
a(g99
I17
I0
tp107
a(g4
(g5
(S'S8'
p108
I0
I1
tp109
Rp110
(I3
S'|'
p111
NNNI8
I1
I0
tp112
bS'pringles'
p113
tp114
Rp115
I10
I0
tp116
a(g115
I3
I0
tp117
a(g115
I27
I0
tp118
a(g115
I7
I0
tp119
a(g115
I18
I0
tp120
a(g115
I2
I0
tp121
a(g115
I20
I0
tp122
a(g115
I17
I0
tp123
a(g4
(g5
(S'S6'
p124
I0
I1
tp125
Rp126
(I3
S'|'
p127
NNNI6
I1
I0
tp128
bS'coffee'
p129
tp130
Rp131
I10
I0
tp132
a(g131
I3
I0
tp133
a(g131
I27
I0
tp134
a(g131
I7
I0
tp135
a(g131
I18
I0
tp136
a(g131
I2
I0
tp137
a(g131
I20
I0
tp138
a(g131
I17
I0
tp139
a(g4
(g5
(S'S5'
p140
I0
I1
tp141
Rp142
(I3
S'|'
p143
NNNI5
I1
I0
tp144
bS'empty'
p145
tp146
Rp147
I10
I0
tp148
a(g147
I3
I0
tp149
a(g147
I27
I0
tp150
a(g147
I7
I0
tp151
a(g147
I18
I0
tp152
a(g147
I2
I0
tp153
a(g147
I20
I0
tp154
a(g147
I17
I0
tp155
a(g4
(g5
(S'S4'
p156
I0
I1
tp157
Rp158
(I3
S'|'
p159
NNNI4
I1
I0
tp160
bS'bean'
p161
tp162
Rp163
I10
I0
tp164
a(g163
I3
I0
tp165
a(g163
I27
I0
tp166
a(g163
I7
I0
tp167
a(g163
I18
I0
tp168
a(g163
I2
I0
tp169
a(g163
I20
I0
tp170
a(g163
I17
I0
tp171
a(g4
(g5
(S'S9'
p172
I0
I1
tp173
Rp174
(I3
S'|'
p175
NNNI9
I1
I0
tp176
bS'styrofoam'
p177
tp178
Rp179
I10
I0
tp180
a(g179
I3
I0
tp181
a(g179
I27
I0
tp182
a(g179
I7
I0
tp183
a(g179
I18
I0
tp184
a(g179
I2
I0
tp185
a(g179
I20
I0
tp186
a(g179
I17
I0
tp187
a(g4
(g5
(S'S5'
p188
I0
I1
tp189
Rp190
(I3
S'|'
p191
NNNI5
I1
I0
tp192
bS'tower'
p193
tp194
Rp195
I10
I0
tp196
a(g195
I3
I0
tp197
a(g195
I27
I0
tp198
a(g195
I7
I0
tp199
a(g195
I18
I0
tp200
a(g195
I2
I0
tp201
a(g195
I20
I0
tp202
a(g195
I17
I0
tp203
a(g4
(g5
(S'S9'
p204
I0
I1
tp205
Rp206
(I3
S'|'
p207
NNNI9
I1
I0
tp208
bS'rectangle'
p209
tp210
Rp211
I10
I0
tp212
a(g211
I3
I0
tp213
a(g211
I27
I0
tp214
a(g211
I7
I0
tp215
a(g211
I18
I0
tp216
a(g211
I2
I0
tp217
a(g211
I20
I0
tp218
a(g211
I17
I0
tp219
a(g4
(g5
(S'S8'
p220
I0
I1
tp221
Rp222
(I3
S'|'
p223
NNNI8
I1
I0
tp224
bS'metallic'
p225
tp226
Rp227
I10
I0
tp228
a(g227
I3
I0
tp229
a(g227
I27
I0
tp230
a(g227
I7
I0
tp231
a(g227
I18
I0
tp232
a(g227
I2
I0
tp233
a(g227
I20
I0
tp234
a(g227
I17
I0
tp235
a(g4
(g5
(S'S5'
p236
I0
I1
tp237
Rp238
(I3
S'|'
p239
NNNI5
I1
I0
tp240
bS'white'
p241
tp242
Rp243
I10
I0
tp244
a(g243
I3
I0
tp245
a(g243
I27
I0
tp246
a(g243
I7
I0
tp247
a(g243
I18
I0
tp248
a(g243
I2
I0
tp249
a(g243
I20
I0
tp250
a(g243
I17
I0
tp251
a(g4
(g5
(S'S5'
p252
I0
I1
tp253
Rp254
(I3
S'|'
p255
NNNI5
I1
I0
tp256
bS'clear'
p257
tp258
Rp259
I18
I1
tp260
a(g4
(g5
(S'S8'
p261
I0
I1
tp262
Rp263
(I3
S'|'
p264
NNNI8
I1
I0
tp265
bS'cylinder'
p266
tp267
Rp268
I3
I1
tp269
a(g4
(g5
(S'S5'
p270
I0
I1
tp271
Rp272
(I3
S'|'
p273
NNNI5
I1
I0
tp274
bS'block'
p275
tp276
Rp277
I10
I0
tp278
a(g277
I3
I0
tp279
a(g277
I27
I0
tp280
a(g277
I7
I0
tp281
a(g277
I18
I0
tp282
a(g277
I2
I0
tp283
a(g277
I20
I0
tp284
a(g277
I17
I0
tp285
a(g4
(g5
(S'S8'
p286
I0
I1
tp287
Rp288
(I3
S'|'
p289
NNNI8
I1
I0
tp290
bS'cylinder'
p291
tp292
Rp293
I27
I0
tp294
a(g4
(g5
(S'S5'
p295
I0
I1
tp296
Rp297
(I3
S'|'
p298
NNNI5
I1
I0
tp299
bS'clear'
p300
tp301
Rp302
I27
I0
tp303
aa(lp304
(S'glass'
p305
S'container'
p306
I00
tp307
a(g305
S'metallic'
p308
I00
tp309
a(S'red'
p310
S'white'
p311
I01
tp312
aa.