(lp0
(lp1
(dp2
S'action'
p3
cnumpy.core.multiarray
scalar
p4
(cnumpy
dtype
p5
(S'S4'
p6
I0
I1
tp7
Rp8
(I3
S'|'
p9
NNNI4
I1
I0
tp10
bS'walk'
p11
tp12
Rp13
sS'recipient'
p14
NsS'patient'
p15
NsS'goal'
p16
g4
(g5
(S'S4'
p17
I0
I1
tp18
Rp19
(I3
S'|'
p20
NNNI4
I1
I0
tp21
bS'3520'
p22
tp23
Rp24
sS'source'
p25
Nsa(dp26
g3
g4
(g5
(S'S4'
p27
I0
I1
tp28
Rp29
(I3
S'|'
p30
NNNI4
I1
I0
tp31
bS'move'
p32
tp33
Rp34
sg14
Nsg15
g4
(g5
(S'S7'
p35
I0
I1
tp36
Rp37
(I3
S'|'
p38
NNNI7
I1
I0
tp39
bS'oidx_22'
p40
tp41
Rp42
sg16
g4
(g5
(S'S4'
p43
I0
I1
tp44
Rp45
(I3
S'|'
p46
NNNI4
I1
I0
tp47
bS'3404'
p48
tp49
Rp50
sg25
g4
(g5
(S'S4'
p51
I0
I1
tp52
Rp53
(I3
S'|'
p54
NNNI4
I1
I0
tp55
bS'3402'
p56
tp57
Rp58
sa(dp59
g3
g4
(g5
(S'S4'
p60
I0
I1
tp61
Rp62
(I3
S'|'
p63
NNNI4
I1
I0
tp64
bS'move'
p65
tp66
Rp67
sg14
Nsg15
g4
(g5
(S'S7'
p68
I0
I1
tp69
Rp70
(I3
S'|'
p71
NNNI7
I1
I0
tp72
bS'oidx_22'
p73
tp74
Rp75
sg16
g4
(g5
(S'S4'
p76
I0
I1
tp77
Rp78
(I3
S'|'
p79
NNNI4
I1
I0
tp80
bS'3418'
p81
tp82
Rp83
sg25
g4
(g5
(S'S4'
p84
I0
I1
tp85
Rp86
(I3
S'|'
p87
NNNI4
I1
I0
tp88
bS'3514'
p89
tp90
Rp91
saa(lp92
(dp93
S'all'
p94
(lp95
S'go to the kitchen'
p96
asg15
(lp97
sg16
(lp98
S'the kitchen'
p99
aS'go to the room across the lounge'
p100
asg25
(lp101
sg3
(lp102
sg14
(lp103
sa(dp104
g94
(lp105
S'take an object to someone'
p106
asg15
(lp107
sg16
(lp108
sg25
(lp109
sg3
(lp110
sg14
(lp111
sa(dp112
g94
(lp113
S'relocate an object'
p114
asg15
(lp115
sg16
(lp116
sg25
(lp117
S'lounge'
p118
aS'to the lounge'
p119
asg3
(lp120
sg14
(lp121
saa(lp122
(g4
(g5
(S'S9'
p123
I0
I1
tp124
Rp125
(I3
S'|'
p126
NNNI9
I1
I0
tp127
bS'rectangle'
p128
tp129
Rp130
I10
I0
tp131
a(g130
I3
I0
tp132
a(g130
I27
I0
tp133
a(g130
I7
I0
tp134
a(g130
I18
I0
tp135
a(g130
I2
I0
tp136
a(g130
I20
I0
tp137
a(g130
I17
I0
tp138
a(g4
(g5
(S'S6'
p139
I0
I1
tp140
Rp141
(I3
S'|'
p142
NNNI6
I1
I0
tp143
bS'yellow'
p144
tp145
Rp146
I10
I0
tp147
a(g146
I3
I0
tp148
a(g146
I27
I0
tp149
a(g146
I7
I0
tp150
a(g146
I18
I0
tp151
a(g146
I2
I0
tp152
a(g146
I20
I0
tp153
a(g146
I17
I0
tp154
a(g4
(g5
(S'S9'
p155
I0
I1
tp156
Rp157
(I3
S'|'
p158
NNNI9
I1
I0
tp159
bS'container'
p160
tp161
Rp162
I17
I1
tp163
a(g4
(g5
(S'S9'
p164
I0
I1
tp165
Rp166
(I3
S'|'
p167
NNNI9
I1
I0
tp168
bS'styrofoam'
p169
tp170
Rp171
I20
I1
tp172
a(g4
(g5
(S'S5'
p173
I0
I1
tp174
Rp175
(I3
S'|'
p176
NNNI5
I1
I0
tp177
bS'spice'
p178
tp179
Rp180
I10
I1
tp181
a(g4
(g5
(S'S4'
p182
I0
I1
tp183
Rp184
(I3
S'|'
p185
NNNI4
I1
I0
tp186
bS'blue'
p187
tp188
Rp189
I18
I1
tp190
a(g4
(g5
(S'S8'
p191
I0
I1
tp192
Rp193
(I3
S'|'
p194
NNNI8
I1
I0
tp195
bS'cylinder'
p196
tp197
Rp198
I2
I1
tp199
a(g4
(g5
(S'S6'
p200
I0
I1
tp201
Rp202
(I3
S'|'
p203
NNNI6
I1
I0
tp204
bS'coffee'
p205
tp206
Rp207
I10
I1
tp208
a(g4
(g5
(S'S4'
p209
I0
I1
tp210
Rp211
(I3
S'|'
p212
NNNI4
I1
I0
tp213
bS'blue'
p214
tp215
Rp216
I27
I0
tp217
a(g4
(g5
(S'S5'
p218
I0
I1
tp219
Rp220
(I3
S'|'
p221
NNNI5
I1
I0
tp222
bS'tower'
p223
tp224
Rp225
I3
I1
tp226
a(g4
(g5
(S'S5'
p227
I0
I1
tp228
Rp229
(I3
S'|'
p230
NNNI5
I1
I0
tp231
bS'spice'
p232
tp233
Rp234
I18
I0
tp235
a(g4
(g5
(S'S6'
p236
I0
I1
tp237
Rp238
(I3
S'|'
p239
NNNI6
I1
I0
tp240
bS'column'
p241
tp242
Rp243
I10
I0
tp244
a(g243
I3
I0
tp245
a(g243
I27
I0
tp246
a(g243
I7
I0
tp247
a(g243
I18
I0
tp248
a(g243
I2
I0
tp249
a(g243
I20
I0
tp250
a(g243
I17
I0
tp251
a(g4
(g5
(S'S8'
p252
I0
I1
tp253
Rp254
(I3
S'|'
p255
NNNI8
I1
I0
tp256
bS'cylinder'
p257
tp258
Rp259
I27
I0
tp260
a(g4
(g5
(S'S4'
p261
I0
I1
tp262
Rp263
(I3
S'|'
p264
NNNI4
I1
I0
tp265
bS'blue'
p266
tp267
Rp268
I18
I1
tp269
a(g4
(g5
(S'S8'
p270
I0
I1
tp271
Rp272
(I3
S'|'
p273
NNNI8
I1
I0
tp274
bS'cylinder'
p275
tp276
Rp277
I2
I1
tp278
aa(lp279
a.