(lp0
(lp1
(dp2
S'action'
p3
cnumpy.core.multiarray
scalar
p4
(cnumpy
dtype
p5
(S'S4'
p6
I0
I1
tp7
Rp8
(I3
S'|'
p9
NNNI4
I1
I0
tp10
bS'walk'
p11
tp12
Rp13
sS'recipient'
p14
NsS'patient'
p15
NsS'goal'
p16
g4
(g5
(S'S4'
p17
I0
I1
tp18
Rp19
(I3
S'|'
p20
NNNI4
I1
I0
tp21
bS'3502'
p22
tp23
Rp24
sS'source'
p25
Nsa(dp26
g3
g4
(g5
(S'S5'
p27
I0
I1
tp28
Rp29
(I3
S'|'
p30
NNNI5
I1
I0
tp31
bS'bring'
p32
tp33
Rp34
sg14
g4
(g5
(S'S1'
p35
I0
I1
tp36
Rp37
(I3
S'|'
p38
NNNI1
I1
I0
tp39
bS'm'
p40
tp41
Rp42
sg15
g4
(g5
(S'S7'
p43
I0
I1
tp44
Rp45
(I3
S'|'
p46
NNNI7
I1
I0
tp47
bS'oidx_12'
p48
tp49
Rp50
sg16
Nsg25
Nsa(dp51
g3
g4
(g5
(S'S4'
p52
I0
I1
tp53
Rp54
(I3
S'|'
p55
NNNI4
I1
I0
tp56
bS'move'
p57
tp58
Rp59
sg14
Nsg15
g4
(g5
(S'S7'
p60
I0
I1
tp61
Rp62
(I3
S'|'
p63
NNNI7
I1
I0
tp64
bS'oidx_28'
p65
tp66
Rp67
sg16
g4
(g5
(S'S4'
p68
I0
I1
tp69
Rp70
(I3
S'|'
p71
NNNI4
I1
I0
tp72
bS'3510'
p73
tp74
Rp75
sg25
g4
(g5
(S'S4'
p76
I0
I1
tp77
Rp78
(I3
S'|'
p79
NNNI4
I1
I0
tp80
bS'3420'
p81
tp82
Rp83
saa(lp84
(dp85
S'all'
p86
(lp87
S'go to mallory"mal maroon office'
p88
asg15
(lp89
sg16
(lp90
S'to the office of mal'
p91
aS'to the office of mal'
p92
aS'to the office of mal'
p93
aS"to mal 's office"
p94
aS"to mal 's office"
p95
aS"to mal 's office"
p96
aS"to mal 's office"
p97
aS"to mal 's office"
p98
asg25
(lp99
sg3
(lp100
sg14
(lp101
sa(dp102
g86
(lp103
S'take the container to mal'
p104
asg15
(lp105
sg16
(lp106
sg25
(lp107
sg3
(lp108
sg14
(lp109
S'mallory mal maroon'
p110
aS'mal'
p111
aS'mallory maroon'
p112
aS'mal'
p113
aS'mallory mal maroon'
p114
aS'mallory mal maroon'
p115
aS'deliver it to mal'
p116
asa(dp117
g86
(lp118
S"take the object from dave 's office to bob 's office"
p119
asg15
(lp120
sg16
(lp121
S'from david daniels office to robert browns office'
p122
aS'from david daniels office to robert browns office'
p123
aS'from david daniels office to robert browns office'
p124
aS'move it from david daniels office to robert browns office'
p125
aS'move it from david daniels office to robert browns office'
p126
aS'move it from david daniels office to robert browns office'
p127
aS'move it from david daniels office to robert browns office'
p128
aS'take the object from david daniels office'
p129
aS'to robert browns office'
p130
asg25
(lp131
S"from david danile 's office"
p132
aS'move the object from david daniels office to robert browns office'
p133
asg3
(lp134
sg14
(lp135
saa(lp136
(g4
(g5
(S'S5'
p137
I0
I1
tp138
Rp139
(I3
S'|'
p140
NNNI5
I1
I0
tp141
bS'tower'
p142
tp143
Rp144
I10
I0
tp145
a(g144
I3
I0
tp146
a(g144
I27
I0
tp147
a(g144
I7
I0
tp148
a(g144
I18
I0
tp149
a(g144
I2
I0
tp150
a(g144
I20
I0
tp151
a(g144
I17
I0
tp152
a(g4
(g5
(S'S3'
p153
I0
I1
tp154
Rp155
(I3
S'|'
p156
NNNI3
I1
I0
tp157
bS'can'
p158
tp159
Rp160
I2
I1
tp161
a(g4
(g5
(S'S9'
p162
I0
I1
tp163
Rp164
(I3
S'|'
p165
NNNI9
I1
I0
tp166
bS'container'
p167
tp168
Rp169
I7
I1
tp170
a(g4
(g5
(S'S8'
p171
I0
I1
tp172
Rp173
(I3
S'|'
p174
NNNI8
I1
I0
tp175
bS'metallic'
p176
tp177
Rp178
I10
I1
tp179
a(g4
(g5
(S'S8'
p180
I0
I1
tp181
Rp182
(I3
S'|'
p183
NNNI8
I1
I0
tp184
bS'cylinder'
p185
tp186
Rp187
I3
I1
tp188
a(g4
(g5
(S'S9'
p189
I0
I1
tp190
Rp191
(I3
S'|'
p192
NNNI9
I1
I0
tp193
bS'container'
p194
tp195
Rp196
I27
I0
tp197
a(g4
(g5
(S'S9'
p198
I0
I1
tp199
Rp200
(I3
S'|'
p201
NNNI9
I1
I0
tp202
bS'container'
p203
tp204
Rp205
I2
I1
tp206
a(g4
(g5
(S'S9'
p207
I0
I1
tp208
Rp209
(I3
S'|'
p210
NNNI9
I1
I0
tp211
bS'container'
p212
tp213
Rp214
I27
I0
tp215
a(g4
(g5
(S'S9'
p216
I0
I1
tp217
Rp218
(I3
S'|'
p219
NNNI9
I1
I0
tp220
bS'container'
p221
tp222
Rp223
I2
I1
tp224
a(g4
(g5
(S'S9'
p225
I0
I1
tp226
Rp227
(I3
S'|'
p228
NNNI9
I1
I0
tp229
bS'container'
p230
tp231
Rp232
I17
I0
tp233
a(g4
(g5
(S'S6'
p234
I0
I1
tp235
Rp236
(I3
S'|'
p237
NNNI6
I1
I0
tp238
bS'column'
p239
tp240
Rp241
I20
I1
tp242
a(g4
(g5
(S'S6'
p243
I0
I1
tp244
Rp245
(I3
S'|'
p246
NNNI6
I1
I0
tp247
bS'column'
p248
tp249
Rp250
I27
I0
tp251
a(g4
(g5
(S'S6'
p252
I0
I1
tp253
Rp254
(I3
S'|'
p255
NNNI6
I1
I0
tp256
bS'column'
p257
tp258
Rp259
I20
I1
tp260
a(g4
(g5
(S'S5'
p261
I0
I1
tp262
Rp263
(I3
S'|'
p264
NNNI5
I1
I0
tp265
bS'block'
p266
tp267
Rp268
I10
I0
tp269
a(g268
I3
I0
tp270
a(g268
I27
I0
tp271
a(g268
I7
I0
tp272
a(g268
I18
I0
tp273
a(g268
I2
I0
tp274
a(g268
I20
I0
tp275
a(g268
I17
I0
tp276
a(g4
(g5
(S'S3'
p277
I0
I1
tp278
Rp279
(I3
S'|'
p280
NNNI3
I1
I0
tp281
bS'can'
p282
tp283
Rp284
I27
I0
tp285
aa(lp286
a.