(lp0
(lp1
(dp2
S'action'
p3
cnumpy.core.multiarray
scalar
p4
(cnumpy
dtype
p5
(S'S4'
p6
I0
I1
tp7
Rp8
(I3
S'|'
p9
NNNI4
I1
I0
tp10
bS'walk'
p11
tp12
Rp13
sS'recipient'
p14
NsS'patient'
p15
NsS'goal'
p16
g4
(g5
(S'S4'
p17
I0
I1
tp18
Rp19
(I3
S'|'
p20
NNNI4
I1
I0
tp21
bS'3422'
p22
tp23
Rp24
sS'source'
p25
Nsa(dp26
g3
g4
(g5
(S'S5'
p27
I0
I1
tp28
Rp29
(I3
S'|'
p30
NNNI5
I1
I0
tp31
bS'bring'
p32
tp33
Rp34
sg14
g4
(g5
(S'S1'
p35
I0
I1
tp36
Rp37
(I3
S'|'
p38
NNNI1
I1
I0
tp39
bS'p'
p40
tp41
Rp42
sg15
g4
(g5
(S'S7'
p43
I0
I1
tp44
Rp45
(I3
S'|'
p46
NNNI7
I1
I0
tp47
bS'oidx_26'
p48
tp49
Rp50
sg16
Nsg25
Nsa(dp51
g3
g4
(g5
(S'S4'
p52
I0
I1
tp53
Rp54
(I3
S'|'
p55
NNNI4
I1
I0
tp56
bS'move'
p57
tp58
Rp59
sg14
Nsg15
S'oidx_13'
p60
sg16
g4
(g5
(S'S4'
p61
I0
I1
tp62
Rp63
(I3
S'|'
p64
NNNI4
I1
I0
tp65
bS'3516'
p66
tp67
Rp68
sg25
g4
(g5
(S'S4'
p69
I0
I1
tp70
Rp71
(I3
S'|'
p72
NNNI4
I1
I0
tp73
bS'3514'
p74
tp75
Rp76
saa(lp77
(dp78
S'all'
p79
(lp80
S"go to walter ward 's office"
p81
asg15
(lp82
sg16
(lp83
S'go to walter ward'
p84
aS'go to office w'
p85
asg25
(lp86
sg3
(lp87
sg14
(lp88
sa(dp89
g79
(lp90
S'take a can to office p'
p91
asg15
(lp92
sg16
(lp93
sg25
(lp94
sg3
(lp95
sg14
(lp96
S'peggy parker'
p97
asa(dp98
g79
(lp99
S'move pringles from the lounge to the conference'
p100
asg15
(lp101
sg16
(lp102
S'the lounge'
p103
aS'conference'
p104
aS'conference room'
p105
aS'the conference room'
p106
asg25
(lp107
S'move to the conference room'
p108
aS'the lounge'
p109
asg3
(lp110
sg14
(lp111
saa(lp112
(g4
(g5
(S'S5'
p113
I0
I1
tp114
Rp115
(I3
S'|'
p116
NNNI5
I1
I0
tp117
bS'tower'
p118
tp119
Rp120
I10
I0
tp121
a(g120
I3
I0
tp122
a(g120
I27
I0
tp123
a(g120
I7
I0
tp124
a(g120
I18
I0
tp125
a(g120
I2
I0
tp126
a(g120
I20
I0
tp127
a(g120
I17
I0
tp128
a(g4
(g5
(S'S9'
p129
I0
I1
tp130
Rp131
(I3
S'|'
p132
NNNI9
I1
I0
tp133
bS'rectangle'
p134
tp135
Rp136
I10
I0
tp137
a(g136
I3
I0
tp138
a(g136
I27
I0
tp139
a(g136
I7
I0
tp140
a(g136
I18
I0
tp141
a(g136
I2
I0
tp142
a(g136
I20
I0
tp143
a(g136
I17
I0
tp144
a(g4
(g5
(S'S4'
p145
I0
I1
tp146
Rp147
(I3
S'|'
p148
NNNI4
I1
I0
tp149
bS'bean'
p150
tp151
Rp152
I10
I0
tp153
a(g152
I3
I0
tp154
a(g152
I27
I0
tp155
a(g152
I7
I0
tp156
a(g152
I18
I0
tp157
a(g152
I2
I0
tp158
a(g152
I20
I0
tp159
a(g152
I17
I0
tp160
a(g4
(g5
(S'S9'
p161
I0
I1
tp162
Rp163
(I3
S'|'
p164
NNNI9
I1
I0
tp165
bS'styrofoam'
p166
tp167
Rp168
I20
I1
tp169
a(g4
(g5
(S'S8'
p170
I0
I1
tp171
Rp172
(I3
S'|'
p173
NNNI8
I1
I0
tp174
bS'metallic'
p175
tp176
Rp177
I2
I1
tp178
a(g4
(g5
(S'S3'
p179
I0
I1
tp180
Rp181
(I3
S'|'
p182
NNNI3
I1
I0
tp183
bS'can'
p184
tp185
Rp186
I10
I1
tp187
a(g4
(g5
(S'S3'
p188
I0
I1
tp189
Rp190
(I3
S'|'
p191
NNNI3
I1
I0
tp192
bS'can'
p193
tp194
Rp195
I27
I0
tp196
a(g4
(g5
(S'S3'
p197
I0
I1
tp198
Rp199
(I3
S'|'
p200
NNNI3
I1
I0
tp201
bS'can'
p202
tp203
Rp204
I2
I1
tp205
a(g4
(g5
(S'S3'
p206
I0
I1
tp207
Rp208
(I3
S'|'
p209
NNNI3
I1
I0
tp210
bS'can'
p211
tp212
Rp213
I3
I0
tp214
a(g4
(g5
(S'S3'
p215
I0
I1
tp216
Rp217
(I3
S'|'
p218
NNNI3
I1
I0
tp219
bS'can'
p220
tp221
Rp222
I17
I0
tp223
a(g4
(g5
(S'S5'
p224
I0
I1
tp225
Rp226
(I3
S'|'
p227
NNNI5
I1
I0
tp228
bS'white'
p229
tp230
Rp231
I10
I0
tp232
a(g231
I3
I0
tp233
a(g231
I27
I0
tp234
a(g231
I7
I0
tp235
a(g231
I18
I0
tp236
a(g231
I2
I0
tp237
a(g231
I20
I0
tp238
a(g231
I17
I0
tp239
a(g4
(g5
(S'S5'
p240
I0
I1
tp241
Rp242
(I3
S'|'
p243
NNNI5
I1
I0
tp244
bS'empty'
p245
tp246
Rp247
I3
I1
tp248
a(g4
(g5
(S'S8'
p249
I0
I1
tp250
Rp251
(I3
S'|'
p252
NNNI8
I1
I0
tp253
bS'pringles'
p254
tp255
Rp256
I10
I0
tp257
a(g256
I3
I0
tp258
a(g256
I27
I0
tp259
a(g256
I7
I0
tp260
a(g256
I18
I0
tp261
a(g256
I2
I0
tp262
a(g256
I20
I0
tp263
a(g256
I17
I0
tp264
a(g4
(g5
(S'S3'
p265
I0
I1
tp266
Rp267
(I3
S'|'
p268
NNNI3
I1
I0
tp269
bS'can'
p270
tp271
Rp272
I10
I1
tp273
a(g4
(g5
(S'S5'
p274
I0
I1
tp275
Rp276
(I3
S'|'
p277
NNNI5
I1
I0
tp278
bS'spice'
p279
tp280
Rp281
I10
I0
tp282
a(g281
I3
I0
tp283
a(g281
I27
I0
tp284
a(g281
I7
I0
tp285
a(g281
I18
I0
tp286
a(g281
I2
I0
tp287
a(g281
I20
I0
tp288
a(g281
I17
I0
tp289
aa(lp290
a.