(lp0
(lp1
(dp2
S'action'
p3
cnumpy.core.multiarray
scalar
p4
(cnumpy
dtype
p5
(S'S4'
p6
I0
I1
tp7
Rp8
(I3
S'|'
p9
NNNI4
I1
I0
tp10
bS'walk'
p11
tp12
Rp13
sS'recipient'
p14
NsS'patient'
p15
NsS'goal'
p16
g4
(g5
(S'S4'
p17
I0
I1
tp18
Rp19
(I3
S'|'
p20
NNNI4
I1
I0
tp21
bS'3506'
p22
tp23
Rp24
sS'source'
p25
Nsaa(lp26
(dp27
S'all'
p28
(lp29
S'go to dave\xe2\x80\x99s office'
p30
asg15
(lp31
sg16
(lp32
S'the printer'
p33
asg25
(lp34
sg3
(lp35
sg14
(lp36
saa(lp37
(g4
(g5
(S'S9'
p38
I0
I1
tp39
Rp40
(I3
S'|'
p41
NNNI9
I1
I0
tp42
bS'container'
p43
tp44
Rp45
I2
I1
tp46
a(g4
(g5
(S'S5'
p47
I0
I1
tp48
Rp49
(I3
S'|'
p50
NNNI5
I1
I0
tp51
bS'peach'
p52
tp53
Rp54
I27
I1
tp55
a(g4
(g5
(S'S9'
p56
I0
I1
tp57
Rp58
(I3
S'|'
p59
NNNI9
I1
I0
tp60
bS'container'
p61
tp62
Rp63
I27
I0
tp64
a(g4
(g5
(S'S8'
p65
I0
I1
tp66
Rp67
(I3
S'|'
p68
NNNI8
I1
I0
tp69
bS'pringles'
p70
tp71
Rp72
I10
I0
tp73
a(g72
I3
I0
tp74
a(g72
I27
I0
tp75
a(g72
I7
I0
tp76
a(g72
I18
I0
tp77
a(g72
I2
I0
tp78
a(g72
I20
I0
tp79
a(g72
I17
I0
tp80
a(g4
(g5
(S'S9'
p81
I0
I1
tp82
Rp83
(I3
S'|'
p84
NNNI9
I1
I0
tp85
bS'styrofoam'
p86
tp87
Rp88
I10
I0
tp89
a(g88
I3
I0
tp90
a(g88
I27
I0
tp91
a(g88
I7
I0
tp92
a(g88
I18
I0
tp93
a(g88
I2
I0
tp94
a(g88
I20
I0
tp95
a(g88
I17
I0
tp96
aa(lp97
a.