(lp0
(lp1
(dp2
S'action'
p3
cnumpy.core.multiarray
scalar
p4
(cnumpy
dtype
p5
(S'S4'
p6
I0
I1
tp7
Rp8
(I3
S'|'
p9
NNNI4
I1
I0
tp10
bS'walk'
p11
tp12
Rp13
sS'recipient'
p14
NsS'patient'
p15
NsS'goal'
p16
g4
(g5
(S'S4'
p17
I0
I1
tp18
Rp19
(I3
S'|'
p20
NNNI4
I1
I0
tp21
bS'3402'
p22
tp23
Rp24
sS'source'
p25
Nsa(dp26
g3
g4
(g5
(S'S5'
p27
I0
I1
tp28
Rp29
(I3
S'|'
p30
NNNI5
I1
I0
tp31
bS'bring'
p32
tp33
Rp34
sg14
S'd'
p35
sg15
S'oidx_13'
p36
sg16
Nsg25
Nsaa(lp37
(dp38
S'all'
p39
(lp40
S"go to dr heidi hughes 's office"
p41
asg15
(lp42
sg16
(lp43
S"dr heidi hughes 's office"
p44
asg25
(lp45
sg3
(lp46
sg14
(lp47
sa(dp48
g39
(lp49
S'ask'
p50
asg15
(lp51
S'pringles'
p52
aS'yes'
p53
aS'pringles'
p54
aS'blue pringles'
p55
aS'blue pringles'
p56
aS'blue pringles'
p57
asg16
(lp58
sg25
(lp59
sg3
(lp60
sg14
(lp61
S'peggy parker'
p62
asaa(lp63
(g4
(g5
(S'S6'
p64
I0
I1
tp65
Rp66
(I3
S'|'
p67
NNNI6
I1
I0
tp68
bS'coffee'
p69
tp70
Rp71
I10
I0
tp72
a(g71
I3
I0
tp73
a(g71
I27
I0
tp74
a(g71
I7
I0
tp75
a(g71
I18
I0
tp76
a(g71
I2
I0
tp77
a(g71
I20
I0
tp78
a(g71
I17
I0
tp79
a(g4
(g5
(S'S5'
p80
I0
I1
tp81
Rp82
(I3
S'|'
p83
NNNI5
I1
I0
tp84
bS'white'
p85
tp86
Rp87
I10
I0
tp88
a(g87
I3
I0
tp89
a(g87
I27
I0
tp90
a(g87
I7
I0
tp91
a(g87
I18
I0
tp92
a(g87
I2
I0
tp93
a(g87
I20
I0
tp94
a(g87
I17
I0
tp95
a(g4
(g5
(S'S5'
p96
I0
I1
tp97
Rp98
(I3
S'|'
p99
NNNI5
I1
I0
tp100
bS'tower'
p101
tp102
Rp103
I10
I0
tp104
a(g103
I3
I0
tp105
a(g103
I27
I0
tp106
a(g103
I7
I0
tp107
a(g103
I18
I0
tp108
a(g103
I2
I0
tp109
a(g103
I20
I0
tp110
a(g103
I17
I0
tp111
a(g4
(g5
(S'S4'
p112
I0
I1
tp113
Rp114
(I3
S'|'
p115
NNNI4
I1
I0
tp116
bS'blue'
p117
tp118
Rp119
I18
I1
tp120
a(g4
(g5
(S'S8'
p121
I0
I1
tp122
Rp123
(I3
S'|'
p124
NNNI8
I1
I0
tp125
bS'cylinder'
p126
tp127
Rp128
I20
I1
tp129
a(g4
(g5
(S'S4'
p130
I0
I1
tp131
Rp132
(I3
S'|'
p133
NNNI4
I1
I0
tp134
bS'bean'
p135
tp136
Rp137
I10
I0
tp138
a(g137
I3
I0
tp139
a(g137
I27
I0
tp140
a(g137
I7
I0
tp141
a(g137
I18
I0
tp142
a(g137
I2
I0
tp143
a(g137
I20
I0
tp144
a(g137
I17
I0
tp145
a(g4
(g5
(S'S5'
p146
I0
I1
tp147
Rp148
(I3
S'|'
p149
NNNI5
I1
I0
tp150
bS'empty'
p151
tp152
Rp153
I10
I0
tp154
a(g153
I3
I0
tp155
a(g153
I27
I0
tp156
a(g153
I7
I0
tp157
a(g153
I18
I0
tp158
a(g153
I2
I0
tp159
a(g153
I20
I0
tp160
a(g153
I17
I0
tp161
a(g4
(g5
(S'S4'
p162
I0
I1
tp163
Rp164
(I3
S'|'
p165
NNNI4
I1
I0
tp166
bS'long'
p167
tp168
Rp169
I3
I1
tp170
a(g4
(g5
(S'S8'
p171
I0
I1
tp172
Rp173
(I3
S'|'
p174
NNNI8
I1
I0
tp175
bS'metallic'
p176
tp177
Rp178
I10
I0
tp179
a(g178
I3
I0
tp180
a(g178
I27
I0
tp181
a(g178
I7
I0
tp182
a(g178
I18
I0
tp183
a(g178
I2
I0
tp184
a(g178
I20
I0
tp185
a(g178
I17
I0
tp186
a(g4
(g5
(S'S8'
p187
I0
I1
tp188
Rp189
(I3
S'|'
p190
NNNI8
I1
I0
tp191
bS'pringles'
p192
tp193
Rp194
I10
I0
tp195
a(g194
I3
I0
tp196
a(g194
I27
I0
tp197
a(g194
I7
I0
tp198
a(g194
I18
I0
tp199
a(g194
I2
I0
tp200
a(g194
I20
I0
tp201
a(g194
I17
I0
tp202
aa(lp203
a.