(lp0
(lp1
(dp2
S'action'
p3
cnumpy.core.multiarray
scalar
p4
(cnumpy
dtype
p5
(S'S4'
p6
I0
I1
tp7
Rp8
(I3
S'|'
p9
NNNI4
I1
I0
tp10
bS'walk'
p11
tp12
Rp13
sS'recipient'
p14
NsS'patient'
p15
NsS'goal'
p16
S'3516'
p17
sS'source'
p18
Nsa(dp19
g3
g4
(g5
(S'S5'
p20
I0
I1
tp21
Rp22
(I3
S'|'
p23
NNNI5
I1
I0
tp24
bS'bring'
p25
tp26
Rp27
sg14
S's'
p28
sg15
S'oidx_13'
p29
sg16
Nsg18
Nsa(dp30
g3
g4
(g5
(S'S4'
p31
I0
I1
tp32
Rp33
(I3
S'|'
p34
NNNI4
I1
I0
tp35
bS'move'
p36
tp37
Rp38
sg14
Nsg15
S'oidx_25'
p39
sg16
g4
(g5
(S'S4'
p40
I0
I1
tp41
Rp42
(I3
S'|'
p43
NNNI4
I1
I0
tp44
bS'3404'
p45
tp46
Rp47
sg18
g4
(g5
(S'S4'
p48
I0
I1
tp49
Rp50
(I3
S'|'
p51
NNNI4
I1
I0
tp52
bS'3404'
p53
tp54
Rp55
saa(lp56
(dp57
S'all'
p58
(lp59
S'hi move to conference'
p60
asg15
(lp61
sg16
(lp62
S'conference'
p63
asg18
(lp64
sg3
(lp65
sg14
(lp66
sa(dp67
g58
(lp68
S'give the can'
p69
asg15
(lp70
sg16
(lp71
sg18
(lp72
sg3
(lp73
sg14
(lp74
S'can'
p75
aS'mallory mal maroon'
p76
asa(dp77
g58
(lp78
S'shift the can to dr nancy nagel office'
p79
asg15
(lp80
S'object'
p81
asg16
(lp82
S'dr nancy nagel office'
p83
asg18
(lp84
sg3
(lp85
sg14
(lp86
saa(lp87
(g4
(g5
(S'S5'
p88
I0
I1
tp89
Rp90
(I3
S'|'
p91
NNNI5
I1
I0
tp92
bS'block'
p93
tp94
Rp95
I10
I0
tp96
a(g95
I3
I0
tp97
a(g95
I27
I0
tp98
a(g95
I7
I0
tp99
a(g95
I18
I0
tp100
a(g95
I2
I0
tp101
a(g95
I20
I0
tp102
a(g95
I17
I0
tp103
a(g4
(g5
(S'S8'
p104
I0
I1
tp105
Rp106
(I3
S'|'
p107
NNNI8
I1
I0
tp108
bS'metallic'
p109
tp110
Rp111
I3
I1
tp112
a(g4
(g5
(S'S4'
p113
I0
I1
tp114
Rp115
(I3
S'|'
p116
NNNI4
I1
I0
tp117
bS'long'
p118
tp119
Rp120
I3
I1
tp121
a(g4
(g5
(S'S5'
p122
I0
I1
tp123
Rp124
(I3
S'|'
p125
NNNI5
I1
I0
tp126
bS'peach'
p127
tp128
Rp129
I7
I1
tp130
a(g4
(g5
(S'S3'
p131
I0
I1
tp132
Rp133
(I3
S'|'
p134
NNNI3
I1
I0
tp135
bS'can'
p136
tp137
Rp138
I18
I1
tp139
a(g4
(g5
(S'S3'
p140
I0
I1
tp141
Rp142
(I3
S'|'
p143
NNNI3
I1
I0
tp144
bS'can'
p145
tp146
Rp147
I27
I0
tp148
a(g4
(g5
(S'S3'
p149
I0
I1
tp150
Rp151
(I3
S'|'
p152
NNNI3
I1
I0
tp153
bS'can'
p154
tp155
Rp156
I18
I1
tp157
a(g4
(g5
(S'S3'
p158
I0
I1
tp159
Rp160
(I3
S'|'
p161
NNNI3
I1
I0
tp162
bS'can'
p163
tp164
Rp165
I20
I0
tp166
a(g4
(g5
(S'S3'
p167
I0
I1
tp168
Rp169
(I3
S'|'
p170
NNNI3
I1
I0
tp171
bS'can'
p172
tp173
Rp174
I10
I1
tp175
a(g4
(g5
(S'S3'
p176
I0
I1
tp177
Rp178
(I3
S'|'
p179
NNNI3
I1
I0
tp180
bS'can'
p181
tp182
Rp183
I2
I0
tp184
a(g4
(g5
(S'S3'
p185
I0
I1
tp186
Rp187
(I3
S'|'
p188
NNNI3
I1
I0
tp189
bS'can'
p190
tp191
Rp192
I17
I0
tp193
a(g4
(g5
(S'S3'
p194
I0
I1
tp195
Rp196
(I3
S'|'
p197
NNNI3
I1
I0
tp198
bS'can'
p199
tp200
Rp201
I7
I0
tp202
a(g4
(g5
(S'S6'
p203
I0
I1
tp204
Rp205
(I3
S'|'
p206
NNNI6
I1
I0
tp207
bS'column'
p208
tp209
Rp210
I10
I1
tp211
a(g4
(g5
(S'S8'
p212
I0
I1
tp213
Rp214
(I3
S'|'
p215
NNNI8
I1
I0
tp216
bS'metallic'
p217
tp218
Rp219
I3
I0
tp220
a(g4
(g5
(S'S5'
p221
I0
I1
tp222
Rp223
(I3
S'|'
p224
NNNI5
I1
I0
tp225
bS'spice'
p226
tp227
Rp228
I10
I0
tp229
a(g228
I3
I0
tp230
a(g228
I27
I0
tp231
a(g228
I7
I0
tp232
a(g228
I18
I0
tp233
a(g228
I2
I0
tp234
a(g228
I20
I0
tp235
a(g228
I17
I0
tp236
aa(lp237
(g81
S'container'
p238
I00
tp239
a(g81
S'metallic'
p240
I00
tp241
aa.