(lp0
(lp1
(dp2
S'action'
p3
cnumpy.core.multiarray
scalar
p4
(cnumpy
dtype
p5
(S'S5'
p6
I0
I1
tp7
Rp8
(I3
S'|'
p9
NNNI5
I1
I0
tp10
bS'bring'
p11
tp12
Rp13
sS'recipient'
p14
g4
(g5
(S'S1'
p15
I0
I1
tp16
Rp17
(I3
S'|'
p18
NNNI1
I1
I0
tp19
bS'b'
p20
tp21
Rp22
sS'patient'
p23
S'oidx_22'
p24
sS'goal'
p25
NsS'source'
p26
Nsa(dp27
g3
g4
(g5
(S'S5'
p28
I0
I1
tp29
Rp30
(I3
S'|'
p31
NNNI5
I1
I0
tp32
bS'bring'
p33
tp34
Rp35
sg14
S'h'
p36
sg23
S'oidx_6'
p37
sg25
Nsg26
Nsa(dp38
g3
g4
(g5
(S'S5'
p39
I0
I1
tp40
Rp41
(I3
S'|'
p42
NNNI5
I1
I0
tp43
bS'bring'
p44
tp45
Rp46
sg14
S'n'
p47
sg23
g37
sg25
Nsg26
Nsaa(lp48
(dp49
S'all'
p50
(lp51
S'go to robert brown'
p52
asg23
(lp53
S'item'
p54
asg25
(lp55
sg26
(lp56
sg3
(lp57
sg14
(lp58
sa(dp59
g50
(lp60
S'give a can of coke to person m'
p61
asg23
(lp62
S'can'
p63
aS'can of coke'
p64
aS'can'
p65
aS'coke'
p66
aS'm'
p67
aS'm'
p68
aS'can'
p69
asg25
(lp70
sg26
(lp71
sg3
(lp72
sg14
(lp73
sa(dp74
g50
(lp75
S'deliver'
p76
asg23
(lp77
sg25
(lp78
sg26
(lp79
sg3
(lp80
sg14
(lp81
S'office'
p82
aS'office to the right ofs'
p83
asaa(lp84
(g4
(g5
(S'S6'
p85
I0
I1
tp86
Rp87
(I3
S'|'
p88
NNNI6
I1
I0
tp89
bS'column'
p90
tp91
Rp92
I10
I0
tp93
a(g92
I3
I0
tp94
a(g92
I27
I0
tp95
a(g92
I7
I0
tp96
a(g92
I18
I0
tp97
a(g92
I2
I0
tp98
a(g92
I20
I0
tp99
a(g92
I17
I0
tp100
a(g4
(g5
(S'S6'
p101
I0
I1
tp102
Rp103
(I3
S'|'
p104
NNNI6
I1
I0
tp105
bS'coffee'
p106
tp107
Rp108
I10
I0
tp109
a(g108
I3
I0
tp110
a(g108
I27
I0
tp111
a(g108
I7
I0
tp112
a(g108
I18
I0
tp113
a(g108
I2
I0
tp114
a(g108
I20
I0
tp115
a(g108
I17
I0
tp116
a(g4
(g5
(S'S8'
p117
I0
I1
tp118
Rp119
(I3
S'|'
p120
NNNI8
I1
I0
tp121
bS'cylinder'
p122
tp123
Rp124
I3
I1
tp125
a(g4
(g5
(S'S6'
p126
I0
I1
tp127
Rp128
(I3
S'|'
p129
NNNI6
I1
I0
tp130
bS'yellow'
p131
tp132
Rp133
I10
I0
tp134
a(g133
I3
I0
tp135
a(g133
I27
I0
tp136
a(g133
I7
I0
tp137
a(g133
I18
I0
tp138
a(g133
I2
I0
tp139
a(g133
I20
I0
tp140
a(g133
I17
I0
tp141
a(g4
(g5
(S'S5'
p142
I0
I1
tp143
Rp144
(I3
S'|'
p145
NNNI5
I1
I0
tp146
bS'white'
p147
tp148
Rp149
I10
I0
tp150
a(g149
I3
I0
tp151
a(g149
I27
I0
tp152
a(g149
I7
I0
tp153
a(g149
I18
I0
tp154
a(g149
I2
I0
tp155
a(g149
I20
I0
tp156
a(g149
I17
I0
tp157
a(g4
(g5
(S'S5'
p158
I0
I1
tp159
Rp160
(I3
S'|'
p161
NNNI5
I1
I0
tp162
bS'block'
p163
tp164
Rp165
I10
I0
tp166
a(g165
I3
I0
tp167
a(g165
I27
I0
tp168
a(g165
I7
I0
tp169
a(g165
I18
I0
tp170
a(g165
I2
I0
tp171
a(g165
I20
I0
tp172
a(g165
I17
I0
tp173
a(g4
(g5
(S'S9'
p174
I0
I1
tp175
Rp176
(I3
S'|'
p177
NNNI9
I1
I0
tp178
bS'rectangle'
p179
tp180
Rp181
I10
I0
tp182
a(g181
I3
I0
tp183
a(g181
I27
I0
tp184
a(g181
I7
I0
tp185
a(g181
I18
I0
tp186
a(g181
I2
I0
tp187
a(g181
I20
I0
tp188
a(g181
I17
I0
tp189
a(g4
(g5
(S'S9'
p190
I0
I1
tp191
Rp192
(I3
S'|'
p193
NNNI9
I1
I0
tp194
bS'styrofoam'
p195
tp196
Rp197
I20
I1
tp198
a(g4
(g5
(S'S8'
p199
I0
I1
tp200
Rp201
(I3
S'|'
p202
NNNI8
I1
I0
tp203
bS'pringles'
p204
tp205
Rp206
I10
I0
tp207
a(g206
I3
I0
tp208
a(g206
I27
I0
tp209
a(g206
I7
I0
tp210
a(g206
I18
I0
tp211
a(g206
I2
I0
tp212
a(g206
I20
I0
tp213
a(g206
I17
I0
tp214
a(g4
(g5
(S'S5'
p215
I0
I1
tp216
Rp217
(I3
S'|'
p218
NNNI5
I1
I0
tp219
bS'empty'
p220
tp221
Rp222
I10
I0
tp223
a(g222
I3
I0
tp224
a(g222
I27
I0
tp225
a(g222
I7
I0
tp226
a(g222
I18
I0
tp227
a(g222
I2
I0
tp228
a(g222
I20
I0
tp229
a(g222
I17
I0
tp230
a(g4
(g5
(S'S9'
p231
I0
I1
tp232
Rp233
(I3
S'|'
p234
NNNI9
I1
I0
tp235
bS'styrofoam'
p236
tp237
Rp238
I10
I1
tp239
a(g238
I3
I1
tp240
a(g238
I27
I1
tp241
a(g238
I7
I1
tp242
a(g238
I18
I1
tp243
a(g238
I2
I1
tp244
a(g238
I20
I1
tp245
a(g238
I17
I1
tp246
a(g4
(g5
(S'S4'
p247
I0
I1
tp248
Rp249
(I3
S'|'
p250
NNNI4
I1
I0
tp251
bS'bean'
p252
tp253
Rp254
I10
I0
tp255
a(g254
I3
I0
tp256
a(g254
I27
I0
tp257
a(g254
I7
I0
tp258
a(g254
I18
I0
tp259
a(g254
I2
I0
tp260
a(g254
I20
I0
tp261
a(g254
I17
I0
tp262
a(g4
(g5
(S'S8'
p263
I0
I1
tp264
Rp265
(I3
S'|'
p266
NNNI8
I1
I0
tp267
bS'cylinder'
p268
tp269
Rp270
I20
I0
tp271
a(g4
(g5
(S'S4'
p272
I0
I1
tp273
Rp274
(I3
S'|'
p275
NNNI4
I1
I0
tp276
bS'long'
p277
tp278
Rp279
I7
I1
tp280
a(g4
(g5
(S'S8'
p281
I0
I1
tp282
Rp283
(I3
S'|'
p284
NNNI8
I1
I0
tp285
bS'cylinder'
p286
tp287
Rp288
I3
I1
tp289
aa(lp290
a.