(lp0
(lp1
(dp2
S'action'
p3
cnumpy.core.multiarray
scalar
p4
(cnumpy
dtype
p5
(S'S4'
p6
I0
I1
tp7
Rp8
(I3
S'|'
p9
NNNI4
I1
I0
tp10
bS'walk'
p11
tp12
Rp13
sS'recipient'
p14
NsS'patient'
p15
NsS'goal'
p16
g4
(g5
(S'S4'
p17
I0
I1
tp18
Rp19
(I3
S'|'
p20
NNNI4
I1
I0
tp21
bS'3518'
p22
tp23
Rp24
sS'source'
p25
Nsa(dp26
g3
g4
(g5
(S'S5'
p27
I0
I1
tp28
Rp29
(I3
S'|'
p30
NNNI5
I1
I0
tp31
bS'bring'
p32
tp33
Rp34
sg14
S'd'
p35
sg15
S'oidx_28'
p36
sg16
Nsg25
Nsaa(lp37
(dp38
S'all'
p39
(lp40
S'go to the pod near conference room'
p41
asg15
(lp42
sg16
(lp43
S'the pod near the lab and conference room'
p44
asg25
(lp45
sg3
(lp46
sg14
(lp47
sa(dp48
g39
(lp49
S'find an object'
p50
asg15
(lp51
S'dr heidi hughes'
p52
aS'a yellow can'
p53
asg16
(lp54
sg25
(lp55
sg3
(lp56
sg14
(lp57
saa(lp58
(g4
(g5
(S'S6'
p59
I0
I1
tp60
Rp61
(I3
S'|'
p62
NNNI6
I1
I0
tp63
bS'column'
p64
tp65
Rp66
I10
I0
tp67
a(g66
I3
I0
tp68
a(g66
I27
I0
tp69
a(g66
I7
I0
tp70
a(g66
I18
I0
tp71
a(g66
I2
I0
tp72
a(g66
I20
I0
tp73
a(g66
I17
I0
tp74
a(g4
(g5
(S'S8'
p75
I0
I1
tp76
Rp77
(I3
S'|'
p78
NNNI8
I1
I0
tp79
bS'cylinder'
p80
tp81
Rp82
I3
I1
tp83
a(g4
(g5
(S'S8'
p84
I0
I1
tp85
Rp86
(I3
S'|'
p87
NNNI8
I1
I0
tp88
bS'pringles'
p89
tp90
Rp91
I10
I0
tp92
a(g91
I3
I0
tp93
a(g91
I27
I0
tp94
a(g91
I7
I0
tp95
a(g91
I18
I0
tp96
a(g91
I2
I0
tp97
a(g91
I20
I0
tp98
a(g91
I17
I0
tp99
a(g4
(g5
(S'S9'
p100
I0
I1
tp101
Rp102
(I3
S'|'
p103
NNNI9
I1
I0
tp104
bS'styrofoam'
p105
tp106
Rp107
I20
I1
tp108
a(g4
(g5
(S'S6'
p109
I0
I1
tp110
Rp111
(I3
S'|'
p112
NNNI6
I1
I0
tp113
bS'coffee'
p114
tp115
Rp116
I10
I0
tp117
a(g116
I3
I0
tp118
a(g116
I27
I0
tp119
a(g116
I7
I0
tp120
a(g116
I18
I0
tp121
a(g116
I2
I0
tp122
a(g116
I20
I0
tp123
a(g116
I17
I0
tp124
a(g4
(g5
(S'S4'
p125
I0
I1
tp126
Rp127
(I3
S'|'
p128
NNNI4
I1
I0
tp129
bS'blue'
p130
tp131
Rp132
I18
I1
tp133
a(g4
(g5
(S'S9'
p134
I0
I1
tp135
Rp136
(I3
S'|'
p137
NNNI9
I1
I0
tp138
bS'rectangle'
p139
tp140
Rp141
I10
I0
tp142
a(g141
I3
I0
tp143
a(g141
I27
I0
tp144
a(g141
I7
I0
tp145
a(g141
I18
I0
tp146
a(g141
I2
I0
tp147
a(g141
I20
I0
tp148
a(g141
I17
I0
tp149
a(g4
(g5
(S'S5'
p150
I0
I1
tp151
Rp152
(I3
S'|'
p153
NNNI5
I1
I0
tp154
bS'block'
p155
tp156
Rp157
I10
I0
tp158
a(g157
I3
I0
tp159
a(g157
I27
I0
tp160
a(g157
I7
I0
tp161
a(g157
I18
I0
tp162
a(g157
I2
I0
tp163
a(g157
I20
I0
tp164
a(g157
I17
I0
tp165
a(g4
(g5
(S'S9'
p166
I0
I1
tp167
Rp168
(I3
S'|'
p169
NNNI9
I1
I0
tp170
bS'styrofoam'
p171
tp172
Rp173
I20
I0
tp174
a(g4
(g5
(S'S9'
p175
I0
I1
tp176
Rp177
(I3
S'|'
p178
NNNI9
I1
I0
tp179
bS'container'
p180
tp181
Rp182
I2
I1
tp183
aa(lp184
(S'object'
p185
S'container'
p186
I01
tp187
aa.