(lp0
(lp1
(dp2
S'action'
p3
cnumpy.core.multiarray
scalar
p4
(cnumpy
dtype
p5
(S'S4'
p6
I0
I1
tp7
Rp8
(I3
S'|'
p9
NNNI4
I1
I0
tp10
bS'move'
p11
tp12
Rp13
sS'recipient'
p14
NsS'patient'
p15
S'oidx_22'
p16
sS'goal'
p17
S'3404'
p18
sS'source'
p19
S'3502'
p20
sa(dp21
g3
g4
(g5
(S'S5'
p22
I0
I1
tp23
Rp24
(I3
S'|'
p25
NNNI5
I1
I0
tp26
bS'bring'
p27
tp28
Rp29
sg14
g4
(g5
(S'S1'
p30
I0
I1
tp31
Rp32
(I3
S'|'
p33
NNNI1
I1
I0
tp34
bS's'
p35
tp36
Rp37
sg15
g4
(g5
(S'S6'
p38
I0
I1
tp39
Rp40
(I3
S'|'
p41
NNNI6
I1
I0
tp42
bS'oidx_6'
p43
tp44
Rp45
sg17
Nsg19
Nsa(dp46
g3
g4
(g5
(S'S5'
p47
I0
I1
tp48
Rp49
(I3
S'|'
p50
NNNI5
I1
I0
tp51
bS'bring'
p52
tp53
Rp54
sg14
S'd'
p55
sg15
S'oidx_13'
p56
sg17
Nsg19
Nsaa(lp57
(dp58
S'all'
p59
(lp60
S'move to the office to the left of davids office'
p61
asg15
(lp62
sg17
(lp63
S'to davids office'
p64
aS'the office to the left of davids office'
p65
aS'to the other side of the building'
p66
asg19
(lp67
S'from davids office'
p68
aS'from davids office'
p69
asg3
(lp70
sg14
(lp71
sa(dp72
g59
(lp73
S'give the white bottle to dr sybil smalt'
p74
asg15
(lp75
S'a white container'
p76
aS'a white container with a lid'
p77
aS'a white container with a white round lid on top'
p78
aS'the small white container on the table'
p79
aS'a white container'
p80
asg17
(lp81
sg19
(lp82
sg3
(lp83
sg14
(lp84
sa(dp85
g59
(lp86
S'move the blue container across the hall to the lab'
p87
asg15
(lp88
S'a blue container'
p89
asg17
(lp90
sg19
(lp91
sg3
(lp92
sg14
(lp93
S'to the lab'
p94
aS'the lab in the center of the building'
p95
aS'the room across from you'
p96
aS'the lab next to the printer'
p97
aS'the lab across from you'
p98
aS'to the room straight ahead of you'
p99
aS'to the room across the hall from davids office'
p100
asaa(lp101
(g4
(g5
(S'S4'
p102
I0
I1
tp103
Rp104
(I3
S'|'
p105
NNNI4
I1
I0
tp106
bS'bean'
p107
tp108
Rp109
I10
I0
tp110
a(g109
I3
I0
tp111
a(g109
I27
I0
tp112
a(g109
I7
I0
tp113
a(g109
I18
I0
tp114
a(g109
I2
I0
tp115
a(g109
I20
I0
tp116
a(g109
I17
I0
tp117
a(g4
(g5
(S'S5'
p118
I0
I1
tp119
Rp120
(I3
S'|'
p121
NNNI5
I1
I0
tp122
bS'white'
p123
tp124
Rp125
I10
I0
tp126
a(g125
I3
I0
tp127
a(g125
I27
I0
tp128
a(g125
I7
I0
tp129
a(g125
I18
I0
tp130
a(g125
I2
I0
tp131
a(g125
I20
I0
tp132
a(g125
I17
I0
tp133
a(g4
(g5
(S'S8'
p134
I0
I1
tp135
Rp136
(I3
S'|'
p137
NNNI8
I1
I0
tp138
bS'metallic'
p139
tp140
Rp141
I10
I0
tp142
a(g141
I3
I0
tp143
a(g141
I27
I0
tp144
a(g141
I7
I0
tp145
a(g141
I18
I0
tp146
a(g141
I2
I0
tp147
a(g141
I20
I0
tp148
a(g141
I17
I0
tp149
a(g4
(g5
(S'S9'
p150
I0
I1
tp151
Rp152
(I3
S'|'
p153
NNNI9
I1
I0
tp154
bS'rectangle'
p155
tp156
Rp157
I10
I0
tp158
a(g157
I3
I0
tp159
a(g157
I27
I0
tp160
a(g157
I7
I0
tp161
a(g157
I18
I0
tp162
a(g157
I2
I0
tp163
a(g157
I20
I0
tp164
a(g157
I17
I0
tp165
a(g4
(g5
(S'S4'
p166
I0
I1
tp167
Rp168
(I3
S'|'
p169
NNNI4
I1
I0
tp170
bS'blue'
p171
tp172
Rp173
I18
I1
tp174
a(g4
(g5
(S'S9'
p175
I0
I1
tp176
Rp177
(I3
S'|'
p178
NNNI9
I1
I0
tp179
bS'container'
p180
tp181
Rp182
I10
I1
tp183
a(g4
(g5
(S'S9'
p184
I0
I1
tp185
Rp186
(I3
S'|'
p187
NNNI9
I1
I0
tp188
bS'container'
p189
tp190
Rp191
I27
I0
tp192
a(g4
(g5
(S'S9'
p193
I0
I1
tp194
Rp195
(I3
S'|'
p196
NNNI9
I1
I0
tp197
bS'container'
p198
tp199
Rp200
I10
I1
tp201
a(g4
(g5
(S'S9'
p202
I0
I1
tp203
Rp204
(I3
S'|'
p205
NNNI9
I1
I0
tp206
bS'container'
p207
tp208
Rp209
I27
I0
tp210
a(g4
(g5
(S'S9'
p211
I0
I1
tp212
Rp213
(I3
S'|'
p214
NNNI9
I1
I0
tp215
bS'container'
p216
tp217
Rp218
I18
I1
tp219
a(g4
(g5
(S'S4'
p220
I0
I1
tp221
Rp222
(I3
S'|'
p223
NNNI4
I1
I0
tp224
bS'blue'
p225
tp226
Rp227
I18
I0
tp228
a(g4
(g5
(S'S9'
p229
I0
I1
tp230
Rp231
(I3
S'|'
p232
NNNI9
I1
I0
tp233
bS'container'
p234
tp235
Rp236
I20
I0
tp237
a(g4
(g5
(S'S8'
p238
I0
I1
tp239
Rp240
(I3
S'|'
p241
NNNI8
I1
I0
tp242
bS'cylinder'
p243
tp244
Rp245
I3
I1
tp246
a(g4
(g5
(S'S5'
p247
I0
I1
tp248
Rp249
(I3
S'|'
p250
NNNI5
I1
I0
tp251
bS'peach'
p252
tp253
Rp254
I10
I0
tp255
a(g254
I3
I0
tp256
a(g254
I27
I0
tp257
a(g254
I7
I0
tp258
a(g254
I18
I0
tp259
a(g254
I2
I0
tp260
a(g254
I20
I0
tp261
a(g254
I17
I0
tp262
a(g4
(g5
(S'S3'
p263
I0
I1
tp264
Rp265
(I3
S'|'
p266
NNNI3
I1
I0
tp267
bS'can'
p268
tp269
Rp270
I10
I1
tp271
aa(lp272
(S'bottle'
p273
S'container'
p274
I01
tp275
a(S'lid'
p276
g274
I00
tp277
a(g276
S'cylinder'
p278
I00
tp279
a(S'small'
p280
S'white'
p281
I00
tp282
aa.