(lp0
(lp1
(dp2
S'action'
p3
cnumpy.core.multiarray
scalar
p4
(cnumpy
dtype
p5
(S'S4'
p6
I0
I1
tp7
Rp8
(I3
S'|'
p9
NNNI4
I1
I0
tp10
bS'walk'
p11
tp12
Rp13
sS'recipient'
p14
NsS'patient'
p15
NsS'goal'
p16
S'3518'
p17
sS'source'
p18
Nsaa(lp19
(dp20
S'all'
p21
(lp22
S'go'
p23
asg15
(lp24
sg16
(lp25
S'w'
p26
aS'office'
p27
aS'office'
p28
aS'w'
p29
aS'move a bit'
p30
aS'left'
p31
aS'top'
p32
aS'w office'
p33
aS'too'
p34
aS'move'
p35
aS'top'
p36
asg18
(lp37
sg3
(lp38
sg14
(lp39
saa(lp40
(g4
(g5
(S'S3'
p41
I0
I1
tp42
Rp43
(I3
S'|'
p44
NNNI3
I1
I0
tp45
bS'can'
p46
tp47
Rp48
I0
I0
tp49
a(g4
(g5
(S'S6'
p50
I0
I1
tp51
Rp52
(I3
S'|'
p53
NNNI6
I1
I0
tp54
bS'coffee'
p55
tp56
Rp57
I19
I1
tp58
a(g4
(g5
(S'S3'
p59
I0
I1
tp60
Rp61
(I3
S'|'
p62
NNNI3
I1
I0
tp63
bS'can'
p64
tp65
Rp66
I4
I0
tp67
a(g4
(g5
(S'S5'
p68
I0
I1
tp69
Rp70
(I3
S'|'
p71
NNNI5
I1
I0
tp72
bS'clear'
p73
tp74
Rp75
I21
I0
tp76
a(g75
I24
I0
tp77
a(g75
I19
I0
tp78
a(g75
I23
I0
tp79
a(g75
I16
I0
tp80
a(g75
I0
I0
tp81
a(g75
I4
I0
tp82
a(g75
I9
I0
tp83
a(g4
(g5
(S'S4'
p84
I0
I1
tp85
Rp86
(I3
S'|'
p87
NNNI4
I1
I0
tp88
bS'long'
p89
tp90
Rp91
I16
I1
tp92
aa(lp93
a.