(lp0
(lp1
(dp2
S'action'
p3
cnumpy.core.multiarray
scalar
p4
(cnumpy
dtype
p5
(S'S4'
p6
I0
I1
tp7
Rp8
(I3
S'|'
p9
NNNI4
I1
I0
tp10
bS'walk'
p11
tp12
Rp13
sS'recipient'
p14
NsS'patient'
p15
NsS'goal'
p16
g4
(g5
(S'S4'
p17
I0
I1
tp18
Rp19
(I3
S'|'
p20
NNNI4
I1
I0
tp21
bS'3520'
p22
tp23
Rp24
sS'source'
p25
Nsa(dp26
g3
g4
(g5
(S'S5'
p27
I0
I1
tp28
Rp29
(I3
S'|'
p30
NNNI5
I1
I0
tp31
bS'bring'
p32
tp33
Rp34
sg14
g4
(g5
(S'S1'
p35
I0
I1
tp36
Rp37
(I3
S'|'
p38
NNNI1
I1
I0
tp39
bS's'
p40
tp41
Rp42
sg15
S'oidx_13'
p43
sg16
Nsg25
Nsaa(lp44
(dp45
S'all'
p46
(lp47
S'move to kitchen'
p48
asg15
(lp49
sg16
(lp50
sg25
(lp51
sg3
(lp52
sg14
(lp53
sa(dp54
g46
(lp55
S'go straight and pick it'
p56
asg15
(lp57
S'object'
p58
asg16
(lp59
sg25
(lp60
sg3
(lp61
sg14
(lp62
S'person s'
p63
asaa(lp64
(g4
(g5
(S'S3'
p65
I0
I1
tp66
Rp67
(I3
S'|'
p68
NNNI3
I1
I0
tp69
bS'red'
p70
tp71
Rp72
I24
I0
tp73
a(g4
(g5
(S'S9'
p74
I0
I1
tp75
Rp76
(I3
S'|'
p77
NNNI9
I1
I0
tp78
bS'styrofoam'
p79
tp80
Rp81
I9
I0
tp82
a(g4
(g5
(S'S3'
p83
I0
I1
tp84
Rp85
(I3
S'|'
p86
NNNI3
I1
I0
tp87
bS'red'
p88
tp89
Rp90
I16
I0
tp91
a(g4
(g5
(S'S4'
p92
I0
I1
tp93
Rp94
(I3
S'|'
p95
NNNI4
I1
I0
tp96
bS'blue'
p97
tp98
Rp99
I0
I1
tp100
a(g4
(g5
(S'S5'
p101
I0
I1
tp102
Rp103
(I3
S'|'
p104
NNNI5
I1
I0
tp105
bS'spice'
p106
tp107
Rp108
I19
I1
tp109
a(g4
(g5
(S'S3'
p110
I0
I1
tp111
Rp112
(I3
S'|'
p113
NNNI3
I1
I0
tp114
bS'can'
p115
tp116
Rp117
I9
I1
tp118
a(g4
(g5
(S'S9'
p119
I0
I1
tp120
Rp121
(I3
S'|'
p122
NNNI9
I1
I0
tp123
bS'container'
p124
tp125
Rp126
I4
I1
tp127
a(g4
(g5
(S'S8'
p128
I0
I1
tp129
Rp130
(I3
S'|'
p131
NNNI8
I1
I0
tp132
bS'cylinder'
p133
tp134
Rp135
I19
I0
tp136
a(g4
(g5
(S'S5'
p137
I0
I1
tp138
Rp139
(I3
S'|'
p140
NNNI5
I1
I0
tp141
bS'brown'
p142
tp143
Rp144
I19
I0
tp145
a(g4
(g5
(S'S5'
p146
I0
I1
tp147
Rp148
(I3
S'|'
p149
NNNI5
I1
I0
tp150
bS'spice'
p151
tp152
Rp153
I4
I0
tp154
aa(lp155
a.