(lp0
(lp1
(dp2
S'action'
p3
cnumpy.core.multiarray
scalar
p4
(cnumpy
dtype
p5
(S'S4'
p6
I0
I1
tp7
Rp8
(I3
S'|'
p9
NNNI4
I1
I0
tp10
bS'walk'
p11
tp12
Rp13
sS'recipient'
p14
NsS'patient'
p15
NsS'goal'
p16
S'3512'
p17
sS'source'
p18
Nsa(dp19
g3
g4
(g5
(S'S4'
p20
I0
I1
tp21
Rp22
(I3
S'|'
p23
NNNI4
I1
I0
tp24
bS'walk'
p25
tp26
Rp27
sg14
Nsg15
Nsg16
S'3402'
p28
sg18
Nsa(dp29
g3
g4
(g5
(S'S4'
p30
I0
I1
tp31
Rp32
(I3
S'|'
p33
NNNI4
I1
I0
tp34
bS'move'
p35
tp36
Rp37
sg14
Nsg15
S'oidx_25'
p38
sg16
S'3430'
p39
sg18
S'3404'
p40
saa(lp41
(dp42
S'all'
p43
(lp44
S'go'
p45
asg15
(lp46
sg16
(lp47
S'go thank you'
p48
aS'go office'
p49
aS'go any alce'
p50
aS'go'
p51
asg18
(lp52
sg3
(lp53
sg14
(lp54
sa(dp55
g43
(lp56
S'go n'
p57
asg15
(lp58
sg16
(lp59
S'go any'
p60
aS'go any'
p61
aS'go'
p62
aS'please go next task'
p63
aS'go next'
p64
aS'next'
p65
aS'yes'
p66
asg18
(lp67
sg3
(lp68
sg14
(lp69
sa(dp70
g43
(lp71
S'kitchen'
p72
asg15
(lp73
S'yes go to s'
p74
asg16
(lp75
S'yes'
p76
asg18
(lp77
S'yes'
p78
asg3
(lp79
sg14
(lp80
saa(lp81
(g4
(g5
(S'S6'
p82
I0
I1
tp83
Rp84
(I3
S'|'
p85
NNNI6
I1
I0
tp86
bS'yellow'
p87
tp88
Rp89
I4
I1
tp90
a(g4
(g5
(S'S5'
p91
I0
I1
tp92
Rp93
(I3
S'|'
p94
NNNI5
I1
I0
tp95
bS'empty'
p96
tp97
Rp98
I9
I1
tp99
a(g4
(g5
(S'S5'
p100
I0
I1
tp101
Rp102
(I3
S'|'
p103
NNNI5
I1
I0
tp104
bS'tower'
p105
tp106
Rp107
I9
I1
tp108
a(g4
(g5
(S'S5'
p109
I0
I1
tp110
Rp111
(I3
S'|'
p112
NNNI5
I1
I0
tp113
bS'tower'
p114
tp115
Rp116
I16
I1
tp117
a(g4
(g5
(S'S9'
p118
I0
I1
tp119
Rp120
(I3
S'|'
p121
NNNI9
I1
I0
tp122
bS'container'
p123
tp124
Rp125
I23
I1
tp126
a(g4
(g5
(S'S3'
p127
I0
I1
tp128
Rp129
(I3
S'|'
p130
NNNI3
I1
I0
tp131
bS'n_0'
p132
tp133
Rp134
I21
I0
tp135
a(g134
I24
I0
tp136
a(g134
I19
I0
tp137
a(g134
I23
I0
tp138
a(g134
I16
I0
tp139
a(g134
I0
I0
tp140
a(g134
I4
I0
tp141
a(g134
I9
I0
tp142
a(g4
(g5
(S'S3'
p143
I0
I1
tp144
Rp145
(I3
S'|'
p146
NNNI3
I1
I0
tp147
bS'red'
p148
tp149
Rp150
I24
I0
tp151
a(g4
(g5
(S'S9'
p152
I0
I1
tp153
Rp154
(I3
S'|'
p155
NNNI9
I1
I0
tp156
bS'styrofoam'
p157
tp158
Rp159
I16
I1
tp160
a(g4
(g5
(S'S5'
p161
I0
I1
tp162
Rp163
(I3
S'|'
p164
NNNI5
I1
I0
tp165
bS'clear'
p166
tp167
Rp168
I24
I1
tp169
a(g4
(g5
(S'S9'
p170
I0
I1
tp171
Rp172
(I3
S'|'
p173
NNNI9
I1
I0
tp174
bS'container'
p175
tp176
Rp177
I24
I1
tp178
a(g4
(g5
(S'S5'
p179
I0
I1
tp180
Rp181
(I3
S'|'
p182
NNNI5
I1
I0
tp183
bS'peach'
p184
tp185
Rp186
I0
I1
tp187
a(g4
(g5
(S'S9'
p188
I0
I1
tp189
Rp190
(I3
S'|'
p191
NNNI9
I1
I0
tp192
bS'container'
p193
tp194
Rp195
I4
I1
tp196
a(g4
(g5
(S'S5'
p197
I0
I1
tp198
Rp199
(I3
S'|'
p200
NNNI5
I1
I0
tp201
bS'clear'
p202
tp203
Rp204
I4
I1
tp205
a(g4
(g5
(S'S9'
p206
I0
I1
tp207
Rp208
(I3
S'|'
p209
NNNI9
I1
I0
tp210
bS'styrofoam'
p211
tp212
Rp213
I19
I1
tp214
a(g4
(g5
(S'S5'
p215
I0
I1
tp216
Rp217
(I3
S'|'
p218
NNNI5
I1
I0
tp219
bS'empty'
p220
tp221
Rp222
I0
I1
tp223
aa(lp224
(S'any'
p225
S'tall'
p226
I01
tp227
a(S'n'
p228
g4
(g5
(S'S5'
p229
I0
I1
tp230
Rp231
(I3
S'|'
p232
NNNI5
I1
I0
tp233
bS'large'
p234
tp235
Rp236
I00
tp237
aa.