(lp0
(lp1
(dp2
S'action'
p3
cnumpy.core.multiarray
scalar
p4
(cnumpy
dtype
p5
(S'S5'
p6
I0
I1
tp7
Rp8
(I3
S'|'
p9
NNNI5
I1
I0
tp10
bS'bring'
p11
tp12
Rp13
sS'recipient'
p14
S'd'
p15
sS'patient'
p16
S'oidx_13'
p17
sS'goal'
p18
NsS'source'
p19
Nsaa(lp20
(dp21
S'all'
p22
(lp23
S'robert bob brown is cancelled'
p24
asg16
(lp25
S'gift'
p26
aS'yes'
p27
asg18
(lp28
sg19
(lp29
sg3
(lp30
sg14
(lp31
saa(lp32
(g4
(g5
(S'S5'
p33
I0
I1
tp34
Rp35
(I3
S'|'
p36
NNNI5
I1
I0
tp37
bS'peach'
p38
tp39
Rp40
I21
I0
tp41
a(g40
I24
I0
tp42
a(g40
I19
I0
tp43
a(g40
I23
I0
tp44
a(g40
I16
I0
tp45
a(g40
I0
I0
tp46
a(g40
I4
I0
tp47
a(g40
I9
I0
tp48
a(g4
(g5
(S'S9'
p49
I0
I1
tp50
Rp51
(I3
S'|'
p52
NNNI9
I1
I0
tp53
bS'styrofoam'
p54
tp55
Rp56
I16
I1
tp57
a(g4
(g5
(S'S3'
p58
I0
I1
tp59
Rp60
(I3
S'|'
p61
NNNI3
I1
I0
tp62
bS'can'
p63
tp64
Rp65
I4
I1
tp66
a(g4
(g5
(S'S4'
p67
I0
I1
tp68
Rp69
(I3
S'|'
p70
NNNI4
I1
I0
tp71
bS'blue'
p72
tp73
Rp74
I0
I1
tp75
a(g4
(g5
(S'S5'
p76
I0
I1
tp77
Rp78
(I3
S'|'
p79
NNNI5
I1
I0
tp80
bS'brown'
p81
tp82
Rp83
I4
I0
tp84
aa(lp85
(g26
S'peach'
p86
I01
tp87
aa.