(lp0
(lp1
(dp2
S'action'
p3
cnumpy.core.multiarray
scalar
p4
(cnumpy
dtype
p5
(S'S4'
p6
I0
I1
tp7
Rp8
(I3
S'|'
p9
NNNI4
I1
I0
tp10
bS'walk'
p11
tp12
Rp13
sS'recipient'
p14
NsS'patient'
p15
NsS'goal'
p16
S'3406'
p17
sS'source'
p18
Nsa(dp19
g3
g4
(g5
(S'S5'
p20
I0
I1
tp21
Rp22
(I3
S'|'
p23
NNNI5
I1
I0
tp24
bS'bring'
p25
tp26
Rp27
sg14
g4
(g5
(S'S1'
p28
I0
I1
tp29
Rp30
(I3
S'|'
p31
NNNI1
I1
I0
tp32
bS'h'
p33
tp34
Rp35
sg15
g4
(g5
(S'S7'
p36
I0
I1
tp37
Rp38
(I3
S'|'
p39
NNNI7
I1
I0
tp40
bS'oidx_25'
p41
tp42
Rp43
sg16
Nsg18
Nsa(dp44
g3
g4
(g5
(S'S4'
p45
I0
I1
tp46
Rp47
(I3
S'|'
p48
NNNI4
I1
I0
tp49
bS'walk'
p50
tp51
Rp52
sg14
Nsg15
Nsg16
S'3518'
p53
sg18
Nsaa(lp54
(dp55
S'all'
p56
(lp57
S"go across the hall from peggy parker 's office"
p58
asg15
(lp59
sg16
(lp60
S"go to peggy parker 's office"
p61
aS'go to the lounge'
p62
asg18
(lp63
sg3
(lp64
sg14
(lp65
sa(dp66
g56
(lp67
S'pick up the jar'
p68
asg15
(lp69
S'container'
p70
aS'container'
p71
asg16
(lp72
sg18
(lp73
sg3
(lp74
sg14
(lp75
S'dr heidi hughes'
p76
aS'dr heidi hughes'
p77
aS'dr heidi hughes'
p78
aS'dr heidi hughes'
p79
aS'dr heidi hughes h'
p80
aS'dr heidi hughes'
p81
aS'dr heidi hughes'
p82
aS'dr heidi hughes'
p83
aS'heidi'
p84
asa(dp85
g56
(lp86
S'take container from pod by conference room to office b'
p87
asg15
(lp88
sg16
(lp89
S'to the pod by the conference room'
p90
aS'to the pod to the right of the conference room'
p91
asg18
(lp92
sg3
(lp93
sg14
(lp94
saa(lp95
(g4
(g5
(S'S8'
p96
I0
I1
tp97
Rp98
(I3
S'|'
p99
NNNI8
I1
I0
tp100
bS'cylinder'
p101
tp102
Rp103
I21
I1
tp104
a(g103
I24
I1
tp105
a(g103
I19
I1
tp106
a(g103
I23
I1
tp107
a(g103
I16
I1
tp108
a(g103
I0
I1
tp109
a(g103
I4
I1
tp110
a(g103
I9
I1
tp111
a(g4
(g5
(S'S5'
p112
I0
I1
tp113
Rp114
(I3
S'|'
p115
NNNI5
I1
I0
tp116
bS'empty'
p117
tp118
Rp119
I21
I0
tp120
a(g4
(g5
(S'S8'
p121
I0
I1
tp122
Rp123
(I3
S'|'
p124
NNNI8
I1
I0
tp125
bS'metallic'
p126
tp127
Rp128
I0
I1
tp129
a(g4
(g5
(S'S9'
p130
I0
I1
tp131
Rp132
(I3
S'|'
p133
NNNI9
I1
I0
tp134
bS'styrofoam'
p135
tp136
Rp137
I4
I0
tp138
a(g4
(g5
(S'S9'
p139
I0
I1
tp140
Rp141
(I3
S'|'
p142
NNNI9
I1
I0
tp143
bS'rectangle'
p144
tp145
Rp146
I21
I0
tp147
a(g146
I24
I0
tp148
a(g146
I19
I0
tp149
a(g146
I23
I0
tp150
a(g146
I16
I0
tp151
a(g146
I0
I0
tp152
a(g146
I4
I0
tp153
a(g146
I9
I0
tp154
a(g4
(g5
(S'S9'
p155
I0
I1
tp156
Rp157
(I3
S'|'
p158
NNNI9
I1
I0
tp159
bS'container'
p160
tp161
Rp162
I19
I1
tp163
a(g4
(g5
(S'S9'
p164
I0
I1
tp165
Rp166
(I3
S'|'
p167
NNNI9
I1
I0
tp168
bS'container'
p169
tp170
Rp171
I4
I1
tp172
a(g4
(g5
(S'S9'
p173
I0
I1
tp174
Rp175
(I3
S'|'
p176
NNNI9
I1
I0
tp177
bS'container'
p178
tp179
Rp180
I21
I1
tp181
a(g4
(g5
(S'S9'
p182
I0
I1
tp183
Rp184
(I3
S'|'
p185
NNNI9
I1
I0
tp186
bS'container'
p187
tp188
Rp189
I23
I1
tp190
a(g4
(g5
(S'S9'
p191
I0
I1
tp192
Rp193
(I3
S'|'
p194
NNNI9
I1
I0
tp195
bS'container'
p196
tp197
Rp198
I16
I1
tp199
a(g4
(g5
(S'S5'
p200
I0
I1
tp201
Rp202
(I3
S'|'
p203
NNNI5
I1
I0
tp204
bS'brown'
p205
tp206
Rp207
I16
I0
tp208
a(g4
(g5
(S'S8'
p209
I0
I1
tp210
Rp211
(I3
S'|'
p212
NNNI8
I1
I0
tp213
bS'metallic'
p214
tp215
Rp216
I21
I0
tp217
a(g4
(g5
(S'S5'
p218
I0
I1
tp219
Rp220
(I3
S'|'
p221
NNNI5
I1
I0
tp222
bS'large'
p223
tp224
Rp225
I21
I1
tp226
a(g225
I24
I1
tp227
a(g225
I19
I1
tp228
a(g225
I23
I1
tp229
a(g225
I16
I1
tp230
a(g225
I0
I1
tp231
a(g225
I4
I1
tp232
a(g225
I9
I1
tp233
a(g4
(g5
(S'S5'
p234
I0
I1
tp235
Rp236
(I3
S'|'
p237
NNNI5
I1
I0
tp238
bS'tower'
p239
tp240
Rp241
I21
I0
tp242
a(g241
I24
I0
tp243
a(g241
I19
I0
tp244
a(g241
I23
I0
tp245
a(g241
I16
I0
tp246
a(g241
I0
I0
tp247
a(g241
I4
I0
tp248
a(g241
I9
I0
tp249
a(g4
(g5
(S'S5'
p250
I0
I1
tp251
Rp252
(I3
S'|'
p253
NNNI5
I1
I0
tp254
bS'small'
p255
tp256
Rp257
I21
I0
tp258
aa(lp259
a.