(lp0
(lp1
(dp2
S'action'
p3
cnumpy.core.multiarray
scalar
p4
(cnumpy
dtype
p5
(S'S5'
p6
I0
I1
tp7
Rp8
(I3
S'|'
p9
NNNI5
I1
I0
tp10
bS'bring'
p11
tp12
Rp13
sS'recipient'
p14
S'd'
p15
sS'patient'
p16
S'oidx_28'
p17
sS'goal'
p18
NsS'source'
p19
Nsaa(lp20
(dp21
S'all'
p22
(lp23
S'walk to dr.nancy nagels room than run over to the lab'
p24
asg16
(lp25
S'the lab results'
p26
aS'pringles'
p27
aS'coffee'
p28
asg18
(lp29
sg19
(lp30
sg3
(lp31
sg14
(lp32
saa(lp33
(g4
(g5
(S'S5'
p34
I0
I1
tp35
Rp36
(I3
S'|'
p37
NNNI5
I1
I0
tp38
bS'spice'
p39
tp40
Rp41
I21
I0
tp42
a(g41
I24
I0
tp43
a(g41
I19
I0
tp44
a(g41
I23
I0
tp45
a(g41
I16
I0
tp46
a(g41
I0
I0
tp47
a(g41
I4
I0
tp48
a(g41
I9
I0
tp49
a(g4
(g5
(S'S3'
p50
I0
I1
tp51
Rp52
(I3
S'|'
p53
NNNI3
I1
I0
tp54
bS'can'
p55
tp56
Rp57
I9
I0
tp58
a(g4
(g5
(S'S5'
p59
I0
I1
tp60
Rp61
(I3
S'|'
p62
NNNI5
I1
I0
tp63
bS'small'
p64
tp65
Rp66
I21
I0
tp67
a(g4
(g5
(S'S6'
p68
I0
I1
tp69
Rp70
(I3
S'|'
p71
NNNI6
I1
I0
tp72
bS'column'
p73
tp74
Rp75
I16
I0
tp76
a(g4
(g5
(S'S8'
p77
I0
I1
tp78
Rp79
(I3
S'|'
p80
NNNI8
I1
I0
tp81
bS'pringles'
p82
tp83
Rp84
I9
I1
tp85
aa(lp86
a.