(lp0
(lp1
(dp2
S'action'
p3
cnumpy.core.multiarray
scalar
p4
(cnumpy
dtype
p5
(S'S4'
p6
I0
I1
tp7
Rp8
(I3
S'|'
p9
NNNI4
I1
I0
tp10
bS'walk'
p11
tp12
Rp13
sS'recipient'
p14
NsS'patient'
p15
NsS'goal'
p16
S'3430'
p17
sS'source'
p18
Nsa(dp19
g3
g4
(g5
(S'S4'
p20
I0
I1
tp21
Rp22
(I3
S'|'
p23
NNNI4
I1
I0
tp24
bS'move'
p25
tp26
Rp27
sg14
Nsg15
g4
(g5
(S'S7'
p28
I0
I1
tp29
Rp30
(I3
S'|'
p31
NNNI7
I1
I0
tp32
bS'oidx_13'
p33
tp34
Rp35
sg16
g4
(g5
(S'S4'
p36
I0
I1
tp37
Rp38
(I3
S'|'
p39
NNNI4
I1
I0
tp40
bS'3420'
p41
tp42
Rp43
sg18
S'3414'
p44
saa(lp45
(dp46
S'all'
p47
(lp48
S'go to the lounge'
p49
asg15
(lp50
sg16
(lp51
S"dr sybil smalt 's office"
p52
asg18
(lp53
sg3
(lp54
sg14
(lp55
sa(dp56
g47
(lp57
S"give david dave daniel 's the can of chips"
p58
asg15
(lp59
S'a blue can'
p60
aS'a blue can'
p61
aS'move a blue can'
p62
aS'a blue can'
p63
asg16
(lp64
S"move the blue can to david dave daniel 's office"
p65
aS'to david dave"daniel \'s office'
p66
asg18
(lp67
S"move the potato chips to dr sybil smalt 's office"
p68
aS"yes move to david dave daniel 's office"
p69
asg3
(lp70
sg14
(lp71
saa(lp72
(g4
(g5
(S'S5'
p73
I0
I1
tp74
Rp75
(I3
S'|'
p76
NNNI5
I1
I0
tp77
bS'white'
p78
tp79
Rp80
I21
I1
tp81
a(g4
(g5
(S'S5'
p82
I0
I1
tp83
Rp84
(I3
S'|'
p85
NNNI5
I1
I0
tp86
bS'empty'
p87
tp88
Rp89
I21
I0
tp90
a(g4
(g5
(S'S8'
p91
I0
I1
tp92
Rp93
(I3
S'|'
p94
NNNI8
I1
I0
tp95
bS'metallic'
p96
tp97
Rp98
I0
I1
tp99
a(g4
(g5
(S'S5'
p100
I0
I1
tp101
Rp102
(I3
S'|'
p103
NNNI5
I1
I0
tp104
bS'empty'
p105
tp106
Rp107
I4
I0
tp108
a(g4
(g5
(S'S6'
p109
I0
I1
tp110
Rp111
(I3
S'|'
p112
NNNI6
I1
I0
tp113
bS'column'
p114
tp115
Rp116
I4
I0
tp117
a(g4
(g5
(S'S5'
p118
I0
I1
tp119
Rp120
(I3
S'|'
p121
NNNI5
I1
I0
tp122
bS'peach'
p123
tp124
Rp125
I21
I0
tp126
a(g125
I24
I0
tp127
a(g125
I19
I0
tp128
a(g125
I23
I0
tp129
a(g125
I16
I0
tp130
a(g125
I0
I0
tp131
a(g125
I4
I0
tp132
a(g125
I9
I0
tp133
a(g4
(g5
(S'S4'
p134
I0
I1
tp135
Rp136
(I3
S'|'
p137
NNNI4
I1
I0
tp138
bS'blue'
p139
tp140
Rp141
I24
I0
tp142
a(g4
(g5
(S'S5'
p143
I0
I1
tp144
Rp145
(I3
S'|'
p146
NNNI5
I1
I0
tp147
bS'spice'
p148
tp149
Rp150
I21
I0
tp151
a(g150
I24
I0
tp152
a(g150
I19
I0
tp153
a(g150
I23
I0
tp154
a(g150
I16
I0
tp155
a(g150
I0
I0
tp156
a(g150
I4
I0
tp157
a(g150
I9
I0
tp158
a(g4
(g5
(S'S4'
p159
I0
I1
tp160
Rp161
(I3
S'|'
p162
NNNI4
I1
I0
tp163
bS'bean'
p164
tp165
Rp166
I21
I0
tp167
a(g166
I24
I0
tp168
a(g166
I19
I0
tp169
a(g166
I23
I0
tp170
a(g166
I16
I0
tp171
a(g166
I0
I0
tp172
a(g166
I4
I0
tp173
a(g166
I9
I0
tp174
a(g4
(g5
(S'S3'
p175
I0
I1
tp176
Rp177
(I3
S'|'
p178
NNNI3
I1
I0
tp179
bS'can'
p180
tp181
Rp182
I9
I0
tp183
aa(lp184
a.