(lp0
(lp1
(dp2
S'action'
p3
cnumpy.core.multiarray
scalar
p4
(cnumpy
dtype
p5
(S'S4'
p6
I0
I1
tp7
Rp8
(I3
S'|'
p9
NNNI4
I1
I0
tp10
bS'move'
p11
tp12
Rp13
sS'recipient'
p14
NsS'patient'
p15
S'oidx_28'
p16
sS'goal'
p17
S'3502'
p18
sS'source'
p19
S'3424'
p20
sa(dp21
g3
g4
(g5
(S'S4'
p22
I0
I1
tp23
Rp24
(I3
S'|'
p25
NNNI4
I1
I0
tp26
bS'walk'
p27
tp28
Rp29
sg14
Nsg15
Nsg17
S'3422'
p30
sg19
Nsa(dp31
g3
g4
(g5
(S'S4'
p32
I0
I1
tp33
Rp34
(I3
S'|'
p35
NNNI4
I1
I0
tp36
bS'walk'
p37
tp38
Rp39
sg14
Nsg15
Nsg17
S'3404'
p40
sg19
Nsaa(lp41
(dp42
S'all'
p43
(lp44
S'office'
p45
asg15
(lp46
S'yes'
p47
asg17
(lp48
sg19
(lp49
S'yes'
p50
aS'yes'
p51
asg3
(lp52
sg14
(lp53
sa(dp54
g43
(lp55
S''
p56
asg15
(lp57
sg17
(lp58
S'yes'
p59
asg19
(lp60
sg3
(lp61
sg14
(lp62
sa(dp63
g43
(lp64
S'es'
p65
asg15
(lp66
sg17
(lp67
S'yes'
p68
aS'yes'
p69
asg19
(lp70
sg3
(lp71
sg14
(lp72
saa(lp73
(g4
(g5
(S'S9'
p74
I0
I1
tp75
Rp76
(I3
S'|'
p77
NNNI9
I1
I0
tp78
bS'container'
p79
tp80
Rp81
I16
I1
tp82
a(g4
(g5
(S'S6'
p83
I0
I1
tp84
Rp85
(I3
S'|'
p86
NNNI6
I1
I0
tp87
bS'coffee'
p88
tp89
Rp90
I21
I0
tp91
a(g90
I24
I0
tp92
a(g90
I19
I0
tp93
a(g90
I23
I0
tp94
a(g90
I16
I0
tp95
a(g90
I0
I0
tp96
a(g90
I4
I0
tp97
a(g90
I9
I0
tp98
a(g4
(g5
(S'S6'
p99
I0
I1
tp100
Rp101
(I3
S'|'
p102
NNNI6
I1
I0
tp103
bS'yellow'
p104
tp105
Rp106
I21
I0
tp107
a(g106
I24
I0
tp108
a(g106
I19
I0
tp109
a(g106
I23
I0
tp110
a(g106
I16
I0
tp111
a(g106
I0
I0
tp112
a(g106
I4
I0
tp113
a(g106
I9
I0
tp114
a(g4
(g5
(S'S5'
p115
I0
I1
tp116
Rp117
(I3
S'|'
p118
NNNI5
I1
I0
tp119
bS'large'
p120
tp121
Rp122
I19
I0
tp123
a(g4
(g5
(S'S4'
p124
I0
I1
tp125
Rp126
(I3
S'|'
p127
NNNI4
I1
I0
tp128
bS'long'
p129
tp130
Rp131
I19
I1
tp132
a(g4
(g5
(S'S4'
p133
I0
I1
tp134
Rp135
(I3
S'|'
p136
NNNI4
I1
I0
tp137
bS'long'
p138
tp139
Rp140
I4
I1
tp141
a(g4
(g5
(S'S5'
p142
I0
I1
tp143
Rp144
(I3
S'|'
p145
NNNI5
I1
I0
tp146
bS'large'
p147
tp148
Rp149
I21
I1
tp150
a(g149
I24
I1
tp151
a(g149
I19
I1
tp152
a(g149
I23
I1
tp153
a(g149
I16
I1
tp154
a(g149
I0
I1
tp155
a(g149
I4
I1
tp156
a(g149
I9
I1
tp157
a(g4
(g5
(S'S5'
p158
I0
I1
tp159
Rp160
(I3
S'|'
p161
NNNI5
I1
I0
tp162
bS'small'
p163
tp164
Rp165
I21
I1
tp166
a(g4
(g5
(S'S6'
p167
I0
I1
tp168
Rp169
(I3
S'|'
p170
NNNI6
I1
I0
tp171
bS'column'
p172
tp173
Rp174
I16
I1
tp175
a(g4
(g5
(S'S4'
p176
I0
I1
tp177
Rp178
(I3
S'|'
p179
NNNI4
I1
I0
tp180
bS'long'
p181
tp182
Rp183
I24
I1
tp184
a(g4
(g5
(S'S3'
p185
I0
I1
tp186
Rp187
(I3
S'|'
p188
NNNI3
I1
I0
tp189
bS'red'
p190
tp191
Rp192
I21
I1
tp193
a(g192
I24
I1
tp194
a(g192
I19
I1
tp195
a(g192
I23
I1
tp196
a(g192
I16
I1
tp197
a(g192
I0
I1
tp198
a(g192
I4
I1
tp199
a(g192
I9
I1
tp200
a(g4
(g5
(S'S9'
p201
I0
I1
tp202
Rp203
(I3
S'|'
p204
NNNI9
I1
I0
tp205
bS'rectangle'
p206
tp207
Rp208
I16
I1
tp209
a(g4
(g5
(S'S9'
p210
I0
I1
tp211
Rp212
(I3
S'|'
p213
NNNI9
I1
I0
tp214
bS'rectangle'
p215
tp216
Rp217
I24
I1
tp218
a(g4
(g5
(S'S4'
p219
I0
I1
tp220
Rp221
(I3
S'|'
p222
NNNI4
I1
I0
tp223
bS'blue'
p224
tp225
Rp226
I16
I1
tp227
a(g4
(g5
(S'S3'
p228
I0
I1
tp229
Rp230
(I3
S'|'
p231
NNNI3
I1
I0
tp232
bS'can'
p233
tp234
Rp235
I21
I1
tp236
aa(lp237
a.