(lp0
(lp1
(dp2
S'action'
p3
cnumpy.core.multiarray
scalar
p4
(cnumpy
dtype
p5
(S'S4'
p6
I0
I1
tp7
Rp8
(I3
S'|'
p9
NNNI4
I1
I0
tp10
bS'walk'
p11
tp12
Rp13
sS'recipient'
p14
NsS'patient'
p15
NsS'goal'
p16
S'3432'
p17
sS'source'
p18
Nsa(dp19
g3
g4
(g5
(S'S5'
p20
I0
I1
tp21
Rp22
(I3
S'|'
p23
NNNI5
I1
I0
tp24
bS'bring'
p25
tp26
Rp27
sg14
g4
(g5
(S'S1'
p28
I0
I1
tp29
Rp30
(I3
S'|'
p31
NNNI1
I1
I0
tp32
bS's'
p33
tp34
Rp35
sg15
g4
(g5
(S'S6'
p36
I0
I1
tp37
Rp38
(I3
S'|'
p39
NNNI6
I1
I0
tp40
bS'oidx_6'
p41
tp42
Rp43
sg16
Nsg18
Nsaa(lp44
(dp45
S'all'
p46
(lp47
S'dinner'
p48
asg15
(lp49
sg16
(lp50
S'kitchen'
p51
aS'kitchen'
p52
aS'm'
p53
aS'office'
p54
aS'mal'
p55
asg18
(lp56
sg3
(lp57
sg14
(lp58
sa(dp59
g46
(lp60
S'grab pill bottle for dr sybil smalt'
p61
asg15
(lp62
S'small container'
p63
aS'small container'
p64
aS'small bottle'
p65
asg16
(lp66
sg18
(lp67
sg3
(lp68
sg14
(lp69
S'dr sybil smalt'
p70
asaa(lp71
(g4
(g5
(S'S4'
p72
I0
I1
tp73
Rp74
(I3
S'|'
p75
NNNI4
I1
I0
tp76
bS'long'
p77
tp78
Rp79
I19
I0
tp80
a(g4
(g5
(S'S6'
p81
I0
I1
tp82
Rp83
(I3
S'|'
p84
NNNI6
I1
I0
tp85
bS'column'
p86
tp87
Rp88
I16
I0
tp89
a(g4
(g5
(S'S9'
p90
I0
I1
tp91
Rp92
(I3
S'|'
p93
NNNI9
I1
I0
tp94
bS'container'
p95
tp96
Rp97
I16
I1
tp98
a(g4
(g5
(S'S8'
p99
I0
I1
tp100
Rp101
(I3
S'|'
p102
NNNI8
I1
I0
tp103
bS'metallic'
p104
tp105
Rp106
I21
I1
tp107
a(g4
(g5
(S'S6'
p108
I0
I1
tp109
Rp110
(I3
S'|'
p111
NNNI6
I1
I0
tp112
bS'yellow'
p113
tp114
Rp115
I21
I0
tp116
a(g115
I24
I0
tp117
a(g115
I19
I0
tp118
a(g115
I23
I0
tp119
a(g115
I16
I0
tp120
a(g115
I0
I0
tp121
a(g115
I4
I0
tp122
a(g115
I9
I0
tp123
a(g4
(g5
(S'S9'
p124
I0
I1
tp125
Rp126
(I3
S'|'
p127
NNNI9
I1
I0
tp128
bS'container'
p129
tp130
Rp131
I23
I1
tp132
a(g4
(g5
(S'S9'
p133
I0
I1
tp134
Rp135
(I3
S'|'
p136
NNNI9
I1
I0
tp137
bS'container'
p138
tp139
Rp140
I24
I1
tp141
a(g4
(g5
(S'S9'
p142
I0
I1
tp143
Rp144
(I3
S'|'
p145
NNNI9
I1
I0
tp146
bS'container'
p147
tp148
Rp149
I21
I1
tp150
a(g4
(g5
(S'S9'
p151
I0
I1
tp152
Rp153
(I3
S'|'
p154
NNNI9
I1
I0
tp155
bS'container'
p156
tp157
Rp158
I19
I1
tp159
a(g4
(g5
(S'S5'
p160
I0
I1
tp161
Rp162
(I3
S'|'
p163
NNNI5
I1
I0
tp164
bS'small'
p165
tp166
Rp167
I21
I0
tp168
aa(lp169
a.