(lp0
(lp1
(dp2
S'action'
p3
cnumpy.core.multiarray
scalar
p4
(cnumpy
dtype
p5
(S'S4'
p6
I0
I1
tp7
Rp8
(I3
S'|'
p9
NNNI4
I1
I0
tp10
bS'walk'
p11
tp12
Rp13
sS'recipient'
p14
NsS'patient'
p15
NsS'goal'
p16
S'3514'
p17
sS'source'
p18
Nsa(dp19
g3
g4
(g5
(S'S5'
p20
I0
I1
tp21
Rp22
(I3
S'|'
p23
NNNI5
I1
I0
tp24
bS'bring'
p25
tp26
Rp27
sg14
S'p'
p28
sg15
g4
(g5
(S'S6'
p29
I0
I1
tp30
Rp31
(I3
S'|'
p32
NNNI6
I1
I0
tp33
bS'oidx_6'
p34
tp35
Rp36
sg16
Nsg18
Nsaa(lp37
(dp38
S'all'
p39
(lp40
S'carry'
p41
asg15
(lp42
sg16
(lp43
S'up'
p44
aS'move'
p45
aS'pod'
p46
aS'david'
p47
aS'metallic'
p48
asg18
(lp49
sg3
(lp50
sg14
(lp51
sa(dp52
g39
(lp53
S'white'
p54
asg15
(lp55
S'bottle'
p56
aS'bottle'
p57
aS'pills'
p58
asg16
(lp59
sg18
(lp60
sg3
(lp61
sg14
(lp62
saa(lp63
(g4
(g5
(S'S8'
p64
I0
I1
tp65
Rp66
(I3
S'|'
p67
NNNI8
I1
I0
tp68
bS'metallic'
p69
tp70
Rp71
I0
I1
tp72
a(g4
(g5
(S'S5'
p73
I0
I1
tp74
Rp75
(I3
S'|'
p76
NNNI5
I1
I0
tp77
bS'clear'
p78
tp79
Rp80
I19
I1
tp81
a(g4
(g5
(S'S5'
p82
I0
I1
tp83
Rp84
(I3
S'|'
p85
NNNI5
I1
I0
tp86
bS'clear'
p87
tp88
Rp89
I4
I0
tp90
a(g4
(g5
(S'S8'
p91
I0
I1
tp92
Rp93
(I3
S'|'
p94
NNNI8
I1
I0
tp95
bS'metallic'
p96
tp97
Rp98
I21
I0
tp99
a(g4
(g5
(S'S5'
p100
I0
I1
tp101
Rp102
(I3
S'|'
p103
NNNI5
I1
I0
tp104
bS'clear'
p105
tp106
Rp107
I23
I0
tp108
a(g4
(g5
(S'S5'
p109
I0
I1
tp110
Rp111
(I3
S'|'
p112
NNNI5
I1
I0
tp113
bS'white'
p114
tp115
Rp116
I21
I1
tp117
a(g4
(g5
(S'S5'
p118
I0
I1
tp119
Rp120
(I3
S'|'
p121
NNNI5
I1
I0
tp122
bS'white'
p123
tp124
Rp125
I24
I0
tp126
a(g4
(g5
(S'S5'
p127
I0
I1
tp128
Rp129
(I3
S'|'
p130
NNNI5
I1
I0
tp131
bS'white'
p132
tp133
Rp134
I4
I0
tp135
a(g4
(g5
(S'S6'
p136
I0
I1
tp137
Rp138
(I3
S'|'
p139
NNNI6
I1
I0
tp140
bS'column'
p141
tp142
Rp143
I16
I1
tp144
a(g4
(g5
(S'S8'
p145
I0
I1
tp146
Rp147
(I3
S'|'
p148
NNNI8
I1
I0
tp149
bS'metallic'
p150
tp151
Rp152
I23
I0
tp153
aa(lp154
(g58
S'medicine'
p155
I01
tp156
aa.