(lp0
(lp1
(dp2
S'action'
p3
cnumpy.core.multiarray
scalar
p4
(cnumpy
dtype
p5
(S'S5'
p6
I0
I1
tp7
Rp8
(I3
S'|'
p9
NNNI5
I1
I0
tp10
bS'bring'
p11
tp12
Rp13
sS'recipient'
p14
S'h'
p15
sS'patient'
p16
S'oidx_28'
p17
sS'goal'
p18
NsS'source'
p19
Nsa(dp20
g3
g4
(g5
(S'S5'
p21
I0
I1
tp22
Rp23
(I3
S'|'
p24
NNNI5
I1
I0
tp25
bS'bring'
p26
tp27
Rp28
sg14
S'm'
p29
sg16
S'oidx_12'
p30
sg18
Nsg19
Nsaa(lp31
(dp32
S'all'
p33
(lp34
S'chocolate'
p35
asg16
(lp36
S'no'
p37
asg18
(lp38
sg19
(lp39
sg3
(lp40
sg14
(lp41
S'no'
p42
asa(dp43
g33
(lp44
S'pen'
p45
asg16
(lp46
S'no'
p47
aS'no'
p48
asg18
(lp49
sg19
(lp50
sg3
(lp51
sg14
(lp52
saa(lp53
(g4
(g5
(S'S6'
p54
I0
I1
tp55
Rp56
(I3
S'|'
p57
NNNI6
I1
I0
tp58
bS'coffee'
p59
tp60
Rp61
I24
I1
tp62
a(g4
(g5
(S'S6'
p63
I0
I1
tp64
Rp65
(I3
S'|'
p66
NNNI6
I1
I0
tp67
bS'coffee'
p68
tp69
Rp70
I4
I1
tp71
a(g4
(g5
(S'S6'
p72
I0
I1
tp73
Rp74
(I3
S'|'
p75
NNNI6
I1
I0
tp76
bS'coffee'
p77
tp78
Rp79
I19
I0
tp80
a(g4
(g5
(S'S5'
p81
I0
I1
tp82
Rp83
(I3
S'|'
p84
NNNI5
I1
I0
tp85
bS'clear'
p86
tp87
Rp88
I0
I1
tp89
a(g4
(g5
(S'S4'
p90
I0
I1
tp91
Rp92
(I3
S'|'
p93
NNNI4
I1
I0
tp94
bS'blue'
p95
tp96
Rp97
I19
I1
tp98
a(g4
(g5
(S'S5'
p99
I0
I1
tp100
Rp101
(I3
S'|'
p102
NNNI5
I1
I0
tp103
bS'white'
p104
tp105
Rp106
I0
I1
tp107
a(g4
(g5
(S'S8'
p108
I0
I1
tp109
Rp110
(I3
S'|'
p111
NNNI8
I1
I0
tp112
bS'pringles'
p113
tp114
Rp115
I23
I1
tp116
a(g4
(g5
(S'S6'
p117
I0
I1
tp118
Rp119
(I3
S'|'
p120
NNNI6
I1
I0
tp121
bS'yellow'
p122
tp123
Rp124
I4
I1
tp125
a(g4
(g5
(S'S9'
p126
I0
I1
tp127
Rp128
(I3
S'|'
p129
NNNI9
I1
I0
tp130
bS'styrofoam'
p131
tp132
Rp133
I4
I1
tp134
a(g4
(g5
(S'S6'
p135
I0
I1
tp136
Rp137
(I3
S'|'
p138
NNNI6
I1
I0
tp139
bS'yellow'
p140
tp141
Rp142
I19
I0
tp143
aa(lp144
(g35
S'bean'
p145
I00
tp146
a(g35
S'coffee'
p147
I01
tp148
a(g45
S'your'
p149
I00
tp150
a(g45
S'white'
p151
I01
tp152
aa.