(lp0
(lp1
(dp2
S'action'
p3
cnumpy.core.multiarray
scalar
p4
(cnumpy
dtype
p5
(S'S4'
p6
I0
I1
tp7
Rp8
(I3
S'|'
p9
NNNI4
I1
I0
tp10
bS'move'
p11
tp12
Rp13
sS'recipient'
p14
NsS'patient'
p15
S'oidx_26'
p16
sS'goal'
p17
S'3430'
p18
sS'source'
p19
g4
(g5
(S'S4'
p20
I0
I1
tp21
Rp22
(I3
S'|'
p23
NNNI4
I1
I0
tp24
bS'3520'
p25
tp26
Rp27
sa(dp28
g3
g4
(g5
(S'S5'
p29
I0
I1
tp30
Rp31
(I3
S'|'
p32
NNNI5
I1
I0
tp33
bS'bring'
p34
tp35
Rp36
sg14
g4
(g5
(S'S1'
p37
I0
I1
tp38
Rp39
(I3
S'|'
p40
NNNI1
I1
I0
tp41
bS'h'
p42
tp43
Rp44
sg15
S'oidx_12'
p45
sg17
Nsg19
Nsa(dp46
g3
g4
(g5
(S'S5'
p47
I0
I1
tp48
Rp49
(I3
S'|'
p50
NNNI5
I1
I0
tp51
bS'bring'
p52
tp53
Rp54
sg14
S'd'
p55
sg15
g45
sg17
Nsg19
Nsaa(lp56
(dp57
S'all'
p58
(lp59
S'go right'
p60
asg15
(lp61
sg17
(lp62
sg19
(lp63
S'move left'
p64
aS'go left'
p65
aS'move to kitchen'
p66
asg3
(lp67
sg14
(lp68
sa(dp69
g58
(lp70
S'give it to h'
p71
asg15
(lp72
S'object'
p73
asg17
(lp74
sg19
(lp75
sg3
(lp76
sg14
(lp77
sa(dp78
g58
(lp79
S'move left'
p80
asg15
(lp81
S'object'
p82
aS'object'
p83
asg17
(lp84
sg19
(lp85
sg3
(lp86
sg14
(lp87
saa(lp88
(g4
(g5
(S'S9'
p89
I0
I1
tp90
Rp91
(I3
S'|'
p92
NNNI9
I1
I0
tp93
bS'styrofoam'
p94
tp95
Rp96
I23
I0
tp97
a(g4
(g5
(S'S5'
p98
I0
I1
tp99
Rp100
(I3
S'|'
p101
NNNI5
I1
I0
tp102
bS'tower'
p103
tp104
Rp105
I21
I0
tp106
a(g105
I24
I0
tp107
a(g105
I19
I0
tp108
a(g105
I23
I0
tp109
a(g105
I16
I0
tp110
a(g105
I0
I0
tp111
a(g105
I4
I0
tp112
a(g105
I9
I0
tp113
a(g4
(g5
(S'S5'
p114
I0
I1
tp115
Rp116
(I3
S'|'
p117
NNNI5
I1
I0
tp118
bS'small'
p119
tp120
Rp121
I21
I1
tp122
a(g4
(g5
(S'S4'
p123
I0
I1
tp124
Rp125
(I3
S'|'
p126
NNNI4
I1
I0
tp127
bS'blue'
p128
tp129
Rp130
I21
I0
tp131
a(g4
(g5
(S'S5'
p132
I0
I1
tp133
Rp134
(I3
S'|'
p135
NNNI5
I1
I0
tp136
bS'empty'
p137
tp138
Rp139
I4
I0
tp140
a(g4
(g5
(S'S8'
p141
I0
I1
tp142
Rp143
(I3
S'|'
p144
NNNI8
I1
I0
tp145
bS'cylinder'
p146
tp147
Rp148
I21
I1
tp149
a(g148
I24
I1
tp150
a(g148
I19
I1
tp151
a(g148
I23
I1
tp152
a(g148
I16
I1
tp153
a(g148
I0
I1
tp154
a(g148
I4
I1
tp155
a(g148
I9
I1
tp156
a(g4
(g5
(S'S5'
p157
I0
I1
tp158
Rp159
(I3
S'|'
p160
NNNI5
I1
I0
tp161
bS'empty'
p162
tp163
Rp164
I0
I0
tp165
a(g4
(g5
(S'S5'
p166
I0
I1
tp167
Rp168
(I3
S'|'
p169
NNNI5
I1
I0
tp170
bS'brown'
p171
tp172
Rp173
I16
I0
tp174
a(g4
(g5
(S'S6'
p175
I0
I1
tp176
Rp177
(I3
S'|'
p178
NNNI6
I1
I0
tp179
bS'column'
p180
tp181
Rp182
I23
I0
tp183
a(g4
(g5
(S'S9'
p184
I0
I1
tp185
Rp186
(I3
S'|'
p187
NNNI9
I1
I0
tp188
bS'container'
p189
tp190
Rp191
I16
I1
tp192
a(g4
(g5
(S'S5'
p193
I0
I1
tp194
Rp195
(I3
S'|'
p196
NNNI5
I1
I0
tp197
bS'large'
p198
tp199
Rp200
I21
I1
tp201
a(g200
I24
I1
tp202
a(g200
I19
I1
tp203
a(g200
I23
I1
tp204
a(g200
I16
I1
tp205
a(g200
I0
I1
tp206
a(g200
I4
I1
tp207
a(g200
I9
I1
tp208
a(g4
(g5
(S'S3'
p209
I0
I1
tp210
Rp211
(I3
S'|'
p212
NNNI3
I1
I0
tp213
bS'red'
p214
tp215
Rp216
I21
I1
tp217
a(g216
I24
I1
tp218
a(g216
I19
I1
tp219
a(g216
I23
I1
tp220
a(g216
I16
I1
tp221
a(g216
I0
I1
tp222
a(g216
I4
I1
tp223
a(g216
I9
I1
tp224
a(g4
(g5
(S'S5'
p225
I0
I1
tp226
Rp227
(I3
S'|'
p228
NNNI5
I1
I0
tp229
bS'clear'
p230
tp231
Rp232
I9
I1
tp233
a(g4
(g5
(S'S5'
p234
I0
I1
tp235
Rp236
(I3
S'|'
p237
NNNI5
I1
I0
tp238
bS'empty'
p239
tp240
Rp241
I21
I0
tp242
a(g4
(g5
(S'S4'
p243
I0
I1
tp244
Rp245
(I3
S'|'
p246
NNNI4
I1
I0
tp247
bS'bean'
p248
tp249
Rp250
I21
I0
tp251
a(g250
I24
I0
tp252
a(g250
I19
I0
tp253
a(g250
I23
I0
tp254
a(g250
I16
I0
tp255
a(g250
I0
I0
tp256
a(g250
I4
I0
tp257
a(g250
I9
I0
tp258
aa(lp259
a.