(lp0
(lp1
(dp2
S'action'
p3
cnumpy.core.multiarray
scalar
p4
(cnumpy
dtype
p5
(S'S4'
p6
I0
I1
tp7
Rp8
(I3
S'|'
p9
NNNI4
I1
I0
tp10
bS'walk'
p11
tp12
Rp13
sS'recipient'
p14
NsS'patient'
p15
NsS'goal'
p16
S'3506'
p17
sS'source'
p18
Nsa(dp19
g3
g4
(g5
(S'S4'
p20
I0
I1
tp21
Rp22
(I3
S'|'
p23
NNNI4
I1
I0
tp24
bS'walk'
p25
tp26
Rp27
sg14
Nsg15
Nsg16
g17
sg18
Nsa(dp28
g3
g4
(g5
(S'S4'
p29
I0
I1
tp30
Rp31
(I3
S'|'
p32
NNNI4
I1
I0
tp33
bS'walk'
p34
tp35
Rp36
sg14
Nsg15
Nsg16
S'3418'
p37
sg18
Nsaa(lp38
(dp39
S'all'
p40
(lp41
S'go to near printer'
p42
asg15
(lp43
sg16
(lp44
S'just go to r'
p45
asg18
(lp46
sg3
(lp47
sg14
(lp48
sa(dp49
g40
(lp50
S'take that red cap box'
p51
asg15
(lp52
sg16
(lp53
S'go to near printer'
p54
asg18
(lp55
sg3
(lp56
sg14
(lp57
sa(dp58
g40
(lp59
S'go to office'
p60
asg15
(lp61
sg16
(lp62
S'office'
p63
aS'office'
p64
aS'office'
p65
aS'office'
p66
aS'd-office'
p67
aS'office'
p68
aS'lab'
p69
aS'go to pod'
p70
aS'office'
p71
aS'office'
p72
aS'top office'
p73
aS'you need to go upstair office'
p74
aS'office'
p75
aS''
p76
asg18
(lp77
sg3
(lp78
sg14
(lp79
saa(lp80
(g4
(g5
(S'S4'
p81
I0
I1
tp82
Rp83
(I3
S'|'
p84
NNNI4
I1
I0
tp85
bS'blue'
p86
tp87
Rp88
I16
I0
tp89
a(g4
(g5
(S'S5'
p90
I0
I1
tp91
Rp92
(I3
S'|'
p93
NNNI5
I1
I0
tp94
bS'clear'
p95
tp96
Rp97
I16
I1
tp98
a(g4
(g5
(S'S4'
p99
I0
I1
tp100
Rp101
(I3
S'|'
p102
NNNI4
I1
I0
tp103
bS'blue'
p104
tp105
Rp106
I21
I0
tp107
a(g4
(g5
(S'S5'
p108
I0
I1
tp109
Rp110
(I3
S'|'
p111
NNNI5
I1
I0
tp112
bS'tower'
p113
tp114
Rp115
I21
I0
tp116
a(g115
I24
I0
tp117
a(g115
I19
I0
tp118
a(g115
I23
I0
tp119
a(g115
I16
I0
tp120
a(g115
I0
I0
tp121
a(g115
I4
I0
tp122
a(g115
I9
I0
tp123
a(g4
(g5
(S'S8'
p124
I0
I1
tp125
Rp126
(I3
S'|'
p127
NNNI8
I1
I0
tp128
bS'pringles'
p129
tp130
Rp131
I21
I0
tp132
a(g131
I24
I0
tp133
a(g131
I19
I0
tp134
a(g131
I23
I0
tp135
a(g131
I16
I0
tp136
a(g131
I0
I0
tp137
a(g131
I4
I0
tp138
a(g131
I9
I0
tp139
a(g4
(g5
(S'S5'
p140
I0
I1
tp141
Rp142
(I3
S'|'
p143
NNNI5
I1
I0
tp144
bS'white'
p145
tp146
Rp147
I16
I1
tp148
a(g4
(g5
(S'S4'
p149
I0
I1
tp150
Rp151
(I3
S'|'
p152
NNNI4
I1
I0
tp153
bS'long'
p154
tp155
Rp156
I21
I0
tp157
a(g4
(g5
(S'S9'
p158
I0
I1
tp159
Rp160
(I3
S'|'
p161
NNNI9
I1
I0
tp162
bS'rectangle'
p163
tp164
Rp165
I21
I0
tp166
a(g165
I24
I0
tp167
a(g165
I19
I0
tp168
a(g165
I23
I0
tp169
a(g165
I16
I0
tp170
a(g165
I0
I0
tp171
a(g165
I4
I0
tp172
a(g165
I9
I0
tp173
a(g4
(g5
(S'S6'
p174
I0
I1
tp175
Rp176
(I3
S'|'
p177
NNNI6
I1
I0
tp178
bS'column'
p179
tp180
Rp181
I16
I0
tp182
a(g4
(g5
(S'S4'
p183
I0
I1
tp184
Rp185
(I3
S'|'
p186
NNNI4
I1
I0
tp187
bS'blue'
p188
tp189
Rp190
I24
I0
tp191
a(g4
(g5
(S'S8'
p192
I0
I1
tp193
Rp194
(I3
S'|'
p195
NNNI8
I1
I0
tp196
bS'cylinder'
p197
tp198
Rp199
I21
I1
tp200
a(g199
I24
I1
tp201
a(g199
I19
I1
tp202
a(g199
I23
I1
tp203
a(g199
I16
I1
tp204
a(g199
I0
I1
tp205
a(g199
I4
I1
tp206
a(g199
I9
I1
tp207
a(g4
(g5
(S'S4'
p208
I0
I1
tp209
Rp210
(I3
S'|'
p211
NNNI4
I1
I0
tp212
bS'blue'
p213
tp214
Rp215
I19
I0
tp216
a(g4
(g5
(S'S3'
p217
I0
I1
tp218
Rp219
(I3
S'|'
p220
NNNI3
I1
I0
tp221
bS'can'
p222
tp223
Rp224
I0
I0
tp225
a(g4
(g5
(S'S5'
p226
I0
I1
tp227
Rp228
(I3
S'|'
p229
NNNI5
I1
I0
tp230
bS'empty'
p231
tp232
Rp233
I4
I0
tp234
a(g4
(g5
(S'S6'
p235
I0
I1
tp236
Rp237
(I3
S'|'
p238
NNNI6
I1
I0
tp239
bS'yellow'
p240
tp241
Rp242
I21
I0
tp243
a(g242
I24
I0
tp244
a(g242
I19
I0
tp245
a(g242
I23
I0
tp246
a(g242
I16
I0
tp247
a(g242
I0
I0
tp248
a(g242
I4
I0
tp249
a(g242
I9
I0
tp250
aa(lp251
(S'r'
p252
g4
(g5
(S'S5'
p253
I0
I1
tp254
Rp255
(I3
S'|'
p256
NNNI5
I1
I0
tp257
bS'large'
p258
tp259
Rp260
I01
tp261
a(S'cap'
p262
S'silver'
p263
I00
tp264
a(g262
S'your'
p265
I01
tp266
aa.