(lp0
(lp1
(dp2
S'action'
p3
cnumpy.core.multiarray
scalar
p4
(cnumpy
dtype
p5
(S'S4'
p6
I0
I1
tp7
Rp8
(I3
S'|'
p9
NNNI4
I1
I0
tp10
bS'walk'
p11
tp12
Rp13
sS'recipient'
p14
NsS'patient'
p15
NsS'goal'
p16
g4
(g5
(S'S4'
p17
I0
I1
tp18
Rp19
(I3
S'|'
p20
NNNI4
I1
I0
tp21
bS'3520'
p22
tp23
Rp24
sS'source'
p25
Nsa(dp26
g3
g4
(g5
(S'S5'
p27
I0
I1
tp28
Rp29
(I3
S'|'
p30
NNNI5
I1
I0
tp31
bS'bring'
p32
tp33
Rp34
sg14
S'h'
p35
sg15
g4
(g5
(S'S7'
p36
I0
I1
tp37
Rp38
(I3
S'|'
p39
NNNI7
I1
I0
tp40
bS'oidx_13'
p41
tp42
Rp43
sg16
Nsg25
Nsa(dp44
g3
g4
(g5
(S'S5'
p45
I0
I1
tp46
Rp47
(I3
S'|'
p48
NNNI5
I1
I0
tp49
bS'bring'
p50
tp51
Rp52
sg14
S'p'
p53
sg15
g4
(g5
(S'S7'
p54
I0
I1
tp55
Rp56
(I3
S'|'
p57
NNNI7
I1
I0
tp58
bS'oidx_26'
p59
tp60
Rp61
sg16
Nsg25
Nsaa(lp62
(dp63
S'all'
p64
(lp65
S'go to robert and ask him to go along'
p66
asg15
(lp67
sg16
(lp68
S'to robert'
p69
aS'to the kitchen'
p70
asg25
(lp71
sg3
(lp72
sg14
(lp73
sa(dp74
g64
(lp75
S'i need to go to the peggy parker intern'
p76
asg15
(lp77
S'a soda can'
p78
aS'soda can'
p79
asg16
(lp80
sg25
(lp81
sg3
(lp82
sg14
(lp83
sa(dp84
g64
(lp85
S'deliver object in pod room to peggy parker intern'
p86
asg15
(lp87
S'the object'
p88
aS'can'
p89
aS'can'
p90
asg16
(lp91
sg25
(lp92
sg3
(lp93
sg14
(lp94
S'peggy parker intern'
p95
aS'peggy parker intern'
p96
aS'p'
p97
aS'p'
p98
asaa(lp99
(g4
(g5
(S'S5'
p100
I0
I1
tp101
Rp102
(I3
S'|'
p103
NNNI5
I1
I0
tp104
bS'empty'
p105
tp106
Rp107
I21
I0
tp108
a(g4
(g5
(S'S9'
p109
I0
I1
tp110
Rp111
(I3
S'|'
p112
NNNI9
I1
I0
tp113
bS'styrofoam'
p114
tp115
Rp116
I4
I0
tp117
a(g4
(g5
(S'S3'
p118
I0
I1
tp119
Rp120
(I3
S'|'
p121
NNNI3
I1
I0
tp122
bS'can'
p123
tp124
Rp125
I4
I0
tp126
a(g4
(g5
(S'S8'
p127
I0
I1
tp128
Rp129
(I3
S'|'
p130
NNNI8
I1
I0
tp131
bS'pringles'
p132
tp133
Rp134
I21
I0
tp135
a(g134
I24
I0
tp136
a(g134
I19
I0
tp137
a(g134
I23
I0
tp138
a(g134
I16
I0
tp139
a(g134
I0
I0
tp140
a(g134
I4
I0
tp141
a(g134
I9
I0
tp142
a(g4
(g5
(S'S8'
p143
I0
I1
tp144
Rp145
(I3
S'|'
p146
NNNI8
I1
I0
tp147
bS'cylinder'
p148
tp149
Rp150
I21
I1
tp151
a(g150
I24
I1
tp152
a(g150
I19
I1
tp153
a(g150
I23
I1
tp154
a(g150
I16
I1
tp155
a(g150
I0
I1
tp156
a(g150
I4
I1
tp157
a(g150
I9
I1
tp158
a(g4
(g5
(S'S3'
p159
I0
I1
tp160
Rp161
(I3
S'|'
p162
NNNI3
I1
I0
tp163
bS'can'
p164
tp165
Rp166
I21
I0
tp167
a(g4
(g5
(S'S4'
p168
I0
I1
tp169
Rp170
(I3
S'|'
p171
NNNI4
I1
I0
tp172
bS'soda'
p173
tp174
Rp175
I0
I1
tp176
a(g4
(g5
(S'S3'
p177
I0
I1
tp178
Rp179
(I3
S'|'
p180
NNNI3
I1
I0
tp181
bS'can'
p182
tp183
Rp184
I0
I0
tp185
a(g4
(g5
(S'S3'
p186
I0
I1
tp187
Rp188
(I3
S'|'
p189
NNNI3
I1
I0
tp190
bS'can'
p191
tp192
Rp193
I16
I0
tp194
a(g4
(g5
(S'S4'
p195
I0
I1
tp196
Rp197
(I3
S'|'
p198
NNNI4
I1
I0
tp199
bS'soda'
p200
tp201
Rp202
I23
I0
tp203
a(g4
(g5
(S'S9'
p204
I0
I1
tp205
Rp206
(I3
S'|'
p207
NNNI9
I1
I0
tp208
bS'container'
p209
tp210
Rp211
I21
I1
tp212
a(g4
(g5
(S'S9'
p213
I0
I1
tp214
Rp215
(I3
S'|'
p216
NNNI9
I1
I0
tp217
bS'container'
p218
tp219
Rp220
I24
I1
tp221
a(g4
(g5
(S'S9'
p222
I0
I1
tp223
Rp224
(I3
S'|'
p225
NNNI9
I1
I0
tp226
bS'container'
p227
tp228
Rp229
I16
I1
tp230
a(g4
(g5
(S'S9'
p231
I0
I1
tp232
Rp233
(I3
S'|'
p234
NNNI9
I1
I0
tp235
bS'container'
p236
tp237
Rp238
I19
I1
tp239
a(g4
(g5
(S'S9'
p240
I0
I1
tp241
Rp242
(I3
S'|'
p243
NNNI9
I1
I0
tp244
bS'container'
p245
tp246
Rp247
I23
I1
tp248
aa(lp249
(S'soda'
p250
S'coffee'
p251
I00
tp252
a(g250
S'acan'
p253
I00
tp254
a(g250
S'd'
p255
I00
tp256
aa.