(lp0
(lp1
(dp2
S'action'
p3
cnumpy.core.multiarray
scalar
p4
(cnumpy
dtype
p5
(S'S4'
p6
I0
I1
tp7
Rp8
(I3
S'|'
p9
NNNI4
I1
I0
tp10
bS'walk'
p11
tp12
Rp13
sS'recipient'
p14
NsS'patient'
p15
NsS'goal'
p16
g4
(g5
(S'S4'
p17
I0
I1
tp18
Rp19
(I3
S'|'
p20
NNNI4
I1
I0
tp21
bS'3502'
p22
tp23
Rp24
sS'source'
p25
Nsa(dp26
g3
g4
(g5
(S'S5'
p27
I0
I1
tp28
Rp29
(I3
S'|'
p30
NNNI5
I1
I0
tp31
bS'bring'
p32
tp33
Rp34
sg14
g4
(g5
(S'S1'
p35
I0
I1
tp36
Rp37
(I3
S'|'
p38
NNNI1
I1
I0
tp39
bS'b'
p40
tp41
Rp42
sg15
g4
(g5
(S'S7'
p43
I0
I1
tp44
Rp45
(I3
S'|'
p46
NNNI7
I1
I0
tp47
bS'oidx_11'
p48
tp49
Rp50
sg16
Nsg25
Nsa(dp51
g3
g4
(g5
(S'S4'
p52
I0
I1
tp53
Rp54
(I3
S'|'
p55
NNNI4
I1
I0
tp56
bS'walk'
p57
tp58
Rp59
sg14
Nsg15
Nsg16
g4
(g5
(S'S4'
p60
I0
I1
tp61
Rp62
(I3
S'|'
p63
NNNI4
I1
I0
tp64
bS'3506'
p65
tp66
Rp67
sg25
Nsaa(lp68
(dp69
S'all'
p70
(lp71
S'collect my printout from a printer'
p72
asg15
(lp73
sg16
(lp74
S'printer'
p75
aS'lab'
p76
aS'pod'
p77
aS'mal office'
p78
asg25
(lp79
sg3
(lp80
sg14
(lp81
sa(dp82
g70
(lp83
S'give bob that cylinder'
p84
asg15
(lp85
S'a small can'
p86
asg16
(lp87
sg25
(lp88
sg3
(lp89
sg14
(lp90
sa(dp91
g70
(lp92
S'go to printer'
p93
asg15
(lp94
sg16
(lp95
sg25
(lp96
sg3
(lp97
sg14
(lp98
saa(lp99
(g4
(g5
(S'S8'
p100
I0
I1
tp101
Rp102
(I3
S'|'
p103
NNNI8
I1
I0
tp104
bS'cylinder'
p105
tp106
Rp107
I21
I1
tp108
a(g107
I24
I1
tp109
a(g107
I19
I1
tp110
a(g107
I23
I1
tp111
a(g107
I16
I1
tp112
a(g107
I0
I1
tp113
a(g107
I4
I1
tp114
a(g107
I9
I1
tp115
a(g4
(g5
(S'S9'
p116
I0
I1
tp117
Rp118
(I3
S'|'
p119
NNNI9
I1
I0
tp120
bS'container'
p121
tp122
Rp123
I16
I1
tp124
a(g4
(g5
(S'S5'
p125
I0
I1
tp126
Rp127
(I3
S'|'
p128
NNNI5
I1
I0
tp129
bS'large'
p130
tp131
Rp132
I0
I0
tp133
a(g4
(g5
(S'S9'
p134
I0
I1
tp135
Rp136
(I3
S'|'
p137
NNNI9
I1
I0
tp138
bS'rectangle'
p139
tp140
Rp141
I21
I0
tp142
a(g141
I24
I0
tp143
a(g141
I19
I0
tp144
a(g141
I23
I0
tp145
a(g141
I16
I0
tp146
a(g141
I0
I0
tp147
a(g141
I4
I0
tp148
a(g141
I9
I0
tp149
a(g4
(g5
(S'S3'
p150
I0
I1
tp151
Rp152
(I3
S'|'
p153
NNNI3
I1
I0
tp154
bS'can'
p155
tp156
Rp157
I0
I0
tp158
a(g4
(g5
(S'S4'
p159
I0
I1
tp160
Rp161
(I3
S'|'
p162
NNNI4
I1
I0
tp163
bS'long'
p164
tp165
Rp166
I9
I0
tp167
a(g4
(g5
(S'S5'
p168
I0
I1
tp169
Rp170
(I3
S'|'
p171
NNNI5
I1
I0
tp172
bS'peach'
p173
tp174
Rp175
I21
I0
tp176
a(g175
I24
I0
tp177
a(g175
I19
I0
tp178
a(g175
I23
I0
tp179
a(g175
I16
I0
tp180
a(g175
I0
I0
tp181
a(g175
I4
I0
tp182
a(g175
I9
I0
tp183
a(g4
(g5
(S'S5'
p184
I0
I1
tp185
Rp186
(I3
S'|'
p187
NNNI5
I1
I0
tp188
bS'empty'
p189
tp190
Rp191
I0
I0
tp192
a(g4
(g5
(S'S5'
p193
I0
I1
tp194
Rp195
(I3
S'|'
p196
NNNI5
I1
I0
tp197
bS'white'
p198
tp199
Rp200
I21
I1
tp201
a(g4
(g5
(S'S3'
p202
I0
I1
tp203
Rp204
(I3
S'|'
p205
NNNI3
I1
I0
tp206
bS'can'
p207
tp208
Rp209
I16
I0
tp210
a(g4
(g5
(S'S5'
p211
I0
I1
tp212
Rp213
(I3
S'|'
p214
NNNI5
I1
I0
tp215
bS'clear'
p216
tp217
Rp218
I21
I0
tp219
a(g218
I24
I0
tp220
a(g218
I19
I0
tp221
a(g218
I23
I0
tp222
a(g218
I16
I0
tp223
a(g218
I0
I0
tp224
a(g218
I4
I0
tp225
a(g218
I9
I0
tp226
a(g4
(g5
(S'S3'
p227
I0
I1
tp228
Rp229
(I3
S'|'
p230
NNNI3
I1
I0
tp231
bS'can'
p232
tp233
Rp234
I23
I0
tp235
a(g4
(g5
(S'S8'
p236
I0
I1
tp237
Rp238
(I3
S'|'
p239
NNNI8
I1
I0
tp240
bS'metallic'
p241
tp242
Rp243
I0
I1
tp244
a(g4
(g5
(S'S4'
p245
I0
I1
tp246
Rp247
(I3
S'|'
p248
NNNI4
I1
I0
tp249
bS'blue'
p250
tp251
Rp252
I24
I0
tp253
a(g4
(g5
(S'S3'
p254
I0
I1
tp255
Rp256
(I3
S'|'
p257
NNNI3
I1
I0
tp258
bS'can'
p259
tp260
Rp261
I4
I0
tp262
aa(lp263
a.