(lp0
(lp1
(dp2
S'action'
p3
cnumpy.core.multiarray
scalar
p4
(cnumpy
dtype
p5
(S'S4'
p6
I0
I1
tp7
Rp8
(I3
S'|'
p9
NNNI4
I1
I0
tp10
bS'move'
p11
tp12
Rp13
sS'recipient'
p14
NsS'patient'
p15
S'oidx_28'
p16
sS'goal'
p17
S'3414a'
p18
sS'source'
p19
S'3518'
p20
sa(dp21
g3
g4
(g5
(S'S5'
p22
I0
I1
tp23
Rp24
(I3
S'|'
p25
NNNI5
I1
I0
tp26
bS'bring'
p27
tp28
Rp29
sg14
S'p'
p30
sg15
g4
(g5
(S'S7'
p31
I0
I1
tp32
Rp33
(I3
S'|'
p34
NNNI7
I1
I0
tp35
bS'oidx_28'
p36
tp37
Rp38
sg17
Nsg19
Nsa(dp39
g3
g4
(g5
(S'S4'
p40
I0
I1
tp41
Rp42
(I3
S'|'
p43
NNNI4
I1
I0
tp44
bS'walk'
p45
tp46
Rp47
sg14
Nsg15
Nsg17
S'3502'
p48
sg19
Nsaa(lp49
(dp50
S'all'
p51
(lp52
S'move'
p53
asg15
(lp54
S'office'
p55
asg17
(lp56
S'pod'
p57
asg19
(lp58
S'yes'
p59
asg3
(lp60
sg14
(lp61
sa(dp62
g51
(lp63
S'deliver product'
p64
asg15
(lp65
S'container'
p66
aS'container'
p67
asg17
(lp68
sg19
(lp69
sg3
(lp70
sg14
(lp71
sa(dp72
g51
(lp73
S'move the object'
p74
asg15
(lp75
sg17
(lp76
S'office'
p77
aS'office'
p78
asg19
(lp79
sg3
(lp80
sg14
(lp81
saa(lp82
(g4
(g5
(S'S5'
p83
I0
I1
tp84
Rp85
(I3
S'|'
p86
NNNI5
I1
I0
tp87
bS'brown'
p88
tp89
Rp90
I23
I0
tp91
a(g4
(g5
(S'S9'
p92
I0
I1
tp93
Rp94
(I3
S'|'
p95
NNNI9
I1
I0
tp96
bS'container'
p97
tp98
Rp99
I16
I1
tp100
a(g4
(g5
(S'S6'
p101
I0
I1
tp102
Rp103
(I3
S'|'
p104
NNNI6
I1
I0
tp105
bS'column'
p106
tp107
Rp108
I19
I0
tp109
a(g4
(g5
(S'S9'
p110
I0
I1
tp111
Rp112
(I3
S'|'
p113
NNNI9
I1
I0
tp114
bS'styrofoam'
p115
tp116
Rp117
I16
I0
tp118
a(g4
(g5
(S'S3'
p119
I0
I1
tp120
Rp121
(I3
S'|'
p122
NNNI3
I1
I0
tp123
bS'red'
p124
tp125
Rp126
I4
I0
tp127
a(g4
(g5
(S'S9'
p128
I0
I1
tp129
Rp130
(I3
S'|'
p131
NNNI9
I1
I0
tp132
bS'container'
p133
tp134
Rp135
I0
I1
tp136
a(g4
(g5
(S'S9'
p137
I0
I1
tp138
Rp139
(I3
S'|'
p140
NNNI9
I1
I0
tp141
bS'container'
p142
tp143
Rp144
I21
I1
tp145
a(g4
(g5
(S'S9'
p146
I0
I1
tp147
Rp148
(I3
S'|'
p149
NNNI9
I1
I0
tp150
bS'container'
p151
tp152
Rp153
I23
I0
tp154
a(g4
(g5
(S'S9'
p155
I0
I1
tp156
Rp157
(I3
S'|'
p158
NNNI9
I1
I0
tp159
bS'container'
p160
tp161
Rp162
I19
I0
tp163
a(g4
(g5
(S'S9'
p164
I0
I1
tp165
Rp166
(I3
S'|'
p167
NNNI9
I1
I0
tp168
bS'container'
p169
tp170
Rp171
I24
I1
tp172
a(g4
(g5
(S'S8'
p173
I0
I1
tp174
Rp175
(I3
S'|'
p176
NNNI8
I1
I0
tp177
bS'metallic'
p178
tp179
Rp180
I16
I1
tp181
a(g4
(g5
(S'S9'
p182
I0
I1
tp183
Rp184
(I3
S'|'
p185
NNNI9
I1
I0
tp186
bS'rectangle'
p187
tp188
Rp189
I21
I0
tp190
a(g189
I24
I0
tp191
a(g189
I19
I0
tp192
a(g189
I23
I0
tp193
a(g189
I16
I0
tp194
a(g189
I0
I0
tp195
a(g189
I4
I0
tp196
a(g189
I9
I0
tp197
a(g4
(g5
(S'S8'
p198
I0
I1
tp199
Rp200
(I3
S'|'
p201
NNNI8
I1
I0
tp202
bS'pringles'
p203
tp204
Rp205
I4
I1
tp206
a(g4
(g5
(S'S5'
p207
I0
I1
tp208
Rp209
(I3
S'|'
p210
NNNI5
I1
I0
tp211
bS'brown'
p212
tp213
Rp214
I19
I0
tp215
a(g4
(g5
(S'S5'
p216
I0
I1
tp217
Rp218
(I3
S'|'
p219
NNNI5
I1
I0
tp220
bS'empty'
p221
tp222
Rp223
I21
I0
tp224
aa(lp225
(S'product'
p226
S'container'
p227
I01
tp228
aa.