(lp0
(lp1
(dp2
S'action'
p3
cnumpy.core.multiarray
scalar
p4
(cnumpy
dtype
p5
(S'S5'
p6
I0
I1
tp7
Rp8
(I3
S'|'
p9
NNNI5
I1
I0
tp10
bS'bring'
p11
tp12
Rp13
sS'recipient'
p14
S'n'
p15
sS'patient'
p16
S'oidx_26'
p17
sS'goal'
p18
NsS'source'
p19
Nsa(dp20
g3
g4
(g5
(S'S5'
p21
I0
I1
tp22
Rp23
(I3
S'|'
p24
NNNI5
I1
I0
tp25
bS'bring'
p26
tp27
Rp28
sg14
S's'
p29
sg16
S'oidx_6'
p30
sg18
Nsg19
Nsa(dp31
g3
g4
(g5
(S'S5'
p32
I0
I1
tp33
Rp34
(I3
S'|'
p35
NNNI5
I1
I0
tp36
bS'bring'
p37
tp38
Rp39
sg14
S'w'
p40
sg16
g4
(g5
(S'S7'
p41
I0
I1
tp42
Rp43
(I3
S'|'
p44
NNNI7
I1
I0
tp45
bS'oidx_28'
p46
tp47
Rp48
sg18
Nsg19
Nsaa(lp49
(dp50
S'all'
p51
(lp52
S'go straight'
p53
asg16
(lp54
S'yes'
p55
asg18
(lp56
sg19
(lp57
sg3
(lp58
sg14
(lp59
S'deliver to d'
p60
asa(dp61
g51
(lp62
S'give it to r'
p63
asg16
(lp64
S'yes'
p65
aS'object'
p66
asg18
(lp67
sg19
(lp68
sg3
(lp69
sg14
(lp70
sa(dp71
g51
(lp72
S'go to lab'
p73
asg16
(lp74
S'object'
p75
aS'object'
p76
aS'object'
p77
asg18
(lp78
sg19
(lp79
sg3
(lp80
sg14
(lp81
saa(lp82
(g4
(g5
(S'S8'
p83
I0
I1
tp84
Rp85
(I3
S'|'
p86
NNNI8
I1
I0
tp87
bS'pringles'
p88
tp89
Rp90
I21
I0
tp91
a(g90
I24
I0
tp92
a(g90
I19
I0
tp93
a(g90
I23
I0
tp94
a(g90
I16
I0
tp95
a(g90
I0
I0
tp96
a(g90
I4
I0
tp97
a(g90
I9
I0
tp98
a(g4
(g5
(S'S5'
p99
I0
I1
tp100
Rp101
(I3
S'|'
p102
NNNI5
I1
I0
tp103
bS'block'
p104
tp105
Rp106
I21
I0
tp107
a(g106
I24
I0
tp108
a(g106
I19
I0
tp109
a(g106
I23
I0
tp110
a(g106
I16
I0
tp111
a(g106
I0
I0
tp112
a(g106
I4
I0
tp113
a(g106
I9
I0
tp114
a(g4
(g5
(S'S9'
p115
I0
I1
tp116
Rp117
(I3
S'|'
p118
NNNI9
I1
I0
tp119
bS'container'
p120
tp121
Rp122
I24
I1
tp123
a(g4
(g5
(S'S5'
p124
I0
I1
tp125
Rp126
(I3
S'|'
p127
NNNI5
I1
I0
tp128
bS'small'
p129
tp130
Rp131
I21
I1
tp132
a(g4
(g5
(S'S5'
p133
I0
I1
tp134
Rp135
(I3
S'|'
p136
NNNI5
I1
I0
tp137
bS'empty'
p138
tp139
Rp140
I21
I1
tp141
a(g4
(g5
(S'S6'
p142
I0
I1
tp143
Rp144
(I3
S'|'
p145
NNNI6
I1
I0
tp146
bS'column'
p147
tp148
Rp149
I9
I0
tp150
a(g4
(g5
(S'S5'
p151
I0
I1
tp152
Rp153
(I3
S'|'
p154
NNNI5
I1
I0
tp155
bS'brown'
p156
tp157
Rp158
I4
I0
tp159
a(g4
(g5
(S'S6'
p160
I0
I1
tp161
Rp162
(I3
S'|'
p163
NNNI6
I1
I0
tp164
bS'column'
p165
tp166
Rp167
I23
I0
tp168
a(g4
(g5
(S'S6'
p169
I0
I1
tp170
Rp171
(I3
S'|'
p172
NNNI6
I1
I0
tp173
bS'yellow'
p174
tp175
Rp176
I0
I1
tp177
a(g4
(g5
(S'S9'
p178
I0
I1
tp179
Rp180
(I3
S'|'
p181
NNNI9
I1
I0
tp182
bS'styrofoam'
p183
tp184
Rp185
I9
I0
tp186
a(g4
(g5
(S'S3'
p187
I0
I1
tp188
Rp189
(I3
S'|'
p190
NNNI3
I1
I0
tp191
bS'red'
p192
tp193
Rp194
I21
I1
tp195
a(g194
I24
I1
tp196
a(g194
I19
I1
tp197
a(g194
I23
I1
tp198
a(g194
I16
I1
tp199
a(g194
I0
I1
tp200
a(g194
I4
I1
tp201
a(g194
I9
I1
tp202
a(g4
(g5
(S'S3'
p203
I0
I1
tp204
Rp205
(I3
S'|'
p206
NNNI3
I1
I0
tp207
bS'can'
p208
tp209
Rp210
I4
I1
tp211
a(g4
(g5
(S'S5'
p212
I0
I1
tp213
Rp214
(I3
S'|'
p215
NNNI5
I1
I0
tp216
bS'brown'
p217
tp218
Rp219
I0
I0
tp220
a(g4
(g5
(S'S9'
p221
I0
I1
tp222
Rp223
(I3
S'|'
p224
NNNI9
I1
I0
tp225
bS'container'
p226
tp227
Rp228
I21
I1
tp229
a(g4
(g5
(S'S5'
p230
I0
I1
tp231
Rp232
(I3
S'|'
p233
NNNI5
I1
I0
tp234
bS'spice'
p235
tp236
Rp237
I21
I0
tp238
a(g237
I24
I0
tp239
a(g237
I19
I0
tp240
a(g237
I23
I0
tp241
a(g237
I16
I0
tp242
a(g237
I0
I0
tp243
a(g237
I4
I0
tp244
a(g237
I9
I0
tp245
aa(lp246
a.