(lp0
(lp1
(dp2
S'action'
p3
cnumpy.core.multiarray
scalar
p4
(cnumpy
dtype
p5
(S'S4'
p6
I0
I1
tp7
Rp8
(I3
S'|'
p9
NNNI4
I1
I0
tp10
bS'walk'
p11
tp12
Rp13
sS'recipient'
p14
NsS'patient'
p15
NsS'goal'
p16
g4
(g5
(S'S4'
p17
I0
I1
tp18
Rp19
(I3
S'|'
p20
NNNI4
I1
I0
tp21
bS'3422'
p22
tp23
Rp24
sS'source'
p25
Nsa(dp26
g3
g4
(g5
(S'S5'
p27
I0
I1
tp28
Rp29
(I3
S'|'
p30
NNNI5
I1
I0
tp31
bS'bring'
p32
tp33
Rp34
sg14
g4
(g5
(S'S1'
p35
I0
I1
tp36
Rp37
(I3
S'|'
p38
NNNI1
I1
I0
tp39
bS'd'
p40
tp41
Rp42
sg15
g4
(g5
(S'S7'
p43
I0
I1
tp44
Rp45
(I3
S'|'
p46
NNNI7
I1
I0
tp47
bS'oidx_22'
p48
tp49
Rp50
sg16
Nsg25
Nsa(dp51
g3
g4
(g5
(S'S4'
p52
I0
I1
tp53
Rp54
(I3
S'|'
p55
NNNI4
I1
I0
tp56
bS'move'
p57
tp58
Rp59
sg14
Nsg15
S'oidx_22'
p60
sg16
S'3414'
p61
sg25
S'3510'
p62
saa(lp63
(dp64
S'all'
p65
(lp66
S"got to walt 's office"
p67
asg15
(lp68
sg16
(lp69
S"go to walter 's office"
p70
asg25
(lp71
sg3
(lp72
sg14
(lp73
sa(dp74
g65
(lp75
S'give david the peanuts'
p76
asg15
(lp77
S'the peanuts'
p78
aS'the jar with the red lid'
p79
aS'the tall jar with the red lid'
p80
aS'the peanut jar'
p81
aS'the clear jar with the red lid'
p82
asg16
(lp83
sg25
(lp84
sg3
(lp85
sg14
(lp86
sa(dp87
g65
(lp88
S"take the clear jar with the red lid from bob 's office to the small lab"
p89
asg15
(lp90
S'yes'
p91
asg16
(lp92
S'the small lab'
p93
aS'the small lab'
p94
aS'the lab between the other two labs'
p95
aS"to the lab in front of walter 's office"
p96
aS"the lab in front of walter 's office"
p97
aS"the lab in front of walter 's office"
p98
aS'the lab next to the kitchen'
p99
asg25
(lp100
S'yes'
p101
asg3
(lp102
sg14
(lp103
saa(lp104
(g4
(g5
(S'S5'
p105
I0
I1
tp106
Rp107
(I3
S'|'
p108
NNNI5
I1
I0
tp109
bS'tower'
p110
tp111
Rp112
I21
I0
tp113
a(g112
I24
I0
tp114
a(g112
I19
I0
tp115
a(g112
I23
I0
tp116
a(g112
I16
I0
tp117
a(g112
I0
I0
tp118
a(g112
I4
I0
tp119
a(g112
I9
I0
tp120
a(g4
(g5
(S'S4'
p121
I0
I1
tp122
Rp123
(I3
S'|'
p124
NNNI4
I1
I0
tp125
bS'blue'
p126
tp127
Rp128
I21
I0
tp129
a(g4
(g5
(S'S6'
p130
I0
I1
tp131
Rp132
(I3
S'|'
p133
NNNI6
I1
I0
tp134
bS'yellow'
p135
tp136
Rp137
I21
I0
tp138
a(g137
I24
I0
tp139
a(g137
I19
I0
tp140
a(g137
I23
I0
tp141
a(g137
I16
I0
tp142
a(g137
I0
I0
tp143
a(g137
I4
I0
tp144
a(g137
I9
I0
tp145
a(g4
(g5
(S'S5'
p146
I0
I1
tp147
Rp148
(I3
S'|'
p149
NNNI5
I1
I0
tp150
bS'clear'
p151
tp152
Rp153
I21
I0
tp154
a(g153
I24
I0
tp155
a(g153
I19
I0
tp156
a(g153
I23
I0
tp157
a(g153
I16
I0
tp158
a(g153
I0
I0
tp159
a(g153
I4
I0
tp160
a(g153
I9
I0
tp161
a(g4
(g5
(S'S4'
p162
I0
I1
tp163
Rp164
(I3
S'|'
p165
NNNI4
I1
I0
tp166
bS'long'
p167
tp168
Rp169
I19
I0
tp170
a(g4
(g5
(S'S8'
p171
I0
I1
tp172
Rp173
(I3
S'|'
p174
NNNI8
I1
I0
tp175
bS'cylinder'
p176
tp177
Rp178
I21
I1
tp179
a(g178
I24
I1
tp180
a(g178
I19
I1
tp181
a(g178
I23
I1
tp182
a(g178
I16
I1
tp183
a(g178
I0
I1
tp184
a(g178
I4
I1
tp185
a(g178
I9
I1
tp186
a(g4
(g5
(S'S5'
p187
I0
I1
tp188
Rp189
(I3
S'|'
p190
NNNI5
I1
I0
tp191
bS'large'
p192
tp193
Rp194
I24
I0
tp195
a(g4
(g5
(S'S4'
p196
I0
I1
tp197
Rp198
(I3
S'|'
p199
NNNI4
I1
I0
tp200
bS'blue'
p201
tp202
Rp203
I24
I0
tp204
a(g4
(g5
(S'S4'
p205
I0
I1
tp206
Rp207
(I3
S'|'
p208
NNNI4
I1
I0
tp209
bS'bean'
p210
tp211
Rp212
I21
I0
tp213
a(g212
I24
I0
tp214
a(g212
I19
I0
tp215
a(g212
I23
I0
tp216
a(g212
I16
I0
tp217
a(g212
I0
I0
tp218
a(g212
I4
I0
tp219
a(g212
I9
I0
tp220
a(g4
(g5
(S'S9'
p221
I0
I1
tp222
Rp223
(I3
S'|'
p224
NNNI9
I1
I0
tp225
bS'styrofoam'
p226
tp227
Rp228
I9
I0
tp229
a(g4
(g5
(S'S5'
p230
I0
I1
tp231
Rp232
(I3
S'|'
p233
NNNI5
I1
I0
tp234
bS'small'
p235
tp236
Rp237
I21
I0
tp238
a(g4
(g5
(S'S9'
p239
I0
I1
tp240
Rp241
(I3
S'|'
p242
NNNI9
I1
I0
tp243
bS'container'
p244
tp245
Rp246
I23
I1
tp247
a(g4
(g5
(S'S5'
p248
I0
I1
tp249
Rp250
(I3
S'|'
p251
NNNI5
I1
I0
tp252
bS'small'
p253
tp254
Rp255
I19
I0
tp256
a(g4
(g5
(S'S5'
p257
I0
I1
tp258
Rp259
(I3
S'|'
p260
NNNI5
I1
I0
tp261
bS'large'
p262
tp263
Rp264
I0
I0
tp265
a(g4
(g5
(S'S9'
p266
I0
I1
tp267
Rp268
(I3
S'|'
p269
NNNI9
I1
I0
tp270
bS'rectangle'
p271
tp272
Rp273
I21
I0
tp274
a(g273
I24
I0
tp275
a(g273
I19
I0
tp276
a(g273
I23
I0
tp277
a(g273
I16
I0
tp278
a(g273
I0
I0
tp279
a(g273
I4
I0
tp280
a(g273
I9
I0
tp281
aa(lp282
a.