(lp0
(lp1
(dp2
S'action'
p3
cnumpy.core.multiarray
scalar
p4
(cnumpy
dtype
p5
(S'S4'
p6
I0
I1
tp7
Rp8
(I3
S'|'
p9
NNNI4
I1
I0
tp10
bS'walk'
p11
tp12
Rp13
sS'recipient'
p14
NsS'patient'
p15
NsS'goal'
p16
g4
(g5
(S'S4'
p17
I0
I1
tp18
Rp19
(I3
S'|'
p20
NNNI4
I1
I0
tp21
bS'3402'
p22
tp23
Rp24
sS'source'
p25
Nsa(dp26
g3
g4
(g5
(S'S5'
p27
I0
I1
tp28
Rp29
(I3
S'|'
p30
NNNI5
I1
I0
tp31
bS'bring'
p32
tp33
Rp34
sg14
g4
(g5
(S'S1'
p35
I0
I1
tp36
Rp37
(I3
S'|'
p38
NNNI1
I1
I0
tp39
bS'b'
p40
tp41
Rp42
sg15
S'oidx_12'
p43
sg16
Nsg25
Nsa(dp44
g3
g4
(g5
(S'S5'
p45
I0
I1
tp46
Rp47
(I3
S'|'
p48
NNNI5
I1
I0
tp49
bS'bring'
p50
tp51
Rp52
sg14
g4
(g5
(S'S1'
p53
I0
I1
tp54
Rp55
(I3
S'|'
p56
NNNI1
I1
I0
tp57
bS'm'
p58
tp59
Rp60
sg15
g4
(g5
(S'S7'
p61
I0
I1
tp62
Rp63
(I3
S'|'
p64
NNNI7
I1
I0
tp65
bS'oidx_11'
p66
tp67
Rp68
sg16
Nsg25
Nsaa(lp69
(dp70
S'all'
p71
(lp72
S"go to heidi 's office"
p73
asg15
(lp74
sg16
(lp75
sg25
(lp76
sg3
(lp77
sg14
(lp78
sa(dp79
g71
(lp80
S'give white cylinder to robert'
p81
asg15
(lp82
S'white cylinder'
p83
aS'white and red cylinder'
p84
asg16
(lp85
sg25
(lp86
sg3
(lp87
sg14
(lp88
sa(dp89
g71
(lp90
S'give empty yellow can to mallory'
p91
asg15
(lp92
S'empty yellow can'
p93
aS'empty yellow can'
p94
aS'empty can'
p95
asg16
(lp96
sg25
(lp97
sg3
(lp98
sg14
(lp99
S'mallory'
p100
asaa(lp101
(g4
(g5
(S'S3'
p102
I0
I1
tp103
Rp104
(I3
S'|'
p105
NNNI3
I1
I0
tp106
bS'red'
p107
tp108
Rp109
I16
I0
tp110
a(g4
(g5
(S'S9'
p111
I0
I1
tp112
Rp113
(I3
S'|'
p114
NNNI9
I1
I0
tp115
bS'styrofoam'
p116
tp117
Rp118
I0
I0
tp119
a(g4
(g5
(S'S5'
p120
I0
I1
tp121
Rp122
(I3
S'|'
p123
NNNI5
I1
I0
tp124
bS'small'
p125
tp126
Rp127
I21
I0
tp128
a(g4
(g5
(S'S5'
p129
I0
I1
tp130
Rp131
(I3
S'|'
p132
NNNI5
I1
I0
tp133
bS'clear'
p134
tp135
Rp136
I21
I0
tp137
a(g136
I24
I0
tp138
a(g136
I19
I0
tp139
a(g136
I23
I0
tp140
a(g136
I16
I0
tp141
a(g136
I0
I0
tp142
a(g136
I4
I0
tp143
a(g136
I9
I0
tp144
a(g4
(g5
(S'S5'
p145
I0
I1
tp146
Rp147
(I3
S'|'
p148
NNNI5
I1
I0
tp149
bS'empty'
p150
tp151
Rp152
I4
I0
tp153
a(g4
(g5
(S'S8'
p154
I0
I1
tp155
Rp156
(I3
S'|'
p157
NNNI8
I1
I0
tp158
bS'cylinder'
p159
tp160
Rp161
I21
I1
tp162
a(g161
I24
I1
tp163
a(g161
I19
I1
tp164
a(g161
I23
I1
tp165
a(g161
I16
I1
tp166
a(g161
I0
I1
tp167
a(g161
I4
I1
tp168
a(g161
I9
I1
tp169
a(g4
(g5
(S'S3'
p170
I0
I1
tp171
Rp172
(I3
S'|'
p173
NNNI3
I1
I0
tp174
bS'can'
p175
tp176
Rp177
I0
I0
tp178
a(g4
(g5
(S'S4'
p179
I0
I1
tp180
Rp181
(I3
S'|'
p182
NNNI4
I1
I0
tp183
bS'long'
p184
tp185
Rp186
I19
I0
tp187
a(g4
(g5
(S'S5'
p188
I0
I1
tp189
Rp190
(I3
S'|'
p191
NNNI5
I1
I0
tp192
bS'small'
p193
tp194
Rp195
I19
I0
tp196
a(g4
(g5
(S'S4'
p197
I0
I1
tp198
Rp199
(I3
S'|'
p200
NNNI4
I1
I0
tp201
bS'long'
p202
tp203
Rp204
I24
I0
tp205
a(g4
(g5
(S'S3'
p206
I0
I1
tp207
Rp208
(I3
S'|'
p209
NNNI3
I1
I0
tp210
bS'can'
p211
tp212
Rp213
I19
I1
tp214
a(g4
(g5
(S'S3'
p215
I0
I1
tp216
Rp217
(I3
S'|'
p218
NNNI3
I1
I0
tp219
bS'can'
p220
tp221
Rp222
I16
I0
tp223
a(g4
(g5
(S'S3'
p224
I0
I1
tp225
Rp226
(I3
S'|'
p227
NNNI3
I1
I0
tp228
bS'can'
p229
tp230
Rp231
I9
I1
tp232
a(g4
(g5
(S'S3'
p233
I0
I1
tp234
Rp235
(I3
S'|'
p236
NNNI3
I1
I0
tp237
bS'can'
p238
tp239
Rp240
I23
I0
tp241
a(g4
(g5
(S'S3'
p242
I0
I1
tp243
Rp244
(I3
S'|'
p245
NNNI3
I1
I0
tp246
bS'can'
p247
tp248
Rp249
I4
I0
tp250
aa(lp251
a.