(lp0
(lp1
(dp2
S'action'
p3
cnumpy.core.multiarray
scalar
p4
(cnumpy
dtype
p5
(S'S4'
p6
I0
I1
tp7
Rp8
(I3
S'|'
p9
NNNI4
I1
I0
tp10
bS'walk'
p11
tp12
Rp13
sS'recipient'
p14
NsS'patient'
p15
NsS'goal'
p16
S'3422'
p17
sS'source'
p18
Nsa(dp19
g3
g4
(g5
(S'S4'
p20
I0
I1
tp21
Rp22
(I3
S'|'
p23
NNNI4
I1
I0
tp24
bS'move'
p25
tp26
Rp27
sg14
Nsg15
S'oidx_11'
p28
sg16
S'3406'
p29
sg18
S'3414a'
p30
sa(dp31
g3
g4
(g5
(S'S5'
p32
I0
I1
tp33
Rp34
(I3
S'|'
p35
NNNI5
I1
I0
tp36
bS'bring'
p37
tp38
Rp39
sg14
S'r'
p40
sg15
S'oidx_6'
p41
sg16
Nsg18
Nsaa(lp42
(dp43
S'all'
p44
(lp45
S'going to office'
p46
asg15
(lp47
sg16
(lp48
S'street'
p49
asg18
(lp50
sg3
(lp51
sg14
(lp52
sa(dp53
g44
(lp54
S'can'
p55
asg15
(lp56
S'no'
p57
aS'no'
p58
aS'no'
p59
asg16
(lp60
S'yes'
p61
asg18
(lp62
S'no'
p63
aS'no'
p64
asg3
(lp65
sg14
(lp66
sa(dp67
g44
(lp68
S'yes'
p69
asg15
(lp70
S'no'
p71
aS'no'
p72
asg16
(lp73
sg18
(lp74
sg3
(lp75
sg14
(lp76
S'no'
p77
aS'no'
p78
aS'no'
p79
asaa(lp80
(g4
(g5
(S'S8'
p81
I0
I1
tp82
Rp83
(I3
S'|'
p84
NNNI8
I1
I0
tp85
bS'metallic'
p86
tp87
Rp88
I21
I0
tp89
a(g88
I24
I0
tp90
a(g88
I19
I0
tp91
a(g88
I23
I0
tp92
a(g88
I16
I0
tp93
a(g88
I0
I0
tp94
a(g88
I4
I0
tp95
a(g88
I9
I0
tp96
a(g4
(g5
(S'S3'
p97
I0
I1
tp98
Rp99
(I3
S'|'
p100
NNNI3
I1
I0
tp101
bS'can'
p102
tp103
Rp104
I0
I0
tp105
a(g4
(g5
(S'S4'
p106
I0
I1
tp107
Rp108
(I3
S'|'
p109
NNNI4
I1
I0
tp110
bS'bean'
p111
tp112
Rp113
I21
I0
tp114
a(g113
I24
I0
tp115
a(g113
I19
I0
tp116
a(g113
I23
I0
tp117
a(g113
I16
I0
tp118
a(g113
I0
I0
tp119
a(g113
I4
I0
tp120
a(g113
I9
I0
tp121
a(g4
(g5
(S'S8'
p122
I0
I1
tp123
Rp124
(I3
S'|'
p125
NNNI8
I1
I0
tp126
bS'cylinder'
p127
tp128
Rp129
I21
I1
tp130
a(g129
I24
I1
tp131
a(g129
I19
I1
tp132
a(g129
I23
I1
tp133
a(g129
I16
I1
tp134
a(g129
I0
I1
tp135
a(g129
I4
I1
tp136
a(g129
I9
I1
tp137
a(g4
(g5
(S'S9'
p138
I0
I1
tp139
Rp140
(I3
S'|'
p141
NNNI9
I1
I0
tp142
bS'rectangle'
p143
tp144
Rp145
I21
I0
tp146
a(g145
I24
I0
tp147
a(g145
I19
I0
tp148
a(g145
I23
I0
tp149
a(g145
I16
I0
tp150
a(g145
I0
I0
tp151
a(g145
I4
I0
tp152
a(g145
I9
I0
tp153
a(g4
(g5
(S'S3'
p154
I0
I1
tp155
Rp156
(I3
S'|'
p157
NNNI3
I1
I0
tp158
bS'can'
p159
tp160
Rp161
I21
I1
tp162
a(g4
(g5
(S'S3'
p163
I0
I1
tp164
Rp165
(I3
S'|'
p166
NNNI3
I1
I0
tp167
bS'can'
p168
tp169
Rp170
I23
I0
tp171
a(g4
(g5
(S'S3'
p172
I0
I1
tp173
Rp174
(I3
S'|'
p175
NNNI3
I1
I0
tp176
bS'can'
p177
tp178
Rp179
I9
I1
tp180
a(g4
(g5
(S'S3'
p181
I0
I1
tp182
Rp183
(I3
S'|'
p184
NNNI3
I1
I0
tp185
bS'can'
p186
tp187
Rp188
I4
I0
tp189
a(g4
(g5
(S'S3'
p190
I0
I1
tp191
Rp192
(I3
S'|'
p193
NNNI3
I1
I0
tp194
bS'can'
p195
tp196
Rp197
I16
I0
tp198
a(g4
(g5
(S'S9'
p199
I0
I1
tp200
Rp201
(I3
S'|'
p202
NNNI9
I1
I0
tp203
bS'container'
p204
tp205
Rp206
I4
I1
tp207
a(g4
(g5
(S'S6'
p208
I0
I1
tp209
Rp210
(I3
S'|'
p211
NNNI6
I1
I0
tp212
bS'column'
p213
tp214
Rp215
I0
I0
tp216
a(g4
(g5
(S'S5'
p217
I0
I1
tp218
Rp219
(I3
S'|'
p220
NNNI5
I1
I0
tp221
bS'small'
p222
tp223
Rp224
I21
I0
tp225
a(g4
(g5
(S'S5'
p226
I0
I1
tp227
Rp228
(I3
S'|'
p229
NNNI5
I1
I0
tp230
bS'clear'
p231
tp232
Rp233
I21
I0
tp234
a(g233
I24
I0
tp235
a(g233
I19
I0
tp236
a(g233
I23
I0
tp237
a(g233
I16
I0
tp238
a(g233
I0
I0
tp239
a(g233
I4
I0
tp240
a(g233
I9
I0
tp241
a(g4
(g5
(S'S4'
p242
I0
I1
tp243
Rp244
(I3
S'|'
p245
NNNI4
I1
I0
tp246
bS'blue'
p247
tp248
Rp249
I21
I0
tp250
aa(lp251
(S'going'
p252
S'can'
p253
I01
tp254
aa.