(lp0
(lp1
(dp2
S'action'
p3
cnumpy.core.multiarray
scalar
p4
(cnumpy
dtype
p5
(S'S4'
p6
I0
I1
tp7
Rp8
(I3
S'|'
p9
NNNI4
I1
I0
tp10
bS'walk'
p11
tp12
Rp13
sS'recipient'
p14
NsS'patient'
p15
NsS'goal'
p16
S'3520'
p17
sS'source'
p18
Nsa(dp19
g3
g4
(g5
(S'S4'
p20
I0
I1
tp21
Rp22
(I3
S'|'
p23
NNNI4
I1
I0
tp24
bS'walk'
p25
tp26
Rp27
sg14
Nsg15
Nsg16
S'3516'
p28
sg18
Nsa(dp29
g3
g4
(g5
(S'S4'
p30
I0
I1
tp31
Rp32
(I3
S'|'
p33
NNNI4
I1
I0
tp34
bS'walk'
p35
tp36
Rp37
sg14
Nsg15
Nsg16
g4
(g5
(S'S4'
p38
I0
I1
tp39
Rp40
(I3
S'|'
p41
NNNI4
I1
I0
tp42
bS'3520'
p43
tp44
Rp45
sg18
Nsaa(lp46
(dp47
S'all'
p48
(lp49
S'you go to kitchen'
p50
asg15
(lp51
sg16
(lp52
S'kitchen'
p53
asg18
(lp54
sg3
(lp55
sg14
(lp56
sa(dp57
g48
(lp58
S'go to right'
p59
asg15
(lp60
sg16
(lp61
S'kitchen'
p62
aS'left side'
p63
aS'right'
p64
asg18
(lp65
sg3
(lp66
sg14
(lp67
sa(dp68
g48
(lp69
S'you go to kitchen'
p70
asg15
(lp71
sg16
(lp72
sg18
(lp73
sg3
(lp74
sg14
(lp75
saa(lp76
(g4
(g5
(S'S9'
p77
I0
I1
tp78
Rp79
(I3
S'|'
p80
NNNI9
I1
I0
tp81
bS'styrofoam'
p82
tp83
Rp84
I0
I1
tp85
a(g4
(g5
(S'S5'
p86
I0
I1
tp87
Rp88
(I3
S'|'
p89
NNNI5
I1
I0
tp90
bS'clear'
p91
tp92
Rp93
I21
I0
tp94
a(g93
I24
I0
tp95
a(g93
I19
I0
tp96
a(g93
I23
I0
tp97
a(g93
I16
I0
tp98
a(g93
I0
I0
tp99
a(g93
I4
I0
tp100
a(g93
I9
I0
tp101
a(g4
(g5
(S'S8'
p102
I0
I1
tp103
Rp104
(I3
S'|'
p105
NNNI8
I1
I0
tp106
bS'pringles'
p107
tp108
Rp109
I21
I0
tp110
a(g109
I24
I0
tp111
a(g109
I19
I0
tp112
a(g109
I23
I0
tp113
a(g109
I16
I0
tp114
a(g109
I0
I0
tp115
a(g109
I4
I0
tp116
a(g109
I9
I0
tp117
a(g4
(g5
(S'S5'
p118
I0
I1
tp119
Rp120
(I3
S'|'
p121
NNNI5
I1
I0
tp122
bS'brown'
p123
tp124
Rp125
I19
I0
tp126
a(g4
(g5
(S'S5'
p127
I0
I1
tp128
Rp129
(I3
S'|'
p130
NNNI5
I1
I0
tp131
bS'white'
p132
tp133
Rp134
I9
I1
tp135
a(g4
(g5
(S'S9'
p136
I0
I1
tp137
Rp138
(I3
S'|'
p139
NNNI9
I1
I0
tp140
bS'styrofoam'
p141
tp142
Rp143
I9
I1
tp144
a(g4
(g5
(S'S4'
p145
I0
I1
tp146
Rp147
(I3
S'|'
p148
NNNI4
I1
I0
tp149
bS'blue'
p150
tp151
Rp152
I23
I0
tp153
a(g4
(g5
(S'S3'
p154
I0
I1
tp155
Rp156
(I3
S'|'
p157
NNNI3
I1
I0
tp158
bS'can'
p159
tp160
Rp161
I9
I0
tp162
a(g4
(g5
(S'S5'
p163
I0
I1
tp164
Rp165
(I3
S'|'
p166
NNNI5
I1
I0
tp167
bS'large'
p168
tp169
Rp170
I21
I1
tp171
a(g170
I24
I1
tp172
a(g170
I19
I1
tp173
a(g170
I23
I1
tp174
a(g170
I16
I1
tp175
a(g170
I0
I1
tp176
a(g170
I4
I1
tp177
a(g170
I9
I1
tp178
a(g4
(g5
(S'S4'
p179
I0
I1
tp180
Rp181
(I3
S'|'
p182
NNNI4
I1
I0
tp183
bS'long'
p184
tp185
Rp186
I21
I1
tp187
a(g4
(g5
(S'S6'
p188
I0
I1
tp189
Rp190
(I3
S'|'
p191
NNNI6
I1
I0
tp192
bS'column'
p193
tp194
Rp195
I0
I0
tp196
a(g4
(g5
(S'S8'
p197
I0
I1
tp198
Rp199
(I3
S'|'
p200
NNNI8
I1
I0
tp201
bS'metallic'
p202
tp203
Rp204
I21
I0
tp205
a(g204
I24
I0
tp206
a(g204
I19
I0
tp207
a(g204
I23
I0
tp208
a(g204
I16
I0
tp209
a(g204
I0
I0
tp210
a(g204
I4
I0
tp211
a(g204
I9
I0
tp212
a(g4
(g5
(S'S9'
p213
I0
I1
tp214
Rp215
(I3
S'|'
p216
NNNI9
I1
I0
tp217
bS'styrofoam'
p218
tp219
Rp220
I24
I0
tp221
a(g4
(g5
(S'S5'
p222
I0
I1
tp223
Rp224
(I3
S'|'
p225
NNNI5
I1
I0
tp226
bS'small'
p227
tp228
Rp229
I21
I1
tp230
a(g4
(g5
(S'S5'
p231
I0
I1
tp232
Rp233
(I3
S'|'
p234
NNNI5
I1
I0
tp235
bS'white'
p236
tp237
Rp238
I16
I1
tp239
aa(lp240
a.