(lp0
(lp1
(dp2
S'action'
p3
cnumpy.core.multiarray
scalar
p4
(cnumpy
dtype
p5
(S'S4'
p6
I0
I1
tp7
Rp8
(I3
S'|'
p9
NNNI4
I1
I0
tp10
bS'walk'
p11
tp12
Rp13
sS'recipient'
p14
NsS'patient'
p15
NsS'goal'
p16
g4
(g5
(S'S4'
p17
I0
I1
tp18
Rp19
(I3
S'|'
p20
NNNI4
I1
I0
tp21
bS'3512'
p22
tp23
Rp24
sS'source'
p25
Nsa(dp26
g3
g4
(g5
(S'S5'
p27
I0
I1
tp28
Rp29
(I3
S'|'
p30
NNNI5
I1
I0
tp31
bS'bring'
p32
tp33
Rp34
sg14
S'n'
p35
sg15
S'oidx_25'
p36
sg16
Nsg25
Nsa(dp37
g3
g4
(g5
(S'S4'
p38
I0
I1
tp39
Rp40
(I3
S'|'
p41
NNNI4
I1
I0
tp42
bS'walk'
p43
tp44
Rp45
sg14
Nsg15
Nsg16
S'3402'
p46
sg25
Nsaa(lp47
(dp48
S'all'
p49
(lp50
S'go to office s'
p51
asg15
(lp52
sg16
(lp53
S'go to office s'
p54
aS'go to office s'
p55
aS'go to office s'
p56
asg25
(lp57
sg3
(lp58
sg14
(lp59
sa(dp60
g49
(lp61
S'peggy want object'
p62
asg15
(lp63
S'container'
p64
aS'peggy'
p65
asg16
(lp66
sg25
(lp67
sg3
(lp68
sg14
(lp69
sa(dp70
g49
(lp71
S'go to office s'
p72
asg15
(lp73
sg16
(lp74
S'go to office s'
p75
aS'go to office s'
p76
aS'go to office s'
p77
aS'go to office s'
p78
asg25
(lp79
sg3
(lp80
sg14
(lp81
saa(lp82
(g4
(g5
(S'S5'
p83
I0
I1
tp84
Rp85
(I3
S'|'
p86
NNNI5
I1
I0
tp87
bS'empty'
p88
tp89
Rp90
I21
I1
tp91
a(g4
(g5
(S'S8'
p92
I0
I1
tp93
Rp94
(I3
S'|'
p95
NNNI8
I1
I0
tp96
bS'pringles'
p97
tp98
Rp99
I21
I0
tp100
a(g99
I24
I0
tp101
a(g99
I19
I0
tp102
a(g99
I23
I0
tp103
a(g99
I16
I0
tp104
a(g99
I0
I0
tp105
a(g99
I4
I0
tp106
a(g99
I9
I0
tp107
a(g4
(g5
(S'S9'
p108
I0
I1
tp109
Rp110
(I3
S'|'
p111
NNNI9
I1
I0
tp112
bS'styrofoam'
p113
tp114
Rp115
I19
I1
tp116
a(g4
(g5
(S'S3'
p117
I0
I1
tp118
Rp119
(I3
S'|'
p120
NNNI3
I1
I0
tp121
bS'red'
p122
tp123
Rp124
I21
I0
tp125
a(g4
(g5
(S'S5'
p126
I0
I1
tp127
Rp128
(I3
S'|'
p129
NNNI5
I1
I0
tp130
bS'empty'
p131
tp132
Rp133
I0
I0
tp134
a(g4
(g5
(S'S3'
p135
I0
I1
tp136
Rp137
(I3
S'|'
p138
NNNI3
I1
I0
tp139
bS'can'
p140
tp141
Rp142
I16
I1
tp143
a(g4
(g5
(S'S3'
p144
I0
I1
tp145
Rp146
(I3
S'|'
p147
NNNI3
I1
I0
tp148
bS'can'
p149
tp150
Rp151
I0
I1
tp152
a(g4
(g5
(S'S3'
p153
I0
I1
tp154
Rp155
(I3
S'|'
p156
NNNI3
I1
I0
tp157
bS'can'
p158
tp159
Rp160
I0
I1
tp161
a(g4
(g5
(S'S3'
p162
I0
I1
tp163
Rp164
(I3
S'|'
p165
NNNI3
I1
I0
tp166
bS'can'
p167
tp168
Rp169
I0
I1
tp170
a(g4
(g5
(S'S9'
p171
I0
I1
tp172
Rp173
(I3
S'|'
p174
NNNI9
I1
I0
tp175
bS'container'
p176
tp177
Rp178
I24
I1
tp179
a(g4
(g5
(S'S4'
p180
I0
I1
tp181
Rp182
(I3
S'|'
p183
NNNI4
I1
I0
tp184
bS'long'
p185
tp186
Rp187
I24
I1
tp188
a(g4
(g5
(S'S5'
p189
I0
I1
tp190
Rp191
(I3
S'|'
p192
NNNI5
I1
I0
tp193
bS'empty'
p194
tp195
Rp196
I19
I1
tp197
a(g4
(g5
(S'S5'
p198
I0
I1
tp199
Rp200
(I3
S'|'
p201
NNNI5
I1
I0
tp202
bS'peach'
p203
tp204
Rp205
I4
I1
tp206
a(g4
(g5
(S'S8'
p207
I0
I1
tp208
Rp209
(I3
S'|'
p210
NNNI8
I1
I0
tp211
bS'cylinder'
p212
tp213
Rp214
I0
I0
tp215
a(g4
(g5
(S'S8'
p216
I0
I1
tp217
Rp218
(I3
S'|'
p219
NNNI8
I1
I0
tp220
bS'cylinder'
p221
tp222
Rp223
I19
I0
tp224
aa(lp225
(S'want'
p226
S'can'
p227
I01
tp228
aa.