(lp0
(lp1
(dp2
S'action'
p3
cnumpy.core.multiarray
scalar
p4
(cnumpy
dtype
p5
(S'S4'
p6
I0
I1
tp7
Rp8
(I3
S'|'
p9
NNNI4
I1
I0
tp10
bS'walk'
p11
tp12
Rp13
sS'recipient'
p14
NsS'patient'
p15
NsS'goal'
p16
S'3504'
p17
sS'source'
p18
Nsa(dp19
g3
g4
(g5
(S'S5'
p20
I0
I1
tp21
Rp22
(I3
S'|'
p23
NNNI5
I1
I0
tp24
bS'bring'
p25
tp26
Rp27
sg14
g4
(g5
(S'S1'
p28
I0
I1
tp29
Rp30
(I3
S'|'
p31
NNNI1
I1
I0
tp32
bS'p'
p33
tp34
Rp35
sg15
g4
(g5
(S'S6'
p36
I0
I1
tp37
Rp38
(I3
S'|'
p39
NNNI6
I1
I0
tp40
bS'oidx_6'
p41
tp42
Rp43
sg16
Nsg18
Nsa(dp44
g3
g4
(g5
(S'S4'
p45
I0
I1
tp46
Rp47
(I3
S'|'
p48
NNNI4
I1
I0
tp49
bS'move'
p50
tp51
Rp52
sg14
Nsg15
S'oidx_13'
p53
sg16
g4
(g5
(S'S4'
p54
I0
I1
tp55
Rp56
(I3
S'|'
p57
NNNI4
I1
I0
tp58
bS'3518'
p59
tp60
Rp61
sg18
S'3422'
p62
saa(lp63
(dp64
S'all'
p65
(lp66
S'go to pod'
p67
asg15
(lp68
sg16
(lp69
S'to the pod room'
p70
aS'go to pod'
p71
asg18
(lp72
sg3
(lp73
sg14
(lp74
sa(dp75
g65
(lp76
S'give container to peggy'
p77
asg15
(lp78
S'container'
p79
aS'container'
p80
aS'pills'
p81
asg16
(lp82
sg18
(lp83
sg3
(lp84
sg14
(lp85
S'peggy'
p86
asa(dp87
g65
(lp88
S'deliver pringles to pod'
p89
asg15
(lp90
sg16
(lp91
S'to pod'
p92
aS'to pod'
p93
asg18
(lp94
S'from walter'
p95
aS'from supervisor'
p96
aS'w'
p97
aS'w'
p98
aS'walter ward'
p99
aS'w'
p100
aS'move pringles from walter'
p101
aS'from w'
p102
asg3
(lp103
sg14
(lp104
saa(lp105
(g4
(g5
(S'S4'
p106
I0
I1
tp107
Rp108
(I3
S'|'
p109
NNNI4
I1
I0
tp110
bS'long'
p111
tp112
Rp113
I23
I0
tp114
a(g4
(g5
(S'S5'
p115
I0
I1
tp116
Rp117
(I3
S'|'
p118
NNNI5
I1
I0
tp119
bS'peach'
p120
tp121
Rp122
I21
I0
tp123
a(g122
I24
I0
tp124
a(g122
I19
I0
tp125
a(g122
I23
I0
tp126
a(g122
I16
I0
tp127
a(g122
I0
I0
tp128
a(g122
I4
I0
tp129
a(g122
I9
I0
tp130
a(g4
(g5
(S'S9'
p131
I0
I1
tp132
Rp133
(I3
S'|'
p134
NNNI9
I1
I0
tp135
bS'container'
p136
tp137
Rp138
I21
I1
tp139
a(g4
(g5
(S'S4'
p140
I0
I1
tp141
Rp142
(I3
S'|'
p143
NNNI4
I1
I0
tp144
bS'blue'
p145
tp146
Rp147
I16
I0
tp148
a(g4
(g5
(S'S4'
p149
I0
I1
tp150
Rp151
(I3
S'|'
p152
NNNI4
I1
I0
tp153
bS'blue'
p154
tp155
Rp156
I19
I0
tp157
a(g4
(g5
(S'S9'
p158
I0
I1
tp159
Rp160
(I3
S'|'
p161
NNNI9
I1
I0
tp162
bS'container'
p163
tp164
Rp165
I4
I1
tp166
a(g4
(g5
(S'S9'
p167
I0
I1
tp168
Rp169
(I3
S'|'
p170
NNNI9
I1
I0
tp171
bS'container'
p172
tp173
Rp174
I16
I1
tp175
a(g4
(g5
(S'S9'
p176
I0
I1
tp177
Rp178
(I3
S'|'
p179
NNNI9
I1
I0
tp180
bS'container'
p181
tp182
Rp183
I19
I1
tp184
a(g4
(g5
(S'S9'
p185
I0
I1
tp186
Rp187
(I3
S'|'
p188
NNNI9
I1
I0
tp189
bS'container'
p190
tp191
Rp192
I24
I0
tp193
a(g4
(g5
(S'S9'
p194
I0
I1
tp195
Rp196
(I3
S'|'
p197
NNNI9
I1
I0
tp198
bS'container'
p199
tp200
Rp201
I23
I0
tp202
a(g4
(g5
(S'S8'
p203
I0
I1
tp204
Rp205
(I3
S'|'
p206
NNNI8
I1
I0
tp207
bS'cylinder'
p208
tp209
Rp210
I21
I1
tp211
a(g210
I24
I1
tp212
a(g210
I19
I1
tp213
a(g210
I23
I1
tp214
a(g210
I16
I1
tp215
a(g210
I0
I1
tp216
a(g210
I4
I1
tp217
a(g210
I9
I1
tp218
a(g4
(g5
(S'S5'
p219
I0
I1
tp220
Rp221
(I3
S'|'
p222
NNNI5
I1
I0
tp223
bS'small'
p224
tp225
Rp226
I21
I0
tp227
a(g4
(g5
(S'S9'
p228
I0
I1
tp229
Rp230
(I3
S'|'
p231
NNNI9
I1
I0
tp232
bS'container'
p233
tp234
Rp235
I0
I1
tp236
a(g4
(g5
(S'S3'
p237
I0
I1
tp238
Rp239
(I3
S'|'
p240
NNNI3
I1
I0
tp241
bS'can'
p242
tp243
Rp244
I24
I0
tp245
a(g4
(g5
(S'S9'
p246
I0
I1
tp247
Rp248
(I3
S'|'
p249
NNNI9
I1
I0
tp250
bS'container'
p251
tp252
Rp253
I9
I1
tp254
aa(lp255
a.