(lp0
(lp1
(dp2
S'action'
p3
cnumpy.core.multiarray
scalar
p4
(cnumpy
dtype
p5
(S'S5'
p6
I0
I1
tp7
Rp8
(I3
S'|'
p9
NNNI5
I1
I0
tp10
bS'bring'
p11
tp12
Rp13
sS'recipient'
p14
S'm'
p15
sS'patient'
p16
S'oidx_26'
p17
sS'goal'
p18
NsS'source'
p19
Nsa(dp20
g3
g4
(g5
(S'S5'
p21
I0
I1
tp22
Rp23
(I3
S'|'
p24
NNNI5
I1
I0
tp25
bS'bring'
p26
tp27
Rp28
sg14
g15
sg16
S'oidx_28'
p29
sg18
Nsg19
Nsa(dp30
g3
g4
(g5
(S'S5'
p31
I0
I1
tp32
Rp33
(I3
S'|'
p34
NNNI5
I1
I0
tp35
bS'bring'
p36
tp37
Rp38
sg14
S's'
p39
sg16
S'oidx_22'
p40
sg18
Nsg19
Nsaa(lp41
(dp42
S'all'
p43
(lp44
S'deliver'
p45
asg16
(lp46
S'yes'
p47
asg18
(lp48
sg19
(lp49
sg3
(lp50
sg14
(lp51
S'yes'
p52
asa(dp53
g43
(lp54
S'deliver'
p55
asg16
(lp56
sg18
(lp57
sg19
(lp58
sg3
(lp59
sg14
(lp60
S'yes'
p61
aS'yes'
p62
asa(dp63
g43
(lp64
S'deliver'
p65
asg16
(lp66
S'yes'
p67
aS'yes'
p68
asg18
(lp69
sg19
(lp70
sg3
(lp71
sg14
(lp72
saa(lp73
(g4
(g5
(S'S5'
p74
I0
I1
tp75
Rp76
(I3
S'|'
p77
NNNI5
I1
I0
tp78
bS'block'
p79
tp80
Rp81
I0
I1
tp82
a(g4
(g5
(S'S4'
p83
I0
I1
tp84
Rp85
(I3
S'|'
p86
NNNI4
I1
I0
tp87
bS'long'
p88
tp89
Rp90
I16
I1
tp91
a(g4
(g5
(S'S6'
p92
I0
I1
tp93
Rp94
(I3
S'|'
p95
NNNI6
I1
I0
tp96
bS'yellow'
p97
tp98
Rp99
I0
I1
tp100
a(g4
(g5
(S'S5'
p101
I0
I1
tp102
Rp103
(I3
S'|'
p104
NNNI5
I1
I0
tp105
bS'spice'
p106
tp107
Rp108
I0
I1
tp109
a(g4
(g5
(S'S5'
p110
I0
I1
tp111
Rp112
(I3
S'|'
p113
NNNI5
I1
I0
tp114
bS'clear'
p115
tp116
Rp117
I24
I1
tp118
a(g4
(g5
(S'S8'
p119
I0
I1
tp120
Rp121
(I3
S'|'
p122
NNNI8
I1
I0
tp123
bS'metallic'
p124
tp125
Rp126
I9
I1
tp127
a(g4
(g5
(S'S9'
p128
I0
I1
tp129
Rp130
(I3
S'|'
p131
NNNI9
I1
I0
tp132
bS'container'
p133
tp134
Rp135
I19
I1
tp136
a(g4
(g5
(S'S8'
p137
I0
I1
tp138
Rp139
(I3
S'|'
p140
NNNI8
I1
I0
tp141
bS'metallic'
p142
tp143
Rp144
I16
I1
tp145
a(g4
(g5
(S'S8'
p146
I0
I1
tp147
Rp148
(I3
S'|'
p149
NNNI8
I1
I0
tp150
bS'metallic'
p151
tp152
Rp153
I4
I1
tp154
a(g4
(g5
(S'S5'
p155
I0
I1
tp156
Rp157
(I3
S'|'
p158
NNNI5
I1
I0
tp159
bS'small'
p160
tp161
Rp162
I21
I1
tp163
a(g4
(g5
(S'S9'
p164
I0
I1
tp165
Rp166
(I3
S'|'
p167
NNNI9
I1
I0
tp168
bS'styrofoam'
p169
tp170
Rp171
I21
I1
tp172
a(g4
(g5
(S'S5'
p173
I0
I1
tp174
Rp175
(I3
S'|'
p176
NNNI5
I1
I0
tp177
bS'clear'
p178
tp179
Rp180
I4
I1
tp181
a(g4
(g5
(S'S5'
p182
I0
I1
tp183
Rp184
(I3
S'|'
p185
NNNI5
I1
I0
tp186
bS'tower'
p187
tp188
Rp189
I0
I1
tp190
a(g4
(g5
(S'S5'
p191
I0
I1
tp192
Rp193
(I3
S'|'
p194
NNNI5
I1
I0
tp195
bS'large'
p196
tp197
Rp198
I16
I0
tp199
a(g4
(g5
(S'S6'
p200
I0
I1
tp201
Rp202
(I3
S'|'
p203
NNNI6
I1
I0
tp204
bS'coffee'
p205
tp206
Rp207
I16
I1
tp208
aa(lp209
a.