(lp0
(lp1
(dp2
S'action'
p3
cnumpy.core.multiarray
scalar
p4
(cnumpy
dtype
p5
(S'S4'
p6
I0
I1
tp7
Rp8
(I3
S'|'
p9
NNNI4
I1
I0
tp10
bS'walk'
p11
tp12
Rp13
sS'recipient'
p14
NsS'patient'
p15
NsS'goal'
p16
S'3436'
p17
sS'source'
p18
Nsa(dp19
g3
g4
(g5
(S'S4'
p20
I0
I1
tp21
Rp22
(I3
S'|'
p23
NNNI4
I1
I0
tp24
bS'move'
p25
tp26
Rp27
sg14
Nsg15
S'oidx_25'
p28
sg16
S'3508'
p29
sg18
S'3502'
p30
sa(dp31
g3
g4
(g5
(S'S4'
p32
I0
I1
tp33
Rp34
(I3
S'|'
p35
NNNI4
I1
I0
tp36
bS'walk'
p37
tp38
Rp39
sg14
Nsg15
Nsg16
S'3520'
p40
sg18
Nsaa(lp41
(dp42
S'all'
p43
(lp44
S'go to office h'
p45
asg15
(lp46
sg16
(lp47
S'office d'
p48
aS'got into the next room'
p49
aS'exit out of this room'
p50
aS'go down the hall towards office h'
p51
aS'office h'
p52
aS'leave this room now'
p53
aS'leave the room and turn right'
p54
aS'to the lab'
p55
aS'you need to exit out of the door into the hallway'
p56
asg18
(lp57
sg3
(lp58
sg14
(lp59
sa(dp60
g43
(lp61
S'dr hughes must have the gray object'
p62
asg15
(lp63
sg16
(lp64
S'office p'
p65
aS'office p'
p66
asg18
(lp67
S'yes'
p68
asg3
(lp69
sg14
(lp70
sa(dp71
g43
(lp72
S'go ot the pod'
p73
asg15
(lp74
sg16
(lp75
S'outside'
p76
aS'kitchen'
p77
aS'to the kitchen'
p78
asg18
(lp79
sg3
(lp80
sg14
(lp81
saa(lp82
(g4
(g5
(S'S9'
p83
I0
I1
tp84
Rp85
(I3
S'|'
p86
NNNI9
I1
I0
tp87
bS'container'
p88
tp89
Rp90
I4
I1
tp91
a(g4
(g5
(S'S5'
p92
I0
I1
tp93
Rp94
(I3
S'|'
p95
NNNI5
I1
I0
tp96
bS'white'
p97
tp98
Rp99
I21
I0
tp100
a(g99
I24
I0
tp101
a(g99
I19
I0
tp102
a(g99
I23
I0
tp103
a(g99
I16
I0
tp104
a(g99
I0
I0
tp105
a(g99
I4
I0
tp106
a(g99
I9
I0
tp107
a(g4
(g5
(S'S8'
p108
I0
I1
tp109
Rp110
(I3
S'|'
p111
NNNI8
I1
I0
tp112
bS'pringles'
p113
tp114
Rp115
I21
I0
tp116
a(g115
I24
I0
tp117
a(g115
I19
I0
tp118
a(g115
I23
I0
tp119
a(g115
I16
I0
tp120
a(g115
I0
I0
tp121
a(g115
I4
I0
tp122
a(g115
I9
I0
tp123
a(g4
(g5
(S'S5'
p124
I0
I1
tp125
Rp126
(I3
S'|'
p127
NNNI5
I1
I0
tp128
bS'small'
p129
tp130
Rp131
I21
I1
tp132
a(g4
(g5
(S'S3'
p133
I0
I1
tp134
Rp135
(I3
S'|'
p136
NNNI3
I1
I0
tp137
bS'red'
p138
tp139
Rp140
I21
I1
tp141
a(g140
I24
I1
tp142
a(g140
I19
I1
tp143
a(g140
I23
I1
tp144
a(g140
I16
I1
tp145
a(g140
I0
I1
tp146
a(g140
I4
I1
tp147
a(g140
I9
I1
tp148
a(g4
(g5
(S'S6'
p149
I0
I1
tp150
Rp151
(I3
S'|'
p152
NNNI6
I1
I0
tp153
bS'coffee'
p154
tp155
Rp156
I21
I0
tp157
a(g156
I24
I0
tp158
a(g156
I19
I0
tp159
a(g156
I23
I0
tp160
a(g156
I16
I0
tp161
a(g156
I0
I0
tp162
a(g156
I4
I0
tp163
a(g156
I9
I0
tp164
a(g4
(g5
(S'S5'
p165
I0
I1
tp166
Rp167
(I3
S'|'
p168
NNNI5
I1
I0
tp169
bS'spice'
p170
tp171
Rp172
I21
I0
tp173
a(g172
I24
I0
tp174
a(g172
I19
I0
tp175
a(g172
I23
I0
tp176
a(g172
I16
I0
tp177
a(g172
I0
I0
tp178
a(g172
I4
I0
tp179
a(g172
I9
I0
tp180
a(g4
(g5
(S'S5'
p181
I0
I1
tp182
Rp183
(I3
S'|'
p184
NNNI5
I1
I0
tp185
bS'block'
p186
tp187
Rp188
I21
I0
tp189
a(g188
I24
I0
tp190
a(g188
I19
I0
tp191
a(g188
I23
I0
tp192
a(g188
I16
I0
tp193
a(g188
I0
I0
tp194
a(g188
I4
I0
tp195
a(g188
I9
I0
tp196
a(g4
(g5
(S'S9'
p197
I0
I1
tp198
Rp199
(I3
S'|'
p200
NNNI9
I1
I0
tp201
bS'styrofoam'
p202
tp203
Rp204
I19
I0
tp205
a(g4
(g5
(S'S8'
p206
I0
I1
tp207
Rp208
(I3
S'|'
p209
NNNI8
I1
I0
tp210
bS'cylinder'
p211
tp212
Rp213
I21
I1
tp214
a(g213
I24
I1
tp215
a(g213
I19
I1
tp216
a(g213
I23
I1
tp217
a(g213
I16
I1
tp218
a(g213
I0
I1
tp219
a(g213
I4
I1
tp220
a(g213
I9
I1
tp221
a(g4
(g5
(S'S3'
p222
I0
I1
tp223
Rp224
(I3
S'|'
p225
NNNI3
I1
I0
tp226
bS'can'
p227
tp228
Rp229
I16
I0
tp230
a(g4
(g5
(S'S6'
p231
I0
I1
tp232
Rp233
(I3
S'|'
p234
NNNI6
I1
I0
tp235
bS'column'
p236
tp237
Rp238
I24
I1
tp239
a(g4
(g5
(S'S6'
p240
I0
I1
tp241
Rp242
(I3
S'|'
p243
NNNI6
I1
I0
tp244
bS'yellow'
p245
tp246
Rp247
I21
I0
tp248
a(g247
I24
I0
tp249
a(g247
I19
I0
tp250
a(g247
I23
I0
tp251
a(g247
I16
I0
tp252
a(g247
I0
I0
tp253
a(g247
I4
I0
tp254
a(g247
I9
I0
tp255
a(g4
(g5
(S'S5'
p256
I0
I1
tp257
Rp258
(I3
S'|'
p259
NNNI5
I1
I0
tp260
bS'large'
p261
tp262
Rp263
I21
I1
tp264
a(g263
I24
I1
tp265
a(g263
I19
I1
tp266
a(g263
I23
I1
tp267
a(g263
I16
I1
tp268
a(g263
I0
I1
tp269
a(g263
I4
I1
tp270
a(g263
I9
I1
tp271
a(g4
(g5
(S'S9'
p272
I0
I1
tp273
Rp274
(I3
S'|'
p275
NNNI9
I1
I0
tp276
bS'rectangle'
p277
tp278
Rp279
I21
I0
tp280
a(g279
I24
I0
tp281
a(g279
I19
I0
tp282
a(g279
I23
I0
tp283
a(g279
I16
I0
tp284
a(g279
I0
I0
tp285
a(g279
I4
I0
tp286
a(g279
I9
I0
tp287
aa(lp288
(S'gray'
p289
S'color'
p290
I01
tp291
aa.