(lp0
(lp1
(dp2
S'action'
p3
cnumpy.core.multiarray
scalar
p4
(cnumpy
dtype
p5
(S'S4'
p6
I0
I1
tp7
Rp8
(I3
S'|'
p9
NNNI4
I1
I0
tp10
bS'walk'
p11
tp12
Rp13
sS'recipient'
p14
NsS'patient'
p15
NsS'goal'
p16
S'3406'
p17
sS'source'
p18
Nsa(dp19
g3
g4
(g5
(S'S5'
p20
I0
I1
tp21
Rp22
(I3
S'|'
p23
NNNI5
I1
I0
tp24
bS'bring'
p25
tp26
Rp27
sg14
S's'
p28
sg15
g4
(g5
(S'S7'
p29
I0
I1
tp30
Rp31
(I3
S'|'
p32
NNNI7
I1
I0
tp33
bS'oidx_28'
p34
tp35
Rp36
sg16
Nsg18
Nsaa(lp37
(dp38
S'all'
p39
(lp40
S'go to lounge'
p41
asg15
(lp42
sg16
(lp43
S'lounge'
p44
asg18
(lp45
sg3
(lp46
sg14
(lp47
sa(dp48
g39
(lp49
S'deliver'
p50
asg15
(lp51
S'red cap box'
p52
aS''
p53
aS'red object'
p54
aS'object'
p55
asg16
(lp56
sg18
(lp57
sg3
(lp58
sg14
(lp59
saa(lp60
(g4
(g5
(S'S6'
p61
I0
I1
tp62
Rp63
(I3
S'|'
p64
NNNI6
I1
I0
tp65
bS'column'
p66
tp67
Rp68
I9
I0
tp69
a(g4
(g5
(S'S5'
p70
I0
I1
tp71
Rp72
(I3
S'|'
p73
NNNI5
I1
I0
tp74
bS'block'
p75
tp76
Rp77
I21
I0
tp78
a(g77
I24
I0
tp79
a(g77
I19
I0
tp80
a(g77
I23
I0
tp81
a(g77
I16
I0
tp82
a(g77
I0
I0
tp83
a(g77
I4
I0
tp84
a(g77
I9
I0
tp85
a(g4
(g5
(S'S6'
p86
I0
I1
tp87
Rp88
(I3
S'|'
p89
NNNI6
I1
I0
tp90
bS'column'
p91
tp92
Rp93
I16
I0
tp94
a(g4
(g5
(S'S8'
p95
I0
I1
tp96
Rp97
(I3
S'|'
p98
NNNI8
I1
I0
tp99
bS'metallic'
p100
tp101
Rp102
I0
I1
tp103
a(g4
(g5
(S'S3'
p104
I0
I1
tp105
Rp106
(I3
S'|'
p107
NNNI3
I1
I0
tp108
bS'can'
p109
tp110
Rp111
I9
I0
tp112
a(g4
(g5
(S'S9'
p113
I0
I1
tp114
Rp115
(I3
S'|'
p116
NNNI9
I1
I0
tp117
bS'styrofoam'
p118
tp119
Rp120
I24
I0
tp121
a(g4
(g5
(S'S5'
p122
I0
I1
tp123
Rp124
(I3
S'|'
p125
NNNI5
I1
I0
tp126
bS'peach'
p127
tp128
Rp129
I21
I0
tp130
a(g129
I24
I0
tp131
a(g129
I19
I0
tp132
a(g129
I23
I0
tp133
a(g129
I16
I0
tp134
a(g129
I0
I0
tp135
a(g129
I4
I0
tp136
a(g129
I9
I0
tp137
a(g4
(g5
(S'S4'
p138
I0
I1
tp139
Rp140
(I3
S'|'
p141
NNNI4
I1
I0
tp142
bS'blue'
p143
tp144
Rp145
I21
I0
tp146
a(g4
(g5
(S'S5'
p147
I0
I1
tp148
Rp149
(I3
S'|'
p150
NNNI5
I1
I0
tp151
bS'clear'
p152
tp153
Rp154
I21
I0
tp155
a(g154
I24
I0
tp156
a(g154
I19
I0
tp157
a(g154
I23
I0
tp158
a(g154
I16
I0
tp159
a(g154
I0
I0
tp160
a(g154
I4
I0
tp161
a(g154
I9
I0
tp162
a(g4
(g5
(S'S5'
p163
I0
I1
tp164
Rp165
(I3
S'|'
p166
NNNI5
I1
I0
tp167
bS'brown'
p168
tp169
Rp170
I9
I0
tp171
aa(lp172
(S'cap'
p173
S'silver'
p174
I00
tp175
a(g173
S'your'
p176
I00
tp177
a(g173
S'p'
p178
I00
tp179
aa.