(lp0
(lp1
(dp2
S'action'
p3
cnumpy.core.multiarray
scalar
p4
(cnumpy
dtype
p5
(S'S4'
p6
I0
I1
tp7
Rp8
(I3
S'|'
p9
NNNI4
I1
I0
tp10
bS'move'
p11
tp12
Rp13
sS'recipient'
p14
NsS'patient'
p15
S'oidx_26'
p16
sS'goal'
p17
S'3514'
p18
sS'source'
p19
S'3520'
p20
sa(dp21
g3
g4
(g5
(S'S4'
p22
I0
I1
tp23
Rp24
(I3
S'|'
p25
NNNI4
I1
I0
tp26
bS'walk'
p27
tp28
Rp29
sg14
Nsg15
Nsg17
g20
sg19
Nsaa(lp30
(dp31
S'all'
p32
(lp33
S'to go kitchen'
p34
asg15
(lp35
S'move to kitchen'
p36
aS'lounge to kitchen'
p37
asg17
(lp38
sg19
(lp39
sg3
(lp40
sg14
(lp41
sa(dp42
g32
(lp43
S'give it to b'
p44
asg15
(lp45
sg17
(lp46
S'go to kitchen'
p47
asg19
(lp48
sg3
(lp49
sg14
(lp50
saa(lp51
(g4
(g5
(S'S4'
p52
I0
I1
tp53
Rp54
(I3
S'|'
p55
NNNI4
I1
I0
tp56
bS'long'
p57
tp58
Rp59
I0
I1
tp60
a(g4
(g5
(S'S5'
p61
I0
I1
tp62
Rp63
(I3
S'|'
p64
NNNI5
I1
I0
tp65
bS'empty'
p66
tp67
Rp68
I21
I1
tp69
a(g4
(g5
(S'S8'
p70
I0
I1
tp71
Rp72
(I3
S'|'
p73
NNNI8
I1
I0
tp74
bS'cylinder'
p75
tp76
Rp77
I21
I1
tp78
a(g77
I24
I1
tp79
a(g77
I19
I1
tp80
a(g77
I23
I1
tp81
a(g77
I16
I1
tp82
a(g77
I0
I1
tp83
a(g77
I4
I1
tp84
a(g77
I9
I1
tp85
a(g4
(g5
(S'S4'
p86
I0
I1
tp87
Rp88
(I3
S'|'
p89
NNNI4
I1
I0
tp90
bS'blue'
p91
tp92
Rp93
I16
I1
tp94
a(g4
(g5
(S'S9'
p95
I0
I1
tp96
Rp97
(I3
S'|'
p98
NNNI9
I1
I0
tp99
bS'container'
p100
tp101
Rp102
I0
I1
tp103
a(g4
(g5
(S'S3'
p104
I0
I1
tp105
Rp106
(I3
S'|'
p107
NNNI3
I1
I0
tp108
bS'b_0'
p109
tp110
Rp111
I21
I0
tp112
a(g111
I24
I0
tp113
a(g111
I19
I0
tp114
a(g111
I23
I0
tp115
a(g111
I16
I0
tp116
a(g111
I0
I0
tp117
a(g111
I4
I0
tp118
a(g111
I9
I0
tp119
a(g4
(g5
(S'S4'
p120
I0
I1
tp121
Rp122
(I3
S'|'
p123
NNNI4
I1
I0
tp124
bS'bean'
p125
tp126
Rp127
I21
I0
tp128
a(g127
I24
I0
tp129
a(g127
I19
I0
tp130
a(g127
I23
I0
tp131
a(g127
I16
I0
tp132
a(g127
I0
I0
tp133
a(g127
I4
I0
tp134
a(g127
I9
I0
tp135
a(g4
(g5
(S'S5'
p136
I0
I1
tp137
Rp138
(I3
S'|'
p139
NNNI5
I1
I0
tp140
bS'small'
p141
tp142
Rp143
I21
I1
tp144
a(g4
(g5
(S'S5'
p145
I0
I1
tp146
Rp147
(I3
S'|'
p148
NNNI5
I1
I0
tp149
bS'clear'
p150
tp151
Rp152
I21
I0
tp153
a(g152
I24
I0
tp154
a(g152
I19
I0
tp155
a(g152
I23
I0
tp156
a(g152
I16
I0
tp157
a(g152
I0
I0
tp158
a(g152
I4
I0
tp159
a(g152
I9
I0
tp160
a(g4
(g5
(S'S3'
p161
I0
I1
tp162
Rp163
(I3
S'|'
p164
NNNI3
I1
I0
tp165
bS'can'
p166
tp167
Rp168
I4
I0
tp169
aa(lp170
(S'b'
p171
g4
(g5
(S'S5'
p172
I0
I1
tp173
Rp174
(I3
S'|'
p175
NNNI5
I1
I0
tp176
bS'large'
p177
tp178
Rp179
I00
tp180
aa.