(lp0
(lp1
(dp2
S'action'
p3
cnumpy.core.multiarray
scalar
p4
(cnumpy
dtype
p5
(S'S4'
p6
I0
I1
tp7
Rp8
(I3
S'|'
p9
NNNI4
I1
I0
tp10
bS'walk'
p11
tp12
Rp13
sS'recipient'
p14
NsS'patient'
p15
NsS'goal'
p16
g4
(g5
(S'S4'
p17
I0
I1
tp18
Rp19
(I3
S'|'
p20
NNNI4
I1
I0
tp21
bS'3510'
p22
tp23
Rp24
sS'source'
p25
Nsa(dp26
g3
g4
(g5
(S'S5'
p27
I0
I1
tp28
Rp29
(I3
S'|'
p30
NNNI5
I1
I0
tp31
bS'bring'
p32
tp33
Rp34
sg14
S'm'
p35
sg15
S'oidx_28'
p36
sg16
Nsg25
Nsa(dp37
g3
g4
(g5
(S'S4'
p38
I0
I1
tp39
Rp40
(I3
S'|'
p41
NNNI4
I1
I0
tp42
bS'walk'
p43
tp44
Rp45
sg14
Nsg15
Nsg16
S'3514'
p46
sg25
Nsaa(lp47
(dp48
S'all'
p49
(lp50
S"go to bob brown 's office"
p51
asg15
(lp52
sg16
(lp53
sg25
(lp54
sg3
(lp55
sg14
(lp56
sa(dp57
g49
(lp58
S'take the white rectangular object and deliver it to mal'
p59
asg15
(lp60
S'the white object'
p61
aS'the white rectangular object'
p62
aS'the white object'
p63
aS'the white object'
p64
aS'the white object'
p65
aS'the white object'
p66
aS'the white object'
p67
aS'the white object'
p68
aS'the white rectangular object'
p69
aS'the white brick'
p70
aS'the white box'
p71
aS'the white object'
p72
aS'the white object'
p73
aS'the white object'
p74
aS'the white object'
p75
aS'the white objectt'
p76
aS'the white object'
p77
aS'the white object'
p78
aS'the white object'
p79
aS'the square object'
p80
asg16
(lp81
sg25
(lp82
sg3
(lp83
sg14
(lp84
sa(dp85
g49
(lp86
S'go to the lounge and pick up the object with the red lid then take it to the kitchen'
p87
asg15
(lp88
sg16
(lp89
S'go to the lounge'
p90
asg25
(lp91
sg3
(lp92
sg14
(lp93
saa(lp94
(g4
(g5
(S'S9'
p95
I0
I1
tp96
Rp97
(I3
S'|'
p98
NNNI9
I1
I0
tp99
bS'container'
p100
tp101
Rp102
I19
I1
tp103
a(g4
(g5
(S'S3'
p104
I0
I1
tp105
Rp106
(I3
S'|'
p107
NNNI3
I1
I0
tp108
bS'can'
p109
tp110
Rp111
I9
I0
tp112
a(g4
(g5
(S'S3'
p113
I0
I1
tp114
Rp115
(I3
S'|'
p116
NNNI3
I1
I0
tp117
bS'red'
p118
tp119
Rp120
I23
I0
tp121
a(g4
(g5
(S'S3'
p122
I0
I1
tp123
Rp124
(I3
S'|'
p125
NNNI3
I1
I0
tp126
bS'red'
p127
tp128
Rp129
I4
I0
tp130
a(g4
(g5
(S'S6'
p131
I0
I1
tp132
Rp133
(I3
S'|'
p134
NNNI6
I1
I0
tp135
bS'yellow'
p136
tp137
Rp138
I23
I1
tp139
a(g4
(g5
(S'S9'
p140
I0
I1
tp141
Rp142
(I3
S'|'
p143
NNNI9
I1
I0
tp144
bS'container'
p145
tp146
Rp147
I21
I1
tp148
a(g4
(g5
(S'S9'
p149
I0
I1
tp150
Rp151
(I3
S'|'
p152
NNNI9
I1
I0
tp153
bS'container'
p154
tp155
Rp156
I16
I1
tp157
a(g4
(g5
(S'S5'
p158
I0
I1
tp159
Rp160
(I3
S'|'
p161
NNNI5
I1
I0
tp162
bS'white'
p163
tp164
Rp165
I21
I1
tp166
a(g4
(g5
(S'S5'
p167
I0
I1
tp168
Rp169
(I3
S'|'
p170
NNNI5
I1
I0
tp171
bS'white'
p172
tp173
Rp174
I16
I0
tp175
a(g4
(g5
(S'S9'
p176
I0
I1
tp177
Rp178
(I3
S'|'
p179
NNNI9
I1
I0
tp180
bS'container'
p181
tp182
Rp183
I23
I1
tp184
a(g4
(g5
(S'S4'
p185
I0
I1
tp186
Rp187
(I3
S'|'
p188
NNNI4
I1
I0
tp189
bS'long'
p190
tp191
Rp192
I9
I0
tp193
a(g4
(g5
(S'S9'
p194
I0
I1
tp195
Rp196
(I3
S'|'
p197
NNNI9
I1
I0
tp198
bS'container'
p199
tp200
Rp201
I24
I1
tp202
a(g4
(g5
(S'S5'
p203
I0
I1
tp204
Rp205
(I3
S'|'
p206
NNNI5
I1
I0
tp207
bS'large'
p208
tp209
Rp210
I0
I0
tp211
a(g4
(g5
(S'S6'
p212
I0
I1
tp213
Rp214
(I3
S'|'
p215
NNNI6
I1
I0
tp216
bS'column'
p217
tp218
Rp219
I19
I0
tp220
a(g4
(g5
(S'S4'
p221
I0
I1
tp222
Rp223
(I3
S'|'
p224
NNNI4
I1
I0
tp225
bS'blue'
p226
tp227
Rp228
I16
I0
tp229
aa(lp230
(S'rectangular'
p231
S'color'
p232
I00
tp233
a(g231
S'metallic'
p234
I00
tp235
aa.