(lp0
(lp1
(dp2
S'action'
p3
cnumpy.core.multiarray
scalar
p4
(cnumpy
dtype
p5
(S'S4'
p6
I0
I1
tp7
Rp8
(I3
S'|'
p9
NNNI4
I1
I0
tp10
bS'walk'
p11
tp12
Rp13
sS'recipient'
p14
NsS'patient'
p15
NsS'goal'
p16
S'3414'
p17
sS'source'
p18
Nsaa(lp19
(dp20
S'all'
p21
(lp22
S'kitchen room'
p23
asg15
(lp24
sg16
(lp25
S'no'
p26
aS'yes'
p27
aS'no'
p28
aS'yes'
p29
aS'no'
p30
aS'yes'
p31
aS'yes'
p32
aS'no'
p33
aS'yes'
p34
aS'no'
p35
aS'yes'
p36
aS'no'
p37
aS'yes'
p38
aS'no'
p39
aS'yes'
p40
aS'yes'
p41
aS'yes'
p42
aS'yes'
p43
aS'yes'
p44
asg18
(lp45
sg3
(lp46
sg14
(lp47
saa(lp48
(g4
(g5
(S'S5'
p49
I0
I1
tp50
Rp51
(I3
S'|'
p52
NNNI5
I1
I0
tp53
bS'clear'
p54
tp55
Rp56
I9
I1
tp57
a(g4
(g5
(S'S4'
p58
I0
I1
tp59
Rp60
(I3
S'|'
p61
NNNI4
I1
I0
tp62
bS'blue'
p63
tp64
Rp65
I19
I1
tp66
a(g4
(g5
(S'S5'
p67
I0
I1
tp68
Rp69
(I3
S'|'
p70
NNNI5
I1
I0
tp71
bS'clear'
p72
tp73
Rp74
I16
I0
tp75
a(g4
(g5
(S'S9'
p76
I0
I1
tp77
Rp78
(I3
S'|'
p79
NNNI9
I1
I0
tp80
bS'container'
p81
tp82
Rp83
I4
I1
tp84
a(g4
(g5
(S'S9'
p85
I0
I1
tp86
Rp87
(I3
S'|'
p88
NNNI9
I1
I0
tp89
bS'container'
p90
tp91
Rp92
I19
I0
tp93
aa(lp94
a.