(lp0
(lp1
(dp2
S'action'
p3
cnumpy.core.multiarray
scalar
p4
(cnumpy
dtype
p5
(S'S4'
p6
I0
I1
tp7
Rp8
(I3
S'|'
p9
NNNI4
I1
I0
tp10
bS'walk'
p11
tp12
Rp13
sS'recipient'
p14
NsS'patient'
p15
NsS'goal'
p16
S'3430'
p17
sS'source'
p18
Nsa(dp19
g3
g4
(g5
(S'S5'
p20
I0
I1
tp21
Rp22
(I3
S'|'
p23
NNNI5
I1
I0
tp24
bS'bring'
p25
tp26
Rp27
sg14
g4
(g5
(S'S1'
p28
I0
I1
tp29
Rp30
(I3
S'|'
p31
NNNI1
I1
I0
tp32
bS'n'
p33
tp34
Rp35
sg15
S'oidx_26'
p36
sg16
Nsg18
Nsa(dp37
g3
g4
(g5
(S'S4'
p38
I0
I1
tp39
Rp40
(I3
S'|'
p41
NNNI4
I1
I0
tp42
bS'move'
p43
tp44
Rp45
sg14
Nsg15
g4
(g5
(S'S7'
p46
I0
I1
tp47
Rp48
(I3
S'|'
p49
NNNI7
I1
I0
tp50
bS'oidx_13'
p51
tp52
Rp53
sg16
g4
(g5
(S'S4'
p54
I0
I1
tp55
Rp56
(I3
S'|'
p57
NNNI4
I1
I0
tp58
bS'3512'
p59
tp60
Rp61
sg18
S'3516'
p62
saa(lp63
(dp64
S'all'
p65
(lp66
S'go to office'
p67
asg15
(lp68
sg16
(lp69
S'office'
p70
aS'go to office'
p71
aS'go to x'
p72
aS'go to office'
p73
aS'look at green map'
p74
aS'find sybil smalt'
p75
aS"go to sybil smalt 's office"
p76
asg18
(lp77
sg3
(lp78
sg14
(lp79
sa(dp80
g65
(lp81
S'give red can to nancy'
p82
asg15
(lp83
S'deliver the red can'
p84
asg16
(lp85
sg18
(lp86
sg3
(lp87
sg14
(lp88
sa(dp89
g65
(lp90
S'take blue can to richard'
p91
asg15
(lp92
S'move the blue can'
p93
aS'blue can'
p94
aS'the blue can'
p95
aS'blue container'
p96
asg16
(lp97
S'to office r'
p98
aS'to richard rogue'
p99
aS'r office'
p100
aS"to richard 's office"
p101
aS"to richard 's office"
p102
asg18
(lp103
S"move blue can from conference room to richard 's office"
p104
asg3
(lp105
sg14
(lp106
saa(lp107
(g4
(g5
(S'S9'
p108
I0
I1
tp109
Rp110
(I3
S'|'
p111
NNNI9
I1
I0
tp112
bS'styrofoam'
p113
tp114
Rp115
I24
I0
tp116
a(g4
(g5
(S'S9'
p117
I0
I1
tp118
Rp119
(I3
S'|'
p120
NNNI9
I1
I0
tp121
bS'rectangle'
p122
tp123
Rp124
I21
I0
tp125
a(g124
I24
I0
tp126
a(g124
I19
I0
tp127
a(g124
I23
I0
tp128
a(g124
I16
I0
tp129
a(g124
I0
I0
tp130
a(g124
I4
I0
tp131
a(g124
I9
I0
tp132
a(g4
(g5
(S'S5'
p133
I0
I1
tp134
Rp135
(I3
S'|'
p136
NNNI5
I1
I0
tp137
bS'brown'
p138
tp139
Rp140
I0
I0
tp141
a(g4
(g5
(S'S4'
p142
I0
I1
tp143
Rp144
(I3
S'|'
p145
NNNI4
I1
I0
tp146
bS'blue'
p147
tp148
Rp149
I9
I0
tp150
a(g4
(g5
(S'S4'
p151
I0
I1
tp152
Rp153
(I3
S'|'
p154
NNNI4
I1
I0
tp155
bS'blue'
p156
tp157
Rp158
I23
I0
tp159
a(g4
(g5
(S'S3'
p160
I0
I1
tp161
Rp162
(I3
S'|'
p163
NNNI3
I1
I0
tp164
bS'can'
p165
tp166
Rp167
I4
I0
tp168
a(g4
(g5
(S'S3'
p169
I0
I1
tp170
Rp171
(I3
S'|'
p172
NNNI3
I1
I0
tp173
bS'can'
p174
tp175
Rp176
I9
I0
tp177
a(g4
(g5
(S'S3'
p178
I0
I1
tp179
Rp180
(I3
S'|'
p181
NNNI3
I1
I0
tp182
bS'can'
p183
tp184
Rp185
I0
I1
tp186
a(g4
(g5
(S'S3'
p187
I0
I1
tp188
Rp189
(I3
S'|'
p190
NNNI3
I1
I0
tp191
bS'can'
p192
tp193
Rp194
I19
I0
tp195
a(g4
(g5
(S'S3'
p196
I0
I1
tp197
Rp198
(I3
S'|'
p199
NNNI3
I1
I0
tp200
bS'can'
p201
tp202
Rp203
I23
I0
tp204
a(g4
(g5
(S'S5'
p205
I0
I1
tp206
Rp207
(I3
S'|'
p208
NNNI5
I1
I0
tp209
bS'empty'
p210
tp211
Rp212
I4
I0
tp213
a(g4
(g5
(S'S5'
p214
I0
I1
tp215
Rp216
(I3
S'|'
p217
NNNI5
I1
I0
tp218
bS'empty'
p219
tp220
Rp221
I21
I0
tp222
a(g4
(g5
(S'S4'
p223
I0
I1
tp224
Rp225
(I3
S'|'
p226
NNNI4
I1
I0
tp227
bS'long'
p228
tp229
Rp230
I9
I0
tp231
a(g4
(g5
(S'S6'
p232
I0
I1
tp233
Rp234
(I3
S'|'
p235
NNNI6
I1
I0
tp236
bS'coffee'
p237
tp238
Rp239
I9
I1
tp240
a(g4
(g5
(S'S9'
p241
I0
I1
tp242
Rp243
(I3
S'|'
p244
NNNI9
I1
I0
tp245
bS'container'
p246
tp247
Rp248
I16
I1
tp249
aa(lp250
(S'green'
p251
S'yellow'
p252
I00
tp253
a(g251
S'blue'
p254
I00
tp255
a(g251
S'p'
p256
I00
tp257
aa.