(lp0
(lp1
(dp2
S'action'
p3
cnumpy.core.multiarray
scalar
p4
(cnumpy
dtype
p5
(S'S5'
p6
I0
I1
tp7
Rp8
(I3
S'|'
p9
NNNI5
I1
I0
tp10
bS'bring'
p11
tp12
Rp13
sS'recipient'
p14
S'b'
p15
sS'patient'
p16
S'oidx_26'
p17
sS'goal'
p18
NsS'source'
p19
Nsa(dp20
g3
g4
(g5
(S'S5'
p21
I0
I1
tp22
Rp23
(I3
S'|'
p24
NNNI5
I1
I0
tp25
bS'bring'
p26
tp27
Rp28
sg14
S'n'
p29
sg16
S'oidx_25'
p30
sg18
Nsg19
Nsaa(lp31
(dp32
S'all'
p33
(lp34
S'deliver'
p35
asg16
(lp36
sg18
(lp37
sg19
(lp38
sg3
(lp39
sg14
(lp40
S'yes'
p41
asa(dp42
g33
(lp43
S'deliver'
p44
asg16
(lp45
sg18
(lp46
sg19
(lp47
sg3
(lp48
sg14
(lp49
S'yes'
p50
aS'yes'
p51
asaa(lp52
(g4
(g5
(S'S9'
p53
I0
I1
tp54
Rp55
(I3
S'|'
p56
NNNI9
I1
I0
tp57
bS'rectangle'
p58
tp59
Rp60
I24
I1
tp61
a(g4
(g5
(S'S8'
p62
I0
I1
tp63
Rp64
(I3
S'|'
p65
NNNI8
I1
I0
tp66
bS'pringles'
p67
tp68
Rp69
I19
I1
tp70
a(g4
(g5
(S'S6'
p71
I0
I1
tp72
Rp73
(I3
S'|'
p74
NNNI6
I1
I0
tp75
bS'column'
p76
tp77
Rp78
I19
I1
tp79
a(g4
(g5
(S'S5'
p80
I0
I1
tp81
Rp82
(I3
S'|'
p83
NNNI5
I1
I0
tp84
bS'small'
p85
tp86
Rp87
I21
I1
tp88
a(g4
(g5
(S'S4'
p89
I0
I1
tp90
Rp91
(I3
S'|'
p92
NNNI4
I1
I0
tp93
bS'blue'
p94
tp95
Rp96
I4
I1
tp97
a(g4
(g5
(S'S5'
p98
I0
I1
tp99
Rp100
(I3
S'|'
p101
NNNI5
I1
I0
tp102
bS'clear'
p103
tp104
Rp105
I9
I1
tp106
a(g4
(g5
(S'S5'
p107
I0
I1
tp108
Rp109
(I3
S'|'
p110
NNNI5
I1
I0
tp111
bS'empty'
p112
tp113
Rp114
I9
I1
tp115
a(g4
(g5
(S'S9'
p116
I0
I1
tp117
Rp118
(I3
S'|'
p119
NNNI9
I1
I0
tp120
bS'container'
p121
tp122
Rp123
I23
I1
tp124
a(g4
(g5
(S'S4'
p125
I0
I1
tp126
Rp127
(I3
S'|'
p128
NNNI4
I1
I0
tp129
bS'long'
p130
tp131
Rp132
I0
I1
tp133
a(g4
(g5
(S'S3'
p134
I0
I1
tp135
Rp136
(I3
S'|'
p137
NNNI3
I1
I0
tp138
bS'red'
p139
tp140
Rp141
I9
I0
tp142
aa(lp143
a.