(lp0
(lp1
(dp2
S'action'
p3
cnumpy.core.multiarray
scalar
p4
(cnumpy
dtype
p5
(S'S4'
p6
I0
I1
tp7
Rp8
(I3
S'|'
p9
NNNI4
I1
I0
tp10
bS'walk'
p11
tp12
Rp13
sS'recipient'
p14
NsS'patient'
p15
NsS'goal'
p16
g4
(g5
(S'S4'
p17
I0
I1
tp18
Rp19
(I3
S'|'
p20
NNNI4
I1
I0
tp21
bS'3516'
p22
tp23
Rp24
sS'source'
p25
Nsa(dp26
g3
g4
(g5
(S'S4'
p27
I0
I1
tp28
Rp29
(I3
S'|'
p30
NNNI4
I1
I0
tp31
bS'move'
p32
tp33
Rp34
sg14
Nsg15
S'oidx_22'
p35
sg16
S'3414'
p36
sg25
S'3432'
p37
sa(dp38
g3
g4
(g5
(S'S4'
p39
I0
I1
tp40
Rp41
(I3
S'|'
p42
NNNI4
I1
I0
tp43
bS'move'
p44
tp45
Rp46
sg14
Nsg15
S'oidx_12'
p47
sg16
S'3410'
p48
sg25
S'3424'
p49
saa(lp50
(dp51
S'all'
p52
(lp53
S'go to conference'
p54
asg15
(lp55
sg16
(lp56
S'go to conference'
p57
asg25
(lp58
sg3
(lp59
sg14
(lp60
sa(dp61
g52
(lp62
S'take the bottle'
p63
asg15
(lp64
S'yes'
p65
asg16
(lp66
S'office'
p67
asg25
(lp68
S'yes'
p69
asg3
(lp70
sg14
(lp71
sa(dp72
g52
(lp73
S'took container'
p74
asg15
(lp75
S'conference hall'
p76
asg16
(lp77
S'yes'
p78
asg25
(lp79
S'yes'
p80
asg3
(lp81
sg14
(lp82
saa(lp83
(g4
(g5
(S'S5'
p84
I0
I1
tp85
Rp86
(I3
S'|'
p87
NNNI5
I1
I0
tp88
bS'large'
p89
tp90
Rp91
I21
I1
tp92
a(g91
I24
I1
tp93
a(g91
I19
I1
tp94
a(g91
I23
I1
tp95
a(g91
I16
I1
tp96
a(g91
I0
I1
tp97
a(g91
I4
I1
tp98
a(g91
I9
I1
tp99
a(g4
(g5
(S'S9'
p100
I0
I1
tp101
Rp102
(I3
S'|'
p103
NNNI9
I1
I0
tp104
bS'styrofoam'
p105
tp106
Rp107
I16
I1
tp108
a(g4
(g5
(S'S3'
p109
I0
I1
tp110
Rp111
(I3
S'|'
p112
NNNI3
I1
I0
tp113
bS'red'
p114
tp115
Rp116
I4
I0
tp117
a(g4
(g5
(S'S6'
p118
I0
I1
tp119
Rp120
(I3
S'|'
p121
NNNI6
I1
I0
tp122
bS'column'
p123
tp124
Rp125
I0
I1
tp126
a(g4
(g5
(S'S8'
p127
I0
I1
tp128
Rp129
(I3
S'|'
p130
NNNI8
I1
I0
tp131
bS'cylinder'
p132
tp133
Rp134
I24
I0
tp135
a(g4
(g5
(S'S9'
p136
I0
I1
tp137
Rp138
(I3
S'|'
p139
NNNI9
I1
I0
tp140
bS'styrofoam'
p141
tp142
Rp143
I19
I1
tp144
a(g4
(g5
(S'S9'
p145
I0
I1
tp146
Rp147
(I3
S'|'
p148
NNNI9
I1
I0
tp149
bS'container'
p150
tp151
Rp152
I19
I1
tp153
a(g4
(g5
(S'S9'
p154
I0
I1
tp155
Rp156
(I3
S'|'
p157
NNNI9
I1
I0
tp158
bS'rectangle'
p159
tp160
Rp161
I21
I0
tp162
a(g161
I24
I0
tp163
a(g161
I19
I0
tp164
a(g161
I23
I0
tp165
a(g161
I16
I0
tp166
a(g161
I0
I0
tp167
a(g161
I4
I0
tp168
a(g161
I9
I0
tp169
a(g4
(g5
(S'S6'
p170
I0
I1
tp171
Rp172
(I3
S'|'
p173
NNNI6
I1
I0
tp174
bS'yellow'
p175
tp176
Rp177
I21
I0
tp178
a(g177
I24
I0
tp179
a(g177
I19
I0
tp180
a(g177
I23
I0
tp181
a(g177
I16
I0
tp182
a(g177
I0
I0
tp183
a(g177
I4
I0
tp184
a(g177
I9
I0
tp185
a(g4
(g5
(S'S3'
p186
I0
I1
tp187
Rp188
(I3
S'|'
p189
NNNI3
I1
I0
tp190
bS'red'
p191
tp192
Rp193
I21
I1
tp194
a(g193
I24
I1
tp195
a(g193
I19
I1
tp196
a(g193
I23
I1
tp197
a(g193
I16
I1
tp198
a(g193
I0
I1
tp199
a(g193
I4
I1
tp200
a(g193
I9
I1
tp201
a(g4
(g5
(S'S9'
p202
I0
I1
tp203
Rp204
(I3
S'|'
p205
NNNI9
I1
I0
tp206
bS'container'
p207
tp208
Rp209
I21
I0
tp210
a(g4
(g5
(S'S9'
p211
I0
I1
tp212
Rp213
(I3
S'|'
p214
NNNI9
I1
I0
tp215
bS'container'
p216
tp217
Rp218
I24
I0
tp219
a(g4
(g5
(S'S9'
p220
I0
I1
tp221
Rp222
(I3
S'|'
p223
NNNI9
I1
I0
tp224
bS'container'
p225
tp226
Rp227
I0
I0
tp228
a(g4
(g5
(S'S9'
p229
I0
I1
tp230
Rp231
(I3
S'|'
p232
NNNI9
I1
I0
tp233
bS'container'
p234
tp235
Rp236
I23
I0
tp237
a(g4
(g5
(S'S9'
p238
I0
I1
tp239
Rp240
(I3
S'|'
p241
NNNI9
I1
I0
tp242
bS'container'
p243
tp244
Rp245
I4
I0
tp246
aa(lp247
a.