(lp0
(lp1
(dp2
S'action'
p3
cnumpy.core.multiarray
scalar
p4
(cnumpy
dtype
p5
(S'S4'
p6
I0
I1
tp7
Rp8
(I3
S'|'
p9
NNNI4
I1
I0
tp10
bS'walk'
p11
tp12
Rp13
sS'recipient'
p14
NsS'patient'
p15
NsS'goal'
p16
S'3516'
p17
sS'source'
p18
Nsa(dp19
g3
g4
(g5
(S'S5'
p20
I0
I1
tp21
Rp22
(I3
S'|'
p23
NNNI5
I1
I0
tp24
bS'bring'
p25
tp26
Rp27
sg14
g4
(g5
(S'S1'
p28
I0
I1
tp29
Rp30
(I3
S'|'
p31
NNNI1
I1
I0
tp32
bS'p'
p33
tp34
Rp35
sg15
S'oidx_6'
p36
sg16
Nsg18
Nsaa(lp37
(dp38
S'all'
p39
(lp40
S'go to conference'
p41
asg15
(lp42
sg16
(lp43
S'to to conference'
p44
asg18
(lp45
sg3
(lp46
sg14
(lp47
sa(dp48
g39
(lp49
S'maroon needs object'
p50
asg15
(lp51
S'container'
p52
asg16
(lp53
sg18
(lp54
sg3
(lp55
sg14
(lp56
S'marron'
p57
asaa(lp58
(g4
(g5
(S'S9'
p59
I0
I1
tp60
Rp61
(I3
S'|'
p62
NNNI9
I1
I0
tp63
bS'styrofoam'
p64
tp65
Rp66
I16
I1
tp67
a(g4
(g5
(S'S3'
p68
I0
I1
tp69
Rp70
(I3
S'|'
p71
NNNI3
I1
I0
tp72
bS'can'
p73
tp74
Rp75
I19
I1
tp76
a(g4
(g5
(S'S5'
p77
I0
I1
tp78
Rp79
(I3
S'|'
p80
NNNI5
I1
I0
tp81
bS'large'
p82
tp83
Rp84
I16
I0
tp85
a(g4
(g5
(S'S5'
p86
I0
I1
tp87
Rp88
(I3
S'|'
p89
NNNI5
I1
I0
tp90
bS'spice'
p91
tp92
Rp93
I24
I1
tp94
a(g4
(g5
(S'S4'
p95
I0
I1
tp96
Rp97
(I3
S'|'
p98
NNNI4
I1
I0
tp99
bS'bean'
p100
tp101
Rp102
I24
I1
tp103
a(g4
(g5
(S'S9'
p104
I0
I1
tp105
Rp106
(I3
S'|'
p107
NNNI9
I1
I0
tp108
bS'container'
p109
tp110
Rp111
I21
I1
tp112
a(g4
(g5
(S'S9'
p113
I0
I1
tp114
Rp115
(I3
S'|'
p116
NNNI9
I1
I0
tp117
bS'container'
p118
tp119
Rp120
I16
I1
tp121
a(g4
(g5
(S'S9'
p122
I0
I1
tp123
Rp124
(I3
S'|'
p125
NNNI9
I1
I0
tp126
bS'container'
p127
tp128
Rp129
I19
I1
tp130
a(g4
(g5
(S'S9'
p131
I0
I1
tp132
Rp133
(I3
S'|'
p134
NNNI9
I1
I0
tp135
bS'container'
p136
tp137
Rp138
I23
I1
tp139
a(g4
(g5
(S'S9'
p140
I0
I1
tp141
Rp142
(I3
S'|'
p143
NNNI9
I1
I0
tp144
bS'container'
p145
tp146
Rp147
I24
I1
tp148
aa(lp149
a.