(lp0
(lp1
(dp2
S'action'
p3
cnumpy.core.multiarray
scalar
p4
(cnumpy
dtype
p5
(S'S4'
p6
I0
I1
tp7
Rp8
(I3
S'|'
p9
NNNI4
I1
I0
tp10
bS'move'
p11
tp12
Rp13
sS'recipient'
p14
NsS'patient'
p15
S'oidx_6'
p16
sS'goal'
p17
S'3414a'
p18
sS'source'
p19
S'3402'
p20
sa(dp21
g3
g4
(g5
(S'S5'
p22
I0
I1
tp23
Rp24
(I3
S'|'
p25
NNNI5
I1
I0
tp26
bS'bring'
p27
tp28
Rp29
sg14
g4
(g5
(S'S1'
p30
I0
I1
tp31
Rp32
(I3
S'|'
p33
NNNI1
I1
I0
tp34
bS'm'
p35
tp36
Rp37
sg15
S'oidx_25'
p38
sg17
Nsg19
Nsa(dp39
g3
g4
(g5
(S'S5'
p40
I0
I1
tp41
Rp42
(I3
S'|'
p43
NNNI5
I1
I0
tp44
bS'bring'
p45
tp46
Rp47
sg14
g4
(g5
(S'S1'
p48
I0
I1
tp49
Rp50
(I3
S'|'
p51
NNNI1
I1
I0
tp52
bg35
tp53
Rp54
sg15
S'oidx_28'
p55
sg17
Nsg19
Nsaa(lp56
(dp57
S'all'
p58
(lp59
S'move'
p60
asg15
(lp61
sg17
(lp62
sg19
(lp63
S'yes'
p64
aS'office'
p65
aS'office'
p66
asg3
(lp67
sg14
(lp68
sa(dp69
g58
(lp70
S'deliver this object'
p71
asg15
(lp72
S'container'
p73
asg17
(lp74
sg19
(lp75
sg3
(lp76
sg14
(lp77
S'm'
p78
asa(dp79
g58
(lp80
S'move'
p81
asg15
(lp82
S'container'
p83
asg17
(lp84
sg19
(lp85
sg3
(lp86
sg14
(lp87
S'm'
p88
asaa(lp89
(g4
(g5
(S'S5'
p90
I0
I1
tp91
Rp92
(I3
S'|'
p93
NNNI5
I1
I0
tp94
bS'clear'
p95
tp96
Rp97
I21
I1
tp98
a(g4
(g5
(S'S5'
p99
I0
I1
tp100
Rp101
(I3
S'|'
p102
NNNI5
I1
I0
tp103
bS'empty'
p104
tp105
Rp106
I21
I1
tp107
a(g4
(g5
(S'S5'
p108
I0
I1
tp109
Rp110
(I3
S'|'
p111
NNNI5
I1
I0
tp112
bS'clear'
p113
tp114
Rp115
I16
I0
tp116
a(g4
(g5
(S'S9'
p117
I0
I1
tp118
Rp119
(I3
S'|'
p120
NNNI9
I1
I0
tp121
bS'rectangle'
p122
tp123
Rp124
I16
I1
tp125
a(g4
(g5
(S'S5'
p126
I0
I1
tp127
Rp128
(I3
S'|'
p129
NNNI5
I1
I0
tp130
bS'tower'
p131
tp132
Rp133
I23
I1
tp134
a(g4
(g5
(S'S9'
p135
I0
I1
tp136
Rp137
(I3
S'|'
p138
NNNI9
I1
I0
tp139
bS'container'
p140
tp141
Rp142
I19
I1
tp143
a(g4
(g5
(S'S9'
p144
I0
I1
tp145
Rp146
(I3
S'|'
p147
NNNI9
I1
I0
tp148
bS'container'
p149
tp150
Rp151
I16
I0
tp152
a(g4
(g5
(S'S9'
p153
I0
I1
tp154
Rp155
(I3
S'|'
p156
NNNI9
I1
I0
tp157
bS'container'
p158
tp159
Rp160
I21
I0
tp161
a(g4
(g5
(S'S9'
p162
I0
I1
tp163
Rp164
(I3
S'|'
p165
NNNI9
I1
I0
tp166
bS'container'
p167
tp168
Rp169
I9
I0
tp170
a(g4
(g5
(S'S9'
p171
I0
I1
tp172
Rp173
(I3
S'|'
p174
NNNI9
I1
I0
tp175
bS'container'
p176
tp177
Rp178
I24
I0
tp179
a(g4
(g5
(S'S9'
p180
I0
I1
tp181
Rp182
(I3
S'|'
p183
NNNI9
I1
I0
tp184
bS'container'
p185
tp186
Rp187
I9
I0
tp188
a(g4
(g5
(S'S9'
p189
I0
I1
tp190
Rp191
(I3
S'|'
p192
NNNI9
I1
I0
tp193
bS'container'
p194
tp195
Rp196
I19
I0
tp197
a(g4
(g5
(S'S9'
p198
I0
I1
tp199
Rp200
(I3
S'|'
p201
NNNI9
I1
I0
tp202
bS'container'
p203
tp204
Rp205
I19
I0
tp206
a(g4
(g5
(S'S9'
p207
I0
I1
tp208
Rp209
(I3
S'|'
p210
NNNI9
I1
I0
tp211
bS'container'
p212
tp213
Rp214
I16
I0
tp215
a(g4
(g5
(S'S9'
p216
I0
I1
tp217
Rp218
(I3
S'|'
p219
NNNI9
I1
I0
tp220
bS'container'
p221
tp222
Rp223
I0
I0
tp224
aa(lp225
a.