(lp0
(lp1
(dp2
S'action'
p3
cnumpy.core.multiarray
scalar
p4
(cnumpy
dtype
p5
(S'S4'
p6
I0
I1
tp7
Rp8
(I3
S'|'
p9
NNNI4
I1
I0
tp10
bS'walk'
p11
tp12
Rp13
sS'recipient'
p14
NsS'patient'
p15
NsS'goal'
p16
g4
(g5
(S'S4'
p17
I0
I1
tp18
Rp19
(I3
S'|'
p20
NNNI4
I1
I0
tp21
bS'3422'
p22
tp23
Rp24
sS'source'
p25
Nsa(dp26
g3
g4
(g5
(S'S5'
p27
I0
I1
tp28
Rp29
(I3
S'|'
p30
NNNI5
I1
I0
tp31
bS'bring'
p32
tp33
Rp34
sg14
g4
(g5
(S'S1'
p35
I0
I1
tp36
Rp37
(I3
S'|'
p38
NNNI1
I1
I0
tp39
bS's'
p40
tp41
Rp42
sg15
g4
(g5
(S'S7'
p43
I0
I1
tp44
Rp45
(I3
S'|'
p46
NNNI7
I1
I0
tp47
bS'oidx_11'
p48
tp49
Rp50
sg16
Nsg25
Nsa(dp51
g3
g4
(g5
(S'S4'
p52
I0
I1
tp53
Rp54
(I3
S'|'
p55
NNNI4
I1
I0
tp56
bS'walk'
p57
tp58
Rp59
sg14
Nsg15
Nsg16
S'3414a'
p60
sg25
Nsaa(lp61
(dp62
S'all'
p63
(lp64
S"go to walter ward 's office"
p65
asg15
(lp66
sg16
(lp67
S"walter ward 's office"
p68
asg25
(lp69
sg3
(lp70
sg14
(lp71
sa(dp72
g63
(lp73
S'give dr sybil smalt the can'
p74
asg15
(lp75
S'the can of fruit'
p76
asg16
(lp77
sg25
(lp78
sg3
(lp79
sg14
(lp80
sa(dp81
g63
(lp82
S'bring the container of wipes to the lab located on the green map with an x'
p83
asg15
(lp84
sg16
(lp85
S"to the lab across from walter ward 's office"
p86
aS'to the lab'
p87
asg25
(lp88
sg3
(lp89
sg14
(lp90
saa(lp91
(g4
(g5
(S'S5'
p92
I0
I1
tp93
Rp94
(I3
S'|'
p95
NNNI5
I1
I0
tp96
bS'peach'
p97
tp98
Rp99
I21
I0
tp100
a(g99
I24
I0
tp101
a(g99
I19
I0
tp102
a(g99
I23
I0
tp103
a(g99
I16
I0
tp104
a(g99
I0
I0
tp105
a(g99
I4
I0
tp106
a(g99
I9
I0
tp107
a(g4
(g5
(S'S6'
p108
I0
I1
tp109
Rp110
(I3
S'|'
p111
NNNI6
I1
I0
tp112
bS'column'
p113
tp114
Rp115
I19
I0
tp116
a(g4
(g5
(S'S5'
p117
I0
I1
tp118
Rp119
(I3
S'|'
p120
NNNI5
I1
I0
tp121
bS'white'
p122
tp123
Rp124
I21
I1
tp125
a(g4
(g5
(S'S5'
p126
I0
I1
tp127
Rp128
(I3
S'|'
p129
NNNI5
I1
I0
tp130
bS'large'
p131
tp132
Rp133
I0
I0
tp134
a(g4
(g5
(S'S5'
p135
I0
I1
tp136
Rp137
(I3
S'|'
p138
NNNI5
I1
I0
tp139
bS'brown'
p140
tp141
Rp142
I4
I0
tp143
a(g4
(g5
(S'S3'
p144
I0
I1
tp145
Rp146
(I3
S'|'
p147
NNNI3
I1
I0
tp148
bS'can'
p149
tp150
Rp151
I21
I0
tp152
a(g4
(g5
(S'S3'
p153
I0
I1
tp154
Rp155
(I3
S'|'
p156
NNNI3
I1
I0
tp157
bS'can'
p158
tp159
Rp160
I0
I0
tp161
a(g4
(g5
(S'S3'
p162
I0
I1
tp163
Rp164
(I3
S'|'
p165
NNNI3
I1
I0
tp166
bS'can'
p167
tp168
Rp169
I9
I0
tp170
a(g4
(g5
(S'S3'
p171
I0
I1
tp172
Rp173
(I3
S'|'
p174
NNNI3
I1
I0
tp175
bS'can'
p176
tp177
Rp178
I4
I0
tp179
a(g4
(g5
(S'S3'
p180
I0
I1
tp181
Rp182
(I3
S'|'
p183
NNNI3
I1
I0
tp184
bS'can'
p185
tp186
Rp187
I23
I0
tp188
a(g4
(g5
(S'S5'
p189
I0
I1
tp190
Rp191
(I3
S'|'
p192
NNNI5
I1
I0
tp193
bS'small'
p194
tp195
Rp196
I21
I0
tp197
a(g4
(g5
(S'S9'
p198
I0
I1
tp199
Rp200
(I3
S'|'
p201
NNNI9
I1
I0
tp202
bS'container'
p203
tp204
Rp205
I16
I1
tp206
a(g4
(g5
(S'S9'
p207
I0
I1
tp208
Rp209
(I3
S'|'
p210
NNNI9
I1
I0
tp211
bS'styrofoam'
p212
tp213
Rp214
I23
I0
tp215
a(g4
(g5
(S'S5'
p216
I0
I1
tp217
Rp218
(I3
S'|'
p219
NNNI5
I1
I0
tp220
bS'brown'
p221
tp222
Rp223
I9
I1
tp224
a(g4
(g5
(S'S8'
p225
I0
I1
tp226
Rp227
(I3
S'|'
p228
NNNI8
I1
I0
tp229
bS'metallic'
p230
tp231
Rp232
I0
I1
tp233
aa(lp234
(S'green'
p235
S'yellow'
p236
I01
tp237
aa.