(lp0
(lp1
(dp2
S'action'
p3
cnumpy.core.multiarray
scalar
p4
(cnumpy
dtype
p5
(S'S4'
p6
I0
I1
tp7
Rp8
(I3
S'|'
p9
NNNI4
I1
I0
tp10
bS'walk'
p11
tp12
Rp13
sS'recipient'
p14
NsS'patient'
p15
NsS'goal'
p16
g4
(g5
(S'S4'
p17
I0
I1
tp18
Rp19
(I3
S'|'
p20
NNNI4
I1
I0
tp21
bS'3520'
p22
tp23
Rp24
sS'source'
p25
Nsa(dp26
g3
g4
(g5
(S'S5'
p27
I0
I1
tp28
Rp29
(I3
S'|'
p30
NNNI5
I1
I0
tp31
bS'bring'
p32
tp33
Rp34
sg14
g4
(g5
(S'S1'
p35
I0
I1
tp36
Rp37
(I3
S'|'
p38
NNNI1
I1
I0
tp39
bS'h'
p40
tp41
Rp42
sg15
S'oidx_25'
p43
sg16
Nsg25
Nsaa(lp44
(dp45
S'all'
p46
(lp47
S'go to office and meet mr.peggy parker'
p48
asg15
(lp49
sg16
(lp50
S'go to office m'
p51
aS'go to mr.peggy parker office'
p52
aS'go to lab'
p53
aS'go to kitchen'
p54
asg25
(lp55
sg3
(lp56
sg14
(lp57
sa(dp58
g46
(lp59
S'take the cylinder'
p60
asg15
(lp61
S'grey'
p62
asg16
(lp63
sg25
(lp64
sg3
(lp65
sg14
(lp66
S'dr heidi hughes'
p67
aS'h'
p68
asaa(lp69
(g4
(g5
(S'S8'
p70
I0
I1
tp71
Rp72
(I3
S'|'
p73
NNNI8
I1
I0
tp74
bS'cylinder'
p75
tp76
Rp77
I21
I1
tp78
a(g77
I24
I1
tp79
a(g77
I19
I1
tp80
a(g77
I23
I1
tp81
a(g77
I16
I1
tp82
a(g77
I0
I1
tp83
a(g77
I4
I1
tp84
a(g77
I9
I1
tp85
a(g4
(g5
(S'S4'
p86
I0
I1
tp87
Rp88
(I3
S'|'
p89
NNNI4
I1
I0
tp90
bS'blue'
p91
tp92
Rp93
I24
I0
tp94
a(g4
(g5
(S'S5'
p95
I0
I1
tp96
Rp97
(I3
S'|'
p98
NNNI5
I1
I0
tp99
bS'large'
p100
tp101
Rp102
I19
I0
tp103
a(g4
(g5
(S'S6'
p104
I0
I1
tp105
Rp106
(I3
S'|'
p107
NNNI6
I1
I0
tp108
bS'coffee'
p109
tp110
Rp111
I21
I1
tp112
a(g4
(g5
(S'S5'
p113
I0
I1
tp114
Rp115
(I3
S'|'
p116
NNNI5
I1
I0
tp117
bS'empty'
p118
tp119
Rp120
I0
I0
tp121
a(g4
(g5
(S'S5'
p122
I0
I1
tp123
Rp124
(I3
S'|'
p125
NNNI5
I1
I0
tp126
bS'block'
p127
tp128
Rp129
I9
I1
tp130
a(g4
(g5
(S'S9'
p131
I0
I1
tp132
Rp133
(I3
S'|'
p134
NNNI9
I1
I0
tp135
bS'styrofoam'
p136
tp137
Rp138
I24
I0
tp139
a(g4
(g5
(S'S4'
p140
I0
I1
tp141
Rp142
(I3
S'|'
p143
NNNI4
I1
I0
tp144
bS'blue'
p145
tp146
Rp147
I19
I0
tp148
a(g4
(g5
(S'S5'
p149
I0
I1
tp150
Rp151
(I3
S'|'
p152
NNNI5
I1
I0
tp153
bS'peach'
p154
tp155
Rp156
I21
I0
tp157
a(g156
I24
I0
tp158
a(g156
I19
I0
tp159
a(g156
I23
I0
tp160
a(g156
I16
I0
tp161
a(g156
I0
I0
tp162
a(g156
I4
I0
tp163
a(g156
I9
I0
tp164
a(g4
(g5
(S'S5'
p165
I0
I1
tp166
Rp167
(I3
S'|'
p168
NNNI5
I1
I0
tp169
bS'large'
p170
tp171
Rp172
I21
I0
tp173
aa(lp174
a.