(lp0
(lp1
(dp2
S'action'
p3
cnumpy.core.multiarray
scalar
p4
(cnumpy
dtype
p5
(S'S4'
p6
I0
I1
tp7
Rp8
(I3
S'|'
p9
NNNI4
I1
I0
tp10
bS'walk'
p11
tp12
Rp13
sS'recipient'
p14
NsS'patient'
p15
NsS'goal'
p16
S'3504'
p17
sS'source'
p18
Nsa(dp19
g3
g4
(g5
(S'S4'
p20
I0
I1
tp21
Rp22
(I3
S'|'
p23
NNNI4
I1
I0
tp24
bS'move'
p25
tp26
Rp27
sg14
Nsg15
g4
(g5
(S'S7'
p28
I0
I1
tp29
Rp30
(I3
S'|'
p31
NNNI7
I1
I0
tp32
bS'oidx_28'
p33
tp34
Rp35
sg16
S'3430'
p36
sg18
S'3404'
p37
sa(dp38
g3
g4
(g5
(S'S5'
p39
I0
I1
tp40
Rp41
(I3
S'|'
p42
NNNI5
I1
I0
tp43
bS'bring'
p44
tp45
Rp46
sg14
S'r'
p47
sg15
S'oidx_22'
p48
sg16
Nsg18
Nsaa(lp49
(dp50
S'all'
p51
(lp52
S'move'
p53
asg15
(lp54
sg16
(lp55
S'to pod'
p56
asg18
(lp57
sg3
(lp58
sg14
(lp59
sa(dp60
g51
(lp61
S'deliver object'
p62
asg15
(lp63
S'no'
p64
aS'container'
p65
aS'container'
p66
asg16
(lp67
sg18
(lp68
S'to office'
p69
asg3
(lp70
sg14
(lp71
sa(dp72
g51
(lp73
S'move object'
p74
asg15
(lp75
S'container'
p76
asg16
(lp77
sg18
(lp78
sg3
(lp79
sg14
(lp80
S'd'
p81
asaa(lp82
(g4
(g5
(S'S5'
p83
I0
I1
tp84
Rp85
(I3
S'|'
p86
NNNI5
I1
I0
tp87
bS'peach'
p88
tp89
Rp90
I16
I1
tp91
a(g4
(g5
(S'S9'
p92
I0
I1
tp93
Rp94
(I3
S'|'
p95
NNNI9
I1
I0
tp96
bS'rectangle'
p97
tp98
Rp99
I0
I1
tp100
a(g4
(g5
(S'S5'
p101
I0
I1
tp102
Rp103
(I3
S'|'
p104
NNNI5
I1
I0
tp105
bS'brown'
p106
tp107
Rp108
I4
I0
tp109
a(g4
(g5
(S'S8'
p110
I0
I1
tp111
Rp112
(I3
S'|'
p113
NNNI8
I1
I0
tp114
bS'cylinder'
p115
tp116
Rp117
I24
I0
tp118
a(g4
(g5
(S'S9'
p119
I0
I1
tp120
Rp121
(I3
S'|'
p122
NNNI9
I1
I0
tp123
bS'styrofoam'
p124
tp125
Rp126
I16
I0
tp127
a(g4
(g5
(S'S9'
p128
I0
I1
tp129
Rp130
(I3
S'|'
p131
NNNI9
I1
I0
tp132
bS'container'
p133
tp134
Rp135
I23
I0
tp136
a(g4
(g5
(S'S9'
p137
I0
I1
tp138
Rp139
(I3
S'|'
p140
NNNI9
I1
I0
tp141
bS'container'
p142
tp143
Rp144
I19
I1
tp145
a(g4
(g5
(S'S9'
p146
I0
I1
tp147
Rp148
(I3
S'|'
p149
NNNI9
I1
I0
tp150
bS'container'
p151
tp152
Rp153
I24
I0
tp154
a(g4
(g5
(S'S9'
p155
I0
I1
tp156
Rp157
(I3
S'|'
p158
NNNI9
I1
I0
tp159
bS'container'
p160
tp161
Rp162
I4
I0
tp163
a(g4
(g5
(S'S9'
p164
I0
I1
tp165
Rp166
(I3
S'|'
p167
NNNI9
I1
I0
tp168
bS'container'
p169
tp170
Rp171
I21
I0
tp172
a(g4
(g5
(S'S9'
p173
I0
I1
tp174
Rp175
(I3
S'|'
p176
NNNI9
I1
I0
tp177
bS'container'
p178
tp179
Rp180
I0
I0
tp181
a(g4
(g5
(S'S9'
p182
I0
I1
tp183
Rp184
(I3
S'|'
p185
NNNI9
I1
I0
tp186
bS'container'
p187
tp188
Rp189
I0
I0
tp190
a(g4
(g5
(S'S9'
p191
I0
I1
tp192
Rp193
(I3
S'|'
p194
NNNI9
I1
I0
tp195
bS'container'
p196
tp197
Rp198
I0
I0
tp199
a(g4
(g5
(S'S9'
p200
I0
I1
tp201
Rp202
(I3
S'|'
p203
NNNI9
I1
I0
tp204
bS'container'
p205
tp206
Rp207
I9
I0
tp208
a(g4
(g5
(S'S9'
p209
I0
I1
tp210
Rp211
(I3
S'|'
p212
NNNI9
I1
I0
tp213
bS'container'
p214
tp215
Rp216
I16
I1
tp217
aa(lp218
a.