(lp0
(lp1
(dp2
S'action'
p3
cnumpy.core.multiarray
scalar
p4
(cnumpy
dtype
p5
(S'S4'
p6
I0
I1
tp7
Rp8
(I3
S'|'
p9
NNNI4
I1
I0
tp10
bS'walk'
p11
tp12
Rp13
sS'recipient'
p14
NsS'patient'
p15
NsS'goal'
p16
g4
(g5
(S'S4'
p17
I0
I1
tp18
Rp19
(I3
S'|'
p20
NNNI4
I1
I0
tp21
bS'3422'
p22
tp23
Rp24
sS'source'
p25
Nsa(dp26
g3
g4
(g5
(S'S4'
p27
I0
I1
tp28
Rp29
(I3
S'|'
p30
NNNI4
I1
I0
tp31
bS'move'
p32
tp33
Rp34
sg14
Nsg15
S'oidx_22'
p35
sg16
S'3514'
p36
sg25
S'3414b'
p37
saa(lp38
(dp39
S'all'
p40
(lp41
S"go to walter ward 's office"
p42
asg15
(lp43
sg16
(lp44
S"go to walter ward 's office"
p45
asg25
(lp46
sg3
(lp47
sg14
(lp48
sa(dp49
g40
(lp50
S'take the object to mallory mal maroon'
p51
asg15
(lp52
sg16
(lp53
S'office m'
p54
aS'mallory mal maroon'
p55
aS'm'
p56
aS'm'
p57
aS'office m'
p58
asg25
(lp59
S"take the item from the table to mallory mal maroon 's office"
p60
asg3
(lp61
sg14
(lp62
saa(lp63
(g4
(g5
(S'S3'
p64
I0
I1
tp65
Rp66
(I3
S'|'
p67
NNNI3
I1
I0
tp68
bS'can'
p69
tp70
Rp71
I23
I0
tp72
a(g4
(g5
(S'S5'
p73
I0
I1
tp74
Rp75
(I3
S'|'
p76
NNNI5
I1
I0
tp77
bS'peach'
p78
tp79
Rp80
I21
I0
tp81
a(g80
I24
I0
tp82
a(g80
I19
I0
tp83
a(g80
I23
I0
tp84
a(g80
I16
I0
tp85
a(g80
I0
I0
tp86
a(g80
I4
I0
tp87
a(g80
I9
I0
tp88
a(g4
(g5
(S'S6'
p89
I0
I1
tp90
Rp91
(I3
S'|'
p92
NNNI6
I1
I0
tp93
bS'column'
p94
tp95
Rp96
I4
I0
tp97
a(g4
(g5
(S'S4'
p98
I0
I1
tp99
Rp100
(I3
S'|'
p101
NNNI4
I1
I0
tp102
bS'bean'
p103
tp104
Rp105
I21
I0
tp106
a(g105
I24
I0
tp107
a(g105
I19
I0
tp108
a(g105
I23
I0
tp109
a(g105
I16
I0
tp110
a(g105
I0
I0
tp111
a(g105
I4
I0
tp112
a(g105
I9
I0
tp113
a(g4
(g5
(S'S5'
p114
I0
I1
tp115
Rp116
(I3
S'|'
p117
NNNI5
I1
I0
tp118
bS'empty'
p119
tp120
Rp121
I0
I0
tp122
a(g4
(g5
(S'S3'
p123
I0
I1
tp124
Rp125
(I3
S'|'
p126
NNNI3
I1
I0
tp127
bS'red'
p128
tp129
Rp130
I4
I0
tp131
a(g4
(g5
(S'S5'
p132
I0
I1
tp133
Rp134
(I3
S'|'
p135
NNNI5
I1
I0
tp136
bS'large'
p137
tp138
Rp139
I0
I0
tp140
a(g4
(g5
(S'S9'
p141
I0
I1
tp142
Rp143
(I3
S'|'
p144
NNNI9
I1
I0
tp145
bS'styrofoam'
p146
tp147
Rp148
I24
I0
tp149
a(g4
(g5
(S'S3'
p150
I0
I1
tp151
Rp152
(I3
S'|'
p153
NNNI3
I1
I0
tp154
bS'can'
p155
tp156
Rp157
I0
I0
tp158
a(g4
(g5
(S'S6'
p159
I0
I1
tp160
Rp161
(I3
S'|'
p162
NNNI6
I1
I0
tp163
bS'coffee'
p164
tp165
Rp166
I9
I1
tp167
aa(lp168
a.