(lp0
(lp1
(dp2
S'action'
p3
cnumpy.core.multiarray
scalar
p4
(cnumpy
dtype
p5
(S'S4'
p6
I0
I1
tp7
Rp8
(I3
S'|'
p9
NNNI4
I1
I0
tp10
bS'walk'
p11
tp12
Rp13
sS'recipient'
p14
NsS'patient'
p15
NsS'goal'
p16
g4
(g5
(S'S4'
p17
I0
I1
tp18
Rp19
(I3
S'|'
p20
NNNI4
I1
I0
tp21
bS'3502'
p22
tp23
Rp24
sS'source'
p25
Nsaa(lp26
(dp27
S'all'
p28
(lp29
S'go to the pod'
p30
asg15
(lp31
sg16
(lp32
S"to the pod to the right of mallory 's office"
p33
aS"mallory 's office"
p34
asg25
(lp35
sg3
(lp36
sg14
(lp37
saa(lp38
(g4
(g5
(S'S5'
p39
I0
I1
tp40
Rp41
(I3
S'|'
p42
NNNI5
I1
I0
tp43
bS'block'
p44
tp45
Rp46
I21
I0
tp47
a(g46
I24
I0
tp48
a(g46
I19
I0
tp49
a(g46
I23
I0
tp50
a(g46
I16
I0
tp51
a(g46
I0
I0
tp52
a(g46
I4
I0
tp53
a(g46
I9
I0
tp54
a(g4
(g5
(S'S6'
p55
I0
I1
tp56
Rp57
(I3
S'|'
p58
NNNI6
I1
I0
tp59
bS'column'
p60
tp61
Rp62
I23
I0
tp63
a(g4
(g5
(S'S5'
p64
I0
I1
tp65
Rp66
(I3
S'|'
p67
NNNI5
I1
I0
tp68
bS'spice'
p69
tp70
Rp71
I21
I0
tp72
a(g71
I24
I0
tp73
a(g71
I19
I0
tp74
a(g71
I23
I0
tp75
a(g71
I16
I0
tp76
a(g71
I0
I0
tp77
a(g71
I4
I0
tp78
a(g71
I9
I0
tp79
a(g4
(g5
(S'S4'
p80
I0
I1
tp81
Rp82
(I3
S'|'
p83
NNNI4
I1
I0
tp84
bS'bean'
p85
tp86
Rp87
I21
I0
tp88
a(g87
I24
I0
tp89
a(g87
I19
I0
tp90
a(g87
I23
I0
tp91
a(g87
I16
I0
tp92
a(g87
I0
I0
tp93
a(g87
I4
I0
tp94
a(g87
I9
I0
tp95
a(g4
(g5
(S'S5'
p96
I0
I1
tp97
Rp98
(I3
S'|'
p99
NNNI5
I1
I0
tp100
bS'empty'
p101
tp102
Rp103
I4
I0
tp104
aa(lp105
a.