(lp0
(lp1
(dp2
S'action'
p3
cnumpy.core.multiarray
scalar
p4
(cnumpy
dtype
p5
(S'S5'
p6
I0
I1
tp7
Rp8
(I3
S'|'
p9
NNNI5
I1
I0
tp10
bS'bring'
p11
tp12
Rp13
sS'recipient'
p14
g4
(g5
(S'S1'
p15
I0
I1
tp16
Rp17
(I3
S'|'
p18
NNNI1
I1
I0
tp19
bS'd'
p20
tp21
Rp22
sS'patient'
p23
S'oidx_25'
p24
sS'goal'
p25
NsS'source'
p26
Nsa(dp27
g3
g4
(g5
(S'S5'
p28
I0
I1
tp29
Rp30
(I3
S'|'
p31
NNNI5
I1
I0
tp32
bS'bring'
p33
tp34
Rp35
sg14
S'p'
p36
sg23
g4
(g5
(S'S7'
p37
I0
I1
tp38
Rp39
(I3
S'|'
p40
NNNI7
I1
I0
tp41
bS'oidx_26'
p42
tp43
Rp44
sg25
Nsg26
Nsa(dp45
g3
g4
(g5
(S'S5'
p46
I0
I1
tp47
Rp48
(I3
S'|'
p49
NNNI5
I1
I0
tp50
bS'bring'
p51
tp52
Rp53
sg14
g4
(g5
(S'S1'
p54
I0
I1
tp55
Rp56
(I3
S'|'
p57
NNNI1
I1
I0
tp58
bS'm'
p59
tp60
Rp61
sg23
g4
(g5
(S'S7'
p62
I0
I1
tp63
Rp64
(I3
S'|'
p65
NNNI7
I1
I0
tp66
bS'oidx_26'
p67
tp68
Rp69
sg25
Nsg26
Nsaa(lp70
(dp71
S'all'
p72
(lp73
S'david dave daniel'
p74
asg23
(lp75
S'no'
p76
aS'yes'
p77
aS'mail'
p78
aS'no'
p79
asg25
(lp80
sg26
(lp81
sg3
(lp82
sg14
(lp83
sa(dp84
g72
(lp85
S'deliver the object to this person'
p86
asg23
(lp87
S'a coke can'
p88
aS'soda can'
p89
asg25
(lp90
sg26
(lp91
sg3
(lp92
sg14
(lp93
sa(dp94
g72
(lp95
S'mallory mal maroon'
p96
asg23
(lp97
S'soda can'
p98
aS'soda can'
p99
aS'soda can'
p100
aS'soda can'
p101
asg25
(lp102
sg26
(lp103
sg3
(lp104
sg14
(lp105
saa(lp106
(g4
(g5
(S'S6'
p107
I0
I1
tp108
Rp109
(I3
S'|'
p110
NNNI6
I1
I0
tp111
bS'column'
p112
tp113
Rp114
I19
I0
tp115
a(g4
(g5
(S'S9'
p116
I0
I1
tp117
Rp118
(I3
S'|'
p119
NNNI9
I1
I0
tp120
bS'styrofoam'
p121
tp122
Rp123
I21
I0
tp124
a(g4
(g5
(S'S6'
p125
I0
I1
tp126
Rp127
(I3
S'|'
p128
NNNI6
I1
I0
tp129
bS'yellow'
p130
tp131
Rp132
I21
I0
tp133
a(g132
I24
I0
tp134
a(g132
I19
I0
tp135
a(g132
I23
I0
tp136
a(g132
I16
I0
tp137
a(g132
I0
I0
tp138
a(g132
I4
I0
tp139
a(g132
I9
I0
tp140
a(g4
(g5
(S'S5'
p141
I0
I1
tp142
Rp143
(I3
S'|'
p144
NNNI5
I1
I0
tp145
bS'peach'
p146
tp147
Rp148
I21
I0
tp149
a(g148
I24
I0
tp150
a(g148
I19
I0
tp151
a(g148
I23
I0
tp152
a(g148
I16
I0
tp153
a(g148
I0
I0
tp154
a(g148
I4
I0
tp155
a(g148
I9
I0
tp156
a(g4
(g5
(S'S4'
p157
I0
I1
tp158
Rp159
(I3
S'|'
p160
NNNI4
I1
I0
tp161
bS'long'
p162
tp163
Rp164
I19
I0
tp165
a(g4
(g5
(S'S9'
p166
I0
I1
tp167
Rp168
(I3
S'|'
p169
NNNI9
I1
I0
tp170
bS'container'
p171
tp172
Rp173
I19
I0
tp174
a(g4
(g5
(S'S9'
p175
I0
I1
tp176
Rp177
(I3
S'|'
p178
NNNI9
I1
I0
tp179
bS'container'
p180
tp181
Rp182
I23
I0
tp183
a(g4
(g5
(S'S9'
p184
I0
I1
tp185
Rp186
(I3
S'|'
p187
NNNI9
I1
I0
tp188
bS'container'
p189
tp190
Rp191
I21
I1
tp192
a(g191
I24
I1
tp193
a(g191
I19
I1
tp194
a(g191
I23
I1
tp195
a(g191
I16
I1
tp196
a(g191
I0
I1
tp197
a(g191
I4
I1
tp198
a(g191
I9
I1
tp199
a(g4
(g5
(S'S5'
p200
I0
I1
tp201
Rp202
(I3
S'|'
p203
NNNI5
I1
I0
tp204
bS'small'
p205
tp206
Rp207
I21
I0
tp208
a(g4
(g5
(S'S5'
p209
I0
I1
tp210
Rp211
(I3
S'|'
p212
NNNI5
I1
I0
tp213
bS'brown'
p214
tp215
Rp216
I19
I0
tp217
a(g4
(g5
(S'S4'
p218
I0
I1
tp219
Rp220
(I3
S'|'
p221
NNNI4
I1
I0
tp222
bS'coke'
p223
tp224
Rp225
I21
I0
tp226
a(g225
I24
I0
tp227
a(g225
I19
I0
tp228
a(g225
I23
I0
tp229
a(g225
I16
I0
tp230
a(g225
I0
I0
tp231
a(g225
I4
I0
tp232
a(g225
I9
I0
tp233
a(g4
(g5
(S'S5'
p234
I0
I1
tp235
Rp236
(I3
S'|'
p237
NNNI5
I1
I0
tp238
bS'brown'
p239
tp240
Rp241
I9
I0
tp242
a(g4
(g5
(S'S9'
p243
I0
I1
tp244
Rp245
(I3
S'|'
p246
NNNI9
I1
I0
tp247
bS'rectangle'
p248
tp249
Rp250
I21
I0
tp251
a(g250
I24
I0
tp252
a(g250
I19
I0
tp253
a(g250
I23
I0
tp254
a(g250
I16
I0
tp255
a(g250
I0
I0
tp256
a(g250
I4
I0
tp257
a(g250
I9
I0
tp258
a(g4
(g5
(S'S5'
p259
I0
I1
tp260
Rp261
(I3
S'|'
p262
NNNI5
I1
I0
tp263
bS'large'
p264
tp265
Rp266
I21
I1
tp267
a(g266
I24
I1
tp268
a(g266
I19
I1
tp269
a(g266
I23
I1
tp270
a(g266
I16
I1
tp271
a(g266
I0
I1
tp272
a(g266
I4
I1
tp273
a(g266
I9
I1
tp274
a(g4
(g5
(S'S4'
p275
I0
I1
tp276
Rp277
(I3
S'|'
p278
NNNI4
I1
I0
tp279
bS'long'
p280
tp281
Rp282
I4
I0
tp283
aa(lp284
(S'coke'
p285
S'coffee'
p286
I00
tp287
a(g285
g4
(g5
(S'S5'
p288
I0
I1
tp289
Rp290
(I3
S'|'
p291
NNNI5
I1
I0
tp292
bS'small'
p293
tp294
Rp295
I00
tp296
a(g285
S'body'
p297
I00
tp298
aa.