(lp0
(lp1
(dp2
S'action'
p3
cnumpy.core.multiarray
scalar
p4
(cnumpy
dtype
p5
(S'S4'
p6
I0
I1
tp7
Rp8
(I3
S'|'
p9
NNNI4
I1
I0
tp10
bS'walk'
p11
tp12
Rp13
sS'recipient'
p14
NsS'patient'
p15
NsS'goal'
p16
S'3422'
p17
sS'source'
p18
Nsa(dp19
g3
g4
(g5
(S'S4'
p20
I0
I1
tp21
Rp22
(I3
S'|'
p23
NNNI4
I1
I0
tp24
bS'walk'
p25
tp26
Rp27
sg14
Nsg15
Nsg16
g4
(g5
(S'S4'
p28
I0
I1
tp29
Rp30
(I3
S'|'
p31
NNNI4
I1
I0
tp32
bS'3508'
p33
tp34
Rp35
sg18
Nsa(dp36
g3
g4
(g5
(S'S4'
p37
I0
I1
tp38
Rp39
(I3
S'|'
p40
NNNI4
I1
I0
tp41
bS'walk'
p42
tp43
Rp44
sg14
Nsg15
Nsg16
S'3510'
p45
sg18
Nsaa(lp46
(dp47
S'all'
p48
(lp49
S"go to walter ward 's office"
p50
asg15
(lp51
sg16
(lp52
S"to walter ward 's office"
p53
asg18
(lp54
sg3
(lp55
sg14
(lp56
sa(dp57
g48
(lp58
S'take the white item to peggy parker'
p59
asg15
(lp60
sg16
(lp61
S'to peggy parker'
p62
aS"to peggy parker 's office with the item"
p63
aS"to peggy parker 's office"
p64
asg18
(lp65
sg3
(lp66
sg14
(lp67
sa(dp68
g48
(lp69
S"please return the bottle of motrin from mal 's office back to bob's 's"
p70
asg15
(lp71
sg16
(lp72
S"to bob 's office"
p73
asg18
(lp74
sg3
(lp75
sg14
(lp76
saa(lp77
(g4
(g5
(S'S6'
p78
I0
I1
tp79
Rp80
(I3
S'|'
p81
NNNI6
I1
I0
tp82
bS'column'
p83
tp84
Rp85
I0
I0
tp86
a(g4
(g5
(S'S4'
p87
I0
I1
tp88
Rp89
(I3
S'|'
p90
NNNI4
I1
I0
tp91
bS'blue'
p92
tp93
Rp94
I21
I0
tp95
a(g4
(g5
(S'S5'
p96
I0
I1
tp97
Rp98
(I3
S'|'
p99
NNNI5
I1
I0
tp100
bS'peach'
p101
tp102
Rp103
I21
I0
tp104
a(g103
I24
I0
tp105
a(g103
I19
I0
tp106
a(g103
I23
I0
tp107
a(g103
I16
I0
tp108
a(g103
I0
I0
tp109
a(g103
I4
I0
tp110
a(g103
I9
I0
tp111
a(g4
(g5
(S'S6'
p112
I0
I1
tp113
Rp114
(I3
S'|'
p115
NNNI6
I1
I0
tp116
bS'yellow'
p117
tp118
Rp119
I19
I1
tp120
a(g4
(g5
(S'S5'
p121
I0
I1
tp122
Rp123
(I3
S'|'
p124
NNNI5
I1
I0
tp125
bS'brown'
p126
tp127
Rp128
I19
I0
tp129
a(g4
(g5
(S'S6'
p130
I0
I1
tp131
Rp132
(I3
S'|'
p133
NNNI6
I1
I0
tp134
bS'coffee'
p135
tp136
Rp137
I9
I1
tp138
a(g4
(g5
(S'S5'
p139
I0
I1
tp140
Rp141
(I3
S'|'
p142
NNNI5
I1
I0
tp143
bS'empty'
p144
tp145
Rp146
I21
I1
tp147
a(g4
(g5
(S'S5'
p148
I0
I1
tp149
Rp150
(I3
S'|'
p151
NNNI5
I1
I0
tp152
bS'empty'
p153
tp154
Rp155
I0
I0
tp156
a(g4
(g5
(S'S5'
p157
I0
I1
tp158
Rp159
(I3
S'|'
p160
NNNI5
I1
I0
tp161
bS'spice'
p162
tp163
Rp164
I21
I0
tp165
a(g164
I24
I0
tp166
a(g164
I19
I0
tp167
a(g164
I23
I0
tp168
a(g164
I16
I0
tp169
a(g164
I0
I0
tp170
a(g164
I4
I0
tp171
a(g164
I9
I0
tp172
a(g4
(g5
(S'S5'
p173
I0
I1
tp174
Rp175
(I3
S'|'
p176
NNNI5
I1
I0
tp177
bS'tower'
p178
tp179
Rp180
I21
I0
tp181
a(g180
I24
I0
tp182
a(g180
I19
I0
tp183
a(g180
I23
I0
tp184
a(g180
I16
I0
tp185
a(g180
I0
I0
tp186
a(g180
I4
I0
tp187
a(g180
I9
I0
tp188
a(g4
(g5
(S'S5'
p189
I0
I1
tp190
Rp191
(I3
S'|'
p192
NNNI5
I1
I0
tp193
bS'brown'
p194
tp195
Rp196
I9
I0
tp197
a(g4
(g5
(S'S5'
p198
I0
I1
tp199
Rp200
(I3
S'|'
p201
NNNI5
I1
I0
tp202
bS'large'
p203
tp204
Rp205
I23
I0
tp206
a(g4
(g5
(S'S4'
p207
I0
I1
tp208
Rp209
(I3
S'|'
p210
NNNI4
I1
I0
tp211
bS'bean'
p212
tp213
Rp214
I21
I0
tp215
a(g214
I24
I0
tp216
a(g214
I19
I0
tp217
a(g214
I23
I0
tp218
a(g214
I16
I0
tp219
a(g214
I0
I0
tp220
a(g214
I4
I0
tp221
a(g214
I9
I0
tp222
a(g4
(g5
(S'S5'
p223
I0
I1
tp224
Rp225
(I3
S'|'
p226
NNNI5
I1
I0
tp227
bS'brown'
p228
tp229
Rp230
I4
I0
tp231
a(g4
(g5
(S'S8'
p232
I0
I1
tp233
Rp234
(I3
S'|'
p235
NNNI8
I1
I0
tp236
bS'pringles'
p237
tp238
Rp239
I21
I0
tp240
a(g239
I24
I0
tp241
a(g239
I19
I0
tp242
a(g239
I23
I0
tp243
a(g239
I16
I0
tp244
a(g239
I0
I0
tp245
a(g239
I4
I0
tp246
a(g239
I9
I0
tp247
aa(lp248
a.