(lp0
(lp1
(dp2
S'action'
p3
cnumpy.core.multiarray
scalar
p4
(cnumpy
dtype
p5
(S'S4'
p6
I0
I1
tp7
Rp8
(I3
S'|'
p9
NNNI4
I1
I0
tp10
bS'walk'
p11
tp12
Rp13
sS'recipient'
p14
NsS'patient'
p15
NsS'goal'
p16
g4
(g5
(S'S4'
p17
I0
I1
tp18
Rp19
(I3
S'|'
p20
NNNI4
I1
I0
tp21
bS'3422'
p22
tp23
Rp24
sS'source'
p25
Nsa(dp26
g3
g4
(g5
(S'S4'
p27
I0
I1
tp28
Rp29
(I3
S'|'
p30
NNNI4
I1
I0
tp31
bS'move'
p32
tp33
Rp34
sg14
Nsg15
S'oidx_6'
p35
sg16
S'3414'
p36
sg25
S'3516'
p37
sa(dp38
g3
g4
(g5
(S'S4'
p39
I0
I1
tp40
Rp41
(I3
S'|'
p42
NNNI4
I1
I0
tp43
bS'walk'
p44
tp45
Rp46
sg14
Nsg15
Nsg16
g4
(g5
(S'S4'
p47
I0
I1
tp48
Rp49
(I3
S'|'
p50
NNNI4
I1
I0
tp51
bS'3502'
p52
tp53
Rp54
sg25
Nsaa(lp55
(dp56
S'all'
p57
(lp58
S"walk to walter ward supervisor 's office"
p59
asg15
(lp60
sg16
(lp61
sg25
(lp62
sg3
(lp63
sg14
(lp64
sa(dp65
g57
(lp66
S'take the cold theraphy and deliver it'
p67
asg15
(lp68
S'citrus flavor vitamin c'
p69
aS'active ingredient'
p70
aS'white color box with active ingredients'
p71
aS'white color box'
p72
aS'white color small box'
p73
aS'white color box with vitamin c'
p74
aS'white colored and orange covered box'
p75
asg16
(lp76
sg25
(lp77
S'to peggy parker intern'
p78
aS'to walter ward supervisor'
p79
asg3
(lp80
sg14
(lp81
sa(dp82
g57
(lp83
S"walk to mallory mal maroon 's office"
p84
asg15
(lp85
sg16
(lp86
sg25
(lp87
sg3
(lp88
sg14
(lp89
saa(lp90
(g4
(g5
(S'S9'
p91
I0
I1
tp92
Rp93
(I3
S'|'
p94
NNNI9
I1
I0
tp95
bS'styrofoam'
p96
tp97
Rp98
I19
I0
tp99
a(g4
(g5
(S'S9'
p100
I0
I1
tp101
Rp102
(I3
S'|'
p103
NNNI9
I1
I0
tp104
bS'rectangle'
p105
tp106
Rp107
I21
I0
tp108
a(g107
I24
I0
tp109
a(g107
I19
I0
tp110
a(g107
I23
I0
tp111
a(g107
I16
I0
tp112
a(g107
I0
I0
tp113
a(g107
I4
I0
tp114
a(g107
I9
I0
tp115
a(g4
(g5
(S'S9'
p116
I0
I1
tp117
Rp118
(I3
S'|'
p119
NNNI9
I1
I0
tp120
bS'container'
p121
tp122
Rp123
I21
I1
tp124
a(g4
(g5
(S'S8'
p125
I0
I1
tp126
Rp127
(I3
S'|'
p128
NNNI8
I1
I0
tp129
bS'pringles'
p130
tp131
Rp132
I4
I1
tp133
a(g4
(g5
(S'S4'
p134
I0
I1
tp135
Rp136
(I3
S'|'
p137
NNNI4
I1
I0
tp138
bS'bean'
p139
tp140
Rp141
I9
I1
tp142
a(g4
(g5
(S'S8'
p143
I0
I1
tp144
Rp145
(I3
S'|'
p146
NNNI8
I1
I0
tp147
bS'pringles'
p148
tp149
Rp150
I19
I0
tp151
a(g4
(g5
(S'S5'
p152
I0
I1
tp153
Rp154
(I3
S'|'
p155
NNNI5
I1
I0
tp156
bS'brown'
p157
tp158
Rp159
I21
I0
tp160
a(g4
(g5
(S'S5'
p161
I0
I1
tp162
Rp163
(I3
S'|'
p164
NNNI5
I1
I0
tp165
bS'large'
p166
tp167
Rp168
I9
I0
tp169
a(g4
(g5
(S'S5'
p170
I0
I1
tp171
Rp172
(I3
S'|'
p173
NNNI5
I1
I0
tp174
bS'small'
p175
tp176
Rp177
I21
I0
tp178
a(g4
(g5
(S'S5'
p179
I0
I1
tp180
Rp181
(I3
S'|'
p182
NNNI5
I1
I0
tp183
bS'large'
p184
tp185
Rp186
I16
I0
tp187
a(g4
(g5
(S'S3'
p188
I0
I1
tp189
Rp190
(I3
S'|'
p191
NNNI3
I1
I0
tp192
bS'can'
p193
tp194
Rp195
I9
I1
tp196
a(g4
(g5
(S'S9'
p197
I0
I1
tp198
Rp199
(I3
S'|'
p200
NNNI9
I1
I0
tp201
bS'container'
p202
tp203
Rp204
I23
I1
tp205
a(g4
(g5
(S'S8'
p206
I0
I1
tp207
Rp208
(I3
S'|'
p209
NNNI8
I1
I0
tp210
bS'cylinder'
p211
tp212
Rp213
I21
I1
tp214
a(g213
I24
I1
tp215
a(g213
I19
I1
tp216
a(g213
I23
I1
tp217
a(g213
I16
I1
tp218
a(g213
I0
I1
tp219
a(g213
I4
I1
tp220
a(g213
I9
I1
tp221
a(g4
(g5
(S'S3'
p222
I0
I1
tp223
Rp224
(I3
S'|'
p225
NNNI3
I1
I0
tp226
bS'red'
p227
tp228
Rp229
I21
I0
tp230
a(g4
(g5
(S'S4'
p231
I0
I1
tp232
Rp233
(I3
S'|'
p234
NNNI4
I1
I0
tp235
bS'bean'
p236
tp237
Rp238
I16
I1
tp239
aa(lp240
(S'colored'
p241
S'color'
p242
I01
tp243
a(S'orange'
p244
S'yellow'
p245
I01
tp246
aa.