(lp0
(lp1
(dp2
S'action'
p3
cnumpy.core.multiarray
scalar
p4
(cnumpy
dtype
p5
(S'S4'
p6
I0
I1
tp7
Rp8
(I3
S'|'
p9
NNNI4
I1
I0
tp10
bS'walk'
p11
tp12
Rp13
sS'recipient'
p14
NsS'patient'
p15
NsS'goal'
p16
S'3416'
p17
sS'source'
p18
Nsa(dp19
g3
g4
(g5
(S'S5'
p20
I0
I1
tp21
Rp22
(I3
S'|'
p23
NNNI5
I1
I0
tp24
bS'bring'
p25
tp26
Rp27
sg14
S'w'
p28
sg15
S'oidx_6'
p29
sg16
Nsg18
Nsa(dp30
g3
g4
(g5
(S'S4'
p31
I0
I1
tp32
Rp33
(I3
S'|'
p34
NNNI4
I1
I0
tp35
bS'walk'
p36
tp37
Rp38
sg14
Nsg15
Nsg16
S'3520'
p39
sg18
Nsaa(lp40
(dp41
S'all'
p42
(lp43
S'go to conference'
p44
asg15
(lp45
sg16
(lp46
S'yes'
p47
asg18
(lp48
sg3
(lp49
sg14
(lp50
sa(dp51
g42
(lp52
S'go to container'
p53
asg15
(lp54
S'container'
p55
aS'walter ward'
p56
asg16
(lp57
sg18
(lp58
sg3
(lp59
sg14
(lp60
sa(dp61
g42
(lp62
S'go to conference'
p63
asg15
(lp64
sg16
(lp65
S'go to kitchen'
p66
asg18
(lp67
sg3
(lp68
sg14
(lp69
saa(lp70
(g4
(g5
(S'S5'
p71
I0
I1
tp72
Rp73
(I3
S'|'
p74
NNNI5
I1
I0
tp75
bS'empty'
p76
tp77
Rp78
I9
I1
tp79
a(g4
(g5
(S'S8'
p80
I0
I1
tp81
Rp82
(I3
S'|'
p83
NNNI8
I1
I0
tp84
bS'pringles'
p85
tp86
Rp87
I21
I0
tp88
a(g87
I24
I0
tp89
a(g87
I19
I0
tp90
a(g87
I23
I0
tp91
a(g87
I16
I0
tp92
a(g87
I0
I0
tp93
a(g87
I4
I0
tp94
a(g87
I9
I0
tp95
a(g4
(g5
(S'S3'
p96
I0
I1
tp97
Rp98
(I3
S'|'
p99
NNNI3
I1
I0
tp100
bS'red'
p101
tp102
Rp103
I21
I1
tp104
a(g103
I24
I1
tp105
a(g103
I19
I1
tp106
a(g103
I23
I1
tp107
a(g103
I16
I1
tp108
a(g103
I0
I1
tp109
a(g103
I4
I1
tp110
a(g103
I9
I1
tp111
a(g4
(g5
(S'S5'
p112
I0
I1
tp113
Rp114
(I3
S'|'
p115
NNNI5
I1
I0
tp116
bS'brown'
p117
tp118
Rp119
I21
I1
tp120
a(g4
(g5
(S'S5'
p121
I0
I1
tp122
Rp123
(I3
S'|'
p124
NNNI5
I1
I0
tp125
bS'clear'
p126
tp127
Rp128
I9
I1
tp129
a(g4
(g5
(S'S9'
p130
I0
I1
tp131
Rp132
(I3
S'|'
p133
NNNI9
I1
I0
tp134
bS'container'
p135
tp136
Rp137
I19
I1
tp138
a(g4
(g5
(S'S9'
p139
I0
I1
tp140
Rp141
(I3
S'|'
p142
NNNI9
I1
I0
tp143
bS'container'
p144
tp145
Rp146
I23
I1
tp147
a(g4
(g5
(S'S9'
p148
I0
I1
tp149
Rp150
(I3
S'|'
p151
NNNI9
I1
I0
tp152
bS'container'
p153
tp154
Rp155
I21
I1
tp156
a(g4
(g5
(S'S9'
p157
I0
I1
tp158
Rp159
(I3
S'|'
p160
NNNI9
I1
I0
tp161
bS'container'
p162
tp163
Rp164
I16
I1
tp165
a(g4
(g5
(S'S9'
p166
I0
I1
tp167
Rp168
(I3
S'|'
p169
NNNI9
I1
I0
tp170
bS'container'
p171
tp172
Rp173
I24
I1
tp174
a(g4
(g5
(S'S5'
p175
I0
I1
tp176
Rp177
(I3
S'|'
p178
NNNI5
I1
I0
tp179
bS'brown'
p180
tp181
Rp182
I24
I1
tp183
a(g4
(g5
(S'S5'
p184
I0
I1
tp185
Rp186
(I3
S'|'
p187
NNNI5
I1
I0
tp188
bS'tower'
p189
tp190
Rp191
I23
I1
tp192
a(g4
(g5
(S'S5'
p193
I0
I1
tp194
Rp195
(I3
S'|'
p196
NNNI5
I1
I0
tp197
bS'small'
p198
tp199
Rp200
I21
I1
tp201
a(g4
(g5
(S'S8'
p202
I0
I1
tp203
Rp204
(I3
S'|'
p205
NNNI8
I1
I0
tp206
bS'cylinder'
p207
tp208
Rp209
I24
I0
tp210
a(g4
(g5
(S'S5'
p211
I0
I1
tp212
Rp213
(I3
S'|'
p214
NNNI5
I1
I0
tp215
bS'brown'
p216
tp217
Rp218
I9
I1
tp219
aa(lp220
a.