(lp0
(lp1
(dp2
S'action'
p3
cnumpy.core.multiarray
scalar
p4
(cnumpy
dtype
p5
(S'S4'
p6
I0
I1
tp7
Rp8
(I3
S'|'
p9
NNNI4
I1
I0
tp10
bS'move'
p11
tp12
Rp13
sS'recipient'
p14
NsS'patient'
p15
S'oidx_28'
p16
sS'goal'
p17
S'3424'
p18
sS'source'
p19
S'3402'
p20
sa(dp21
g3
g4
(g5
(S'S4'
p22
I0
I1
tp23
Rp24
(I3
S'|'
p25
NNNI4
I1
I0
tp26
bS'move'
p27
tp28
Rp29
sg14
Nsg15
S'oidx_22'
p30
sg17
g20
sg19
S'3406'
p31
sa(dp32
g3
g4
(g5
(S'S5'
p33
I0
I1
tp34
Rp35
(I3
S'|'
p36
NNNI5
I1
I0
tp37
bS'bring'
p38
tp39
Rp40
sg14
S'n'
p41
sg15
S'oidx_25'
p42
sg17
Nsg19
Nsaa(lp43
(dp44
S'all'
p45
(lp46
S'yes'
p47
asg15
(lp48
S'yes'
p49
asg17
(lp50
S'yes'
p51
asg19
(lp52
S'restaurant'
p53
asg3
(lp54
sg14
(lp55
sa(dp56
g45
(lp57
S'pepsi'
p58
asg15
(lp59
S'yes'
p60
asg17
(lp61
sg19
(lp62
S'yes'
p63
aS'yes'
p64
asg3
(lp65
sg14
(lp66
sa(dp67
g45
(lp68
S'yes'
p69
asg15
(lp70
S'nothing'
p71
aS'yes'
p72
asg17
(lp73
sg19
(lp74
sg3
(lp75
sg14
(lp76
saa(lp77
(g4
(g5
(S'S3'
p78
I0
I1
tp79
Rp80
(I3
S'|'
p81
NNNI3
I1
I0
tp82
bS'can'
p83
tp84
Rp85
I0
I1
tp86
a(g4
(g5
(S'S5'
p87
I0
I1
tp88
Rp89
(I3
S'|'
p90
NNNI5
I1
I0
tp91
bS'spice'
p92
tp93
Rp94
I19
I1
tp95
a(g4
(g5
(S'S4'
p96
I0
I1
tp97
Rp98
(I3
S'|'
p99
NNNI4
I1
I0
tp100
bS'long'
p101
tp102
Rp103
I23
I1
tp104
a(g4
(g5
(S'S3'
p105
I0
I1
tp106
Rp107
(I3
S'|'
p108
NNNI3
I1
I0
tp109
bS'red'
p110
tp111
Rp112
I19
I0
tp113
a(g4
(g5
(S'S4'
p114
I0
I1
tp115
Rp116
(I3
S'|'
p117
NNNI4
I1
I0
tp118
bS'long'
p119
tp120
Rp121
I4
I1
tp122
a(g4
(g5
(S'S9'
p123
I0
I1
tp124
Rp125
(I3
S'|'
p126
NNNI9
I1
I0
tp127
bS'styrofoam'
p128
tp129
Rp130
I19
I1
tp131
a(g4
(g5
(S'S5'
p132
I0
I1
tp133
Rp134
(I3
S'|'
p135
NNNI5
I1
I0
tp136
bS'tower'
p137
tp138
Rp139
I23
I1
tp140
a(g4
(g5
(S'S3'
p141
I0
I1
tp142
Rp143
(I3
S'|'
p144
NNNI3
I1
I0
tp145
bS'red'
p146
tp147
Rp148
I23
I0
tp149
a(g4
(g5
(S'S5'
p150
I0
I1
tp151
Rp152
(I3
S'|'
p153
NNNI5
I1
I0
tp154
bS'tower'
p155
tp156
Rp157
I19
I1
tp158
a(g4
(g5
(S'S9'
p159
I0
I1
tp160
Rp161
(I3
S'|'
p162
NNNI9
I1
I0
tp163
bS'styrofoam'
p164
tp165
Rp166
I24
I1
tp167
a(g4
(g5
(S'S8'
p168
I0
I1
tp169
Rp170
(I3
S'|'
p171
NNNI8
I1
I0
tp172
bS'cylinder'
p173
tp174
Rp175
I19
I0
tp176
a(g4
(g5
(S'S8'
p177
I0
I1
tp178
Rp179
(I3
S'|'
p180
NNNI8
I1
I0
tp181
bS'pringles'
p182
tp183
Rp184
I19
I1
tp185
a(g4
(g5
(S'S5'
p186
I0
I1
tp187
Rp188
(I3
S'|'
p189
NNNI5
I1
I0
tp190
bS'empty'
p191
tp192
Rp193
I0
I1
tp194
a(g4
(g5
(S'S5'
p195
I0
I1
tp196
Rp197
(I3
S'|'
p198
NNNI5
I1
I0
tp199
bS'small'
p200
tp201
Rp202
I21
I1
tp203
a(g4
(g5
(S'S4'
p204
I0
I1
tp205
Rp206
(I3
S'|'
p207
NNNI4
I1
I0
tp208
bS'blue'
p209
tp210
Rp211
I24
I1
tp212
aa(lp213
(g53
S'acan'
p214
I01
tp215
aa.