(lp0
(lp1
(dp2
S'action'
p3
cnumpy.core.multiarray
scalar
p4
(cnumpy
dtype
p5
(S'S4'
p6
I0
I1
tp7
Rp8
(I3
S'|'
p9
NNNI4
I1
I0
tp10
bS'walk'
p11
tp12
Rp13
sS'recipient'
p14
NsS'patient'
p15
NsS'goal'
p16
g4
(g5
(S'S4'
p17
I0
I1
tp18
Rp19
(I3
S'|'
p20
NNNI4
I1
I0
tp21
bS'3430'
p22
tp23
Rp24
sS'source'
p25
Nsa(dp26
g3
g4
(g5
(S'S5'
p27
I0
I1
tp28
Rp29
(I3
S'|'
p30
NNNI5
I1
I0
tp31
bS'bring'
p32
tp33
Rp34
sg14
S'm'
p35
sg15
g4
(g5
(S'S7'
p36
I0
I1
tp37
Rp38
(I3
S'|'
p39
NNNI7
I1
I0
tp40
bS'oidx_11'
p41
tp42
Rp43
sg16
Nsg25
Nsa(dp44
g3
g4
(g5
(S'S4'
p45
I0
I1
tp46
Rp47
(I3
S'|'
p48
NNNI4
I1
I0
tp49
bS'walk'
p50
tp51
Rp52
sg14
Nsg15
Nsg16
S'3420'
p53
sg25
Nsaa(lp54
(dp55
S'all'
p56
(lp57
S'go to the pod'
p58
asg15
(lp59
sg16
(lp60
S'pod'
p61
aS'the third room from r going right'
p62
aS'go the the pod'
p63
aS'go the the lower right'
p64
asg25
(lp65
sg3
(lp66
sg14
(lp67
sa(dp68
g56
(lp69
S'get the container'
p70
asg15
(lp71
S'container'
p72
aS'm'
p73
aS'the container with a silver lid'
p74
aS'the container with silver lid'
p75
asg16
(lp76
sg25
(lp77
sg3
(lp78
sg14
(lp79
sa(dp80
g56
(lp81
S'deliver the styrofoam from pod the d'
p82
asg15
(lp83
sg16
(lp84
S'd'
p85
aS'go to d'
p86
aS'go to d'
p87
aS'd'
p88
aS"d 's room"
p89
aS'go to d'
p90
aS'what the heck'
p91
aS'go to d office'
p92
aS'david dave daniel'
p93
aS'david dave daniel'
p94
aS'david dave daniel'
p95
aS'david dave daniel'
p96
aS'david dave daniel'
p97
aS'david dave daniel'
p98
aS"go to d 's room"
p99
asg25
(lp100
sg3
(lp101
sg14
(lp102
saa(lp103
(g4
(g5
(S'S3'
p104
I0
I1
tp105
Rp106
(I3
S'|'
p107
NNNI3
I1
I0
tp108
bS'red'
p109
tp110
Rp111
I21
I1
tp112
a(g111
I24
I1
tp113
a(g111
I19
I1
tp114
a(g111
I23
I1
tp115
a(g111
I16
I1
tp116
a(g111
I0
I1
tp117
a(g111
I4
I1
tp118
a(g111
I9
I1
tp119
a(g4
(g5
(S'S4'
p120
I0
I1
tp121
Rp122
(I3
S'|'
p123
NNNI4
I1
I0
tp124
bS'blue'
p125
tp126
Rp127
I21
I0
tp128
a(g4
(g5
(S'S5'
p129
I0
I1
tp130
Rp131
(I3
S'|'
p132
NNNI5
I1
I0
tp133
bS'block'
p134
tp135
Rp136
I21
I0
tp137
a(g136
I24
I0
tp138
a(g136
I19
I0
tp139
a(g136
I23
I0
tp140
a(g136
I16
I0
tp141
a(g136
I0
I0
tp142
a(g136
I4
I0
tp143
a(g136
I9
I0
tp144
a(g4
(g5
(S'S9'
p145
I0
I1
tp146
Rp147
(I3
S'|'
p148
NNNI9
I1
I0
tp149
bS'container'
p150
tp151
Rp152
I16
I1
tp153
a(g4
(g5
(S'S5'
p154
I0
I1
tp155
Rp156
(I3
S'|'
p157
NNNI5
I1
I0
tp158
bS'empty'
p159
tp160
Rp161
I0
I0
tp162
a(g4
(g5
(S'S9'
p163
I0
I1
tp164
Rp165
(I3
S'|'
p166
NNNI9
I1
I0
tp167
bS'container'
p168
tp169
Rp170
I21
I0
tp171
a(g4
(g5
(S'S9'
p172
I0
I1
tp173
Rp174
(I3
S'|'
p175
NNNI9
I1
I0
tp176
bS'container'
p177
tp178
Rp179
I19
I1
tp180
a(g4
(g5
(S'S9'
p181
I0
I1
tp182
Rp183
(I3
S'|'
p184
NNNI9
I1
I0
tp185
bS'container'
p186
tp187
Rp188
I24
I0
tp189
a(g4
(g5
(S'S9'
p190
I0
I1
tp191
Rp192
(I3
S'|'
p193
NNNI9
I1
I0
tp194
bS'container'
p195
tp196
Rp197
I23
I0
tp198
a(g4
(g5
(S'S9'
p199
I0
I1
tp200
Rp201
(I3
S'|'
p202
NNNI9
I1
I0
tp203
bS'container'
p204
tp205
Rp206
I4
I0
tp207
a(g4
(g5
(S'S8'
p208
I0
I1
tp209
Rp210
(I3
S'|'
p211
NNNI8
I1
I0
tp212
bS'cylinder'
p213
tp214
Rp215
I21
I1
tp216
a(g215
I24
I1
tp217
a(g215
I19
I1
tp218
a(g215
I23
I1
tp219
a(g215
I16
I1
tp220
a(g215
I0
I1
tp221
a(g215
I4
I1
tp222
a(g215
I9
I1
tp223
a(g4
(g5
(S'S4'
p224
I0
I1
tp225
Rp226
(I3
S'|'
p227
NNNI4
I1
I0
tp228
bS'long'
p229
tp230
Rp231
I19
I0
tp232
a(g4
(g5
(S'S9'
p233
I0
I1
tp234
Rp235
(I3
S'|'
p236
NNNI9
I1
I0
tp237
bS'rectangle'
p238
tp239
Rp240
I21
I0
tp241
a(g240
I24
I0
tp242
a(g240
I19
I0
tp243
a(g240
I23
I0
tp244
a(g240
I16
I0
tp245
a(g240
I0
I0
tp246
a(g240
I4
I0
tp247
a(g240
I9
I0
tp248
a(g4
(g5
(S'S6'
p249
I0
I1
tp250
Rp251
(I3
S'|'
p252
NNNI6
I1
I0
tp253
bS'column'
p254
tp255
Rp256
I9
I0
tp257
a(g4
(g5
(S'S4'
p258
I0
I1
tp259
Rp260
(I3
S'|'
p261
NNNI4
I1
I0
tp262
bS'blue'
p263
tp264
Rp265
I24
I0
tp266
aa(lp267
a.