(lp0
(lp1
(dp2
S'action'
p3
cnumpy.core.multiarray
scalar
p4
(cnumpy
dtype
p5
(S'S4'
p6
I0
I1
tp7
Rp8
(I3
S'|'
p9
NNNI4
I1
I0
tp10
bS'move'
p11
tp12
Rp13
sS'recipient'
p14
NsS'patient'
p15
S'oidx_25'
p16
sS'goal'
p17
S'3512'
p18
sS'source'
p19
S'3406'
p20
sa(dp21
g3
g4
(g5
(S'S5'
p22
I0
I1
tp23
Rp24
(I3
S'|'
p25
NNNI5
I1
I0
tp26
bS'bring'
p27
tp28
Rp29
sg14
S'w'
p30
sg15
S'oidx_6'
p31
sg17
Nsg19
Nsa(dp32
g3
g4
(g5
(S'S4'
p33
I0
I1
tp34
Rp35
(I3
S'|'
p36
NNNI4
I1
I0
tp37
bS'move'
p38
tp39
Rp40
sg14
Nsg15
g16
sg17
S'3414'
p41
sg19
S'3508'
p42
saa(lp43
(dp44
S'all'
p45
(lp46
S'move'
p47
asg15
(lp48
sg17
(lp49
sg19
(lp50
S's'
p51
aS's'
p52
aS's'
p53
asg3
(lp54
sg14
(lp55
sa(dp56
g45
(lp57
S'deliver'
p58
asg15
(lp59
S'blue'
p60
asg17
(lp61
sg19
(lp62
sg3
(lp63
sg14
(lp64
S'w'
p65
asa(dp66
g45
(lp67
S'move'
p68
asg15
(lp69
S'r'
p70
asg17
(lp71
S'yes'
p72
asg19
(lp73
S'r'
p74
asg3
(lp75
sg14
(lp76
saa(lp77
(g4
(g5
(S'S8'
p78
I0
I1
tp79
Rp80
(I3
S'|'
p81
NNNI8
I1
I0
tp82
bS'cylinder'
p83
tp84
Rp85
I16
I0
tp86
a(g4
(g5
(S'S8'
p87
I0
I1
tp88
Rp89
(I3
S'|'
p90
NNNI8
I1
I0
tp91
bS'cylinder'
p92
tp93
Rp94
I9
I0
tp95
a(g4
(g5
(S'S5'
p96
I0
I1
tp97
Rp98
(I3
S'|'
p99
NNNI5
I1
I0
tp100
bS'large'
p101
tp102
Rp103
I9
I0
tp104
a(g4
(g5
(S'S5'
p105
I0
I1
tp106
Rp107
(I3
S'|'
p108
NNNI5
I1
I0
tp109
bS'small'
p110
tp111
Rp112
I21
I1
tp113
a(g4
(g5
(S'S5'
p114
I0
I1
tp115
Rp116
(I3
S'|'
p117
NNNI5
I1
I0
tp118
bS'white'
p119
tp120
Rp121
I23
I1
tp122
a(g4
(g5
(S'S3'
p123
I0
I1
tp124
Rp125
(I3
S'|'
p126
NNNI3
I1
I0
tp127
bS'can'
p128
tp129
Rp130
I0
I1
tp131
a(g4
(g5
(S'S4'
p132
I0
I1
tp133
Rp134
(I3
S'|'
p135
NNNI4
I1
I0
tp136
bS'blue'
p137
tp138
Rp139
I21
I1
tp140
a(g4
(g5
(S'S6'
p141
I0
I1
tp142
Rp143
(I3
S'|'
p144
NNNI6
I1
I0
tp145
bS'coffee'
p146
tp147
Rp148
I4
I1
tp149
a(g4
(g5
(S'S9'
p150
I0
I1
tp151
Rp152
(I3
S'|'
p153
NNNI9
I1
I0
tp154
bS'styrofoam'
p155
tp156
Rp157
I19
I1
tp158
a(g4
(g5
(S'S5'
p159
I0
I1
tp160
Rp161
(I3
S'|'
p162
NNNI5
I1
I0
tp163
bS'brown'
p164
tp165
Rp166
I0
I1
tp167
a(g4
(g5
(S'S5'
p168
I0
I1
tp169
Rp170
(I3
S'|'
p171
NNNI5
I1
I0
tp172
bS'large'
p173
tp174
Rp175
I19
I0
tp176
a(g4
(g5
(S'S5'
p177
I0
I1
tp178
Rp179
(I3
S'|'
p180
NNNI5
I1
I0
tp181
bS'large'
p182
tp183
Rp184
I19
I1
tp185
a(g4
(g5
(S'S5'
p186
I0
I1
tp187
Rp188
(I3
S'|'
p189
NNNI5
I1
I0
tp190
bS'large'
p191
tp192
Rp193
I19
I0
tp194
a(g4
(g5
(S'S5'
p195
I0
I1
tp196
Rp197
(I3
S'|'
p198
NNNI5
I1
I0
tp199
bS'large'
p200
tp201
Rp202
I19
I1
tp203
a(g4
(g5
(S'S5'
p204
I0
I1
tp205
Rp206
(I3
S'|'
p207
NNNI5
I1
I0
tp208
bS'large'
p209
tp210
Rp211
I19
I0
tp212
aa(lp213
(g74
g4
(g5
(S'S5'
p214
I0
I1
tp215
Rp216
(I3
S'|'
p217
NNNI5
I1
I0
tp218
bS'large'
p219
tp220
Rp221
I01
tp222
aa.