(lp0
(lp1
(dp2
S'action'
p3
cnumpy.core.multiarray
scalar
p4
(cnumpy
dtype
p5
(S'S4'
p6
I0
I1
tp7
Rp8
(I3
S'|'
p9
NNNI4
I1
I0
tp10
bS'walk'
p11
tp12
Rp13
sS'recipient'
p14
NsS'patient'
p15
NsS'goal'
p16
S'3436'
p17
sS'source'
p18
Nsa(dp19
g3
g4
(g5
(S'S5'
p20
I0
I1
tp21
Rp22
(I3
S'|'
p23
NNNI5
I1
I0
tp24
bS'bring'
p25
tp26
Rp27
sg14
g4
(g5
(S'S1'
p28
I0
I1
tp29
Rp30
(I3
S'|'
p31
NNNI1
I1
I0
tp32
bS'n'
p33
tp34
Rp35
sg15
g4
(g5
(S'S7'
p36
I0
I1
tp37
Rp38
(I3
S'|'
p39
NNNI7
I1
I0
tp40
bS'oidx_13'
p41
tp42
Rp43
sg16
Nsg18
Nsa(dp44
g3
g4
(g5
(S'S4'
p45
I0
I1
tp46
Rp47
(I3
S'|'
p48
NNNI4
I1
I0
tp49
bS'walk'
p50
tp51
Rp52
sg14
Nsg15
Nsg16
S'3408'
p53
sg18
Nsaa(lp54
(dp55
S'all'
p56
(lp57
S'go to the lab'
p58
asg15
(lp59
sg16
(lp60
S'the laboratory'
p61
aS'the lab'
p62
asg18
(lp63
sg3
(lp64
sg14
(lp65
sa(dp66
g56
(lp67
S'take the can'
p68
asg15
(lp69
S'the blue can'
p70
aS'the blue can'
p71
aS'the tall ble can'
p72
asg16
(lp73
sg18
(lp74
sg3
(lp75
sg14
(lp76
S'yes'
p77
aS'deliver it to n'
p78
aS'dr nancy nagel'
p79
asa(dp80
g56
(lp81
S'go get the coffee can from pod a and take it to pod b'
p82
asg15
(lp83
sg16
(lp84
S'to go the pod'
p85
aS'the red x on the pink map'
p86
aS'go out the door'
p87
aS'leave the room'
p88
aS'take a hike'
p89
asg18
(lp90
sg3
(lp91
sg14
(lp92
saa(lp93
(g4
(g5
(S'S4'
p94
I0
I1
tp95
Rp96
(I3
S'|'
p97
NNNI4
I1
I0
tp98
bS'long'
p99
tp100
Rp101
I23
I1
tp102
a(g4
(g5
(S'S5'
p103
I0
I1
tp104
Rp105
(I3
S'|'
p106
NNNI5
I1
I0
tp107
bS'empty'
p108
tp109
Rp110
I21
I1
tp111
a(g4
(g5
(S'S5'
p112
I0
I1
tp113
Rp114
(I3
S'|'
p115
NNNI5
I1
I0
tp116
bS'empty'
p117
tp118
Rp119
I19
I0
tp120
a(g4
(g5
(S'S8'
p121
I0
I1
tp122
Rp123
(I3
S'|'
p124
NNNI8
I1
I0
tp125
bS'cylinder'
p126
tp127
Rp128
I21
I1
tp129
a(g128
I24
I1
tp130
a(g128
I19
I1
tp131
a(g128
I23
I1
tp132
a(g128
I16
I1
tp133
a(g128
I0
I1
tp134
a(g128
I4
I1
tp135
a(g128
I9
I1
tp136
a(g4
(g5
(S'S5'
p137
I0
I1
tp138
Rp139
(I3
S'|'
p140
NNNI5
I1
I0
tp141
bS'brown'
p142
tp143
Rp144
I19
I0
tp145
a(g4
(g5
(S'S3'
p146
I0
I1
tp147
Rp148
(I3
S'|'
p149
NNNI3
I1
I0
tp150
bS'can'
p151
tp152
Rp153
I16
I0
tp154
a(g4
(g5
(S'S3'
p155
I0
I1
tp156
Rp157
(I3
S'|'
p158
NNNI3
I1
I0
tp159
bS'can'
p160
tp161
Rp162
I21
I0
tp163
a(g4
(g5
(S'S4'
p164
I0
I1
tp165
Rp166
(I3
S'|'
p167
NNNI4
I1
I0
tp168
bS'blue'
p169
tp170
Rp171
I16
I0
tp172
a(g4
(g5
(S'S4'
p173
I0
I1
tp174
Rp175
(I3
S'|'
p176
NNNI4
I1
I0
tp177
bS'blue'
p178
tp179
Rp180
I23
I0
tp181
a(g4
(g5
(S'S3'
p182
I0
I1
tp183
Rp184
(I3
S'|'
p185
NNNI3
I1
I0
tp186
bS'can'
p187
tp188
Rp189
I9
I0
tp190
a(g4
(g5
(S'S9'
p191
I0
I1
tp192
Rp193
(I3
S'|'
p194
NNNI9
I1
I0
tp195
bS'styrofoam'
p196
tp197
Rp198
I16
I0
tp199
a(g4
(g5
(S'S6'
p200
I0
I1
tp201
Rp202
(I3
S'|'
p203
NNNI6
I1
I0
tp204
bS'column'
p205
tp206
Rp207
I24
I0
tp208
a(g4
(g5
(S'S5'
p209
I0
I1
tp210
Rp211
(I3
S'|'
p212
NNNI5
I1
I0
tp213
bS'white'
p214
tp215
Rp216
I21
I1
tp217
a(g4
(g5
(S'S3'
p218
I0
I1
tp219
Rp220
(I3
S'|'
p221
NNNI3
I1
I0
tp222
bS'can'
p223
tp224
Rp225
I19
I0
tp226
a(g4
(g5
(S'S5'
p227
I0
I1
tp228
Rp229
(I3
S'|'
p230
NNNI5
I1
I0
tp231
bS'clear'
p232
tp233
Rp234
I21
I0
tp235
a(g234
I24
I0
tp236
a(g234
I19
I0
tp237
a(g234
I23
I0
tp238
a(g234
I16
I0
tp239
a(g234
I0
I0
tp240
a(g234
I4
I0
tp241
a(g234
I9
I0
tp242
aa(lp243
(S'b'
p244
g4
(g5
(S'S5'
p245
I0
I1
tp246
Rp247
(I3
S'|'
p248
NNNI5
I1
I0
tp249
bS'large'
p250
tp251
Rp252
I00
tp253
a(S'pink'
p254
S'yellow'
p255
I01
tp256
aa.