(lp0
(lp1
(dp2
S'action'
p3
cnumpy.core.multiarray
scalar
p4
(cnumpy
dtype
p5
(S'S5'
p6
I0
I1
tp7
Rp8
(I3
S'|'
p9
NNNI5
I1
I0
tp10
bS'bring'
p11
tp12
Rp13
sS'recipient'
p14
S'd'
p15
sS'patient'
p16
S'oidx_12'
p17
sS'goal'
p18
NsS'source'
p19
Nsaa(lp20
(dp21
S'all'
p22
(lp23
S'hi'
p24
asg16
(lp25
S'yes'
p26
aS'office'
p27
asg18
(lp28
sg19
(lp29
sg3
(lp30
sg14
(lp31
saa(lp32
(g4
(g5
(S'S4'
p33
I0
I1
tp34
Rp35
(I3
S'|'
p36
NNNI4
I1
I0
tp37
bS'blue'
p38
tp39
Rp40
I0
I1
tp41
a(g4
(g5
(S'S5'
p42
I0
I1
tp43
Rp44
(I3
S'|'
p45
NNNI5
I1
I0
tp46
bS'empty'
p47
tp48
Rp49
I9
I1
tp50
a(g4
(g5
(S'S3'
p51
I0
I1
tp52
Rp53
(I3
S'|'
p54
NNNI3
I1
I0
tp55
bS'red'
p56
tp57
Rp58
I24
I0
tp59
a(g4
(g5
(S'S6'
p60
I0
I1
tp61
Rp62
(I3
S'|'
p63
NNNI6
I1
I0
tp64
bS'coffee'
p65
tp66
Rp67
I21
I1
tp68
a(g4
(g5
(S'S5'
p69
I0
I1
tp70
Rp71
(I3
S'|'
p72
NNNI5
I1
I0
tp73
bS'brown'
p74
tp75
Rp76
I0
I1
tp77
aa(lp78
a.