(lp0
(lp1
(dp2
S'action'
p3
cnumpy.core.multiarray
scalar
p4
(cnumpy
dtype
p5
(S'S5'
p6
I0
I1
tp7
Rp8
(I3
S'|'
p9
NNNI5
I1
I0
tp10
bS'bring'
p11
tp12
Rp13
sS'recipient'
p14
S'p'
p15
sS'patient'
p16
S'oidx_25'
p17
sS'goal'
p18
NsS'source'
p19
Nsaa(lp20
(dp21
S'all'
p22
(lp23
S"exit the lab from the north side then turn right and pass person w the pod and then turn left into person s 's office"
p24
asg16
(lp25
S'find a box labeled computer parts'
p26
aS'box of computer parts'
p27
aS'box with robot parts'
p28
asg18
(lp29
sg19
(lp30
sg3
(lp31
sg14
(lp32
S'dr sybil smalt'
p33
asaa(lp34
(g4
(g5
(S'S5'
p35
I0
I1
tp36
Rp37
(I3
S'|'
p38
NNNI5
I1
I0
tp39
bS'brown'
p40
tp41
Rp42
I19
I0
tp43
a(g4
(g5
(S'S5'
p44
I0
I1
tp45
Rp46
(I3
S'|'
p47
NNNI5
I1
I0
tp48
bS'white'
p49
tp50
Rp51
I0
I1
tp52
a(g4
(g5
(S'S6'
p53
I0
I1
tp54
Rp55
(I3
S'|'
p56
NNNI6
I1
I0
tp57
bS'column'
p58
tp59
Rp60
I0
I1
tp61
a(g4
(g5
(S'S3'
p62
I0
I1
tp63
Rp64
(I3
S'|'
p65
NNNI3
I1
I0
tp66
bS'can'
p67
tp68
Rp69
I23
I0
tp70
a(g4
(g5
(S'S3'
p71
I0
I1
tp72
Rp73
(I3
S'|'
p74
NNNI3
I1
I0
tp75
bS'can'
p76
tp77
Rp78
I16
I0
tp79
aa(lp80
(S'labeled'
p81
S'white'
p82
I01
tp83
aa.