(lp0
(lp1
(dp2
S'action'
p3
cnumpy.core.multiarray
scalar
p4
(cnumpy
dtype
p5
(S'S5'
p6
I0
I1
tp7
Rp8
(I3
S'|'
p9
NNNI5
I1
I0
tp10
bS'bring'
p11
tp12
Rp13
sS'recipient'
p14
S'm'
p15
sS'patient'
p16
S'oidx_11'
p17
sS'goal'
p18
NsS'source'
p19
Nsa(dp20
g3
g4
(g5
(S'S4'
p21
I0
I1
tp22
Rp23
(I3
S'|'
p24
NNNI4
I1
I0
tp25
bS'move'
p26
tp27
Rp28
sg14
Nsg16
S'oidx_25'
p29
sg18
S'3506'
p30
sg19
S'3416'
p31
sa(dp32
g3
g4
(g5
(S'S5'
p33
I0
I1
tp34
Rp35
(I3
S'|'
p36
NNNI5
I1
I0
tp37
bS'bring'
p38
tp39
Rp40
sg14
S'p'
p41
sg16
S'oidx_22'
p42
sg18
Nsg19
Nsaa(lp43
(dp44
S'all'
p45
(lp46
S'yes'
p47
asg16
(lp48
S'yes'
p49
asg18
(lp50
sg19
(lp51
sg3
(lp52
sg14
(lp53
S'yes'
p54
asa(dp55
g45
(lp56
S'yes'
p57
asg16
(lp58
sg18
(lp59
S'yes'
p60
asg19
(lp61
S'yes'
p62
aS'yes'
p63
asg3
(lp64
sg14
(lp65
sa(dp66
g45
(lp67
S'yes'
p68
asg16
(lp69
S'yes'
p70
aS'yes'
p71
asg18
(lp72
sg19
(lp73
sg3
(lp74
sg14
(lp75
saa(lp76
(g4
(g5
(S'S3'
p77
I0
I1
tp78
Rp79
(I3
S'|'
p80
NNNI3
I1
I0
tp81
bS'red'
p82
tp83
Rp84
I21
I1
tp85
a(g84
I24
I1
tp86
a(g84
I19
I1
tp87
a(g84
I23
I1
tp88
a(g84
I16
I1
tp89
a(g84
I0
I1
tp90
a(g84
I4
I1
tp91
a(g84
I9
I1
tp92
a(g4
(g5
(S'S5'
p93
I0
I1
tp94
Rp95
(I3
S'|'
p96
NNNI5
I1
I0
tp97
bS'small'
p98
tp99
Rp100
I21
I1
tp101
a(g4
(g5
(S'S5'
p102
I0
I1
tp103
Rp104
(I3
S'|'
p105
NNNI5
I1
I0
tp106
bS'empty'
p107
tp108
Rp109
I21
I1
tp110
a(g4
(g5
(S'S9'
p111
I0
I1
tp112
Rp113
(I3
S'|'
p114
NNNI9
I1
I0
tp115
bS'container'
p116
tp117
Rp118
I23
I1
tp119
a(g4
(g5
(S'S4'
p120
I0
I1
tp121
Rp122
(I3
S'|'
p123
NNNI4
I1
I0
tp124
bS'blue'
p125
tp126
Rp127
I9
I1
tp128
a(g4
(g5
(S'S9'
p129
I0
I1
tp130
Rp131
(I3
S'|'
p132
NNNI9
I1
I0
tp133
bS'rectangle'
p134
tp135
Rp136
I21
I0
tp137
a(g136
I24
I0
tp138
a(g136
I19
I0
tp139
a(g136
I23
I0
tp140
a(g136
I16
I0
tp141
a(g136
I0
I0
tp142
a(g136
I4
I0
tp143
a(g136
I9
I0
tp144
a(g4
(g5
(S'S5'
p145
I0
I1
tp146
Rp147
(I3
S'|'
p148
NNNI5
I1
I0
tp149
bS'white'
p150
tp151
Rp152
I21
I0
tp153
a(g152
I24
I0
tp154
a(g152
I19
I0
tp155
a(g152
I23
I0
tp156
a(g152
I16
I0
tp157
a(g152
I0
I0
tp158
a(g152
I4
I0
tp159
a(g152
I9
I0
tp160
a(g4
(g5
(S'S5'
p161
I0
I1
tp162
Rp163
(I3
S'|'
p164
NNNI5
I1
I0
tp165
bS'empty'
p166
tp167
Rp168
I0
I1
tp169
a(g4
(g5
(S'S4'
p170
I0
I1
tp171
Rp172
(I3
S'|'
p173
NNNI4
I1
I0
tp174
bS'long'
p175
tp176
Rp177
I24
I1
tp178
a(g4
(g5
(S'S9'
p179
I0
I1
tp180
Rp181
(I3
S'|'
p182
NNNI9
I1
I0
tp183
bS'styrofoam'
p184
tp185
Rp186
I4
I1
tp187
a(g4
(g5
(S'S5'
p188
I0
I1
tp189
Rp190
(I3
S'|'
p191
NNNI5
I1
I0
tp192
bS'empty'
p193
tp194
Rp195
I19
I1
tp196
a(g4
(g5
(S'S4'
p197
I0
I1
tp198
Rp199
(I3
S'|'
p200
NNNI4
I1
I0
tp201
bS'bean'
p202
tp203
Rp204
I21
I0
tp205
a(g204
I24
I0
tp206
a(g204
I19
I0
tp207
a(g204
I23
I0
tp208
a(g204
I16
I0
tp209
a(g204
I0
I0
tp210
a(g204
I4
I0
tp211
a(g204
I9
I0
tp212
a(g4
(g5
(S'S5'
p213
I0
I1
tp214
Rp215
(I3
S'|'
p216
NNNI5
I1
I0
tp217
bS'tower'
p218
tp219
Rp220
I21
I0
tp221
a(g220
I24
I0
tp222
a(g220
I19
I0
tp223
a(g220
I23
I0
tp224
a(g220
I16
I0
tp225
a(g220
I0
I0
tp226
a(g220
I4
I0
tp227
a(g220
I9
I0
tp228
a(g4
(g5
(S'S5'
p229
I0
I1
tp230
Rp231
(I3
S'|'
p232
NNNI5
I1
I0
tp233
bS'brown'
p234
tp235
Rp236
I19
I1
tp237
a(g4
(g5
(S'S6'
p238
I0
I1
tp239
Rp240
(I3
S'|'
p241
NNNI6
I1
I0
tp242
bS'yellow'
p243
tp244
Rp245
I21
I0
tp246
a(g245
I24
I0
tp247
a(g245
I19
I0
tp248
a(g245
I23
I0
tp249
a(g245
I16
I0
tp250
a(g245
I0
I0
tp251
a(g245
I4
I0
tp252
a(g245
I9
I0
tp253
aa(lp254
a.