(lp0
(lp1
(dp2
S'action'
p3
cnumpy.core.multiarray
scalar
p4
(cnumpy
dtype
p5
(S'S4'
p6
I0
I1
tp7
Rp8
(I3
S'|'
p9
NNNI4
I1
I0
tp10
bS'move'
p11
tp12
Rp13
sS'recipient'
p14
NsS'patient'
p15
S'oidx_26'
p16
sS'goal'
p17
S'3414'
p18
sS'source'
p19
S'3514'
p20
sa(dp21
g3
g4
(g5
(S'S4'
p22
I0
I1
tp23
Rp24
(I3
S'|'
p25
NNNI4
I1
I0
tp26
bS'walk'
p27
tp28
Rp29
sg14
Nsg15
Nsg17
S'3420'
p30
sg19
Nsa(dp31
g3
g4
(g5
(S'S4'
p32
I0
I1
tp33
Rp34
(I3
S'|'
p35
NNNI4
I1
I0
tp36
bS'move'
p37
tp38
Rp39
sg14
Nsg15
S'oidx_28'
p40
sg17
S'3406'
p41
sg19
S'3408'
p42
saa(lp43
(dp44
S'all'
p45
(lp46
S'yes'
p47
asg15
(lp48
S'yes'
p49
asg17
(lp50
S'yes'
p51
asg19
(lp52
S'yes'
p53
asg3
(lp54
sg14
(lp55
sa(dp56
g45
(lp57
S'yes'
p58
asg15
(lp59
sg17
(lp60
S'yes'
p61
aS'yes'
p62
aS'yes'
p63
aS'yes'
p64
aS'yes'
p65
aS'yes'
p66
aS'yes'
p67
asg19
(lp68
sg3
(lp69
sg14
(lp70
sa(dp71
g45
(lp72
S'yes'
p73
asg15
(lp74
sg17
(lp75
S'yes'
p76
asg19
(lp77
S'yes'
p78
aS'yes'
p79
asg3
(lp80
sg14
(lp81
saa(lp82
(g4
(g5
(S'S5'
p83
I0
I1
tp84
Rp85
(I3
S'|'
p86
NNNI5
I1
I0
tp87
bS'peach'
p88
tp89
Rp90
I4
I1
tp91
a(g4
(g5
(S'S9'
p92
I0
I1
tp93
Rp94
(I3
S'|'
p95
NNNI9
I1
I0
tp96
bS'styrofoam'
p97
tp98
Rp99
I19
I1
tp100
a(g4
(g5
(S'S5'
p101
I0
I1
tp102
Rp103
(I3
S'|'
p104
NNNI5
I1
I0
tp105
bS'clear'
p106
tp107
Rp108
I23
I1
tp109
a(g4
(g5
(S'S5'
p110
I0
I1
tp111
Rp112
(I3
S'|'
p113
NNNI5
I1
I0
tp114
bS'clear'
p115
tp116
Rp117
I19
I1
tp118
a(g4
(g5
(S'S5'
p119
I0
I1
tp120
Rp121
(I3
S'|'
p122
NNNI5
I1
I0
tp123
bS'clear'
p124
tp125
Rp126
I4
I1
tp127
a(g4
(g5
(S'S5'
p128
I0
I1
tp129
Rp130
(I3
S'|'
p131
NNNI5
I1
I0
tp132
bS'peach'
p133
tp134
Rp135
I19
I1
tp136
a(g4
(g5
(S'S3'
p137
I0
I1
tp138
Rp139
(I3
S'|'
p140
NNNI3
I1
I0
tp141
bS'red'
p142
tp143
Rp144
I4
I0
tp145
a(g4
(g5
(S'S5'
p146
I0
I1
tp147
Rp148
(I3
S'|'
p149
NNNI5
I1
I0
tp150
bS'white'
p151
tp152
Rp153
I0
I1
tp154
a(g4
(g5
(S'S3'
p155
I0
I1
tp156
Rp157
(I3
S'|'
p158
NNNI3
I1
I0
tp159
bS'red'
p160
tp161
Rp162
I4
I0
tp163
a(g4
(g5
(S'S3'
p164
I0
I1
tp165
Rp166
(I3
S'|'
p167
NNNI3
I1
I0
tp168
bS'can'
p169
tp170
Rp171
I16
I1
tp172
a(g4
(g5
(S'S8'
p173
I0
I1
tp174
Rp175
(I3
S'|'
p176
NNNI8
I1
I0
tp177
bS'metallic'
p178
tp179
Rp180
I24
I1
tp181
a(g4
(g5
(S'S5'
p182
I0
I1
tp183
Rp184
(I3
S'|'
p185
NNNI5
I1
I0
tp186
bS'brown'
p187
tp188
Rp189
I23
I1
tp190
a(g4
(g5
(S'S5'
p191
I0
I1
tp192
Rp193
(I3
S'|'
p194
NNNI5
I1
I0
tp195
bS'empty'
p196
tp197
Rp198
I0
I1
tp199
a(g4
(g5
(S'S3'
p200
I0
I1
tp201
Rp202
(I3
S'|'
p203
NNNI3
I1
I0
tp204
bS'can'
p205
tp206
Rp207
I0
I1
tp208
a(g4
(g5
(S'S9'
p209
I0
I1
tp210
Rp211
(I3
S'|'
p212
NNNI9
I1
I0
tp213
bS'rectangle'
p214
tp215
Rp216
I9
I1
tp217
aa(lp218
a.