(lp0
(lp1
(dp2
S'action'
p3
cnumpy.core.multiarray
scalar
p4
(cnumpy
dtype
p5
(S'S4'
p6
I0
I1
tp7
Rp8
(I3
S'|'
p9
NNNI4
I1
I0
tp10
bS'walk'
p11
tp12
Rp13
sS'recipient'
p14
NsS'patient'
p15
NsS'goal'
p16
S'3418'
p17
sS'source'
p18
Nsa(dp19
g3
g4
(g5
(S'S5'
p20
I0
I1
tp21
Rp22
(I3
S'|'
p23
NNNI5
I1
I0
tp24
bS'bring'
p25
tp26
Rp27
sg14
S'n'
p28
sg15
S'oidx_25'
p29
sg16
Nsg18
Nsa(dp30
g3
g4
(g5
(S'S4'
p31
I0
I1
tp32
Rp33
(I3
S'|'
p34
NNNI4
I1
I0
tp35
bS'move'
p36
tp37
Rp38
sg14
Nsg15
g4
(g5
(S'S7'
p39
I0
I1
tp40
Rp41
(I3
S'|'
p42
NNNI7
I1
I0
tp43
bS'oidx_11'
p44
tp45
Rp46
sg16
g4
(g5
(S'S5'
p47
I0
I1
tp48
Rp49
(I3
S'|'
p50
NNNI5
I1
I0
tp51
bS'3414a'
p52
tp53
Rp54
sg18
g4
(g5
(S'S4'
p55
I0
I1
tp56
Rp57
(I3
S'|'
p58
NNNI4
I1
I0
tp59
bS'3420'
p60
tp61
Rp62
saa(lp63
(dp64
S'all'
p65
(lp66
S'go to office'
p67
asg15
(lp68
sg16
(lp69
S'go to office'
p70
aS'go to office'
p71
aS'go to office'
p72
aS'go to office'
p73
aS'go to office'
p74
aS'no'
p75
aS'go to office'
p76
aS'no'
p77
aS'go to office'
p78
aS'no'
p79
aS'go towards the office'
p80
aS'go to the office'
p81
aS'office'
p82
aS'no'
p83
aS'go to office'
p84
aS'go to office'
p85
aS'office'
p86
aS'office'
p87
aS'office'
p88
aS'office beside conference'
p89
aS'go to ofice'
p90
aS'go to office'
p91
asg18
(lp92
sg3
(lp93
sg14
(lp94
sa(dp95
g65
(lp96
S'give small bottle with grey cap to n nancy nagel'
p97
asg15
(lp98
S'small bottle with grey cap'
p99
aS'small bottle with grey cap'
p100
aS'small bottle'
p101
aS'small bottle'
p102
aS'small white bottle with grey cap'
p103
asg16
(lp104
sg18
(lp105
sg3
(lp106
sg14
(lp107
sa(dp108
g65
(lp109
S"move empty yellow container from d david 's office to the lab"
p110
asg15
(lp111
S'empty yellow container'
p112
aS'empty yellow container'
p113
aS'empty yellow container'
p114
aS'an empty container'
p115
aS'an empty yellow container'
p116
asg16
(lp117
S'to the lab'
p118
aS'to the lab'
p119
aS'to the lab'
p120
asg18
(lp121
S"from d david 's office"
p122
aS"from d david 's office"
p123
asg3
(lp124
sg14
(lp125
saa(lp126
(g4
(g5
(S'S5'
p127
I0
I1
tp128
Rp129
(I3
S'|'
p130
NNNI5
I1
I0
tp131
bS'large'
p132
tp133
Rp134
I0
I0
tp135
a(g4
(g5
(S'S5'
p136
I0
I1
tp137
Rp138
(I3
S'|'
p139
NNNI5
I1
I0
tp140
bS'white'
p141
tp142
Rp143
I21
I1
tp144
a(g4
(g5
(S'S3'
p145
I0
I1
tp146
Rp147
(I3
S'|'
p148
NNNI3
I1
I0
tp149
bS'red'
p150
tp151
Rp152
I19
I0
tp153
a(g4
(g5
(S'S9'
p154
I0
I1
tp155
Rp156
(I3
S'|'
p157
NNNI9
I1
I0
tp158
bS'container'
p159
tp160
Rp161
I16
I1
tp162
a(g4
(g5
(S'S5'
p163
I0
I1
tp164
Rp165
(I3
S'|'
p166
NNNI5
I1
I0
tp167
bS'clear'
p168
tp169
Rp170
I21
I0
tp171
a(g170
I24
I0
tp172
a(g170
I19
I0
tp173
a(g170
I23
I0
tp174
a(g170
I16
I0
tp175
a(g170
I0
I0
tp176
a(g170
I4
I0
tp177
a(g170
I9
I0
tp178
a(g4
(g5
(S'S5'
p179
I0
I1
tp180
Rp181
(I3
S'|'
p182
NNNI5
I1
I0
tp183
bS'small'
p184
tp185
Rp186
I21
I0
tp187
a(g4
(g5
(S'S5'
p188
I0
I1
tp189
Rp190
(I3
S'|'
p191
NNNI5
I1
I0
tp192
bS'small'
p193
tp194
Rp195
I19
I0
tp196
a(g4
(g5
(S'S5'
p197
I0
I1
tp198
Rp199
(I3
S'|'
p200
NNNI5
I1
I0
tp201
bS'small'
p202
tp203
Rp204
I16
I0
tp205
a(g4
(g5
(S'S5'
p206
I0
I1
tp207
Rp208
(I3
S'|'
p209
NNNI5
I1
I0
tp210
bS'small'
p211
tp212
Rp213
I24
I0
tp214
a(g4
(g5
(S'S9'
p215
I0
I1
tp216
Rp217
(I3
S'|'
p218
NNNI9
I1
I0
tp219
bS'container'
p220
tp221
Rp222
I21
I0
tp223
a(g4
(g5
(S'S6'
p224
I0
I1
tp225
Rp226
(I3
S'|'
p227
NNNI6
I1
I0
tp228
bS'column'
p229
tp230
Rp231
I9
I0
tp232
a(g4
(g5
(S'S6'
p233
I0
I1
tp234
Rp235
(I3
S'|'
p236
NNNI6
I1
I0
tp237
bS'column'
p238
tp239
Rp240
I21
I1
tp241
a(g4
(g5
(S'S5'
p242
I0
I1
tp243
Rp244
(I3
S'|'
p245
NNNI5
I1
I0
tp246
bS'small'
p247
tp248
Rp249
I23
I0
tp250
a(g4
(g5
(S'S4'
p251
I0
I1
tp252
Rp253
(I3
S'|'
p254
NNNI4
I1
I0
tp255
bS'bean'
p256
tp257
Rp258
I21
I0
tp259
a(g258
I24
I0
tp260
a(g258
I19
I0
tp261
a(g258
I23
I0
tp262
a(g258
I16
I0
tp263
a(g258
I0
I0
tp264
a(g258
I4
I0
tp265
a(g258
I9
I0
tp266
a(g4
(g5
(S'S5'
p267
I0
I1
tp268
Rp269
(I3
S'|'
p270
NNNI5
I1
I0
tp271
bS'small'
p272
tp273
Rp274
I4
I0
tp275
aa(lp276
a.