(lp0
(lp1
(dp2
S'action'
p3
cnumpy.core.multiarray
scalar
p4
(cnumpy
dtype
p5
(S'S4'
p6
I0
I1
tp7
Rp8
(I3
S'|'
p9
NNNI4
I1
I0
tp10
bS'walk'
p11
tp12
Rp13
sS'recipient'
p14
NsS'patient'
p15
NsS'goal'
p16
g4
(g5
(S'S4'
p17
I0
I1
tp18
Rp19
(I3
S'|'
p20
NNNI4
I1
I0
tp21
bS'3504'
p22
tp23
Rp24
sS'source'
p25
Nsaa(lp26
(dp27
S'all'
p28
(lp29
S'go to the pod'
p30
asg15
(lp31
sg16
(lp32
S'the pod'
p33
aS'the pod'
p34
aS'the pod'
p35
asg25
(lp36
sg3
(lp37
sg14
(lp38
saa(lp39
(g4
(g5
(S'S6'
p40
I0
I1
tp41
Rp42
(I3
S'|'
p43
NNNI6
I1
I0
tp44
bS'column'
p45
tp46
Rp47
I16
I0
tp48
a(g4
(g5
(S'S5'
p49
I0
I1
tp50
Rp51
(I3
S'|'
p52
NNNI5
I1
I0
tp53
bS'peach'
p54
tp55
Rp56
I21
I0
tp57
a(g56
I24
I0
tp58
a(g56
I19
I0
tp59
a(g56
I23
I0
tp60
a(g56
I16
I0
tp61
a(g56
I0
I0
tp62
a(g56
I4
I0
tp63
a(g56
I9
I0
tp64
a(g4
(g5
(S'S5'
p65
I0
I1
tp66
Rp67
(I3
S'|'
p68
NNNI5
I1
I0
tp69
bS'small'
p70
tp71
Rp72
I21
I0
tp73
a(g4
(g5
(S'S8'
p74
I0
I1
tp75
Rp76
(I3
S'|'
p77
NNNI8
I1
I0
tp78
bS'pringles'
p79
tp80
Rp81
I21
I0
tp82
a(g81
I24
I0
tp83
a(g81
I19
I0
tp84
a(g81
I23
I0
tp85
a(g81
I16
I0
tp86
a(g81
I0
I0
tp87
a(g81
I4
I0
tp88
a(g81
I9
I0
tp89
a(g4
(g5
(S'S5'
p90
I0
I1
tp91
Rp92
(I3
S'|'
p93
NNNI5
I1
I0
tp94
bS'brown'
p95
tp96
Rp97
I9
I0
tp98
aa(lp99
a.