(lp0
(lp1
(dp2
S'action'
p3
cnumpy.core.multiarray
scalar
p4
(cnumpy
dtype
p5
(S'S5'
p6
I0
I1
tp7
Rp8
(I3
S'|'
p9
NNNI5
I1
I0
tp10
bS'bring'
p11
tp12
Rp13
sS'recipient'
p14
g4
(g5
(S'S1'
p15
I0
I1
tp16
Rp17
(I3
S'|'
p18
NNNI1
I1
I0
tp19
bS'b'
p20
tp21
Rp22
sS'patient'
p23
S'oidx_26'
p24
sS'goal'
p25
NsS'source'
p26
Nsaa(lp27
(dp28
S'all'
p29
(lp30
S'go to office b'
p31
asg23
(lp32
S'deliver a cup'
p33
aS'a cup'
p34
asg25
(lp35
sg26
(lp36
sg3
(lp37
sg14
(lp38
S'robert bob brown'
p39
asaa(lp40
(g4
(g5
(S'S5'
p41
I0
I1
tp42
Rp43
(I3
S'|'
p44
NNNI5
I1
I0
tp45
bS'small'
p46
tp47
Rp48
I21
I1
tp49
a(g4
(g5
(S'S4'
p50
I0
I1
tp51
Rp52
(I3
S'|'
p53
NNNI4
I1
I0
tp54
bS'long'
p55
tp56
Rp57
I23
I0
tp58
a(g4
(g5
(S'S6'
p59
I0
I1
tp60
Rp61
(I3
S'|'
p62
NNNI6
I1
I0
tp63
bS'yellow'
p64
tp65
Rp66
I23
I1
tp67
a(g4
(g5
(S'S4'
p68
I0
I1
tp69
Rp70
(I3
S'|'
p71
NNNI4
I1
I0
tp72
bS'long'
p73
tp74
Rp75
I4
I0
tp76
a(g4
(g5
(S'S5'
p77
I0
I1
tp78
Rp79
(I3
S'|'
p80
NNNI5
I1
I0
tp81
bS'white'
p82
tp83
Rp84
I21
I0
tp85
a(g84
I24
I0
tp86
a(g84
I19
I0
tp87
a(g84
I23
I0
tp88
a(g84
I16
I0
tp89
a(g84
I0
I0
tp90
a(g84
I4
I0
tp91
a(g84
I9
I0
tp92
aa(lp93
(S'cup'
p94
S'coffee'
p95
I00
tp96
a(g94
S'container'
p97
I01
tp98
aa.