(lp0
(lp1
(dp2
S'action'
p3
cnumpy.core.multiarray
scalar
p4
(cnumpy
dtype
p5
(S'S5'
p6
I0
I1
tp7
Rp8
(I3
S'|'
p9
NNNI5
I1
I0
tp10
bS'bring'
p11
tp12
Rp13
sS'recipient'
p14
S's'
p15
sS'patient'
p16
S'oidx_25'
p17
sS'goal'
p18
NsS'source'
p19
Nsa(dp20
g3
g4
(g5
(S'S5'
p21
I0
I1
tp22
Rp23
(I3
S'|'
p24
NNNI5
I1
I0
tp25
bS'bring'
p26
tp27
Rp28
sg14
S'b'
p29
sg16
S'oidx_26'
p30
sg18
Nsg19
Nsa(dp31
g3
g4
(g5
(S'S4'
p32
I0
I1
tp33
Rp34
(I3
S'|'
p35
NNNI4
I1
I0
tp36
bS'move'
p37
tp38
Rp39
sg14
Nsg16
g4
(g5
(S'S7'
p40
I0
I1
tp41
Rp42
(I3
S'|'
p43
NNNI7
I1
I0
tp44
bS'oidx_28'
p45
tp46
Rp47
sg18
S'3414a'
p48
sg19
g4
(g5
(S'S4'
p49
I0
I1
tp50
Rp51
(I3
S'|'
p52
NNNI4
I1
I0
tp53
bS'3518'
p54
tp55
Rp56
saa(lp57
(dp58
S'all'
p59
(lp60
S'go to s'
p61
asg16
(lp62
S'yourself'
p63
asg18
(lp64
sg19
(lp65
sg3
(lp66
sg14
(lp67
sa(dp68
g59
(lp69
S'deliver the object to b'
p70
asg16
(lp71
S'container'
p72
aS'container with red top'
p73
asg18
(lp74
sg19
(lp75
sg3
(lp76
sg14
(lp77
sa(dp78
g59
(lp79
S'take the object to the pod'
p80
asg16
(lp81
S'the cylinder'
p82
aS'pringles'
p83
asg18
(lp84
sg19
(lp85
S'move it to the other pod'
p86
aS'move to the pod'
p87
asg3
(lp88
sg14
(lp89
saa(lp90
(g4
(g5
(S'S6'
p91
I0
I1
tp92
Rp93
(I3
S'|'
p94
NNNI6
I1
I0
tp95
bS'column'
p96
tp97
Rp98
I24
I0
tp99
a(g4
(g5
(S'S5'
p100
I0
I1
tp101
Rp102
(I3
S'|'
p103
NNNI5
I1
I0
tp104
bS'spice'
p105
tp106
Rp107
I21
I0
tp108
a(g107
I24
I0
tp109
a(g107
I19
I0
tp110
a(g107
I23
I0
tp111
a(g107
I16
I0
tp112
a(g107
I0
I0
tp113
a(g107
I4
I0
tp114
a(g107
I9
I0
tp115
a(g4
(g5
(S'S5'
p116
I0
I1
tp117
Rp118
(I3
S'|'
p119
NNNI5
I1
I0
tp120
bS'empty'
p121
tp122
Rp123
I0
I0
tp124
a(g4
(g5
(S'S5'
p125
I0
I1
tp126
Rp127
(I3
S'|'
p128
NNNI5
I1
I0
tp129
bS'brown'
p130
tp131
Rp132
I9
I0
tp133
a(g4
(g5
(S'S9'
p134
I0
I1
tp135
Rp136
(I3
S'|'
p137
NNNI9
I1
I0
tp138
bS'styrofoam'
p139
tp140
Rp141
I19
I0
tp142
a(g4
(g5
(S'S9'
p143
I0
I1
tp144
Rp145
(I3
S'|'
p146
NNNI9
I1
I0
tp147
bS'container'
p148
tp149
Rp150
I21
I0
tp151
a(g4
(g5
(S'S9'
p152
I0
I1
tp153
Rp154
(I3
S'|'
p155
NNNI9
I1
I0
tp156
bS'container'
p157
tp158
Rp159
I4
I1
tp160
a(g4
(g5
(S'S9'
p161
I0
I1
tp162
Rp163
(I3
S'|'
p164
NNNI9
I1
I0
tp165
bS'container'
p166
tp167
Rp168
I23
I1
tp169
a(g4
(g5
(S'S9'
p170
I0
I1
tp171
Rp172
(I3
S'|'
p173
NNNI9
I1
I0
tp174
bS'container'
p175
tp176
Rp177
I24
I1
tp178
a(g4
(g5
(S'S9'
p179
I0
I1
tp180
Rp181
(I3
S'|'
p182
NNNI9
I1
I0
tp183
bS'container'
p184
tp185
Rp186
I19
I1
tp187
a(g4
(g5
(S'S9'
p188
I0
I1
tp189
Rp190
(I3
S'|'
p191
NNNI9
I1
I0
tp192
bS'container'
p193
tp194
Rp195
I16
I1
tp196
a(g4
(g5
(S'S9'
p197
I0
I1
tp198
Rp199
(I3
S'|'
p200
NNNI9
I1
I0
tp201
bS'container'
p202
tp203
Rp204
I0
I0
tp205
a(g4
(g5
(S'S5'
p206
I0
I1
tp207
Rp208
(I3
S'|'
p209
NNNI5
I1
I0
tp210
bS'block'
p211
tp212
Rp213
I21
I0
tp214
a(g213
I24
I0
tp215
a(g213
I19
I0
tp216
a(g213
I23
I0
tp217
a(g213
I16
I0
tp218
a(g213
I0
I0
tp219
a(g213
I4
I0
tp220
a(g213
I9
I0
tp221
a(g4
(g5
(S'S3'
p222
I0
I1
tp223
Rp224
(I3
S'|'
p225
NNNI3
I1
I0
tp226
bS'can'
p227
tp228
Rp229
I4
I0
tp230
a(g4
(g5
(S'S8'
p231
I0
I1
tp232
Rp233
(I3
S'|'
p234
NNNI8
I1
I0
tp235
bS'pringles'
p236
tp237
Rp238
I21
I0
tp239
a(g238
I24
I0
tp240
a(g238
I19
I0
tp241
a(g238
I23
I0
tp242
a(g238
I16
I0
tp243
a(g238
I0
I0
tp244
a(g238
I4
I0
tp245
a(g238
I9
I0
tp246
aa(lp247
a.