(lp0
(lp1
(dp2
S'action'
p3
cnumpy.core.multiarray
scalar
p4
(cnumpy
dtype
p5
(S'S4'
p6
I0
I1
tp7
Rp8
(I3
S'|'
p9
NNNI4
I1
I0
tp10
bS'walk'
p11
tp12
Rp13
sS'recipient'
p14
NsS'patient'
p15
NsS'goal'
p16
S'3502'
p17
sS'source'
p18
Nsa(dp19
g3
g4
(g5
(S'S5'
p20
I0
I1
tp21
Rp22
(I3
S'|'
p23
NNNI5
I1
I0
tp24
bS'bring'
p25
tp26
Rp27
sg14
g4
(g5
(S'S1'
p28
I0
I1
tp29
Rp30
(I3
S'|'
p31
NNNI1
I1
I0
tp32
bS'd'
p33
tp34
Rp35
sg15
g4
(g5
(S'S7'
p36
I0
I1
tp37
Rp38
(I3
S'|'
p39
NNNI7
I1
I0
tp40
bS'oidx_28'
p41
tp42
Rp43
sg16
Nsg18
Nsa(dp44
g3
g4
(g5
(S'S5'
p45
I0
I1
tp46
Rp47
(I3
S'|'
p48
NNNI5
I1
I0
tp49
bS'bring'
p50
tp51
Rp52
sg14
S'w'
p53
sg15
g4
(g5
(S'S6'
p54
I0
I1
tp55
Rp56
(I3
S'|'
p57
NNNI6
I1
I0
tp58
bS'oidx_6'
p59
tp60
Rp61
sg16
Nsg18
Nsaa(lp62
(dp63
S'all'
p64
(lp65
S'go down the office hallway and follow it as it turns right and then right again to find office m'
p66
asg15
(lp67
sg16
(lp68
S'office m'
p69
aS'office m'
p70
aS'continue forward and go to office m'
p71
aS'office m'
p72
aS'office m'
p73
aS'move forward'
p74
aS'forward'
p75
aS'office m'
p76
aS'office m'
p77
aS'office m'
p78
aS'forward towards the other offices'
p79
aS'towards the end of the hallway office m'
p80
aS'office m'
p81
aS'office m'
p82
asg18
(lp83
sg3
(lp84
sg14
(lp85
sa(dp86
g64
(lp87
S'give david the tall piece of styrofoam'
p88
asg15
(lp89
S'a white tall piece of styrofoam'
p90
aS'something white'
p91
aS'something white and tall'
p92
asg16
(lp93
sg18
(lp94
sg3
(lp95
sg14
(lp96
S'david'
p97
asa(dp98
g64
(lp99
S'go into the pod next to the lounge find a small red and white bottle and deliver it to walter in office w'
p100
asg15
(lp101
S'a small red and white pill bottle'
p102
aS'a small red and white pill bottle'
p103
aS'a small red and white pill bottle in pod next to the lounge'
p104
aS'a small red and white pill bottle in pod next to the lounge'
p105
aS'a small red and white pill bottle in pod next to the lounge'
p106
aS'a small red and white pill bottle in the pod next to the lounge'
p107
aS'a snall red and white bottle'
p108
asg16
(lp109
sg18
(lp110
sg3
(lp111
sg14
(lp112
saa(lp113
(g4
(g5
(S'S4'
p114
I0
I1
tp115
Rp116
(I3
S'|'
p117
NNNI4
I1
I0
tp118
bS'long'
p119
tp120
Rp121
I16
I0
tp122
a(g4
(g5
(S'S6'
p123
I0
I1
tp124
Rp125
(I3
S'|'
p126
NNNI6
I1
I0
tp127
bS'column'
p128
tp129
Rp130
I21
I0
tp131
a(g4
(g5
(S'S4'
p132
I0
I1
tp133
Rp134
(I3
S'|'
p135
NNNI4
I1
I0
tp136
bS'blue'
p137
tp138
Rp139
I19
I0
tp140
a(g4
(g5
(S'S4'
p141
I0
I1
tp142
Rp143
(I3
S'|'
p144
NNNI4
I1
I0
tp145
bS'bean'
p146
tp147
Rp148
I24
I1
tp149
a(g4
(g5
(S'S9'
p150
I0
I1
tp151
Rp152
(I3
S'|'
p153
NNNI9
I1
I0
tp154
bS'styrofoam'
p155
tp156
Rp157
I23
I0
tp158
a(g4
(g5
(S'S5'
p159
I0
I1
tp160
Rp161
(I3
S'|'
p162
NNNI5
I1
I0
tp163
bS'tower'
p164
tp165
Rp166
I21
I0
tp167
a(g166
I24
I0
tp168
a(g166
I19
I0
tp169
a(g166
I23
I0
tp170
a(g166
I16
I0
tp171
a(g166
I0
I0
tp172
a(g166
I4
I0
tp173
a(g166
I9
I0
tp174
a(g4
(g5
(S'S3'
p175
I0
I1
tp176
Rp177
(I3
S'|'
p178
NNNI3
I1
I0
tp179
bS'can'
p180
tp181
Rp182
I9
I1
tp183
a(g4
(g5
(S'S4'
p184
I0
I1
tp185
Rp186
(I3
S'|'
p187
NNNI4
I1
I0
tp188
bS'blue'
p189
tp190
Rp191
I21
I0
tp192
a(g4
(g5
(S'S5'
p193
I0
I1
tp194
Rp195
(I3
S'|'
p196
NNNI5
I1
I0
tp197
bS'large'
p198
tp199
Rp200
I0
I0
tp201
a(g4
(g5
(S'S8'
p202
I0
I1
tp203
Rp204
(I3
S'|'
p205
NNNI8
I1
I0
tp206
bS'cylinder'
p207
tp208
Rp209
I21
I1
tp210
a(g209
I24
I1
tp211
a(g209
I19
I1
tp212
a(g209
I23
I1
tp213
a(g209
I16
I1
tp214
a(g209
I0
I1
tp215
a(g209
I4
I1
tp216
a(g209
I9
I1
tp217
a(g4
(g5
(S'S9'
p218
I0
I1
tp219
Rp220
(I3
S'|'
p221
NNNI9
I1
I0
tp222
bS'container'
p223
tp224
Rp225
I21
I0
tp226
a(g4
(g5
(S'S9'
p227
I0
I1
tp228
Rp229
(I3
S'|'
p230
NNNI9
I1
I0
tp231
bS'container'
p232
tp233
Rp234
I23
I0
tp235
a(g4
(g5
(S'S3'
p236
I0
I1
tp237
Rp238
(I3
S'|'
p239
NNNI3
I1
I0
tp240
bS'red'
p241
tp242
Rp243
I9
I0
tp244
a(g4
(g5
(S'S5'
p245
I0
I1
tp246
Rp247
(I3
S'|'
p248
NNNI5
I1
I0
tp249
bS'small'
p250
tp251
Rp252
I21
I0
tp253
a(g4
(g5
(S'S9'
p254
I0
I1
tp255
Rp256
(I3
S'|'
p257
NNNI9
I1
I0
tp258
bS'container'
p259
tp260
Rp261
I16
I1
tp262
aa(lp263
a.