(lp0
(lp1
(dp2
S'action'
p3
cnumpy.core.multiarray
scalar
p4
(cnumpy
dtype
p5
(S'S4'
p6
I0
I1
tp7
Rp8
(I3
S'|'
p9
NNNI4
I1
I0
tp10
bS'move'
p11
tp12
Rp13
sS'recipient'
p14
NsS'patient'
p15
g4
(g5
(S'S7'
p16
I0
I1
tp17
Rp18
(I3
S'|'
p19
NNNI7
I1
I0
tp20
bS'oidx_28'
p21
tp22
Rp23
sS'goal'
p24
S'3406'
p25
sS'source'
p26
S'3404'
p27
sa(dp28
g3
g4
(g5
(S'S5'
p29
I0
I1
tp30
Rp31
(I3
S'|'
p32
NNNI5
I1
I0
tp33
bS'bring'
p34
tp35
Rp36
sg14
S'n'
p37
sg15
S'oidx_28'
p38
sg24
Nsg26
Nsa(dp39
g3
g4
(g5
(S'S5'
p40
I0
I1
tp41
Rp42
(I3
S'|'
p43
NNNI5
I1
I0
tp44
bS'bring'
p45
tp46
Rp47
sg14
S'm'
p48
sg15
g4
(g5
(S'S7'
p49
I0
I1
tp50
Rp51
(I3
S'|'
p52
NNNI7
I1
I0
tp53
bS'oidx_28'
p54
tp55
Rp56
sg24
Nsg26
Nsaa(lp57
(dp58
S'all'
p59
(lp60
S'sleep'
p61
asg15
(lp62
S'bag'
p63
aS'yes'
p64
aS'bag'
p65
asg24
(lp66
sg26
(lp67
sg3
(lp68
sg14
(lp69
sa(dp70
g59
(lp71
S'sleep'
p72
asg15
(lp73
S'container'
p74
asg24
(lp75
sg26
(lp76
sg3
(lp77
sg14
(lp78
S'office'
p79
asa(dp80
g59
(lp81
S'sleep'
p82
asg15
(lp83
S'bag'
p84
aS'bag'
p85
asg24
(lp86
sg26
(lp87
sg3
(lp88
sg14
(lp89
saa(lp90
(g4
(g5
(S'S9'
p91
I0
I1
tp92
Rp93
(I3
S'|'
p94
NNNI9
I1
I0
tp95
bS'container'
p96
tp97
Rp98
I21
I1
tp99
a(g4
(g5
(S'S9'
p100
I0
I1
tp101
Rp102
(I3
S'|'
p103
NNNI9
I1
I0
tp104
bS'container'
p105
tp106
Rp107
I19
I1
tp108
a(g4
(g5
(S'S9'
p109
I0
I1
tp110
Rp111
(I3
S'|'
p112
NNNI9
I1
I0
tp113
bS'container'
p114
tp115
Rp116
I16
I1
tp117
a(g4
(g5
(S'S9'
p118
I0
I1
tp119
Rp120
(I3
S'|'
p121
NNNI9
I1
I0
tp122
bS'container'
p123
tp124
Rp125
I24
I0
tp126
a(g4
(g5
(S'S9'
p127
I0
I1
tp128
Rp129
(I3
S'|'
p130
NNNI9
I1
I0
tp131
bS'container'
p132
tp133
Rp134
I4
I1
tp135
a(g4
(g5
(S'S9'
p136
I0
I1
tp137
Rp138
(I3
S'|'
p139
NNNI9
I1
I0
tp140
bS'container'
p141
tp142
Rp143
I23
I1
tp144
a(g4
(g5
(S'S6'
p145
I0
I1
tp146
Rp147
(I3
S'|'
p148
NNNI6
I1
I0
tp149
bS'column'
p150
tp151
Rp152
I16
I0
tp153
a(g4
(g5
(S'S5'
p154
I0
I1
tp155
Rp156
(I3
S'|'
p157
NNNI5
I1
I0
tp158
bS'peach'
p159
tp160
Rp161
I24
I1
tp162
a(g4
(g5
(S'S3'
p163
I0
I1
tp164
Rp165
(I3
S'|'
p166
NNNI3
I1
I0
tp167
bS'can'
p168
tp169
Rp170
I23
I0
tp171
a(g4
(g5
(S'S4'
p172
I0
I1
tp173
Rp174
(I3
S'|'
p175
NNNI4
I1
I0
tp176
bS'blue'
p177
tp178
Rp179
I21
I0
tp180
a(g4
(g5
(S'S5'
p181
I0
I1
tp182
Rp183
(I3
S'|'
p184
NNNI5
I1
I0
tp185
bS'white'
p186
tp187
Rp188
I0
I1
tp189
a(g4
(g5
(S'S8'
p190
I0
I1
tp191
Rp192
(I3
S'|'
p193
NNNI8
I1
I0
tp194
bS'pringles'
p195
tp196
Rp197
I9
I1
tp198
a(g4
(g5
(S'S8'
p199
I0
I1
tp200
Rp201
(I3
S'|'
p202
NNNI8
I1
I0
tp203
bS'cylinder'
p204
tp205
Rp206
I9
I0
tp207
a(g4
(g5
(S'S5'
p208
I0
I1
tp209
Rp210
(I3
S'|'
p211
NNNI5
I1
I0
tp212
bS'brown'
p213
tp214
Rp215
I9
I1
tp216
a(g4
(g5
(S'S4'
p217
I0
I1
tp218
Rp219
(I3
S'|'
p220
NNNI4
I1
I0
tp221
bS'blue'
p222
tp223
Rp224
I19
I1
tp225
aa(lp226
(g61
g4
(g5
(S'S6'
p227
I0
I1
tp228
Rp229
(I3
S'|'
p230
NNNI6
I1
I0
tp231
bS'object'
p232
tp233
Rp234
I01
tp235
a(g63
S'color'
p236
I01
tp237
aa.