(lp0
(lp1
(dp2
S'action'
p3
cnumpy.core.multiarray
scalar
p4
(cnumpy
dtype
p5
(S'S4'
p6
I0
I1
tp7
Rp8
(I3
S'|'
p9
NNNI4
I1
I0
tp10
bS'walk'
p11
tp12
Rp13
sS'recipient'
p14
NsS'patient'
p15
NsS'goal'
p16
g4
(g5
(S'S5'
p17
I0
I1
tp18
Rp19
(I3
S'|'
p20
NNNI5
I1
I0
tp21
bS'3414b'
p22
tp23
Rp24
sS'source'
p25
Nsa(dp26
g3
g4
(g5
(S'S4'
p27
I0
I1
tp28
Rp29
(I3
S'|'
p30
NNNI4
I1
I0
tp31
bS'move'
p32
tp33
Rp34
sg14
Nsg15
g4
(g5
(S'S7'
p35
I0
I1
tp36
Rp37
(I3
S'|'
p38
NNNI7
I1
I0
tp39
bS'oidx_26'
p40
tp41
Rp42
sg16
g4
(g5
(S'S4'
p43
I0
I1
tp44
Rp45
(I3
S'|'
p46
NNNI4
I1
I0
tp47
bS'3502'
p48
tp49
Rp50
sg25
S'3414a'
p51
sa(dp52
g3
g4
(g5
(S'S4'
p53
I0
I1
tp54
Rp55
(I3
S'|'
p56
NNNI4
I1
I0
tp57
bS'move'
p58
tp59
Rp60
sg14
Nsg15
g4
(g5
(S'S7'
p61
I0
I1
tp62
Rp63
(I3
S'|'
p64
NNNI7
I1
I0
tp65
bS'oidx_13'
p66
tp67
Rp68
sg16
S'3424'
p69
sg25
S'3406'
p70
saa(lp71
(dp72
S'all'
p73
(lp74
S'go to the lab next to the kitchen'
p75
asg15
(lp76
sg16
(lp77
S'go to lab next to kitchen'
p78
aS'the lab to the right of the kitchen'
p79
aS'the lab next to the lab and kitchen'
p80
aS'the lab next to the kitchen'
p81
aS'the lab across from the lab and conference room'
p82
aS'the lab across from dr sybil smalt office'
p83
asg25
(lp84
sg3
(lp85
sg14
(lp86
sa(dp87
g73
(lp88
S"move red can to mal 's office"
p89
asg15
(lp90
S"move red can to mal 's office"
p91
aS'can'
p92
asg16
(lp93
S'bring to mal'
p94
aS'mal'
p95
aS"to mal 's office"
p96
asg25
(lp97
sg3
(lp98
sg14
(lp99
sa(dp100
g73
(lp101
S'move pringles'
p102
asg15
(lp103
S'pringles'
p104
aS'pringles'
p105
asg16
(lp106
S'pod between walter ward and dr smalt'
p107
asg25
(lp108
sg3
(lp109
sg14
(lp110
saa(lp111
(g4
(g5
(S'S4'
p112
I0
I1
tp113
Rp114
(I3
S'|'
p115
NNNI4
I1
I0
tp116
bS'long'
p117
tp118
Rp119
I23
I1
tp120
a(g4
(g5
(S'S9'
p121
I0
I1
tp122
Rp123
(I3
S'|'
p124
NNNI9
I1
I0
tp125
bS'container'
p126
tp127
Rp128
I21
I0
tp129
a(g4
(g5
(S'S5'
p130
I0
I1
tp131
Rp132
(I3
S'|'
p133
NNNI5
I1
I0
tp134
bS'empty'
p135
tp136
Rp137
I4
I0
tp138
a(g4
(g5
(S'S9'
p139
I0
I1
tp140
Rp141
(I3
S'|'
p142
NNNI9
I1
I0
tp143
bS'styrofoam'
p144
tp145
Rp146
I0
I0
tp147
a(g4
(g5
(S'S5'
p148
I0
I1
tp149
Rp150
(I3
S'|'
p151
NNNI5
I1
I0
tp152
bS'block'
p153
tp154
Rp155
I21
I0
tp156
a(g155
I24
I0
tp157
a(g155
I19
I0
tp158
a(g155
I23
I0
tp159
a(g155
I16
I0
tp160
a(g155
I0
I0
tp161
a(g155
I4
I0
tp162
a(g155
I9
I0
tp163
a(g4
(g5
(S'S3'
p164
I0
I1
tp165
Rp166
(I3
S'|'
p167
NNNI3
I1
I0
tp168
bS'can'
p169
tp170
Rp171
I23
I0
tp172
a(g4
(g5
(S'S3'
p173
I0
I1
tp174
Rp175
(I3
S'|'
p176
NNNI3
I1
I0
tp177
bS'can'
p178
tp179
Rp180
I19
I0
tp181
a(g4
(g5
(S'S3'
p182
I0
I1
tp183
Rp184
(I3
S'|'
p185
NNNI3
I1
I0
tp186
bS'can'
p187
tp188
Rp189
I0
I0
tp190
a(g4
(g5
(S'S3'
p191
I0
I1
tp192
Rp193
(I3
S'|'
p194
NNNI3
I1
I0
tp195
bS'can'
p196
tp197
Rp198
I16
I0
tp199
a(g4
(g5
(S'S3'
p200
I0
I1
tp201
Rp202
(I3
S'|'
p203
NNNI3
I1
I0
tp204
bS'can'
p205
tp206
Rp207
I9
I0
tp208
a(g4
(g5
(S'S8'
p209
I0
I1
tp210
Rp211
(I3
S'|'
p212
NNNI8
I1
I0
tp213
bS'pringles'
p214
tp215
Rp216
I21
I0
tp217
a(g216
I24
I0
tp218
a(g216
I19
I0
tp219
a(g216
I23
I0
tp220
a(g216
I16
I0
tp221
a(g216
I0
I0
tp222
a(g216
I4
I0
tp223
a(g216
I9
I0
tp224
a(g4
(g5
(S'S5'
p225
I0
I1
tp226
Rp227
(I3
S'|'
p228
NNNI5
I1
I0
tp229
bS'empty'
p230
tp231
Rp232
I21
I0
tp233
a(g4
(g5
(S'S5'
p234
I0
I1
tp235
Rp236
(I3
S'|'
p237
NNNI5
I1
I0
tp238
bS'brown'
p239
tp240
Rp241
I21
I0
tp242
a(g4
(g5
(S'S6'
p243
I0
I1
tp244
Rp245
(I3
S'|'
p246
NNNI6
I1
I0
tp247
bS'coffee'
p248
tp249
Rp250
I9
I1
tp251
a(g4
(g5
(S'S6'
p252
I0
I1
tp253
Rp254
(I3
S'|'
p255
NNNI6
I1
I0
tp256
bS'column'
p257
tp258
Rp259
I9
I0
tp260
aa(lp261
a.