(lp0
(lp1
(dp2
S'action'
p3
cnumpy.core.multiarray
scalar
p4
(cnumpy
dtype
p5
(S'S4'
p6
I0
I1
tp7
Rp8
(I3
S'|'
p9
NNNI4
I1
I0
tp10
bS'walk'
p11
tp12
Rp13
sS'recipient'
p14
NsS'patient'
p15
NsS'goal'
p16
g4
(g5
(S'S4'
p17
I0
I1
tp18
Rp19
(I3
S'|'
p20
NNNI4
I1
I0
tp21
bS'3506'
p22
tp23
Rp24
sS'source'
p25
Nsa(dp26
g3
g4
(g5
(S'S5'
p27
I0
I1
tp28
Rp29
(I3
S'|'
p30
NNNI5
I1
I0
tp31
bS'bring'
p32
tp33
Rp34
sg14
S'w'
p35
sg15
g4
(g5
(S'S7'
p36
I0
I1
tp37
Rp38
(I3
S'|'
p39
NNNI7
I1
I0
tp40
bS'oidx_25'
p41
tp42
Rp43
sg16
Nsg25
Nsa(dp44
g3
g4
(g5
(S'S5'
p45
I0
I1
tp46
Rp47
(I3
S'|'
p48
NNNI5
I1
I0
tp49
bS'bring'
p50
tp51
Rp52
sg14
g4
(g5
(S'S1'
p53
I0
I1
tp54
Rp55
(I3
S'|'
p56
NNNI1
I1
I0
tp57
bS'p'
p58
tp59
Rp60
sg15
g4
(g5
(S'S7'
p61
I0
I1
tp62
Rp63
(I3
S'|'
p64
NNNI7
I1
I0
tp65
bS'oidx_12'
p66
tp67
Rp68
sg16
Nsg25
Nsaa(lp69
(dp70
S'all'
p71
(lp72
S'please go to the printer room'
p73
asg15
(lp74
sg16
(lp75
sg25
(lp76
sg3
(lp77
sg14
(lp78
sa(dp79
g71
(lp80
S'walter ward needs the container with the red top'
p81
asg15
(lp82
S'a container with a red top'
p83
aS'a long container with a red top'
p84
asg16
(lp85
sg25
(lp86
sg3
(lp87
sg14
(lp88
S'walter ward'
p89
aS'it is the wrong item'
p90
aS'please get the item that has a red top'
p91
aS'that is the wrong item'
p92
asa(dp93
g71
(lp94
S'please find the item that is a long container that has a red cap'
p95
asg15
(lp96
S'a container with a red top'
p97
aS'a container with a red top'
p98
aS'a container with a red top'
p99
asg16
(lp100
sg25
(lp101
sg3
(lp102
sg14
(lp103
S'peggy parker'
p104
asaa(lp105
(g4
(g5
(S'S5'
p106
I0
I1
tp107
Rp108
(I3
S'|'
p109
NNNI5
I1
I0
tp110
bS'clear'
p111
tp112
Rp113
I21
I0
tp114
a(g113
I24
I0
tp115
a(g113
I19
I0
tp116
a(g113
I23
I0
tp117
a(g113
I16
I0
tp118
a(g113
I0
I0
tp119
a(g113
I4
I0
tp120
a(g113
I9
I0
tp121
a(g4
(g5
(S'S9'
p122
I0
I1
tp123
Rp124
(I3
S'|'
p125
NNNI9
I1
I0
tp126
bS'container'
p127
tp128
Rp129
I19
I1
tp130
a(g4
(g5
(S'S5'
p131
I0
I1
tp132
Rp133
(I3
S'|'
p134
NNNI5
I1
I0
tp135
bS'large'
p136
tp137
Rp138
I0
I0
tp139
a(g4
(g5
(S'S4'
p140
I0
I1
tp141
Rp142
(I3
S'|'
p143
NNNI4
I1
I0
tp144
bS'long'
p145
tp146
Rp147
I21
I1
tp148
a(g4
(g5
(S'S9'
p149
I0
I1
tp150
Rp151
(I3
S'|'
p152
NNNI9
I1
I0
tp153
bS'rectangle'
p154
tp155
Rp156
I21
I0
tp157
a(g156
I24
I0
tp158
a(g156
I19
I0
tp159
a(g156
I23
I0
tp160
a(g156
I16
I0
tp161
a(g156
I0
I0
tp162
a(g156
I4
I0
tp163
a(g156
I9
I0
tp164
a(g4
(g5
(S'S9'
p165
I0
I1
tp166
Rp167
(I3
S'|'
p168
NNNI9
I1
I0
tp169
bS'container'
p170
tp171
Rp172
I16
I1
tp173
a(g4
(g5
(S'S9'
p174
I0
I1
tp175
Rp176
(I3
S'|'
p177
NNNI9
I1
I0
tp178
bS'container'
p179
tp180
Rp181
I23
I1
tp182
a(g4
(g5
(S'S3'
p183
I0
I1
tp184
Rp185
(I3
S'|'
p186
NNNI3
I1
I0
tp187
bS'red'
p188
tp189
Rp190
I9
I0
tp191
a(g4
(g5
(S'S9'
p192
I0
I1
tp193
Rp194
(I3
S'|'
p195
NNNI9
I1
I0
tp196
bS'container'
p197
tp198
Rp199
I21
I1
tp200
a(g4
(g5
(S'S3'
p201
I0
I1
tp202
Rp203
(I3
S'|'
p204
NNNI3
I1
I0
tp205
bS'red'
p206
tp207
Rp208
I4
I0
tp209
a(g4
(g5
(S'S9'
p210
I0
I1
tp211
Rp212
(I3
S'|'
p213
NNNI9
I1
I0
tp214
bS'container'
p215
tp216
Rp217
I24
I1
tp218
a(g4
(g5
(S'S3'
p219
I0
I1
tp220
Rp221
(I3
S'|'
p222
NNNI3
I1
I0
tp223
bS'red'
p224
tp225
Rp226
I16
I0
tp227
a(g4
(g5
(S'S3'
p228
I0
I1
tp229
Rp230
(I3
S'|'
p231
NNNI3
I1
I0
tp232
bS'red'
p233
tp234
Rp235
I19
I1
tp236
a(g4
(g5
(S'S3'
p237
I0
I1
tp238
Rp239
(I3
S'|'
p240
NNNI3
I1
I0
tp241
bS'red'
p242
tp243
Rp244
I19
I0
tp245
a(g4
(g5
(S'S3'
p246
I0
I1
tp247
Rp248
(I3
S'|'
p249
NNNI3
I1
I0
tp250
bS'red'
p251
tp252
Rp253
I16
I1
tp254
aa(lp255
a.