(lp0
(lp1
(dp2
S'action'
p3
cnumpy.core.multiarray
scalar
p4
(cnumpy
dtype
p5
(S'S4'
p6
I0
I1
tp7
Rp8
(I3
S'|'
p9
NNNI4
I1
I0
tp10
bS'walk'
p11
tp12
Rp13
sS'recipient'
p14
NsS'patient'
p15
NsS'goal'
p16
S'3414a'
p17
sS'source'
p18
Nsa(dp19
g3
g4
(g5
(S'S5'
p20
I0
I1
tp21
Rp22
(I3
S'|'
p23
NNNI5
I1
I0
tp24
bS'bring'
p25
tp26
Rp27
sg14
S'n'
p28
sg15
g4
(g5
(S'S7'
p29
I0
I1
tp30
Rp31
(I3
S'|'
p32
NNNI7
I1
I0
tp33
bS'oidx_13'
p34
tp35
Rp36
sg16
Nsg18
Nsaa(lp37
(dp38
S'all'
p39
(lp40
S'go to the lab'
p41
asg15
(lp42
sg16
(lp43
S'to the lab'
p44
asg18
(lp45
sg3
(lp46
sg14
(lp47
sa(dp48
g39
(lp49
S'take the object to peggy parker'
p50
asg15
(lp51
S'the container with the red top'
p52
aS'the container'
p53
asg16
(lp54
sg18
(lp55
sg3
(lp56
sg14
(lp57
saa(lp58
(g4
(g5
(S'S4'
p59
I0
I1
tp60
Rp61
(I3
S'|'
p62
NNNI4
I1
I0
tp63
bS'long'
p64
tp65
Rp66
I16
I0
tp67
a(g4
(g5
(S'S6'
p68
I0
I1
tp69
Rp70
(I3
S'|'
p71
NNNI6
I1
I0
tp72
bS'column'
p73
tp74
Rp75
I23
I0
tp76
a(g4
(g5
(S'S4'
p77
I0
I1
tp78
Rp79
(I3
S'|'
p80
NNNI4
I1
I0
tp81
bS'blue'
p82
tp83
Rp84
I21
I0
tp85
a(g4
(g5
(S'S5'
p86
I0
I1
tp87
Rp88
(I3
S'|'
p89
NNNI5
I1
I0
tp90
bS'brown'
p91
tp92
Rp93
I9
I0
tp94
a(g4
(g5
(S'S5'
p95
I0
I1
tp96
Rp97
(I3
S'|'
p98
NNNI5
I1
I0
tp99
bS'peach'
p100
tp101
Rp102
I21
I0
tp103
a(g102
I24
I0
tp104
a(g102
I19
I0
tp105
a(g102
I23
I0
tp106
a(g102
I16
I0
tp107
a(g102
I0
I0
tp108
a(g102
I4
I0
tp109
a(g102
I9
I0
tp110
a(g4
(g5
(S'S9'
p111
I0
I1
tp112
Rp113
(I3
S'|'
p114
NNNI9
I1
I0
tp115
bS'container'
p116
tp117
Rp118
I19
I1
tp119
a(g4
(g5
(S'S9'
p120
I0
I1
tp121
Rp122
(I3
S'|'
p123
NNNI9
I1
I0
tp124
bS'container'
p125
tp126
Rp127
I21
I1
tp128
a(g4
(g5
(S'S9'
p129
I0
I1
tp130
Rp131
(I3
S'|'
p132
NNNI9
I1
I0
tp133
bS'container'
p134
tp135
Rp136
I24
I1
tp137
a(g4
(g5
(S'S9'
p138
I0
I1
tp139
Rp140
(I3
S'|'
p141
NNNI9
I1
I0
tp142
bS'container'
p143
tp144
Rp145
I16
I1
tp146
a(g4
(g5
(S'S9'
p147
I0
I1
tp148
Rp149
(I3
S'|'
p150
NNNI9
I1
I0
tp151
bS'container'
p152
tp153
Rp154
I23
I1
tp155
aa(lp156
a.