(lp0
(lp1
(dp2
S'action'
p3
cnumpy.core.multiarray
scalar
p4
(cnumpy
dtype
p5
(S'S4'
p6
I0
I1
tp7
Rp8
(I3
S'|'
p9
NNNI4
I1
I0
tp10
bS'walk'
p11
tp12
Rp13
sS'recipient'
p14
NsS'patient'
p15
NsS'goal'
p16
g4
(g5
(S'S4'
p17
I0
I1
tp18
Rp19
(I3
S'|'
p20
NNNI4
I1
I0
tp21
bS'3422'
p22
tp23
Rp24
sS'source'
p25
Nsa(dp26
g3
g4
(g5
(S'S5'
p27
I0
I1
tp28
Rp29
(I3
S'|'
p30
NNNI5
I1
I0
tp31
bS'bring'
p32
tp33
Rp34
sg14
g4
(g5
(S'S1'
p35
I0
I1
tp36
Rp37
(I3
S'|'
p38
NNNI1
I1
I0
tp39
bS'n'
p40
tp41
Rp42
sg15
g4
(g5
(S'S7'
p43
I0
I1
tp44
Rp45
(I3
S'|'
p46
NNNI7
I1
I0
tp47
bS'oidx_26'
p48
tp49
Rp50
sg16
Nsg25
Nsaa(lp51
(dp52
S'all'
p53
(lp54
S'go to walter ward office'
p55
asg15
(lp56
sg16
(lp57
S'walter ward office'
p58
asg25
(lp59
sg3
(lp60
sg14
(lp61
sa(dp62
g53
(lp63
S'bring the soda can to nancy nagel'
p64
asg15
(lp65
S'can'
p66
aS'soda can'
p67
asg16
(lp68
sg25
(lp69
sg3
(lp70
sg14
(lp71
S'nancy nagel'
p72
asaa(lp73
(g4
(g5
(S'S9'
p74
I0
I1
tp75
Rp76
(I3
S'|'
p77
NNNI9
I1
I0
tp78
bS'rectangle'
p79
tp80
Rp81
I21
I0
tp82
a(g81
I24
I0
tp83
a(g81
I19
I0
tp84
a(g81
I23
I0
tp85
a(g81
I16
I0
tp86
a(g81
I0
I0
tp87
a(g81
I4
I0
tp88
a(g81
I9
I0
tp89
a(g4
(g5
(S'S4'
p90
I0
I1
tp91
Rp92
(I3
S'|'
p93
NNNI4
I1
I0
tp94
bS'long'
p95
tp96
Rp97
I23
I0
tp98
a(g4
(g5
(S'S5'
p99
I0
I1
tp100
Rp101
(I3
S'|'
p102
NNNI5
I1
I0
tp103
bS'brown'
p104
tp105
Rp106
I0
I0
tp107
a(g4
(g5
(S'S9'
p108
I0
I1
tp109
Rp110
(I3
S'|'
p111
NNNI9
I1
I0
tp112
bS'styrofoam'
p113
tp114
Rp115
I23
I0
tp116
a(g4
(g5
(S'S5'
p117
I0
I1
tp118
Rp119
(I3
S'|'
p120
NNNI5
I1
I0
tp121
bS'brown'
p122
tp123
Rp124
I19
I0
tp125
a(g4
(g5
(S'S3'
p126
I0
I1
tp127
Rp128
(I3
S'|'
p129
NNNI3
I1
I0
tp130
bS'can'
p131
tp132
Rp133
I19
I0
tp134
a(g4
(g5
(S'S3'
p135
I0
I1
tp136
Rp137
(I3
S'|'
p138
NNNI3
I1
I0
tp139
bS'can'
p140
tp141
Rp142
I23
I0
tp143
a(g4
(g5
(S'S3'
p144
I0
I1
tp145
Rp146
(I3
S'|'
p147
NNNI3
I1
I0
tp148
bS'can'
p149
tp150
Rp151
I4
I0
tp152
a(g4
(g5
(S'S3'
p153
I0
I1
tp154
Rp155
(I3
S'|'
p156
NNNI3
I1
I0
tp157
bS'can'
p158
tp159
Rp160
I0
I0
tp161
a(g4
(g5
(S'S3'
p162
I0
I1
tp163
Rp164
(I3
S'|'
p165
NNNI3
I1
I0
tp166
bS'can'
p167
tp168
Rp169
I16
I0
tp170
aa(lp171
a.