(lp0
(lp1
(dp2
S'action'
p3
cnumpy.core.multiarray
scalar
p4
(cnumpy
dtype
p5
(S'S5'
p6
I0
I1
tp7
Rp8
(I3
S'|'
p9
NNNI5
I1
I0
tp10
bS'bring'
p11
tp12
Rp13
sS'recipient'
p14
g4
(g5
(S'S1'
p15
I0
I1
tp16
Rp17
(I3
S'|'
p18
NNNI1
I1
I0
tp19
bS'd'
p20
tp21
Rp22
sS'patient'
p23
S'oidx_26'
p24
sS'goal'
p25
NsS'source'
p26
Nsaa(lp27
(dp28
S'all'
p29
(lp30
S'travel to robert bob brown office'
p31
asg23
(lp32
S'coffee'
p33
asg25
(lp34
sg26
(lp35
sg3
(lp36
sg14
(lp37
S'david dave daniel'
p38
asaa(lp39
(g4
(g5
(S'S6'
p40
I0
I1
tp41
Rp42
(I3
S'|'
p43
NNNI6
I1
I0
tp44
bS'coffee'
p45
tp46
Rp47
I9
I1
tp48
a(g4
(g5
(S'S6'
p49
I0
I1
tp50
Rp51
(I3
S'|'
p52
NNNI6
I1
I0
tp53
bS'coffee'
p54
tp55
Rp56
I16
I0
tp57
a(g4
(g5
(S'S6'
p58
I0
I1
tp59
Rp60
(I3
S'|'
p61
NNNI6
I1
I0
tp62
bS'coffee'
p63
tp64
Rp65
I23
I0
tp66
a(g4
(g5
(S'S6'
p67
I0
I1
tp68
Rp69
(I3
S'|'
p70
NNNI6
I1
I0
tp71
bS'coffee'
p72
tp73
Rp74
I4
I0
tp75
a(g4
(g5
(S'S5'
p76
I0
I1
tp77
Rp78
(I3
S'|'
p79
NNNI5
I1
I0
tp80
bS'empty'
p81
tp82
Rp83
I21
I0
tp84
aa(lp85
a.