(lp0
(lp1
(dp2
S'action'
p3
cnumpy.core.multiarray
scalar
p4
(cnumpy
dtype
p5
(S'S4'
p6
I0
I1
tp7
Rp8
(I3
S'|'
p9
NNNI4
I1
I0
tp10
bS'walk'
p11
tp12
Rp13
sS'recipient'
p14
NsS'patient'
p15
NsS'goal'
p16
S'3414'
p17
sS'source'
p18
Nsa(dp19
g3
g4
(g5
(S'S5'
p20
I0
I1
tp21
Rp22
(I3
S'|'
p23
NNNI5
I1
I0
tp24
bS'bring'
p25
tp26
Rp27
sg14
g4
(g5
(S'S1'
p28
I0
I1
tp29
Rp30
(I3
S'|'
p31
NNNI1
I1
I0
tp32
bS'd'
p33
tp34
Rp35
sg15
g4
(g5
(S'S7'
p36
I0
I1
tp37
Rp38
(I3
S'|'
p39
NNNI7
I1
I0
tp40
bS'oidx_11'
p41
tp42
Rp43
sg16
Nsg18
Nsa(dp44
g3
g4
(g5
(S'S4'
p45
I0
I1
tp46
Rp47
(I3
S'|'
p48
NNNI4
I1
I0
tp49
bS'walk'
p50
tp51
Rp52
sg14
Nsg15
Nsg16
g4
(g5
(S'S5'
p53
I0
I1
tp54
Rp55
(I3
S'|'
p56
NNNI5
I1
I0
tp57
bS'3414a'
p58
tp59
Rp60
sg18
Nsaa(lp61
(dp62
S'all'
p63
(lp64
S'move to the first lab from the left'
p65
asg15
(lp66
sg16
(lp67
S'to the lab'
p68
aS'move over two labs'
p69
aS'move next room'
p70
aS'move left to next room'
p71
aS'go to the lab'
p72
asg18
(lp73
sg3
(lp74
sg14
(lp75
sa(dp76
g63
(lp77
S'david needs the peaches can'
p78
asg15
(lp79
S'peaches can'
p80
aS'deliver the peaches can'
p81
asg16
(lp82
sg18
(lp83
sg3
(lp84
sg14
(lp85
sa(dp86
g63
(lp87
S"take the item from the pod between mallory and peggy 's office and take it to the lab"
p88
asg15
(lp89
sg16
(lp90
S'go to the pod and pick up the item'
p91
aS'get the item from the pod next to mallory office'
p92
aS'go to the pod'
p93
aS'go to the lab'
p94
aS'go to the lab next to the printer'
p95
asg18
(lp96
sg3
(lp97
sg14
(lp98
saa(lp99
(g4
(g5
(S'S5'
p100
I0
I1
tp101
Rp102
(I3
S'|'
p103
NNNI5
I1
I0
tp104
bS'white'
p105
tp106
Rp107
I21
I0
tp108
a(g107
I24
I0
tp109
a(g107
I19
I0
tp110
a(g107
I23
I0
tp111
a(g107
I16
I0
tp112
a(g107
I0
I0
tp113
a(g107
I4
I0
tp114
a(g107
I9
I0
tp115
a(g4
(g5
(S'S6'
p116
I0
I1
tp117
Rp118
(I3
S'|'
p119
NNNI6
I1
I0
tp120
bS'yellow'
p121
tp122
Rp123
I19
I1
tp124
a(g4
(g5
(S'S9'
p125
I0
I1
tp126
Rp127
(I3
S'|'
p128
NNNI9
I1
I0
tp129
bS'rectangle'
p130
tp131
Rp132
I21
I0
tp133
a(g132
I24
I0
tp134
a(g132
I19
I0
tp135
a(g132
I23
I0
tp136
a(g132
I16
I0
tp137
a(g132
I0
I0
tp138
a(g132
I4
I0
tp139
a(g132
I9
I0
tp140
a(g4
(g5
(S'S5'
p141
I0
I1
tp142
Rp143
(I3
S'|'
p144
NNNI5
I1
I0
tp145
bS'peach'
p146
tp147
Rp148
I21
I0
tp149
a(g148
I24
I0
tp150
a(g148
I19
I0
tp151
a(g148
I23
I0
tp152
a(g148
I16
I0
tp153
a(g148
I0
I0
tp154
a(g148
I4
I0
tp155
a(g148
I9
I0
tp156
a(g4
(g5
(S'S5'
p157
I0
I1
tp158
Rp159
(I3
S'|'
p160
NNNI5
I1
I0
tp161
bS'clear'
p162
tp163
Rp164
I21
I0
tp165
a(g164
I24
I0
tp166
a(g164
I19
I0
tp167
a(g164
I23
I0
tp168
a(g164
I16
I0
tp169
a(g164
I0
I0
tp170
a(g164
I4
I0
tp171
a(g164
I9
I0
tp172
a(g4
(g5
(S'S3'
p173
I0
I1
tp174
Rp175
(I3
S'|'
p176
NNNI3
I1
I0
tp177
bS'can'
p178
tp179
Rp180
I4
I0
tp181
a(g4
(g5
(S'S3'
p182
I0
I1
tp183
Rp184
(I3
S'|'
p185
NNNI3
I1
I0
tp186
bS'can'
p187
tp188
Rp189
I19
I0
tp190
a(g4
(g5
(S'S3'
p191
I0
I1
tp192
Rp193
(I3
S'|'
p194
NNNI3
I1
I0
tp195
bS'can'
p196
tp197
Rp198
I9
I0
tp199
a(g4
(g5
(S'S3'
p200
I0
I1
tp201
Rp202
(I3
S'|'
p203
NNNI3
I1
I0
tp204
bS'can'
p205
tp206
Rp207
I0
I0
tp208
a(g4
(g5
(S'S3'
p209
I0
I1
tp210
Rp211
(I3
S'|'
p212
NNNI3
I1
I0
tp213
bS'can'
p214
tp215
Rp216
I23
I0
tp217
a(g4
(g5
(S'S9'
p218
I0
I1
tp219
Rp220
(I3
S'|'
p221
NNNI9
I1
I0
tp222
bS'container'
p223
tp224
Rp225
I19
I1
tp226
a(g4
(g5
(S'S5'
p227
I0
I1
tp228
Rp229
(I3
S'|'
p230
NNNI5
I1
I0
tp231
bS'empty'
p232
tp233
Rp234
I21
I0
tp235
a(g4
(g5
(S'S3'
p236
I0
I1
tp237
Rp238
(I3
S'|'
p239
NNNI3
I1
I0
tp240
bS'red'
p241
tp242
Rp243
I23
I0
tp244
a(g4
(g5
(S'S3'
p245
I0
I1
tp246
Rp247
(I3
S'|'
p248
NNNI3
I1
I0
tp249
bS'red'
p250
tp251
Rp252
I23
I0
tp253
a(g4
(g5
(S'S3'
p254
I0
I1
tp255
Rp256
(I3
S'|'
p257
NNNI3
I1
I0
tp258
bS'can'
p259
tp260
Rp261
I21
I0
tp262
aa(lp263
a.