(lp0
(lp1
(dp2
S'action'
p3
cnumpy.core.multiarray
scalar
p4
(cnumpy
dtype
p5
(S'S4'
p6
I0
I1
tp7
Rp8
(I3
S'|'
p9
NNNI4
I1
I0
tp10
bS'walk'
p11
tp12
Rp13
sS'recipient'
p14
NsS'patient'
p15
NsS'goal'
p16
S'3514'
p17
sS'source'
p18
Nsa(dp19
g3
g4
(g5
(S'S5'
p20
I0
I1
tp21
Rp22
(I3
S'|'
p23
NNNI5
I1
I0
tp24
bS'bring'
p25
tp26
Rp27
sg14
g4
(g5
(S'S1'
p28
I0
I1
tp29
Rp30
(I3
S'|'
p31
NNNI1
I1
I0
tp32
bS's'
p33
tp34
Rp35
sg15
g4
(g5
(S'S6'
p36
I0
I1
tp37
Rp38
(I3
S'|'
p39
NNNI6
I1
I0
tp40
bS'oidx_6'
p41
tp42
Rp43
sg16
Nsg18
Nsaa(lp44
(dp45
S'all'
p46
(lp47
S'you need to go to the lounge'
p48
asg15
(lp49
sg16
(lp50
S'lounge'
p51
aS'lounge'
p52
aS'go to r'
p53
aS'kitchen'
p54
aS'walk down to the lounge'
p55
aS'go to the lounge'
p56
aS'go to the small loungs'
p57
asg18
(lp58
sg3
(lp59
sg14
(lp60
sa(dp61
g46
(lp62
S'take the bottle to dr sybil smalt'
p63
asg15
(lp64
S'bottle'
p65
aS'little bottle'
p66
aS'little bottle'
p67
aS'medicine bottle'
p68
aS'little bottle'
p69
asg16
(lp70
sg18
(lp71
sg3
(lp72
sg14
(lp73
S'deliver to s'
p74
asaa(lp75
(g4
(g5
(S'S5'
p76
I0
I1
tp77
Rp78
(I3
S'|'
p79
NNNI5
I1
I0
tp80
bS'white'
p81
tp82
Rp83
I21
I1
tp84
a(g4
(g5
(S'S5'
p85
I0
I1
tp86
Rp87
(I3
S'|'
p88
NNNI5
I1
I0
tp89
bS'tower'
p90
tp91
Rp92
I4
I1
tp93
a(g4
(g5
(S'S8'
p94
I0
I1
tp95
Rp96
(I3
S'|'
p97
NNNI8
I1
I0
tp98
bS'pringles'
p99
tp100
Rp101
I21
I0
tp102
a(g101
I24
I0
tp103
a(g101
I19
I0
tp104
a(g101
I23
I0
tp105
a(g101
I16
I0
tp106
a(g101
I0
I0
tp107
a(g101
I4
I0
tp108
a(g101
I9
I0
tp109
a(g4
(g5
(S'S6'
p110
I0
I1
tp111
Rp112
(I3
S'|'
p113
NNNI6
I1
I0
tp114
bS'column'
p115
tp116
Rp117
I16
I0
tp118
a(g4
(g5
(S'S8'
p119
I0
I1
tp120
Rp121
(I3
S'|'
p122
NNNI8
I1
I0
tp123
bS'cylinder'
p124
tp125
Rp126
I0
I0
tp127
a(g4
(g5
(S'S9'
p128
I0
I1
tp129
Rp130
(I3
S'|'
p131
NNNI9
I1
I0
tp132
bS'container'
p133
tp134
Rp135
I24
I0
tp136
a(g4
(g5
(S'S9'
p137
I0
I1
tp138
Rp139
(I3
S'|'
p140
NNNI9
I1
I0
tp141
bS'container'
p142
tp143
Rp144
I19
I1
tp145
a(g4
(g5
(S'S9'
p146
I0
I1
tp147
Rp148
(I3
S'|'
p149
NNNI9
I1
I0
tp150
bS'container'
p151
tp152
Rp153
I4
I0
tp154
a(g4
(g5
(S'S9'
p155
I0
I1
tp156
Rp157
(I3
S'|'
p158
NNNI9
I1
I0
tp159
bS'container'
p160
tp161
Rp162
I21
I0
tp163
a(g4
(g5
(S'S9'
p164
I0
I1
tp165
Rp166
(I3
S'|'
p167
NNNI9
I1
I0
tp168
bS'container'
p169
tp170
Rp171
I23
I1
tp172
aa(lp173
a.