(lp0
(lp1
(dp2
S'action'
p3
cnumpy.core.multiarray
scalar
p4
(cnumpy
dtype
p5
(S'S5'
p6
I0
I1
tp7
Rp8
(I3
S'|'
p9
NNNI5
I1
I0
tp10
bS'bring'
p11
tp12
Rp13
sS'recipient'
p14
g4
(g5
(S'S1'
p15
I0
I1
tp16
Rp17
(I3
S'|'
p18
NNNI1
I1
I0
tp19
bS'w'
p20
tp21
Rp22
sS'patient'
p23
S'oidx_28'
p24
sS'goal'
p25
NsS'source'
p26
Nsaa(lp27
(dp28
S'all'
p29
(lp30
S'go to see walter ward supervisor'
p31
asg23
(lp32
S'paper'
p33
asg25
(lp34
sg26
(lp35
sg3
(lp36
sg14
(lp37
saa(lp38
(g4
(g5
(S'S5'
p39
I0
I1
tp40
Rp41
(I3
S'|'
p42
NNNI5
I1
I0
tp43
bS'large'
p44
tp45
Rp46
I0
I0
tp47
a(g4
(g5
(S'S3'
p48
I0
I1
tp49
Rp50
(I3
S'|'
p51
NNNI3
I1
I0
tp52
bS'can'
p53
tp54
Rp55
I4
I0
tp56
a(g4
(g5
(S'S5'
p57
I0
I1
tp58
Rp59
(I3
S'|'
p60
NNNI5
I1
I0
tp61
bS'large'
p62
tp63
Rp64
I9
I0
tp65
a(g4
(g5
(S'S6'
p66
I0
I1
tp67
Rp68
(I3
S'|'
p69
NNNI6
I1
I0
tp70
bS'column'
p71
tp72
Rp73
I0
I0
tp74
a(g4
(g5
(S'S4'
p75
I0
I1
tp76
Rp77
(I3
S'|'
p78
NNNI4
I1
I0
tp79
bS'blue'
p80
tp81
Rp82
I21
I0
tp83
aa(lp84
(g33
S'column'
p85
I00
tp86
a(g33
S'white'
p87
I01
tp88
aa.