(lp0
(lp1
(dp2
S'action'
p3
cnumpy.core.multiarray
scalar
p4
(cnumpy
dtype
p5
(S'S4'
p6
I0
I1
tp7
Rp8
(I3
S'|'
p9
NNNI4
I1
I0
tp10
bS'walk'
p11
tp12
Rp13
sS'recipient'
p14
NsS'patient'
p15
NsS'goal'
p16
g4
(g5
(S'S4'
p17
I0
I1
tp18
Rp19
(I3
S'|'
p20
NNNI4
I1
I0
tp21
bS'3508'
p22
tp23
Rp24
sS'source'
p25
Nsaa(lp26
(dp27
S'all'
p28
(lp29
S'go see peggy parker'
p30
asg15
(lp31
sg16
(lp32
S'peggy parkers office'
p33
asg25
(lp34
sg3
(lp35
sg14
(lp36
saa(lp37
(g4
(g5
(S'S5'
p38
I0
I1
tp39
Rp40
(I3
S'|'
p41
NNNI5
I1
I0
tp42
bS'block'
p43
tp44
Rp45
I21
I0
tp46
a(g45
I24
I0
tp47
a(g45
I19
I0
tp48
a(g45
I23
I0
tp49
a(g45
I16
I0
tp50
a(g45
I0
I0
tp51
a(g45
I4
I0
tp52
a(g45
I9
I0
tp53
a(g4
(g5
(S'S3'
p54
I0
I1
tp55
Rp56
(I3
S'|'
p57
NNNI3
I1
I0
tp58
bS'can'
p59
tp60
Rp61
I0
I0
tp62
a(g4
(g5
(S'S5'
p63
I0
I1
tp64
Rp65
(I3
S'|'
p66
NNNI5
I1
I0
tp67
bS'empty'
p68
tp69
Rp70
I21
I0
tp71
a(g4
(g5
(S'S6'
p72
I0
I1
tp73
Rp74
(I3
S'|'
p75
NNNI6
I1
I0
tp76
bS'column'
p77
tp78
Rp79
I23
I0
tp80
a(g4
(g5
(S'S9'
p81
I0
I1
tp82
Rp83
(I3
S'|'
p84
NNNI9
I1
I0
tp85
bS'rectangle'
p86
tp87
Rp88
I21
I0
tp89
a(g88
I24
I0
tp90
a(g88
I19
I0
tp91
a(g88
I23
I0
tp92
a(g88
I16
I0
tp93
a(g88
I0
I0
tp94
a(g88
I4
I0
tp95
a(g88
I9
I0
tp96
aa(lp97
a.