(lp0
(lp1
(dp2
S'action'
p3
cnumpy.core.multiarray
scalar
p4
(cnumpy
dtype
p5
(S'S4'
p6
I0
I1
tp7
Rp8
(I3
S'|'
p9
NNNI4
I1
I0
tp10
bS'walk'
p11
tp12
Rp13
sS'recipient'
p14
NsS'patient'
p15
NsS'goal'
p16
S'3422'
p17
sS'source'
p18
Nsa(dp19
g3
g4
(g5
(S'S5'
p20
I0
I1
tp21
Rp22
(I3
S'|'
p23
NNNI5
I1
I0
tp24
bS'bring'
p25
tp26
Rp27
sg14
g4
(g5
(S'S1'
p28
I0
I1
tp29
Rp30
(I3
S'|'
p31
NNNI1
I1
I0
tp32
bS'p'
p33
tp34
Rp35
sg15
g4
(g5
(S'S7'
p36
I0
I1
tp37
Rp38
(I3
S'|'
p39
NNNI7
I1
I0
tp40
bS'oidx_26'
p41
tp42
Rp43
sg16
Nsg18
Nsa(dp44
g3
g4
(g5
(S'S4'
p45
I0
I1
tp46
Rp47
(I3
S'|'
p48
NNNI4
I1
I0
tp49
bS'walk'
p50
tp51
Rp52
sg14
Nsg15
Nsg16
g4
(g5
(S'S4'
p53
I0
I1
tp54
Rp55
(I3
S'|'
p56
NNNI4
I1
I0
tp57
bS'3414'
p58
tp59
Rp60
sg18
Nsaa(lp61
(dp62
S'all'
p63
(lp64
S"go to walter 's office"
p65
asg15
(lp66
sg16
(lp67
S"walter ward 's office"
p68
asg18
(lp69
sg3
(lp70
sg14
(lp71
sa(dp72
g63
(lp73
S'give the can of soda to peggy parker'
p74
asg15
(lp75
S'can of soda'
p76
aS'red can of soda'
p77
aS'red aluminum can'
p78
aS'red can of soda'
p79
aS'red can of soda'
p80
asg16
(lp81
sg18
(lp82
sg3
(lp83
sg14
(lp84
S'no one'
p85
aS''
p86
aS'no'
p87
aS'peggy parker'
p88
aS'peggy parker'
p89
asa(dp90
g63
(lp91
S'take the tylenol to the small office'
p92
asg15
(lp93
sg16
(lp94
S'take the tylenol to the small lab'
p95
aS'take the small white bottle of tylenol to the small lab'
p96
aS'small lab with the tylenol'
p97
asg18
(lp98
sg3
(lp99
sg14
(lp100
saa(lp101
(g4
(g5
(S'S6'
p102
I0
I1
tp103
Rp104
(I3
S'|'
p105
NNNI6
I1
I0
tp106
bS'column'
p107
tp108
Rp109
I19
I1
tp110
a(g4
(g5
(S'S4'
p111
I0
I1
tp112
Rp113
(I3
S'|'
p114
NNNI4
I1
I0
tp115
bS'blue'
p116
tp117
Rp118
I4
I0
tp119
a(g4
(g5
(S'S4'
p120
I0
I1
tp121
Rp122
(I3
S'|'
p123
NNNI4
I1
I0
tp124
bS'blue'
p125
tp126
Rp127
I19
I0
tp128
a(g4
(g5
(S'S9'
p129
I0
I1
tp130
Rp131
(I3
S'|'
p132
NNNI9
I1
I0
tp133
bS'rectangle'
p134
tp135
Rp136
I21
I0
tp137
a(g136
I24
I0
tp138
a(g136
I19
I0
tp139
a(g136
I23
I0
tp140
a(g136
I16
I0
tp141
a(g136
I0
I0
tp142
a(g136
I4
I0
tp143
a(g136
I9
I0
tp144
a(g4
(g5
(S'S3'
p145
I0
I1
tp146
Rp147
(I3
S'|'
p148
NNNI3
I1
I0
tp149
bS'can'
p150
tp151
Rp152
I0
I1
tp153
a(g4
(g5
(S'S8'
p154
I0
I1
tp155
Rp156
(I3
S'|'
p157
NNNI8
I1
I0
tp158
bS'pringles'
p159
tp160
Rp161
I21
I0
tp162
a(g161
I24
I0
tp163
a(g161
I19
I0
tp164
a(g161
I23
I0
tp165
a(g161
I16
I0
tp166
a(g161
I0
I0
tp167
a(g161
I4
I0
tp168
a(g161
I9
I0
tp169
a(g4
(g5
(S'S5'
p170
I0
I1
tp171
Rp172
(I3
S'|'
p173
NNNI5
I1
I0
tp174
bS'large'
p175
tp176
Rp177
I0
I0
tp178
a(g4
(g5
(S'S5'
p179
I0
I1
tp180
Rp181
(I3
S'|'
p182
NNNI5
I1
I0
tp183
bS'clear'
p184
tp185
Rp186
I21
I0
tp187
a(g186
I24
I0
tp188
a(g186
I19
I0
tp189
a(g186
I23
I0
tp190
a(g186
I16
I0
tp191
a(g186
I0
I0
tp192
a(g186
I4
I0
tp193
a(g186
I9
I0
tp194
a(g4
(g5
(S'S5'
p195
I0
I1
tp196
Rp197
(I3
S'|'
p198
NNNI5
I1
I0
tp199
bS'brown'
p200
tp201
Rp202
I9
I0
tp203
a(g4
(g5
(S'S8'
p204
I0
I1
tp205
Rp206
(I3
S'|'
p207
NNNI8
I1
I0
tp208
bS'cylinder'
p209
tp210
Rp211
I21
I1
tp212
a(g211
I24
I1
tp213
a(g211
I19
I1
tp214
a(g211
I23
I1
tp215
a(g211
I16
I1
tp216
a(g211
I0
I1
tp217
a(g211
I4
I1
tp218
a(g211
I9
I1
tp219
a(g4
(g5
(S'S9'
p220
I0
I1
tp221
Rp222
(I3
S'|'
p223
NNNI9
I1
I0
tp224
bS'styrofoam'
p225
tp226
Rp227
I24
I0
tp228
a(g4
(g5
(S'S4'
p229
I0
I1
tp230
Rp231
(I3
S'|'
p232
NNNI4
I1
I0
tp233
bS'blue'
p234
tp235
Rp236
I21
I0
tp237
a(g4
(g5
(S'S5'
p238
I0
I1
tp239
Rp240
(I3
S'|'
p241
NNNI5
I1
I0
tp242
bS'small'
p243
tp244
Rp245
I21
I0
tp246
a(g4
(g5
(S'S5'
p247
I0
I1
tp248
Rp249
(I3
S'|'
p250
NNNI5
I1
I0
tp251
bS'large'
p252
tp253
Rp254
I0
I0
tp255
a(g4
(g5
(S'S5'
p256
I0
I1
tp257
Rp258
(I3
S'|'
p259
NNNI5
I1
I0
tp260
bS'small'
p261
tp262
Rp263
I19
I0
tp264
aa(lp265
a.