(lp0
(lp1
(dp2
S'action'
p3
cnumpy.core.multiarray
scalar
p4
(cnumpy
dtype
p5
(S'S4'
p6
I0
I1
tp7
Rp8
(I3
S'|'
p9
NNNI4
I1
I0
tp10
bS'walk'
p11
tp12
Rp13
sS'recipient'
p14
NsS'patient'
p15
NsS'goal'
p16
g4
(g5
(S'S4'
p17
I0
I1
tp18
Rp19
(I3
S'|'
p20
NNNI4
I1
I0
tp21
bS'3430'
p22
tp23
Rp24
sS'source'
p25
Nsaa(lp26
(dp27
S'all'
p28
(lp29
S'go to robert bob brown office'
p30
asg15
(lp31
sg16
(lp32
S'sr sybil smalt office'
p33
aS'dr sybil smalt office'
p34
asg25
(lp35
sg3
(lp36
sg14
(lp37
saa(lp38
(g4
(g5
(S'S4'
p39
I0
I1
tp40
Rp41
(I3
S'|'
p42
NNNI4
I1
I0
tp43
bS'blue'
p44
tp45
Rp46
I21
I0
tp47
a(g4
(g5
(S'S5'
p48
I0
I1
tp49
Rp50
(I3
S'|'
p51
NNNI5
I1
I0
tp52
bS'spice'
p53
tp54
Rp55
I21
I0
tp56
a(g55
I24
I0
tp57
a(g55
I19
I0
tp58
a(g55
I23
I0
tp59
a(g55
I16
I0
tp60
a(g55
I0
I0
tp61
a(g55
I4
I0
tp62
a(g55
I9
I0
tp63
a(g4
(g5
(S'S9'
p64
I0
I1
tp65
Rp66
(I3
S'|'
p67
NNNI9
I1
I0
tp68
bS'styrofoam'
p69
tp70
Rp71
I9
I0
tp72
a(g4
(g5
(S'S8'
p73
I0
I1
tp74
Rp75
(I3
S'|'
p76
NNNI8
I1
I0
tp77
bS'cylinder'
p78
tp79
Rp80
I21
I1
tp81
a(g80
I24
I1
tp82
a(g80
I19
I1
tp83
a(g80
I23
I1
tp84
a(g80
I16
I1
tp85
a(g80
I0
I1
tp86
a(g80
I4
I1
tp87
a(g80
I9
I1
tp88
a(g4
(g5
(S'S5'
p89
I0
I1
tp90
Rp91
(I3
S'|'
p92
NNNI5
I1
I0
tp93
bS'white'
p94
tp95
Rp96
I24
I1
tp97
aa(lp98
a.