(lp0
(lp1
(dp2
S'action'
p3
cnumpy.core.multiarray
scalar
p4
(cnumpy
dtype
p5
(S'S4'
p6
I0
I1
tp7
Rp8
(I3
S'|'
p9
NNNI4
I1
I0
tp10
bS'walk'
p11
tp12
Rp13
sS'recipient'
p14
NsS'patient'
p15
NsS'goal'
p16
S'3422'
p17
sS'source'
p18
Nsa(dp19
g3
g4
(g5
(S'S4'
p20
I0
I1
tp21
Rp22
(I3
S'|'
p23
NNNI4
I1
I0
tp24
bS'walk'
p25
tp26
Rp27
sg14
Nsg15
Nsg16
S'3418'
p28
sg18
Nsa(dp29
g3
g4
(g5
(S'S4'
p30
I0
I1
tp31
Rp32
(I3
S'|'
p33
NNNI4
I1
I0
tp34
bS'walk'
p35
tp36
Rp37
sg14
Nsg15
Nsg16
S'3432'
p38
sg18
Nsaa(lp39
(dp40
S'all'
p41
(lp42
S'yes'
p43
asg15
(lp44
sg16
(lp45
S'yes'
p46
aS'yes'
p47
aS'no'
p48
aS'yes'
p49
aS'should work'
p50
aS'yes'
p51
aS'yes'
p52
aS'yes'
p53
aS'go home'
p54
aS'i dont know'
p55
aS'you should work'
p56
aS'work'
p57
aS'yes'
p58
aS''
p59
aS'yes'
p60
asg18
(lp61
sg3
(lp62
sg14
(lp63
sa(dp64
g41
(lp65
S'yes'
p66
asg15
(lp67
sg16
(lp68
S'go home'
p69
asg18
(lp70
sg3
(lp71
sg14
(lp72
sa(dp73
g41
(lp74
S'yes'
p75
asg15
(lp76
sg16
(lp77
S'go home'
p78
aS'yes'
p79
aS'go home'
p80
asg18
(lp81
sg3
(lp82
sg14
(lp83
saa(lp84
(g4
(g5
(S'S5'
p85
I0
I1
tp86
Rp87
(I3
S'|'
p88
NNNI5
I1
I0
tp89
bS'empty'
p90
tp91
Rp92
I4
I1
tp93
a(g4
(g5
(S'S5'
p94
I0
I1
tp95
Rp96
(I3
S'|'
p97
NNNI5
I1
I0
tp98
bS'small'
p99
tp100
Rp101
I21
I1
tp102
a(g4
(g5
(S'S5'
p103
I0
I1
tp104
Rp105
(I3
S'|'
p106
NNNI5
I1
I0
tp107
bS'tower'
p108
tp109
Rp110
I21
I0
tp111
a(g110
I24
I0
tp112
a(g110
I19
I0
tp113
a(g110
I23
I0
tp114
a(g110
I16
I0
tp115
a(g110
I0
I0
tp116
a(g110
I4
I0
tp117
a(g110
I9
I0
tp118
a(g4
(g5
(S'S3'
p119
I0
I1
tp120
Rp121
(I3
S'|'
p122
NNNI3
I1
I0
tp123
bS'can'
p124
tp125
Rp126
I0
I1
tp127
a(g4
(g5
(S'S3'
p128
I0
I1
tp129
Rp130
(I3
S'|'
p131
NNNI3
I1
I0
tp132
bS'can'
p133
tp134
Rp135
I9
I1
tp136
a(g4
(g5
(S'S8'
p137
I0
I1
tp138
Rp139
(I3
S'|'
p140
NNNI8
I1
I0
tp141
bS'metallic'
p142
tp143
Rp144
I21
I0
tp145
a(g144
I24
I0
tp146
a(g144
I19
I0
tp147
a(g144
I23
I0
tp148
a(g144
I16
I0
tp149
a(g144
I0
I0
tp150
a(g144
I4
I0
tp151
a(g144
I9
I0
tp152
a(g4
(g5
(S'S8'
p153
I0
I1
tp154
Rp155
(I3
S'|'
p156
NNNI8
I1
I0
tp157
bS'cylinder'
p158
tp159
Rp160
I0
I0
tp161
a(g4
(g5
(S'S5'
p162
I0
I1
tp163
Rp164
(I3
S'|'
p165
NNNI5
I1
I0
tp166
bS'spice'
p167
tp168
Rp169
I21
I0
tp170
a(g169
I24
I0
tp171
a(g169
I19
I0
tp172
a(g169
I23
I0
tp173
a(g169
I16
I0
tp174
a(g169
I0
I0
tp175
a(g169
I4
I0
tp176
a(g169
I9
I0
tp177
a(g4
(g5
(S'S6'
p178
I0
I1
tp179
Rp180
(I3
S'|'
p181
NNNI6
I1
I0
tp182
bS'yellow'
p183
tp184
Rp185
I4
I1
tp186
a(g4
(g5
(S'S4'
p187
I0
I1
tp188
Rp189
(I3
S'|'
p190
NNNI4
I1
I0
tp191
bS'bean'
p192
tp193
Rp194
I21
I0
tp195
a(g194
I24
I0
tp196
a(g194
I19
I0
tp197
a(g194
I23
I0
tp198
a(g194
I16
I0
tp199
a(g194
I0
I0
tp200
a(g194
I4
I0
tp201
a(g194
I9
I0
tp202
a(g4
(g5
(S'S6'
p203
I0
I1
tp204
Rp205
(I3
S'|'
p206
NNNI6
I1
I0
tp207
bS'yellow'
p208
tp209
Rp210
I19
I1
tp211
a(g4
(g5
(S'S4'
p212
I0
I1
tp213
Rp214
(I3
S'|'
p215
NNNI4
I1
I0
tp216
bS'long'
p217
tp218
Rp219
I0
I1
tp220
a(g4
(g5
(S'S6'
p221
I0
I1
tp222
Rp223
(I3
S'|'
p224
NNNI6
I1
I0
tp225
bS'yellow'
p226
tp227
Rp228
I24
I0
tp229
a(g4
(g5
(S'S6'
p230
I0
I1
tp231
Rp232
(I3
S'|'
p233
NNNI6
I1
I0
tp234
bS'yellow'
p235
tp236
Rp237
I0
I0
tp238
a(g4
(g5
(S'S8'
p239
I0
I1
tp240
Rp241
(I3
S'|'
p242
NNNI8
I1
I0
tp243
bS'cylinder'
p244
tp245
Rp246
I4
I1
tp247
aa(lp248
(S'should'
p249
S'can'
p250
I01
tp251
a(S'dont'
p252
g250
I01
tp253
aa.