(lp0
(lp1
(dp2
S'action'
p3
cnumpy.core.multiarray
scalar
p4
(cnumpy
dtype
p5
(S'S4'
p6
I0
I1
tp7
Rp8
(I3
S'|'
p9
NNNI4
I1
I0
tp10
bS'walk'
p11
tp12
Rp13
sS'recipient'
p14
NsS'patient'
p15
NsS'goal'
p16
g4
(g5
(S'S4'
p17
I0
I1
tp18
Rp19
(I3
S'|'
p20
NNNI4
I1
I0
tp21
bS'3520'
p22
tp23
Rp24
sS'source'
p25
Nsa(dp26
g3
g4
(g5
(S'S5'
p27
I0
I1
tp28
Rp29
(I3
S'|'
p30
NNNI5
I1
I0
tp31
bS'bring'
p32
tp33
Rp34
sg14
g4
(g5
(S'S1'
p35
I0
I1
tp36
Rp37
(I3
S'|'
p38
NNNI1
I1
I0
tp39
bS'm'
p40
tp41
Rp42
sg15
g4
(g5
(S'S7'
p43
I0
I1
tp44
Rp45
(I3
S'|'
p46
NNNI7
I1
I0
tp47
bS'oidx_22'
p48
tp49
Rp50
sg16
Nsg25
Nsa(dp51
g3
g4
(g5
(S'S4'
p52
I0
I1
tp53
Rp54
(I3
S'|'
p55
NNNI4
I1
I0
tp56
bS'move'
p57
tp58
Rp59
sg14
Nsg15
g4
(g5
(S'S7'
p60
I0
I1
tp61
Rp62
(I3
S'|'
p63
NNNI7
I1
I0
tp64
bS'oidx_11'
p65
tp66
Rp67
sg16
g4
(g5
(S'S4'
p68
I0
I1
tp69
Rp70
(I3
S'|'
p71
NNNI4
I1
I0
tp72
bS'3518'
p73
tp74
Rp75
sg25
g4
(g5
(S'S4'
p76
I0
I1
tp77
Rp78
(I3
S'|'
p79
NNNI4
I1
I0
tp80
bS'3516'
p81
tp82
Rp83
saa(lp84
(dp85
S'all'
p86
(lp87
S'go to the kitchen'
p88
asg15
(lp89
sg16
(lp90
sg25
(lp91
sg3
(lp92
sg14
(lp93
sa(dp94
g86
(lp95
S'take the plastic bottle to mallory maroon'
p96
asg15
(lp97
S'a plastic bottle'
p98
aS'a plastic bottle'
p99
aS'a plastic bottle'
p100
asg16
(lp101
sg25
(lp102
sg3
(lp103
sg14
(lp104
S'mallory maroon'
p105
asa(dp106
g86
(lp107
S'take the yellow can to the conference room'
p108
asg15
(lp109
S'white can'
p110
aS'yellow can'
p111
asg16
(lp112
S'pod'
p113
aS'pod'
p114
aS'pod'
p115
aS'pod'
p116
asg25
(lp117
S'conference'
p118
aS'conference'
p119
aS'conference room'
p120
aS'conference room'
p121
aS'conference'
p122
asg3
(lp123
sg14
(lp124
saa(lp125
(g4
(g5
(S'S5'
p126
I0
I1
tp127
Rp128
(I3
S'|'
p129
NNNI5
I1
I0
tp130
bS'tower'
p131
tp132
Rp133
I21
I0
tp134
a(g133
I24
I0
tp135
a(g133
I19
I0
tp136
a(g133
I23
I0
tp137
a(g133
I16
I0
tp138
a(g133
I0
I0
tp139
a(g133
I4
I0
tp140
a(g133
I9
I0
tp141
a(g4
(g5
(S'S5'
p142
I0
I1
tp143
Rp144
(I3
S'|'
p145
NNNI5
I1
I0
tp146
bS'block'
p147
tp148
Rp149
I21
I0
tp150
a(g149
I24
I0
tp151
a(g149
I19
I0
tp152
a(g149
I23
I0
tp153
a(g149
I16
I0
tp154
a(g149
I0
I0
tp155
a(g149
I4
I0
tp156
a(g149
I9
I0
tp157
a(g4
(g5
(S'S8'
p158
I0
I1
tp159
Rp160
(I3
S'|'
p161
NNNI8
I1
I0
tp162
bS'cylinder'
p163
tp164
Rp165
I21
I1
tp166
a(g165
I24
I1
tp167
a(g165
I19
I1
tp168
a(g165
I23
I1
tp169
a(g165
I16
I1
tp170
a(g165
I0
I1
tp171
a(g165
I4
I1
tp172
a(g165
I9
I1
tp173
a(g4
(g5
(S'S6'
p174
I0
I1
tp175
Rp176
(I3
S'|'
p177
NNNI6
I1
I0
tp178
bS'column'
p179
tp180
Rp181
I21
I0
tp182
a(g4
(g5
(S'S5'
p183
I0
I1
tp184
Rp185
(I3
S'|'
p186
NNNI5
I1
I0
tp187
bS'brown'
p188
tp189
Rp190
I23
I0
tp191
a(g4
(g5
(S'S7'
p192
I0
I1
tp193
Rp194
(I3
S'|'
p195
NNNI7
I1
I0
tp196
bS'plastic'
p197
tp198
Rp199
I21
I0
tp200
a(g199
I24
I0
tp201
a(g199
I19
I0
tp202
a(g199
I23
I0
tp203
a(g199
I16
I0
tp204
a(g199
I0
I0
tp205
a(g199
I4
I0
tp206
a(g199
I9
I0
tp207
a(g4
(g5
(S'S9'
p208
I0
I1
tp209
Rp210
(I3
S'|'
p211
NNNI9
I1
I0
tp212
bS'container'
p213
tp214
Rp215
I19
I0
tp216
a(g4
(g5
(S'S9'
p217
I0
I1
tp218
Rp219
(I3
S'|'
p220
NNNI9
I1
I0
tp221
bS'container'
p222
tp223
Rp224
I4
I0
tp225
a(g4
(g5
(S'S9'
p226
I0
I1
tp227
Rp228
(I3
S'|'
p229
NNNI9
I1
I0
tp230
bS'container'
p231
tp232
Rp233
I21
I1
tp234
a(g233
I24
I1
tp235
a(g233
I19
I1
tp236
a(g233
I23
I1
tp237
a(g233
I16
I1
tp238
a(g233
I0
I1
tp239
a(g233
I4
I1
tp240
a(g233
I9
I1
tp241
a(g4
(g5
(S'S4'
p242
I0
I1
tp243
Rp244
(I3
S'|'
p245
NNNI4
I1
I0
tp246
bS'blue'
p247
tp248
Rp249
I4
I0
tp250
a(g4
(g5
(S'S3'
p251
I0
I1
tp252
Rp253
(I3
S'|'
p254
NNNI3
I1
I0
tp255
bS'can'
p256
tp257
Rp258
I0
I0
tp259
a(g4
(g5
(S'S3'
p260
I0
I1
tp261
Rp262
(I3
S'|'
p263
NNNI3
I1
I0
tp264
bS'can'
p265
tp266
Rp267
I23
I0
tp268
a(g4
(g5
(S'S3'
p269
I0
I1
tp270
Rp271
(I3
S'|'
p272
NNNI3
I1
I0
tp273
bS'can'
p274
tp275
Rp276
I4
I0
tp277
a(g4
(g5
(S'S3'
p278
I0
I1
tp279
Rp280
(I3
S'|'
p281
NNNI3
I1
I0
tp282
bS'can'
p283
tp284
Rp285
I19
I0
tp286
a(g4
(g5
(S'S3'
p287
I0
I1
tp288
Rp289
(I3
S'|'
p290
NNNI3
I1
I0
tp291
bS'can'
p292
tp293
Rp294
I9
I0
tp295
aa(lp296
(S'plastic'
p297
S'color'
p298
I00
tp299
a(g297
S'container'
p300
I00
tp301
a(g297
S'metallic'
p302
I00
tp303
aa.