(lp0
(lp1
(dp2
S'action'
p3
cnumpy.core.multiarray
scalar
p4
(cnumpy
dtype
p5
(S'S4'
p6
I0
I1
tp7
Rp8
(I3
S'|'
p9
NNNI4
I1
I0
tp10
bS'walk'
p11
tp12
Rp13
sS'recipient'
p14
NsS'patient'
p15
NsS'goal'
p16
S'3504'
p17
sS'source'
p18
Nsa(dp19
g3
g4
(g5
(S'S5'
p20
I0
I1
tp21
Rp22
(I3
S'|'
p23
NNNI5
I1
I0
tp24
bS'bring'
p25
tp26
Rp27
sg14
S'h'
p28
sg15
S'oidx_12'
p29
sg16
Nsg18
Nsaa(lp30
(dp31
S'all'
p32
(lp33
S'go to er'
p34
asg15
(lp35
sg16
(lp36
S'printer'
p37
aS'next to pod'
p38
aS'room with printer'
p39
aS'lounge'
p40
asg18
(lp41
sg3
(lp42
sg14
(lp43
sa(dp44
g32
(lp45
S'take an object and give it to a person'
p46
asg15
(lp47
S'white cylindrical container'
p48
aS'white container with red lid'
p49
aS'white container with red lid'
p50
aS'white bottle with red lid'
p51
aS'white cylindrical container'
p52
aS'white cylindrical container'
p53
asg16
(lp54
sg18
(lp55
sg3
(lp56
sg14
(lp57
saa(lp58
(g4
(g5
(S'S4'
p59
I0
I1
tp60
Rp61
(I3
S'|'
p62
NNNI4
I1
I0
tp63
bS'blue'
p64
tp65
Rp66
I23
I0
tp67
a(g4
(g5
(S'S3'
p68
I0
I1
tp69
Rp70
(I3
S'|'
p71
NNNI3
I1
I0
tp72
bS'can'
p73
tp74
Rp75
I16
I1
tp76
a(g4
(g5
(S'S5'
p77
I0
I1
tp78
Rp79
(I3
S'|'
p80
NNNI5
I1
I0
tp81
bS'small'
p82
tp83
Rp84
I21
I1
tp85
a(g4
(g5
(S'S8'
p86
I0
I1
tp87
Rp88
(I3
S'|'
p89
NNNI8
I1
I0
tp90
bS'metallic'
p91
tp92
Rp93
I24
I1
tp94
a(g4
(g5
(S'S5'
p95
I0
I1
tp96
Rp97
(I3
S'|'
p98
NNNI5
I1
I0
tp99
bS'spice'
p100
tp101
Rp102
I21
I0
tp103
a(g102
I24
I0
tp104
a(g102
I19
I0
tp105
a(g102
I23
I0
tp106
a(g102
I16
I0
tp107
a(g102
I0
I0
tp108
a(g102
I4
I0
tp109
a(g102
I9
I0
tp110
a(g4
(g5
(S'S5'
p111
I0
I1
tp112
Rp113
(I3
S'|'
p114
NNNI5
I1
I0
tp115
bS'white'
p116
tp117
Rp118
I21
I0
tp119
a(g118
I24
I0
tp120
a(g118
I19
I0
tp121
a(g118
I23
I0
tp122
a(g118
I16
I0
tp123
a(g118
I0
I0
tp124
a(g118
I4
I0
tp125
a(g118
I9
I0
tp126
a(g4
(g5
(S'S9'
p127
I0
I1
tp128
Rp129
(I3
S'|'
p130
NNNI9
I1
I0
tp131
bS'container'
p132
tp133
Rp134
I21
I0
tp135
a(g4
(g5
(S'S9'
p136
I0
I1
tp137
Rp138
(I3
S'|'
p139
NNNI9
I1
I0
tp140
bS'container'
p141
tp142
Rp143
I4
I1
tp144
a(g4
(g5
(S'S9'
p145
I0
I1
tp146
Rp147
(I3
S'|'
p148
NNNI9
I1
I0
tp149
bS'container'
p150
tp151
Rp152
I19
I1
tp153
a(g4
(g5
(S'S9'
p154
I0
I1
tp155
Rp156
(I3
S'|'
p157
NNNI9
I1
I0
tp158
bS'container'
p159
tp160
Rp161
I23
I0
tp162
aa(lp163
a.