(lp0
(lp1
(dp2
S'action'
p3
cnumpy.core.multiarray
scalar
p4
(cnumpy
dtype
p5
(S'S4'
p6
I0
I1
tp7
Rp8
(I3
S'|'
p9
NNNI4
I1
I0
tp10
bS'walk'
p11
tp12
Rp13
sS'recipient'
p14
NsS'patient'
p15
NsS'goal'
p16
g4
(g5
(S'S4'
p17
I0
I1
tp18
Rp19
(I3
S'|'
p20
NNNI4
I1
I0
tp21
bS'3518'
p22
tp23
Rp24
sS'source'
p25
Nsa(dp26
g3
g4
(g5
(S'S5'
p27
I0
I1
tp28
Rp29
(I3
S'|'
p30
NNNI5
I1
I0
tp31
bS'bring'
p32
tp33
Rp34
sg14
g4
(g5
(S'S1'
p35
I0
I1
tp36
Rp37
(I3
S'|'
p38
NNNI1
I1
I0
tp39
bS'd'
p40
tp41
Rp42
sg15
g4
(g5
(S'S7'
p43
I0
I1
tp44
Rp45
(I3
S'|'
p46
NNNI7
I1
I0
tp47
bS'oidx_22'
p48
tp49
Rp50
sg16
Nsg25
Nsa(dp51
g3
g4
(g5
(S'S4'
p52
I0
I1
tp53
Rp54
(I3
S'|'
p55
NNNI4
I1
I0
tp56
bS'move'
p57
tp58
Rp59
sg14
Nsg15
S'oidx_11'
p60
sg16
S'3422'
p61
sg25
S'3402'
p62
saa(lp63
(dp64
S'all'
p65
(lp66
S'go to the bottom right pod'
p67
asg15
(lp68
sg16
(lp69
S'bottom right pod'
p70
asg25
(lp71
sg3
(lp72
sg14
(lp73
sa(dp74
g65
(lp75
S'give the object to david'
p76
asg15
(lp77
S'container with red lid'
p78
aS'container with red lid'
p79
aS'container'
p80
aS'object'
p81
asg16
(lp82
sg25
(lp83
sg3
(lp84
sg14
(lp85
sa(dp86
g65
(lp87
S'movie the container in the office to the conference room'
p88
asg15
(lp89
S'container with red lid'
p90
asg16
(lp91
S'conference'
p92
aS'conference'
p93
asg25
(lp94
S'office'
p95
asg3
(lp96
sg14
(lp97
saa(lp98
(g4
(g5
(S'S6'
p99
I0
I1
tp100
Rp101
(I3
S'|'
p102
NNNI6
I1
I0
tp103
bS'yellow'
p104
tp105
Rp106
I4
I1
tp107
a(g4
(g5
(S'S5'
p108
I0
I1
tp109
Rp110
(I3
S'|'
p111
NNNI5
I1
I0
tp112
bS'spice'
p113
tp114
Rp115
I21
I0
tp116
a(g115
I24
I0
tp117
a(g115
I19
I0
tp118
a(g115
I23
I0
tp119
a(g115
I16
I0
tp120
a(g115
I0
I0
tp121
a(g115
I4
I0
tp122
a(g115
I9
I0
tp123
a(g4
(g5
(S'S9'
p124
I0
I1
tp125
Rp126
(I3
S'|'
p127
NNNI9
I1
I0
tp128
bS'container'
p129
tp130
Rp131
I16
I1
tp132
a(g4
(g5
(S'S8'
p133
I0
I1
tp134
Rp135
(I3
S'|'
p136
NNNI8
I1
I0
tp137
bS'cylinder'
p138
tp139
Rp140
I21
I1
tp141
a(g140
I24
I1
tp142
a(g140
I19
I1
tp143
a(g140
I23
I1
tp144
a(g140
I16
I1
tp145
a(g140
I0
I1
tp146
a(g140
I4
I1
tp147
a(g140
I9
I1
tp148
a(g4
(g5
(S'S5'
p149
I0
I1
tp150
Rp151
(I3
S'|'
p152
NNNI5
I1
I0
tp153
bS'small'
p154
tp155
Rp156
I21
I0
tp157
a(g4
(g5
(S'S9'
p158
I0
I1
tp159
Rp160
(I3
S'|'
p161
NNNI9
I1
I0
tp162
bS'container'
p163
tp164
Rp165
I21
I1
tp166
a(g4
(g5
(S'S9'
p167
I0
I1
tp168
Rp169
(I3
S'|'
p170
NNNI9
I1
I0
tp171
bS'container'
p172
tp173
Rp174
I24
I1
tp175
a(g4
(g5
(S'S9'
p176
I0
I1
tp177
Rp178
(I3
S'|'
p179
NNNI9
I1
I0
tp180
bS'container'
p181
tp182
Rp183
I19
I1
tp184
a(g4
(g5
(S'S9'
p185
I0
I1
tp186
Rp187
(I3
S'|'
p188
NNNI9
I1
I0
tp189
bS'container'
p190
tp191
Rp192
I23
I1
tp193
a(g4
(g5
(S'S9'
p194
I0
I1
tp195
Rp196
(I3
S'|'
p197
NNNI9
I1
I0
tp198
bS'styrofoam'
p199
tp200
Rp201
I16
I0
tp202
a(g4
(g5
(S'S6'
p203
I0
I1
tp204
Rp205
(I3
S'|'
p206
NNNI6
I1
I0
tp207
bS'yellow'
p208
tp209
Rp210
I24
I1
tp211
a(g4
(g5
(S'S3'
p212
I0
I1
tp213
Rp214
(I3
S'|'
p215
NNNI3
I1
I0
tp216
bS'red'
p217
tp218
Rp219
I23
I0
tp220
a(g4
(g5
(S'S5'
p221
I0
I1
tp222
Rp223
(I3
S'|'
p224
NNNI5
I1
I0
tp225
bS'white'
p226
tp227
Rp228
I21
I1
tp229
a(g4
(g5
(S'S5'
p230
I0
I1
tp231
Rp232
(I3
S'|'
p233
NNNI5
I1
I0
tp234
bS'clear'
p235
tp236
Rp237
I21
I0
tp238
a(g237
I24
I0
tp239
a(g237
I19
I0
tp240
a(g237
I23
I0
tp241
a(g237
I16
I0
tp242
a(g237
I0
I0
tp243
a(g237
I4
I0
tp244
a(g237
I9
I0
tp245
a(g4
(g5
(S'S5'
p246
I0
I1
tp247
Rp248
(I3
S'|'
p249
NNNI5
I1
I0
tp250
bS'peach'
p251
tp252
Rp253
I21
I0
tp254
a(g253
I24
I0
tp255
a(g253
I19
I0
tp256
a(g253
I23
I0
tp257
a(g253
I16
I0
tp258
a(g253
I0
I0
tp259
a(g253
I4
I0
tp260
a(g253
I9
I0
tp261
aa(lp262
a.