(lp0
(lp1
(dp2
S'action'
p3
cnumpy.core.multiarray
scalar
p4
(cnumpy
dtype
p5
(S'S4'
p6
I0
I1
tp7
Rp8
(I3
S'|'
p9
NNNI4
I1
I0
tp10
bS'walk'
p11
tp12
Rp13
sS'recipient'
p14
NsS'patient'
p15
NsS'goal'
p16
S'3414b'
p17
sS'source'
p18
Nsa(dp19
g3
g4
(g5
(S'S5'
p20
I0
I1
tp21
Rp22
(I3
S'|'
p23
NNNI5
I1
I0
tp24
bS'bring'
p25
tp26
Rp27
sg14
g4
(g5
(S'S1'
p28
I0
I1
tp29
Rp30
(I3
S'|'
p31
NNNI1
I1
I0
tp32
bS'w'
p33
tp34
Rp35
sg15
g4
(g5
(S'S7'
p36
I0
I1
tp37
Rp38
(I3
S'|'
p39
NNNI7
I1
I0
tp40
bS'oidx_26'
p41
tp42
Rp43
sg16
Nsg18
Nsaa(lp44
(dp45
S'all'
p46
(lp47
S'go to the lab'
p48
asg15
(lp49
sg16
(lp50
S'lab'
p51
aS'the lab'
p52
asg18
(lp53
sg3
(lp54
sg14
(lp55
sa(dp56
g46
(lp57
S'take the open red drink can to mallory maroon'
p58
asg15
(lp59
S'a red can'
p60
aS'a soda can'
p61
aS'a red can'
p62
asg16
(lp63
sg18
(lp64
sg3
(lp65
sg14
(lp66
S'm'
p67
aS'w'
p68
asaa(lp69
(g4
(g5
(S'S5'
p70
I0
I1
tp71
Rp72
(I3
S'|'
p73
NNNI5
I1
I0
tp74
bS'small'
p75
tp76
Rp77
I21
I1
tp78
a(g4
(g5
(S'S5'
p79
I0
I1
tp80
Rp81
(I3
S'|'
p82
NNNI5
I1
I0
tp83
bS'large'
p84
tp85
Rp86
I0
I0
tp87
a(g4
(g5
(S'S6'
p88
I0
I1
tp89
Rp90
(I3
S'|'
p91
NNNI6
I1
I0
tp92
bS'coffee'
p93
tp94
Rp95
I9
I1
tp96
a(g4
(g5
(S'S5'
p97
I0
I1
tp98
Rp99
(I3
S'|'
p100
NNNI5
I1
I0
tp101
bS'large'
p102
tp103
Rp104
I0
I0
tp105
a(g4
(g5
(S'S3'
p106
I0
I1
tp107
Rp108
(I3
S'|'
p109
NNNI3
I1
I0
tp110
bS'red'
p111
tp112
Rp113
I24
I0
tp114
a(g4
(g5
(S'S3'
p115
I0
I1
tp116
Rp117
(I3
S'|'
p118
NNNI3
I1
I0
tp119
bS'red'
p120
tp121
Rp122
I23
I0
tp123
a(g4
(g5
(S'S3'
p124
I0
I1
tp125
Rp126
(I3
S'|'
p127
NNNI3
I1
I0
tp128
bS'red'
p129
tp130
Rp131
I4
I0
tp132
a(g4
(g5
(S'S3'
p133
I0
I1
tp134
Rp135
(I3
S'|'
p136
NNNI3
I1
I0
tp137
bS'can'
p138
tp139
Rp140
I9
I0
tp141
a(g4
(g5
(S'S3'
p142
I0
I1
tp143
Rp144
(I3
S'|'
p145
NNNI3
I1
I0
tp146
bS'can'
p147
tp148
Rp149
I21
I0
tp150
a(g4
(g5
(S'S3'
p151
I0
I1
tp152
Rp153
(I3
S'|'
p154
NNNI3
I1
I0
tp155
bS'can'
p156
tp157
Rp158
I4
I0
tp159
aa(lp160
a.