(lp0
(lp1
(dp2
S'action'
p3
cnumpy.core.multiarray
scalar
p4
(cnumpy
dtype
p5
(S'S4'
p6
I0
I1
tp7
Rp8
(I3
S'|'
p9
NNNI4
I1
I0
tp10
bS'walk'
p11
tp12
Rp13
sS'recipient'
p14
NsS'patient'
p15
NsS'goal'
p16
S'3504'
p17
sS'source'
p18
Nsa(dp19
g3
g4
(g5
(S'S5'
p20
I0
I1
tp21
Rp22
(I3
S'|'
p23
NNNI5
I1
I0
tp24
bS'bring'
p25
tp26
Rp27
sg14
g4
(g5
(S'S1'
p28
I0
I1
tp29
Rp30
(I3
S'|'
p31
NNNI1
I1
I0
tp32
bS'd'
p33
tp34
Rp35
sg15
S'oidx_13'
p36
sg16
Nsg18
Nsa(dp37
g3
g4
(g5
(S'S4'
p38
I0
I1
tp39
Rp40
(I3
S'|'
p41
NNNI4
I1
I0
tp42
bS'move'
p43
tp44
Rp45
sg14
Nsg15
g36
sg16
g4
(g5
(S'S4'
p46
I0
I1
tp47
Rp48
(I3
S'|'
p49
NNNI4
I1
I0
tp50
bS'3432'
p51
tp52
Rp53
sg18
S'3508'
p54
saa(lp55
(dp56
S'all'
p57
(lp58
S"go to the pod room next to mallory maroon 's office"
p59
asg15
(lp60
sg16
(lp61
S"pod room next to mallory maroon 's office"
p62
asg18
(lp63
sg3
(lp64
sg14
(lp65
sa(dp66
g57
(lp67
S'take the blue pringles can to david daniel'
p68
asg15
(lp69
S'the blue pringles can'
p70
aS'the blue pringles can'
p71
aS'the blue column shaped can'
p72
asg16
(lp73
sg18
(lp74
sg3
(lp75
sg14
(lp76
S'david dave daniel'
p77
asa(dp78
g57
(lp79
S"take the blue pringles can from peggy parker 's office to the empty office next to dr sybil smalt 's office"
p80
asg15
(lp81
S'the blue pringles can'
p82
asg16
(lp83
S"to the empty office next to dr sybil smalt 's office"
p84
asg18
(lp85
S"from peggy parker 's office"
p86
asg3
(lp87
sg14
(lp88
saa(lp89
(g4
(g5
(S'S5'
p90
I0
I1
tp91
Rp92
(I3
S'|'
p93
NNNI5
I1
I0
tp94
bS'tower'
p95
tp96
Rp97
I19
I1
tp98
a(g4
(g5
(S'S6'
p99
I0
I1
tp100
Rp101
(I3
S'|'
p102
NNNI6
I1
I0
tp103
bS'coffee'
p104
tp105
Rp106
I9
I1
tp107
a(g4
(g5
(S'S4'
p108
I0
I1
tp109
Rp110
(I3
S'|'
p111
NNNI4
I1
I0
tp112
bS'bean'
p113
tp114
Rp115
I21
I0
tp116
a(g115
I24
I0
tp117
a(g115
I19
I0
tp118
a(g115
I23
I0
tp119
a(g115
I16
I0
tp120
a(g115
I0
I0
tp121
a(g115
I4
I0
tp122
a(g115
I9
I0
tp123
a(g4
(g5
(S'S5'
p124
I0
I1
tp125
Rp126
(I3
S'|'
p127
NNNI5
I1
I0
tp128
bS'tower'
p129
tp130
Rp131
I4
I0
tp132
a(g4
(g5
(S'S6'
p133
I0
I1
tp134
Rp135
(I3
S'|'
p136
NNNI6
I1
I0
tp137
bS'coffee'
p138
tp139
Rp140
I16
I1
tp141
a(g4
(g5
(S'S8'
p142
I0
I1
tp143
Rp144
(I3
S'|'
p145
NNNI8
I1
I0
tp146
bS'pringles'
p147
tp148
Rp149
I21
I0
tp150
a(g149
I24
I0
tp151
a(g149
I19
I0
tp152
a(g149
I23
I0
tp153
a(g149
I16
I0
tp154
a(g149
I0
I0
tp155
a(g149
I4
I0
tp156
a(g149
I9
I0
tp157
a(g4
(g5
(S'S4'
p158
I0
I1
tp159
Rp160
(I3
S'|'
p161
NNNI4
I1
I0
tp162
bS'blue'
p163
tp164
Rp165
I21
I0
tp166
a(g4
(g5
(S'S6'
p167
I0
I1
tp168
Rp169
(I3
S'|'
p170
NNNI6
I1
I0
tp171
bS'yellow'
p172
tp173
Rp174
I23
I1
tp175
a(g4
(g5
(S'S9'
p176
I0
I1
tp177
Rp178
(I3
S'|'
p179
NNNI9
I1
I0
tp180
bS'container'
p181
tp182
Rp183
I21
I0
tp184
a(g4
(g5
(S'S3'
p185
I0
I1
tp186
Rp187
(I3
S'|'
p188
NNNI3
I1
I0
tp189
bS'red'
p190
tp191
Rp192
I23
I0
tp193
a(g4
(g5
(S'S3'
p194
I0
I1
tp195
Rp196
(I3
S'|'
p197
NNNI3
I1
I0
tp198
bS'can'
p199
tp200
Rp201
I23
I0
tp202
a(g4
(g5
(S'S5'
p203
I0
I1
tp204
Rp205
(I3
S'|'
p206
NNNI5
I1
I0
tp207
bS'block'
p208
tp209
Rp210
I21
I0
tp211
a(g210
I24
I0
tp212
a(g210
I19
I0
tp213
a(g210
I23
I0
tp214
a(g210
I16
I0
tp215
a(g210
I0
I0
tp216
a(g210
I4
I0
tp217
a(g210
I9
I0
tp218
a(g4
(g5
(S'S9'
p219
I0
I1
tp220
Rp221
(I3
S'|'
p222
NNNI9
I1
I0
tp223
bS'container'
p224
tp225
Rp226
I24
I0
tp227
a(g4
(g5
(S'S9'
p228
I0
I1
tp229
Rp230
(I3
S'|'
p231
NNNI9
I1
I0
tp232
bS'styrofoam'
p233
tp234
Rp235
I23
I0
tp236
a(g4
(g5
(S'S5'
p237
I0
I1
tp238
Rp239
(I3
S'|'
p240
NNNI5
I1
I0
tp241
bS'clear'
p242
tp243
Rp244
I21
I0
tp245
a(g244
I24
I0
tp246
a(g244
I19
I0
tp247
a(g244
I23
I0
tp248
a(g244
I16
I0
tp249
a(g244
I0
I0
tp250
a(g244
I4
I0
tp251
a(g244
I9
I0
tp252
aa(lp253
a.