(lp0
(lp1
(dp2
S'action'
p3
cnumpy.core.multiarray
scalar
p4
(cnumpy
dtype
p5
(S'S4'
p6
I0
I1
tp7
Rp8
(I3
S'|'
p9
NNNI4
I1
I0
tp10
bS'walk'
p11
tp12
Rp13
sS'recipient'
p14
NsS'patient'
p15
NsS'goal'
p16
g4
(g5
(S'S4'
p17
I0
I1
tp18
Rp19
(I3
S'|'
p20
NNNI4
I1
I0
tp21
bS'3506'
p22
tp23
Rp24
sS'source'
p25
Nsa(dp26
g3
g4
(g5
(S'S5'
p27
I0
I1
tp28
Rp29
(I3
S'|'
p30
NNNI5
I1
I0
tp31
bS'bring'
p32
tp33
Rp34
sg14
S'p'
p35
sg15
S'oidx_13'
p36
sg16
Nsg25
Nsa(dp37
g3
g4
(g5
(S'S4'
p38
I0
I1
tp39
Rp40
(I3
S'|'
p41
NNNI4
I1
I0
tp42
bS'move'
p43
tp44
Rp45
sg14
Nsg15
g4
(g5
(S'S7'
p46
I0
I1
tp47
Rp48
(I3
S'|'
p49
NNNI7
I1
I0
tp50
bS'oidx_28'
p51
tp52
Rp53
sg16
g4
(g5
(S'S4'
p54
I0
I1
tp55
Rp56
(I3
S'|'
p57
NNNI4
I1
I0
tp58
bS'3408'
p59
tp60
Rp61
sg25
S'3404'
p62
saa(lp63
(dp64
S'all'
p65
(lp66
S'go to the printer room'
p67
asg15
(lp68
sg16
(lp69
sg25
(lp70
sg3
(lp71
sg14
(lp72
sa(dp73
g65
(lp74
S'take blue color object to person n'
p75
asg15
(lp76
S'blue color container'
p77
aS'blue color container'
p78
aS'blue color container'
p79
aS'blue color container'
p80
aS'blue color container'
p81
aS'blue color container'
p82
aS'long container blue'
p83
asg16
(lp84
sg25
(lp85
sg3
(lp86
sg14
(lp87
S'person n'
p88
asa(dp89
g65
(lp90
S'take thermocol from bottom left office to top left pod'
p91
asg15
(lp92
S'thermocol piece'
p93
aS'white color object'
p94
aS'white long object'
p95
aS'white color object'
p96
aS'chalk'
p97
aS'container'
p98
aS'white'
p99
asg16
(lp100
S'to the top left pod'
p101
asg25
(lp102
S'bottom left office to top left pod'
p103
asg3
(lp104
sg14
(lp105
saa(lp106
(g4
(g5
(S'S8'
p107
I0
I1
tp108
Rp109
(I3
S'|'
p110
NNNI8
I1
I0
tp111
bS'metallic'
p112
tp113
Rp114
I0
I1
tp115
a(g4
(g5
(S'S5'
p116
I0
I1
tp117
Rp118
(I3
S'|'
p119
NNNI5
I1
I0
tp120
bS'empty'
p121
tp122
Rp123
I9
I0
tp124
a(g4
(g5
(S'S3'
p125
I0
I1
tp126
Rp127
(I3
S'|'
p128
NNNI3
I1
I0
tp129
bS'red'
p130
tp131
Rp132
I19
I0
tp133
a(g4
(g5
(S'S4'
p134
I0
I1
tp135
Rp136
(I3
S'|'
p137
NNNI4
I1
I0
tp138
bS'long'
p139
tp140
Rp141
I16
I0
tp142
a(g4
(g5
(S'S6'
p143
I0
I1
tp144
Rp145
(I3
S'|'
p146
NNNI6
I1
I0
tp147
bS'yellow'
p148
tp149
Rp150
I23
I1
tp151
a(g4
(g5
(S'S4'
p152
I0
I1
tp153
Rp154
(I3
S'|'
p155
NNNI4
I1
I0
tp156
bS'blue'
p157
tp158
Rp159
I9
I0
tp160
a(g4
(g5
(S'S9'
p161
I0
I1
tp162
Rp163
(I3
S'|'
p164
NNNI9
I1
I0
tp165
bS'container'
p166
tp167
Rp168
I24
I1
tp169
a(g4
(g5
(S'S9'
p170
I0
I1
tp171
Rp172
(I3
S'|'
p173
NNNI9
I1
I0
tp174
bS'container'
p175
tp176
Rp177
I16
I1
tp178
a(g4
(g5
(S'S4'
p179
I0
I1
tp180
Rp181
(I3
S'|'
p182
NNNI4
I1
I0
tp183
bS'blue'
p184
tp185
Rp186
I0
I0
tp187
a(g4
(g5
(S'S4'
p188
I0
I1
tp189
Rp190
(I3
S'|'
p191
NNNI4
I1
I0
tp192
bS'blue'
p193
tp194
Rp195
I19
I0
tp196
a(g4
(g5
(S'S5'
p197
I0
I1
tp198
Rp199
(I3
S'|'
p200
NNNI5
I1
I0
tp201
bS'clear'
p202
tp203
Rp204
I21
I0
tp205
a(g204
I24
I0
tp206
a(g204
I19
I0
tp207
a(g204
I23
I0
tp208
a(g204
I16
I0
tp209
a(g204
I0
I0
tp210
a(g204
I4
I0
tp211
a(g204
I9
I0
tp212
a(g4
(g5
(S'S8'
p213
I0
I1
tp214
Rp215
(I3
S'|'
p216
NNNI8
I1
I0
tp217
bS'cylinder'
p218
tp219
Rp220
I0
I0
tp221
a(g4
(g5
(S'S5'
p222
I0
I1
tp223
Rp224
(I3
S'|'
p225
NNNI5
I1
I0
tp226
bS'empty'
p227
tp228
Rp229
I21
I0
tp230
a(g4
(g5
(S'S4'
p231
I0
I1
tp232
Rp233
(I3
S'|'
p234
NNNI4
I1
I0
tp235
bS'blue'
p236
tp237
Rp238
I21
I0
tp239
a(g4
(g5
(S'S9'
p240
I0
I1
tp241
Rp242
(I3
S'|'
p243
NNNI9
I1
I0
tp244
bS'container'
p245
tp246
Rp247
I23
I1
tp248
aa(lp249
a.