(lp0
(lp1
(dp2
S'action'
p3
cnumpy.core.multiarray
scalar
p4
(cnumpy
dtype
p5
(S'S4'
p6
I0
I1
tp7
Rp8
(I3
S'|'
p9
NNNI4
I1
I0
tp10
bS'move'
p11
tp12
Rp13
sS'recipient'
p14
NsS'patient'
p15
S'oidx_6'
p16
sS'goal'
p17
S'3418'
p18
sS'source'
p19
S'3414'
p20
saa(lp21
(dp22
S'all'
p23
(lp24
S'working'
p25
asg15
(lp26
sg17
(lp27
sg19
(lp28
S'no'
p29
aS''
p30
aS'yes'
p31
ag30
asg3
(lp32
sg14
(lp33
saa(lp34
(g4
(g5
(S'S5'
p35
I0
I1
tp36
Rp37
(I3
S'|'
p38
NNNI5
I1
I0
tp39
bS'small'
p40
tp41
Rp42
I21
I1
tp43
a(g4
(g5
(S'S5'
p44
I0
I1
tp45
Rp46
(I3
S'|'
p47
NNNI5
I1
I0
tp48
bS'tower'
p49
tp50
Rp51
I21
I0
tp52
a(g51
I24
I0
tp53
a(g51
I19
I0
tp54
a(g51
I23
I0
tp55
a(g51
I16
I0
tp56
a(g51
I0
I0
tp57
a(g51
I4
I0
tp58
a(g51
I9
I0
tp59
a(g4
(g5
(S'S4'
p60
I0
I1
tp61
Rp62
(I3
S'|'
p63
NNNI4
I1
I0
tp64
bS'bean'
p65
tp66
Rp67
I21
I0
tp68
a(g67
I24
I0
tp69
a(g67
I19
I0
tp70
a(g67
I23
I0
tp71
a(g67
I16
I0
tp72
a(g67
I0
I0
tp73
a(g67
I4
I0
tp74
a(g67
I9
I0
tp75
a(g4
(g5
(S'S8'
p76
I0
I1
tp77
Rp78
(I3
S'|'
p79
NNNI8
I1
I0
tp80
bS'cylinder'
p81
tp82
Rp83
I21
I1
tp84
a(g83
I24
I1
tp85
a(g83
I19
I1
tp86
a(g83
I23
I1
tp87
a(g83
I16
I1
tp88
a(g83
I0
I1
tp89
a(g83
I4
I1
tp90
a(g83
I9
I1
tp91
a(g4
(g5
(S'S4'
p92
I0
I1
tp93
Rp94
(I3
S'|'
p95
NNNI4
I1
I0
tp96
bS'long'
p97
tp98
Rp99
I16
I1
tp100
aa(lp101
a.