(lp0
(lp1
(dp2
S'action'
p3
cnumpy.core.multiarray
scalar
p4
(cnumpy
dtype
p5
(S'S4'
p6
I0
I1
tp7
Rp8
(I3
S'|'
p9
NNNI4
I1
I0
tp10
bS'walk'
p11
tp12
Rp13
sS'recipient'
p14
NsS'patient'
p15
NsS'goal'
p16
g4
(g5
(S'S4'
p17
I0
I1
tp18
Rp19
(I3
S'|'
p20
NNNI4
I1
I0
tp21
bS'3520'
p22
tp23
Rp24
sS'source'
p25
Nsa(dp26
g3
g4
(g5
(S'S5'
p27
I0
I1
tp28
Rp29
(I3
S'|'
p30
NNNI5
I1
I0
tp31
bS'bring'
p32
tp33
Rp34
sg14
g4
(g5
(S'S1'
p35
I0
I1
tp36
Rp37
(I3
S'|'
p38
NNNI1
I1
I0
tp39
bS'm'
p40
tp41
Rp42
sg15
g4
(g5
(S'S6'
p43
I0
I1
tp44
Rp45
(I3
S'|'
p46
NNNI6
I1
I0
tp47
bS'oidx_6'
p48
tp49
Rp50
sg16
Nsg25
Nsaa(lp51
(dp52
S'all'
p53
(lp54
S'go to the kitchen'
p55
asg15
(lp56
sg16
(lp57
sg25
(lp58
sg3
(lp59
sg14
(lp60
sa(dp61
g53
(lp62
S'bring the pills to mal'
p63
asg15
(lp64
S'the small pill bottle'
p65
aS'the bottle of aspirin'
p66
aS'the pill bottle'
p67
asg16
(lp68
sg25
(lp69
sg3
(lp70
sg14
(lp71
saa(lp72
(g4
(g5
(S'S9'
p73
I0
I1
tp74
Rp75
(I3
S'|'
p76
NNNI9
I1
I0
tp77
bS'container'
p78
tp79
Rp80
I19
I1
tp81
a(g4
(g5
(S'S9'
p82
I0
I1
tp83
Rp84
(I3
S'|'
p85
NNNI9
I1
I0
tp86
bS'styrofoam'
p87
tp88
Rp89
I9
I0
tp90
a(g4
(g5
(S'S4'
p91
I0
I1
tp92
Rp93
(I3
S'|'
p94
NNNI4
I1
I0
tp95
bS'bean'
p96
tp97
Rp98
I0
I1
tp99
a(g4
(g5
(S'S4'
p100
I0
I1
tp101
Rp102
(I3
S'|'
p103
NNNI4
I1
I0
tp104
bS'long'
p105
tp106
Rp107
I16
I0
tp108
a(g4
(g5
(S'S5'
p109
I0
I1
tp110
Rp111
(I3
S'|'
p112
NNNI5
I1
I0
tp113
bS'empty'
p114
tp115
Rp116
I0
I0
tp117
a(g4
(g5
(S'S5'
p118
I0
I1
tp119
Rp120
(I3
S'|'
p121
NNNI5
I1
I0
tp122
bS'spice'
p123
tp124
Rp125
I21
I0
tp126
a(g125
I24
I0
tp127
a(g125
I19
I0
tp128
a(g125
I23
I0
tp129
a(g125
I16
I0
tp130
a(g125
I0
I0
tp131
a(g125
I4
I0
tp132
a(g125
I9
I0
tp133
a(g4
(g5
(S'S5'
p134
I0
I1
tp135
Rp136
(I3
S'|'
p137
NNNI5
I1
I0
tp138
bS'white'
p139
tp140
Rp141
I21
I1
tp142
a(g4
(g5
(S'S5'
p143
I0
I1
tp144
Rp145
(I3
S'|'
p146
NNNI5
I1
I0
tp147
bS'large'
p148
tp149
Rp150
I19
I0
tp151
a(g4
(g5
(S'S4'
p152
I0
I1
tp153
Rp154
(I3
S'|'
p155
NNNI4
I1
I0
tp156
bS'bean'
p157
tp158
Rp159
I21
I0
tp160
a(g4
(g5
(S'S6'
p161
I0
I1
tp162
Rp163
(I3
S'|'
p164
NNNI6
I1
I0
tp165
bS'coffee'
p166
tp167
Rp168
I9
I1
tp169
aa(lp170
a.