(lp0
(lp1
(dp2
S'action'
p3
cnumpy.core.multiarray
scalar
p4
(cnumpy
dtype
p5
(S'S4'
p6
I0
I1
tp7
Rp8
(I3
S'|'
p9
NNNI4
I1
I0
tp10
bS'walk'
p11
tp12
Rp13
sS'recipient'
p14
NsS'patient'
p15
NsS'goal'
p16
g4
(g5
(S'S4'
p17
I0
I1
tp18
Rp19
(I3
S'|'
p20
NNNI4
I1
I0
tp21
bS'3514'
p22
tp23
Rp24
sS'source'
p25
Nsaa(lp26
(dp27
S'all'
p28
(lp29
S'go to the lounge'
p30
asg15
(lp31
sg16
(lp32
S'the lounge'
p33
asg25
(lp34
sg3
(lp35
sg14
(lp36
saa(lp37
(g4
(g5
(S'S5'
p38
I0
I1
tp39
Rp40
(I3
S'|'
p41
NNNI5
I1
I0
tp42
bS'small'
p43
tp44
Rp45
I21
I1
tp46
a(g4
(g5
(S'S5'
p47
I0
I1
tp48
Rp49
(I3
S'|'
p50
NNNI5
I1
I0
tp51
bS'peach'
p52
tp53
Rp54
I21
I0
tp55
a(g54
I24
I0
tp56
a(g54
I19
I0
tp57
a(g54
I23
I0
tp58
a(g54
I16
I0
tp59
a(g54
I0
I0
tp60
a(g54
I4
I0
tp61
a(g54
I9
I0
tp62
a(g4
(g5
(S'S4'
p63
I0
I1
tp64
Rp65
(I3
S'|'
p66
NNNI4
I1
I0
tp67
bS'blue'
p68
tp69
Rp70
I19
I0
tp71
a(g4
(g5
(S'S4'
p72
I0
I1
tp73
Rp74
(I3
S'|'
p75
NNNI4
I1
I0
tp76
bS'blue'
p77
tp78
Rp79
I21
I0
tp80
a(g4
(g5
(S'S6'
p81
I0
I1
tp82
Rp83
(I3
S'|'
p84
NNNI6
I1
I0
tp85
bS'column'
p86
tp87
Rp88
I16
I1
tp89
aa(lp90
a.