(lp0
(lp1
(dp2
S'action'
p3
cnumpy.core.multiarray
scalar
p4
(cnumpy
dtype
p5
(S'S4'
p6
I0
I1
tp7
Rp8
(I3
S'|'
p9
NNNI4
I1
I0
tp10
bS'walk'
p11
tp12
Rp13
sS'recipient'
p14
NsS'patient'
p15
NsS'goal'
p16
S'3422'
p17
sS'source'
p18
Nsa(dp19
g3
g4
(g5
(S'S5'
p20
I0
I1
tp21
Rp22
(I3
S'|'
p23
NNNI5
I1
I0
tp24
bS'bring'
p25
tp26
Rp27
sg14
g4
(g5
(S'S1'
p28
I0
I1
tp29
Rp30
(I3
S'|'
p31
NNNI1
I1
I0
tp32
bS'n'
p33
tp34
Rp35
sg15
g4
(g5
(S'S7'
p36
I0
I1
tp37
Rp38
(I3
S'|'
p39
NNNI7
I1
I0
tp40
bS'oidx_26'
p41
tp42
Rp43
sg16
Nsg18
Nsaa(lp44
(dp45
S'all'
p46
(lp47
S"head to the north side of the building and enter walter ward 's office which is located 4 rooms west from the east wall"
p48
asg15
(lp49
sg16
(lp50
S"walter ward 's office"
p51
asg18
(lp52
sg3
(lp53
sg14
(lp54
sa(dp55
g46
(lp56
S'deliver drink to dr nancy nagel'
p57
asg15
(lp58
S'object'
p59
aS'cylinder object'
p60
aS'beverage'
p61
asg16
(lp62
sg18
(lp63
sg3
(lp64
sg14
(lp65
saa(lp66
(g4
(g5
(S'S4'
p67
I0
I1
tp68
Rp69
(I3
S'|'
p70
NNNI4
I1
I0
tp71
bS'blue'
p72
tp73
Rp74
I0
I0
tp75
a(g4
(g5
(S'S5'
p76
I0
I1
tp77
Rp78
(I3
S'|'
p79
NNNI5
I1
I0
tp80
bS'empty'
p81
tp82
Rp83
I21
I0
tp84
a(g4
(g5
(S'S4'
p85
I0
I1
tp86
Rp87
(I3
S'|'
p88
NNNI4
I1
I0
tp89
bS'bean'
p90
tp91
Rp92
I21
I0
tp93
a(g92
I24
I0
tp94
a(g92
I19
I0
tp95
a(g92
I23
I0
tp96
a(g92
I16
I0
tp97
a(g92
I0
I0
tp98
a(g92
I4
I0
tp99
a(g92
I9
I0
tp100
a(g4
(g5
(S'S6'
p101
I0
I1
tp102
Rp103
(I3
S'|'
p104
NNNI6
I1
I0
tp105
bS'coffee'
p106
tp107
Rp108
I21
I0
tp109
a(g108
I24
I0
tp110
a(g108
I19
I0
tp111
a(g108
I23
I0
tp112
a(g108
I16
I0
tp113
a(g108
I0
I0
tp114
a(g108
I4
I0
tp115
a(g108
I9
I0
tp116
a(g4
(g5
(S'S9'
p117
I0
I1
tp118
Rp119
(I3
S'|'
p120
NNNI9
I1
I0
tp121
bS'container'
p122
tp123
Rp124
I0
I1
tp125
a(g4
(g5
(S'S8'
p126
I0
I1
tp127
Rp128
(I3
S'|'
p129
NNNI8
I1
I0
tp130
bS'cylinder'
p131
tp132
Rp133
I21
I1
tp134
a(g133
I24
I1
tp135
a(g133
I19
I1
tp136
a(g133
I23
I1
tp137
a(g133
I16
I1
tp138
a(g133
I0
I1
tp139
a(g133
I4
I1
tp140
a(g133
I9
I1
tp141
a(g4
(g5
(S'S3'
p142
I0
I1
tp143
Rp144
(I3
S'|'
p145
NNNI3
I1
I0
tp146
bS'can'
p147
tp148
Rp149
I19
I1
tp150
a(g4
(g5
(S'S9'
p151
I0
I1
tp152
Rp153
(I3
S'|'
p154
NNNI9
I1
I0
tp155
bS'container'
p156
tp157
Rp158
I19
I1
tp159
a(g4
(g5
(S'S3'
p160
I0
I1
tp161
Rp162
(I3
S'|'
p163
NNNI3
I1
I0
tp164
bS'can'
p165
tp166
Rp167
I23
I0
tp168
a(g4
(g5
(S'S8'
p169
I0
I1
tp170
Rp171
(I3
S'|'
p172
NNNI8
I1
I0
tp173
bS'pringles'
p174
tp175
Rp176
I21
I0
tp177
a(g176
I24
I0
tp178
a(g176
I19
I0
tp179
a(g176
I23
I0
tp180
a(g176
I16
I0
tp181
a(g176
I0
I0
tp182
a(g176
I4
I0
tp183
a(g176
I9
I0
tp184
aa(lp185
a.