(lp0
(lp1
(dp2
S'action'
p3
cnumpy.core.multiarray
scalar
p4
(cnumpy
dtype
p5
(S'S4'
p6
I0
I1
tp7
Rp8
(I3
S'|'
p9
NNNI4
I1
I0
tp10
bS'walk'
p11
tp12
Rp13
sS'recipient'
p14
NsS'patient'
p15
NsS'goal'
p16
g4
(g5
(S'S4'
p17
I0
I1
tp18
Rp19
(I3
S'|'
p20
NNNI4
I1
I0
tp21
bS'3416'
p22
tp23
Rp24
sS'source'
p25
Nsa(dp26
g3
g4
(g5
(S'S5'
p27
I0
I1
tp28
Rp29
(I3
S'|'
p30
NNNI5
I1
I0
tp31
bS'bring'
p32
tp33
Rp34
sg14
g4
(g5
(S'S1'
p35
I0
I1
tp36
Rp37
(I3
S'|'
p38
NNNI1
I1
I0
tp39
bS'r'
p40
tp41
Rp42
sg15
g4
(g5
(S'S7'
p43
I0
I1
tp44
Rp45
(I3
S'|'
p46
NNNI7
I1
I0
tp47
bS'oidx_26'
p48
tp49
Rp50
sg16
Nsg25
Nsaa(lp51
(dp52
S'all'
p53
(lp54
S'go to the office located between david daniels office and the conference room'
p55
asg15
(lp56
sg16
(lp57
S'go to the office located between david daniels office and the conference room'
p58
aS'go to the conference room in the north hall'
p59
asg25
(lp60
sg3
(lp61
sg14
(lp62
sa(dp63
g53
(lp64
S'richard needs a coke'
p65
asg15
(lp66
S'red can'
p67
aS'richard'
p68
aS'red drink'
p69
asg16
(lp70
sg25
(lp71
sg3
(lp72
sg14
(lp73
saa(lp74
(g4
(g5
(S'S6'
p75
I0
I1
tp76
Rp77
(I3
S'|'
p78
NNNI6
I1
I0
tp79
bS'column'
p80
tp81
Rp82
I4
I0
tp83
a(g4
(g5
(S'S5'
p84
I0
I1
tp85
Rp86
(I3
S'|'
p87
NNNI5
I1
I0
tp88
bS'white'
p89
tp90
Rp91
I21
I0
tp92
a(g91
I24
I0
tp93
a(g91
I19
I0
tp94
a(g91
I23
I0
tp95
a(g91
I16
I0
tp96
a(g91
I0
I0
tp97
a(g91
I4
I0
tp98
a(g91
I9
I0
tp99
a(g4
(g5
(S'S3'
p100
I0
I1
tp101
Rp102
(I3
S'|'
p103
NNNI3
I1
I0
tp104
bS'can'
p105
tp106
Rp107
I4
I0
tp108
a(g4
(g5
(S'S3'
p109
I0
I1
tp110
Rp111
(I3
S'|'
p112
NNNI3
I1
I0
tp113
bS'red'
p114
tp115
Rp116
I19
I0
tp117
a(g4
(g5
(S'S5'
p118
I0
I1
tp119
Rp120
(I3
S'|'
p121
NNNI5
I1
I0
tp122
bS'empty'
p123
tp124
Rp125
I0
I0
tp126
a(g4
(g5
(S'S4'
p127
I0
I1
tp128
Rp129
(I3
S'|'
p130
NNNI4
I1
I0
tp131
bS'coke'
p132
tp133
Rp134
I21
I0
tp135
a(g134
I24
I0
tp136
a(g134
I19
I0
tp137
a(g134
I23
I0
tp138
a(g134
I16
I0
tp139
a(g134
I0
I0
tp140
a(g134
I4
I0
tp141
a(g134
I9
I0
tp142
a(g4
(g5
(S'S9'
p143
I0
I1
tp144
Rp145
(I3
S'|'
p146
NNNI9
I1
I0
tp147
bS'container'
p148
tp149
Rp150
I19
I1
tp151
a(g4
(g5
(S'S8'
p152
I0
I1
tp153
Rp154
(I3
S'|'
p155
NNNI8
I1
I0
tp156
bS'metallic'
p157
tp158
Rp159
I0
I1
tp160
a(g4
(g5
(S'S5'
p161
I0
I1
tp162
Rp163
(I3
S'|'
p164
NNNI5
I1
I0
tp165
bS'brown'
p166
tp167
Rp168
I23
I0
tp169
a(g4
(g5
(S'S6'
p170
I0
I1
tp171
Rp172
(I3
S'|'
p173
NNNI6
I1
I0
tp174
bS'yellow'
p175
tp176
Rp177
I23
I1
tp178
aa(lp179
(S'coke'
p180
S'coffee'
p181
I00
tp182
a(g180
g4
(g5
(S'S5'
p183
I0
I1
tp184
Rp185
(I3
S'|'
p186
NNNI5
I1
I0
tp187
bS'small'
p188
tp189
Rp190
I00
tp191
a(g180
S'body'
p192
I00
tp193
a(S'drink'
p194
g181
I01
tp195
aa.