(lp0
(lp1
(dp2
S'action'
p3
cnumpy.core.multiarray
scalar
p4
(cnumpy
dtype
p5
(S'S4'
p6
I0
I1
tp7
Rp8
(I3
S'|'
p9
NNNI4
I1
I0
tp10
bS'walk'
p11
tp12
Rp13
sS'recipient'
p14
NsS'patient'
p15
NsS'goal'
p16
S'3414b'
p17
sS'source'
p18
Nsa(dp19
g3
g4
(g5
(S'S5'
p20
I0
I1
tp21
Rp22
(I3
S'|'
p23
NNNI5
I1
I0
tp24
bS'bring'
p25
tp26
Rp27
sg14
S's'
p28
sg15
g4
(g5
(S'S7'
p29
I0
I1
tp30
Rp31
(I3
S'|'
p32
NNNI7
I1
I0
tp33
bS'oidx_12'
p34
tp35
Rp36
sg16
Nsg18
Nsa(dp37
g3
g4
(g5
(S'S5'
p38
I0
I1
tp39
Rp40
(I3
S'|'
p41
NNNI5
I1
I0
tp42
bS'bring'
p43
tp44
Rp45
sg14
g4
(g5
(S'S1'
p46
I0
I1
tp47
Rp48
(I3
S'|'
p49
NNNI1
I1
I0
tp50
bS'd'
p51
tp52
Rp53
sg15
g4
(g5
(S'S7'
p54
I0
I1
tp55
Rp56
(I3
S'|'
p57
NNNI7
I1
I0
tp58
bS'oidx_25'
p59
tp60
Rp61
sg16
Nsg18
Nsaa(lp62
(dp63
S'all'
p64
(lp65
S'vist walter ward supervisor'
p66
asg15
(lp67
sg16
(lp68
S'w'
p69
aS'b'
p70
aS'lab'
p71
asg18
(lp72
sg3
(lp73
sg14
(lp74
sa(dp75
g64
(lp76
S"pick up red object and take to 'b' for bob"
p77
asg15
(lp78
S'red lid container'
p79
aS'red container'
p80
aS'red and white container'
p81
aS'red lid container'
p82
aS'red container'
p83
asg16
(lp84
sg18
(lp85
sg3
(lp86
sg14
(lp87
sa(dp88
g64
(lp89
S'deliver small jar to dave d'
p90
asg15
(lp91
S'small jar silver lid'
p92
aS'small container'
p93
aS'silver lid container'
p94
asg16
(lp95
sg18
(lp96
sg3
(lp97
sg14
(lp98
S'office d'
p99
aS'dave'
p100
asaa(lp101
(g4
(g5
(S'S5'
p102
I0
I1
tp103
Rp104
(I3
S'|'
p105
NNNI5
I1
I0
tp106
bS'small'
p107
tp108
Rp109
I21
I1
tp110
a(g4
(g5
(S'S4'
p111
I0
I1
tp112
Rp113
(I3
S'|'
p114
NNNI4
I1
I0
tp115
bS'blue'
p116
tp117
Rp118
I23
I0
tp119
a(g4
(g5
(S'S4'
p120
I0
I1
tp121
Rp122
(I3
S'|'
p123
NNNI4
I1
I0
tp124
bS'blue'
p125
tp126
Rp127
I16
I0
tp128
a(g4
(g5
(S'S4'
p129
I0
I1
tp130
Rp131
(I3
S'|'
p132
NNNI4
I1
I0
tp133
bS'blue'
p134
tp135
Rp136
I21
I0
tp137
a(g4
(g5
(S'S9'
p138
I0
I1
tp139
Rp140
(I3
S'|'
p141
NNNI9
I1
I0
tp142
bS'styrofoam'
p143
tp144
Rp145
I24
I0
tp146
a(g4
(g5
(S'S3'
p147
I0
I1
tp148
Rp149
(I3
S'|'
p150
NNNI3
I1
I0
tp151
bS'red'
p152
tp153
Rp154
I21
I1
tp155
a(g154
I24
I1
tp156
a(g154
I19
I1
tp157
a(g154
I23
I1
tp158
a(g154
I16
I1
tp159
a(g154
I0
I1
tp160
a(g154
I4
I1
tp161
a(g154
I9
I1
tp162
a(g4
(g5
(S'S9'
p163
I0
I1
tp164
Rp165
(I3
S'|'
p166
NNNI9
I1
I0
tp167
bS'container'
p168
tp169
Rp170
I4
I1
tp171
a(g4
(g5
(S'S9'
p172
I0
I1
tp173
Rp174
(I3
S'|'
p175
NNNI9
I1
I0
tp176
bS'container'
p177
tp178
Rp179
I0
I1
tp180
a(g4
(g5
(S'S9'
p181
I0
I1
tp182
Rp183
(I3
S'|'
p184
NNNI9
I1
I0
tp185
bS'container'
p186
tp187
Rp188
I24
I1
tp189
a(g4
(g5
(S'S9'
p190
I0
I1
tp191
Rp192
(I3
S'|'
p193
NNNI9
I1
I0
tp194
bS'container'
p195
tp196
Rp197
I21
I1
tp198
a(g4
(g5
(S'S4'
p199
I0
I1
tp200
Rp201
(I3
S'|'
p202
NNNI4
I1
I0
tp203
bS'blue'
p204
tp205
Rp206
I9
I0
tp207
a(g4
(g5
(S'S8'
p208
I0
I1
tp209
Rp210
(I3
S'|'
p211
NNNI8
I1
I0
tp212
bS'cylinder'
p213
tp214
Rp215
I23
I0
tp216
a(g4
(g5
(S'S6'
p217
I0
I1
tp218
Rp219
(I3
S'|'
p220
NNNI6
I1
I0
tp221
bS'yellow'
p222
tp223
Rp224
I19
I1
tp225
a(g4
(g5
(S'S5'
p226
I0
I1
tp227
Rp228
(I3
S'|'
p229
NNNI5
I1
I0
tp230
bS'brown'
p231
tp232
Rp233
I19
I0
tp234
a(g4
(g5
(S'S5'
p235
I0
I1
tp236
Rp237
(I3
S'|'
p238
NNNI5
I1
I0
tp239
bS'tower'
p240
tp241
Rp242
I21
I0
tp243
a(g242
I24
I0
tp244
a(g242
I19
I0
tp245
a(g242
I23
I0
tp246
a(g242
I16
I0
tp247
a(g242
I0
I0
tp248
a(g242
I4
I0
tp249
a(g242
I9
I0
tp250
aa(lp251
a.