(lp0
(lp1
(dp2
S'action'
p3
cnumpy.core.multiarray
scalar
p4
(cnumpy
dtype
p5
(S'S4'
p6
I0
I1
tp7
Rp8
(I3
S'|'
p9
NNNI4
I1
I0
tp10
bS'walk'
p11
tp12
Rp13
sS'recipient'
p14
NsS'patient'
p15
NsS'goal'
p16
g4
(g5
(S'S4'
p17
I0
I1
tp18
Rp19
(I3
S'|'
p20
NNNI4
I1
I0
tp21
bS'3510'
p22
tp23
Rp24
sS'source'
p25
Nsa(dp26
g3
g4
(g5
(S'S4'
p27
I0
I1
tp28
Rp29
(I3
S'|'
p30
NNNI4
I1
I0
tp31
bS'walk'
p32
tp33
Rp34
sg14
Nsg15
Nsg16
S'3508'
p35
sg25
Nsa(dp36
g3
g4
(g5
(S'S4'
p37
I0
I1
tp38
Rp39
(I3
S'|'
p40
NNNI4
I1
I0
tp41
bS'walk'
p42
tp43
Rp44
sg14
Nsg15
Nsg16
S'3402'
p45
sg25
Nsaa(lp46
(dp47
S'all'
p48
(lp49
S'go to n'
p50
asg15
(lp51
sg16
(lp52
S'robert bob brown'
p53
aS"robert bob brown 's office"
p54
asg25
(lp55
sg3
(lp56
sg14
(lp57
sa(dp58
g48
(lp59
S'get bottle'
p60
asg15
(lp61
sg16
(lp62
S"peggy parker intern 's office"
p63
asg25
(lp64
sg3
(lp65
sg14
(lp66
sa(dp67
g48
(lp68
S'go to lab'
p69
asg15
(lp70
sg16
(lp71
S'lab'
p72
aS"dr heidi hughes 's office"
p73
asg25
(lp74
sg3
(lp75
sg14
(lp76
saa(lp77
(g4
(g5
(S'S6'
p78
I0
I1
tp79
Rp80
(I3
S'|'
p81
NNNI6
I1
I0
tp82
bS'column'
p83
tp84
Rp85
I9
I1
tp86
a(g4
(g5
(S'S9'
p87
I0
I1
tp88
Rp89
(I3
S'|'
p90
NNNI9
I1
I0
tp91
bS'container'
p92
tp93
Rp94
I16
I1
tp95
a(g4
(g5
(S'S9'
p96
I0
I1
tp97
Rp98
(I3
S'|'
p99
NNNI9
I1
I0
tp100
bS'rectangle'
p101
tp102
Rp103
I4
I1
tp104
a(g4
(g5
(S'S5'
p105
I0
I1
tp106
Rp107
(I3
S'|'
p108
NNNI5
I1
I0
tp109
bS'large'
p110
tp111
Rp112
I0
I0
tp113
a(g4
(g5
(S'S8'
p114
I0
I1
tp115
Rp116
(I3
S'|'
p117
NNNI8
I1
I0
tp118
bS'pringles'
p119
tp120
Rp121
I21
I1
tp122
a(g4
(g5
(S'S4'
p123
I0
I1
tp124
Rp125
(I3
S'|'
p126
NNNI4
I1
I0
tp127
bS'long'
p128
tp129
Rp130
I19
I1
tp131
a(g4
(g5
(S'S5'
p132
I0
I1
tp133
Rp134
(I3
S'|'
p135
NNNI5
I1
I0
tp136
bS'brown'
p137
tp138
Rp139
I16
I1
tp140
a(g4
(g5
(S'S5'
p141
I0
I1
tp142
Rp143
(I3
S'|'
p144
NNNI5
I1
I0
tp145
bS'large'
p146
tp147
Rp148
I16
I0
tp149
a(g4
(g5
(S'S9'
p150
I0
I1
tp151
Rp152
(I3
S'|'
p153
NNNI9
I1
I0
tp154
bS'container'
p155
tp156
Rp157
I21
I1
tp158
a(g4
(g5
(S'S4'
p159
I0
I1
tp160
Rp161
(I3
S'|'
p162
NNNI4
I1
I0
tp163
bS'blue'
p164
tp165
Rp166
I9
I0
tp167
a(g4
(g5
(S'S4'
p168
I0
I1
tp169
Rp170
(I3
S'|'
p171
NNNI4
I1
I0
tp172
bS'blue'
p173
tp174
Rp175
I21
I0
tp176
a(g4
(g5
(S'S4'
p177
I0
I1
tp178
Rp179
(I3
S'|'
p180
NNNI4
I1
I0
tp181
bS'bean'
p182
tp183
Rp184
I9
I1
tp185
a(g4
(g5
(S'S3'
p186
I0
I1
tp187
Rp188
(I3
S'|'
p189
NNNI3
I1
I0
tp190
bS'can'
p191
tp192
Rp193
I16
I0
tp194
a(g4
(g5
(S'S6'
p195
I0
I1
tp196
Rp197
(I3
S'|'
p198
NNNI6
I1
I0
tp199
bS'column'
p200
tp201
Rp202
I24
I1
tp203
a(g4
(g5
(S'S3'
p204
I0
I1
tp205
Rp206
(I3
S'|'
p207
NNNI3
I1
I0
tp208
bS'can'
p209
tp210
Rp211
I19
I0
tp212
aa(lp213
a.