(lp0
(lp1
(dp2
S'action'
p3
cnumpy.core.multiarray
scalar
p4
(cnumpy
dtype
p5
(S'S4'
p6
I0
I1
tp7
Rp8
(I3
S'|'
p9
NNNI4
I1
I0
tp10
bS'walk'
p11
tp12
Rp13
sS'recipient'
p14
NsS'patient'
p15
NsS'goal'
p16
g4
(g5
(S'S4'
p17
I0
I1
tp18
Rp19
(I3
S'|'
p20
NNNI4
I1
I0
tp21
bS'3512'
p22
tp23
Rp24
sS'source'
p25
Nsa(dp26
g3
g4
(g5
(S'S5'
p27
I0
I1
tp28
Rp29
(I3
S'|'
p30
NNNI5
I1
I0
tp31
bS'bring'
p32
tp33
Rp34
sg14
g4
(g5
(S'S1'
p35
I0
I1
tp36
Rp37
(I3
S'|'
p38
NNNI1
I1
I0
tp39
bS'h'
p40
tp41
Rp42
sg15
g4
(g5
(S'S7'
p43
I0
I1
tp44
Rp45
(I3
S'|'
p46
NNNI7
I1
I0
tp47
bS'oidx_13'
p48
tp49
Rp50
sg16
Nsg25
Nsa(dp51
g3
g4
(g5
(S'S4'
p52
I0
I1
tp53
Rp54
(I3
S'|'
p55
NNNI4
I1
I0
tp56
bS'move'
p57
tp58
Rp59
sg14
Nsg15
g4
(g5
(S'S6'
p60
I0
I1
tp61
Rp62
(I3
S'|'
p63
NNNI6
I1
I0
tp64
bS'oidx_6'
p65
tp66
Rp67
sg16
g4
(g5
(S'S4'
p68
I0
I1
tp69
Rp70
(I3
S'|'
p71
NNNI4
I1
I0
tp72
bS'3424'
p73
tp74
Rp75
sg25
S'3512'
p76
saa(lp77
(dp78
S'all'
p79
(lp80
S"go to richard rogue 's office"
p81
asg15
(lp82
sg16
(lp83
S"the secretary 's office"
p84
asg25
(lp85
sg3
(lp86
sg14
(lp87
sa(dp88
g79
(lp89
S'heidi needs pringles'
p90
asg15
(lp91
S'pringles'
p92
aS'chips'
p93
aS'can of pringles'
p94
asg16
(lp95
sg25
(lp96
sg3
(lp97
sg14
(lp98
S'heidi'
p99
asa(dp100
g79
(lp101
S'bring bottle from r and deliver to pod'
p102
asg15
(lp103
S'move the bottle from richards office to pod'
p104
aS'the pill bottle'
p105
aS'the pill bottle'
p106
asg16
(lp107
S'move the bottle from richard'
p108
aS'the pod in the top right'
p109
asg25
(lp110
S'richards office'
p111
aS"the secretary 's office"
p112
asg3
(lp113
sg14
(lp114
saa(lp115
(g4
(g5
(S'S9'
p116
I0
I1
tp117
Rp118
(I3
S'|'
p119
NNNI9
I1
I0
tp120
bS'container'
p121
tp122
Rp123
I23
I1
tp124
a(g4
(g5
(S'S5'
p125
I0
I1
tp126
Rp127
(I3
S'|'
p128
NNNI5
I1
I0
tp129
bS'tower'
p130
tp131
Rp132
I21
I0
tp133
a(g132
I24
I0
tp134
a(g132
I19
I0
tp135
a(g132
I23
I0
tp136
a(g132
I16
I0
tp137
a(g132
I0
I0
tp138
a(g132
I4
I0
tp139
a(g132
I9
I0
tp140
a(g4
(g5
(S'S5'
p141
I0
I1
tp142
Rp143
(I3
S'|'
p144
NNNI5
I1
I0
tp145
bS'small'
p146
tp147
Rp148
I21
I1
tp149
a(g4
(g5
(S'S5'
p150
I0
I1
tp151
Rp152
(I3
S'|'
p153
NNNI5
I1
I0
tp154
bS'empty'
p155
tp156
Rp157
I9
I0
tp158
a(g4
(g5
(S'S9'
p159
I0
I1
tp160
Rp161
(I3
S'|'
p162
NNNI9
I1
I0
tp163
bS'container'
p164
tp165
Rp166
I19
I1
tp167
a(g4
(g5
(S'S5'
p168
I0
I1
tp169
Rp170
(I3
S'|'
p171
NNNI5
I1
I0
tp172
bS'large'
p173
tp174
Rp175
I0
I0
tp176
a(g4
(g5
(S'S8'
p177
I0
I1
tp178
Rp179
(I3
S'|'
p180
NNNI8
I1
I0
tp181
bS'metallic'
p182
tp183
Rp184
I0
I1
tp185
a(g4
(g5
(S'S8'
p186
I0
I1
tp187
Rp188
(I3
S'|'
p189
NNNI8
I1
I0
tp190
bS'cylinder'
p191
tp192
Rp193
I21
I1
tp194
a(g193
I24
I1
tp195
a(g193
I19
I1
tp196
a(g193
I23
I1
tp197
a(g193
I16
I1
tp198
a(g193
I0
I1
tp199
a(g193
I4
I1
tp200
a(g193
I9
I1
tp201
a(g4
(g5
(S'S5'
p202
I0
I1
tp203
Rp204
(I3
S'|'
p205
NNNI5
I1
I0
tp206
bS'white'
p207
tp208
Rp209
I21
I0
tp210
a(g209
I24
I0
tp211
a(g209
I19
I0
tp212
a(g209
I23
I0
tp213
a(g209
I16
I0
tp214
a(g209
I0
I0
tp215
a(g209
I4
I0
tp216
a(g209
I9
I0
tp217
a(g4
(g5
(S'S4'
p218
I0
I1
tp219
Rp220
(I3
S'|'
p221
NNNI4
I1
I0
tp222
bS'blue'
p223
tp224
Rp225
I23
I0
tp226
a(g4
(g5
(S'S9'
p227
I0
I1
tp228
Rp229
(I3
S'|'
p230
NNNI9
I1
I0
tp231
bS'container'
p232
tp233
Rp234
I16
I1
tp235
a(g4
(g5
(S'S9'
p236
I0
I1
tp237
Rp238
(I3
S'|'
p239
NNNI9
I1
I0
tp240
bS'container'
p241
tp242
Rp243
I21
I0
tp244
a(g4
(g5
(S'S9'
p245
I0
I1
tp246
Rp247
(I3
S'|'
p248
NNNI9
I1
I0
tp249
bS'container'
p250
tp251
Rp252
I0
I0
tp253
a(g4
(g5
(S'S9'
p254
I0
I1
tp255
Rp256
(I3
S'|'
p257
NNNI9
I1
I0
tp258
bS'container'
p259
tp260
Rp261
I4
I1
tp262
a(g4
(g5
(S'S9'
p263
I0
I1
tp264
Rp265
(I3
S'|'
p266
NNNI9
I1
I0
tp267
bS'container'
p268
tp269
Rp270
I24
I0
tp271
aa(lp272
a.