(lp0
(lp1
(dp2
S'action'
p3
cnumpy.core.multiarray
scalar
p4
(cnumpy
dtype
p5
(S'S5'
p6
I0
I1
tp7
Rp8
(I3
S'|'
p9
NNNI5
I1
I0
tp10
bS'bring'
p11
tp12
Rp13
sS'recipient'
p14
S'h'
p15
sS'patient'
p16
S'oidx_26'
p17
sS'goal'
p18
NsS'source'
p19
Nsa(dp20
g3
g4
(g5
(S'S4'
p21
I0
I1
tp22
Rp23
(I3
S'|'
p24
NNNI4
I1
I0
tp25
bS'walk'
p26
tp27
Rp28
sg14
Nsg16
Nsg18
S'3432'
p29
sg19
Nsaa(lp30
(dp31
S'all'
p32
(lp33
S'yes'
p34
asg16
(lp35
S'yes'
p36
aS'yes'
p37
asg18
(lp38
sg19
(lp39
sg3
(lp40
sg14
(lp41
sa(dp42
g32
(lp43
S'yes'
p44
asg16
(lp45
sg18
(lp46
S'yes'
p47
aS'no'
p48
aS'yes'
p49
aS'yes'
p50
aS'yes'
p51
aS'yes'
p52
aS'yes'
p53
asg19
(lp54
sg3
(lp55
sg14
(lp56
saa(lp57
(g4
(g5
(S'S4'
p58
I0
I1
tp59
Rp60
(I3
S'|'
p61
NNNI4
I1
I0
tp62
bS'bean'
p63
tp64
Rp65
I24
I1
tp66
a(g4
(g5
(S'S4'
p67
I0
I1
tp68
Rp69
(I3
S'|'
p70
NNNI4
I1
I0
tp71
bS'bean'
p72
tp73
Rp74
I4
I1
tp75
a(g4
(g5
(S'S4'
p76
I0
I1
tp77
Rp78
(I3
S'|'
p79
NNNI4
I1
I0
tp80
bS'long'
p81
tp82
Rp83
I16
I1
tp84
a(g4
(g5
(S'S5'
p85
I0
I1
tp86
Rp87
(I3
S'|'
p88
NNNI5
I1
I0
tp89
bS'empty'
p90
tp91
Rp92
I21
I1
tp93
a(g4
(g5
(S'S9'
p94
I0
I1
tp95
Rp96
(I3
S'|'
p97
NNNI9
I1
I0
tp98
bS'styrofoam'
p99
tp100
Rp101
I0
I1
tp102
a(g4
(g5
(S'S9'
p103
I0
I1
tp104
Rp105
(I3
S'|'
p106
NNNI9
I1
I0
tp107
bS'container'
p108
tp109
Rp110
I19
I1
tp111
a(g4
(g5
(S'S5'
p112
I0
I1
tp113
Rp114
(I3
S'|'
p115
NNNI5
I1
I0
tp116
bS'empty'
p117
tp118
Rp119
I19
I1
tp120
a(g4
(g5
(S'S3'
p121
I0
I1
tp122
Rp123
(I3
S'|'
p124
NNNI3
I1
I0
tp125
bS'red'
p126
tp127
Rp128
I9
I0
tp129
a(g4
(g5
(S'S6'
p130
I0
I1
tp131
Rp132
(I3
S'|'
p133
NNNI6
I1
I0
tp134
bS'coffee'
p135
tp136
Rp137
I9
I1
tp138
a(g4
(g5
(S'S4'
p139
I0
I1
tp140
Rp141
(I3
S'|'
p142
NNNI4
I1
I0
tp143
bS'blue'
p144
tp145
Rp146
I0
I1
tp147
aa(lp148
a.