(lp0
(lp1
(dp2
S'action'
p3
cnumpy.core.multiarray
scalar
p4
(cnumpy
dtype
p5
(S'S4'
p6
I0
I1
tp7
Rp8
(I3
S'|'
p9
NNNI4
I1
I0
tp10
bS'walk'
p11
tp12
Rp13
sS'recipient'
p14
NsS'patient'
p15
NsS'goal'
p16
g4
(g5
(S'S4'
p17
I0
I1
tp18
Rp19
(I3
S'|'
p20
NNNI4
I1
I0
tp21
bS'3506'
p22
tp23
Rp24
sS'source'
p25
Nsa(dp26
g3
g4
(g5
(S'S5'
p27
I0
I1
tp28
Rp29
(I3
S'|'
p30
NNNI5
I1
I0
tp31
bS'bring'
p32
tp33
Rp34
sg14
g4
(g5
(S'S1'
p35
I0
I1
tp36
Rp37
(I3
S'|'
p38
NNNI1
I1
I0
tp39
bS'w'
p40
tp41
Rp42
sg15
g4
(g5
(S'S7'
p43
I0
I1
tp44
Rp45
(I3
S'|'
p46
NNNI7
I1
I0
tp47
bS'oidx_22'
p48
tp49
Rp50
sg16
Nsg25
Nsa(dp51
g3
g4
(g5
(S'S4'
p52
I0
I1
tp53
Rp54
(I3
S'|'
p55
NNNI4
I1
I0
tp56
bS'move'
p57
tp58
Rp59
sg14
Nsg15
g4
(g5
(S'S7'
p60
I0
I1
tp61
Rp62
(I3
S'|'
p63
NNNI7
I1
I0
tp64
bS'oidx_22'
p65
tp66
Rp67
sg16
S'3504'
p68
sg25
S'3516'
p69
saa(lp70
(dp71
S'all'
p72
(lp73
S'go to the printer room'
p74
asg15
(lp75
sg16
(lp76
sg25
(lp77
sg3
(lp78
sg14
(lp79
sa(dp80
g72
(lp81
S'get the container of spice and take it to walter ward'
p82
asg15
(lp83
S'the half full container of spices'
p84
aS'spice container'
p85
aS'spice container'
p86
asg16
(lp87
sg25
(lp88
sg3
(lp89
sg14
(lp90
S'walter ward'
p91
asa(dp92
g72
(lp93
S'get the object from the conference room and take it to the pod room next to m office'
p94
asg15
(lp95
S'spice container'
p96
aS'container of spice'
p97
asg16
(lp98
S'pod next to m'
p99
asg25
(lp100
S'conference'
p101
aS'conference'
p102
asg3
(lp103
sg14
(lp104
saa(lp105
(g4
(g5
(S'S4'
p106
I0
I1
tp107
Rp108
(I3
S'|'
p109
NNNI4
I1
I0
tp110
bS'blue'
p111
tp112
Rp113
I9
I0
tp114
a(g4
(g5
(S'S3'
p115
I0
I1
tp116
Rp117
(I3
S'|'
p118
NNNI3
I1
I0
tp119
bS'red'
p120
tp121
Rp122
I23
I0
tp123
a(g4
(g5
(S'S4'
p124
I0
I1
tp125
Rp126
(I3
S'|'
p127
NNNI4
I1
I0
tp128
bS'long'
p129
tp130
Rp131
I4
I0
tp132
a(g4
(g5
(S'S5'
p133
I0
I1
tp134
Rp135
(I3
S'|'
p136
NNNI5
I1
I0
tp137
bS'white'
p138
tp139
Rp140
I21
I0
tp141
a(g140
I24
I0
tp142
a(g140
I19
I0
tp143
a(g140
I23
I0
tp144
a(g140
I16
I0
tp145
a(g140
I0
I0
tp146
a(g140
I4
I0
tp147
a(g140
I9
I0
tp148
a(g4
(g5
(S'S5'
p149
I0
I1
tp150
Rp151
(I3
S'|'
p152
NNNI5
I1
I0
tp153
bS'spice'
p154
tp155
Rp156
I21
I0
tp157
a(g156
I24
I0
tp158
a(g156
I19
I0
tp159
a(g156
I23
I0
tp160
a(g156
I16
I0
tp161
a(g156
I0
I0
tp162
a(g156
I4
I0
tp163
a(g156
I9
I0
tp164
a(g4
(g5
(S'S9'
p165
I0
I1
tp166
Rp167
(I3
S'|'
p168
NNNI9
I1
I0
tp169
bS'container'
p170
tp171
Rp172
I23
I1
tp173
a(g4
(g5
(S'S9'
p174
I0
I1
tp175
Rp176
(I3
S'|'
p177
NNNI9
I1
I0
tp178
bS'container'
p179
tp180
Rp181
I16
I1
tp182
a(g4
(g5
(S'S9'
p183
I0
I1
tp184
Rp185
(I3
S'|'
p186
NNNI9
I1
I0
tp187
bS'container'
p188
tp189
Rp190
I21
I1
tp191
a(g4
(g5
(S'S3'
p192
I0
I1
tp193
Rp194
(I3
S'|'
p195
NNNI3
I1
I0
tp196
bS'can'
p197
tp198
Rp199
I21
I0
tp200
a(g4
(g5
(S'S3'
p201
I0
I1
tp202
Rp203
(I3
S'|'
p204
NNNI3
I1
I0
tp205
bS'can'
p206
tp207
Rp208
I0
I1
tp209
a(g4
(g5
(S'S9'
p210
I0
I1
tp211
Rp212
(I3
S'|'
p213
NNNI9
I1
I0
tp214
bS'container'
p215
tp216
Rp217
I24
I1
tp218
a(g4
(g5
(S'S9'
p219
I0
I1
tp220
Rp221
(I3
S'|'
p222
NNNI9
I1
I0
tp223
bS'container'
p224
tp225
Rp226
I19
I1
tp227
a(g4
(g5
(S'S8'
p228
I0
I1
tp229
Rp230
(I3
S'|'
p231
NNNI8
I1
I0
tp232
bS'cylinder'
p233
tp234
Rp235
I21
I1
tp236
a(g235
I24
I1
tp237
a(g235
I19
I1
tp238
a(g235
I23
I1
tp239
a(g235
I16
I1
tp240
a(g235
I0
I1
tp241
a(g235
I4
I1
tp242
a(g235
I9
I1
tp243
a(g4
(g5
(S'S9'
p244
I0
I1
tp245
Rp246
(I3
S'|'
p247
NNNI9
I1
I0
tp248
bS'styrofoam'
p249
tp250
Rp251
I19
I0
tp252
a(g4
(g5
(S'S3'
p253
I0
I1
tp254
Rp255
(I3
S'|'
p256
NNNI3
I1
I0
tp257
bS'can'
p258
tp259
Rp260
I19
I1
tp261
aa(lp262
a.