(lp0
(lp1
(dp2
S'action'
p3
cnumpy.core.multiarray
scalar
p4
(cnumpy
dtype
p5
(S'S4'
p6
I0
I1
tp7
Rp8
(I3
S'|'
p9
NNNI4
I1
I0
tp10
bS'walk'
p11
tp12
Rp13
sS'recipient'
p14
NsS'patient'
p15
NsS'goal'
p16
S'3502'
p17
sS'source'
p18
Nsa(dp19
g3
g4
(g5
(S'S4'
p20
I0
I1
tp21
Rp22
(I3
S'|'
p23
NNNI4
I1
I0
tp24
bS'walk'
p25
tp26
Rp27
sg14
Nsg15
Nsg16
S'3430'
p28
sg18
Nsaa(lp29
(dp30
S'all'
p31
(lp32
S'locate your position'
p33
asg15
(lp34
sg16
(lp35
S'to the location the red x on the map'
p36
asg18
(lp37
sg3
(lp38
sg14
(lp39
sa(dp40
g31
(lp41
S'get the open soda can on the white counter top'
p42
asg15
(lp43
sg16
(lp44
S'to the white counter top with the open can of soda on it'
p45
aS'to the white counter top with the open can of soda on it'
p46
aS'find the open can of soda its on the white counter top'
p47
aS'go to the white counter top'
p48
aS'go to the open can of soda'
p49
aS'go to the open can of soda'
p50
asg18
(lp51
sg3
(lp52
sg14
(lp53
saa(lp54
(g4
(g5
(S'S8'
p55
I0
I1
tp56
Rp57
(I3
S'|'
p58
NNNI8
I1
I0
tp59
bS'pringles'
p60
tp61
Rp62
I21
I0
tp63
a(g62
I24
I0
tp64
a(g62
I19
I0
tp65
a(g62
I23
I0
tp66
a(g62
I16
I0
tp67
a(g62
I0
I0
tp68
a(g62
I4
I0
tp69
a(g62
I9
I0
tp70
a(g4
(g5
(S'S3'
p71
I0
I1
tp72
Rp73
(I3
S'|'
p74
NNNI3
I1
I0
tp75
bS'can'
p76
tp77
Rp78
I4
I0
tp79
a(g4
(g5
(S'S3'
p80
I0
I1
tp81
Rp82
(I3
S'|'
p83
NNNI3
I1
I0
tp84
bS'can'
p85
tp86
Rp87
I0
I0
tp88
a(g4
(g5
(S'S3'
p89
I0
I1
tp90
Rp91
(I3
S'|'
p92
NNNI3
I1
I0
tp93
bS'can'
p94
tp95
Rp96
I16
I0
tp97
a(g4
(g5
(S'S8'
p98
I0
I1
tp99
Rp100
(I3
S'|'
p101
NNNI8
I1
I0
tp102
bS'cylinder'
p103
tp104
Rp105
I21
I1
tp106
a(g105
I24
I1
tp107
a(g105
I19
I1
tp108
a(g105
I23
I1
tp109
a(g105
I16
I1
tp110
a(g105
I0
I1
tp111
a(g105
I4
I1
tp112
a(g105
I9
I1
tp113
a(g4
(g5
(S'S5'
p114
I0
I1
tp115
Rp116
(I3
S'|'
p117
NNNI5
I1
I0
tp118
bS'peach'
p119
tp120
Rp121
I21
I0
tp122
a(g121
I24
I0
tp123
a(g121
I19
I0
tp124
a(g121
I23
I0
tp125
a(g121
I16
I0
tp126
a(g121
I0
I0
tp127
a(g121
I4
I0
tp128
a(g121
I9
I0
tp129
a(g4
(g5
(S'S6'
p130
I0
I1
tp131
Rp132
(I3
S'|'
p133
NNNI6
I1
I0
tp134
bS'column'
p135
tp136
Rp137
I21
I0
tp138
a(g4
(g5
(S'S9'
p139
I0
I1
tp140
Rp141
(I3
S'|'
p142
NNNI9
I1
I0
tp143
bS'rectangle'
p144
tp145
Rp146
I21
I0
tp147
a(g146
I24
I0
tp148
a(g146
I19
I0
tp149
a(g146
I23
I0
tp150
a(g146
I16
I0
tp151
a(g146
I0
I0
tp152
a(g146
I4
I0
tp153
a(g146
I9
I0
tp154
a(g4
(g5
(S'S9'
p155
I0
I1
tp156
Rp157
(I3
S'|'
p158
NNNI9
I1
I0
tp159
bS'container'
p160
tp161
Rp162
I21
I1
tp163
a(g4
(g5
(S'S5'
p164
I0
I1
tp165
Rp166
(I3
S'|'
p167
NNNI5
I1
I0
tp168
bS'small'
p169
tp170
Rp171
I21
I1
tp172
aa(lp173
(S'counter'
p174
S'peanuts'
p175
I00
tp176
a(g174
g4
(g5
(S'S5'
p177
I0
I1
tp178
Rp179
(I3
S'|'
p180
NNNI5
I1
I0
tp181
bS'small'
p182
tp183
Rp184
I00
tp185
aa.