(lp0
(lp1
(dp2
S'action'
p3
cnumpy.core.multiarray
scalar
p4
(cnumpy
dtype
p5
(S'S4'
p6
I0
I1
tp7
Rp8
(I3
S'|'
p9
NNNI4
I1
I0
tp10
bS'walk'
p11
tp12
Rp13
sS'recipient'
p14
NsS'patient'
p15
NsS'goal'
p16
g4
(g5
(S'S4'
p17
I0
I1
tp18
Rp19
(I3
S'|'
p20
NNNI4
I1
I0
tp21
bS'3506'
p22
tp23
Rp24
sS'source'
p25
Nsa(dp26
g3
g4
(g5
(S'S5'
p27
I0
I1
tp28
Rp29
(I3
S'|'
p30
NNNI5
I1
I0
tp31
bS'bring'
p32
tp33
Rp34
sg14
g4
(g5
(S'S1'
p35
I0
I1
tp36
Rp37
(I3
S'|'
p38
NNNI1
I1
I0
tp39
bS'w'
p40
tp41
Rp42
sg15
S'oidx_12'
p43
sg16
Nsg25
Nsa(dp44
g3
g4
(g5
(S'S4'
p45
I0
I1
tp46
Rp47
(I3
S'|'
p48
NNNI4
I1
I0
tp49
bS'walk'
p50
tp51
Rp52
sg14
Nsg15
Nsg16
g4
(g5
(S'S5'
p53
I0
I1
tp54
Rp55
(I3
S'|'
p56
NNNI5
I1
I0
tp57
bS'3414b'
p58
tp59
Rp60
sg25
Nsaa(lp61
(dp62
S'all'
p63
(lp64
S'go see peggy parker in the third office to your right'
p65
asg15
(lp66
sg16
(lp67
S'the third office to your right'
p68
aS'go to p'
p69
aS'go to peggy parker'
p70
aS'go to printer'
p71
asg25
(lp72
sg3
(lp73
sg14
(lp74
sa(dp75
g63
(lp76
S'give container to walter ward'
p77
asg15
(lp78
S'red and white container'
p79
aS'container with red top'
p80
asg16
(lp81
sg25
(lp82
sg3
(lp83
sg14
(lp84
sa(dp85
g63
(lp86
S'go to office next to lab'
p87
asg15
(lp88
sg16
(lp89
S'go to the office next to dr sybil smart'
p90
aS'office'
p91
aS'go to office'
p92
aS'go to lab'
p93
aS'go to s'
p94
asg25
(lp95
sg3
(lp96
sg14
(lp97
saa(lp98
(g4
(g5
(S'S6'
p99
I0
I1
tp100
Rp101
(I3
S'|'
p102
NNNI6
I1
I0
tp103
bS'column'
p104
tp105
Rp106
I21
I0
tp107
a(g4
(g5
(S'S5'
p108
I0
I1
tp109
Rp110
(I3
S'|'
p111
NNNI5
I1
I0
tp112
bS'brown'
p113
tp114
Rp115
I21
I0
tp116
a(g4
(g5
(S'S4'
p117
I0
I1
tp118
Rp119
(I3
S'|'
p120
NNNI4
I1
I0
tp121
bS'blue'
p122
tp123
Rp124
I16
I0
tp125
a(g4
(g5
(S'S5'
p126
I0
I1
tp127
Rp128
(I3
S'|'
p129
NNNI5
I1
I0
tp130
bS'brown'
p131
tp132
Rp133
I16
I0
tp134
a(g4
(g5
(S'S9'
p135
I0
I1
tp136
Rp137
(I3
S'|'
p138
NNNI9
I1
I0
tp139
bS'container'
p140
tp141
Rp142
I23
I1
tp143
a(g4
(g5
(S'S9'
p144
I0
I1
tp145
Rp146
(I3
S'|'
p147
NNNI9
I1
I0
tp148
bS'container'
p149
tp150
Rp151
I16
I1
tp152
a(g4
(g5
(S'S9'
p153
I0
I1
tp154
Rp155
(I3
S'|'
p156
NNNI9
I1
I0
tp157
bS'container'
p158
tp159
Rp160
I4
I1
tp161
a(g4
(g5
(S'S9'
p162
I0
I1
tp163
Rp164
(I3
S'|'
p165
NNNI9
I1
I0
tp166
bS'container'
p167
tp168
Rp169
I21
I1
tp170
a(g4
(g5
(S'S9'
p171
I0
I1
tp172
Rp173
(I3
S'|'
p174
NNNI9
I1
I0
tp175
bS'container'
p176
tp177
Rp178
I19
I1
tp179
a(g4
(g5
(S'S9'
p180
I0
I1
tp181
Rp182
(I3
S'|'
p183
NNNI9
I1
I0
tp184
bS'container'
p185
tp186
Rp187
I24
I1
tp188
a(g4
(g5
(S'S3'
p189
I0
I1
tp190
Rp191
(I3
S'|'
p192
NNNI3
I1
I0
tp193
bS'red'
p194
tp195
Rp196
I21
I0
tp197
a(g4
(g5
(S'S8'
p198
I0
I1
tp199
Rp200
(I3
S'|'
p201
NNNI8
I1
I0
tp202
bS'cylinder'
p203
tp204
Rp205
I21
I1
tp206
a(g205
I24
I1
tp207
a(g205
I19
I1
tp208
a(g205
I23
I1
tp209
a(g205
I16
I1
tp210
a(g205
I0
I1
tp211
a(g205
I4
I1
tp212
a(g205
I9
I1
tp213
a(g4
(g5
(S'S5'
p214
I0
I1
tp215
Rp216
(I3
S'|'
p217
NNNI5
I1
I0
tp218
bS'brown'
p219
tp220
Rp221
I9
I0
tp222
a(g4
(g5
(S'S5'
p223
I0
I1
tp224
Rp225
(I3
S'|'
p226
NNNI5
I1
I0
tp227
bS'brown'
p228
tp229
Rp230
I23
I0
tp231
a(g4
(g5
(S'S5'
p232
I0
I1
tp233
Rp234
(I3
S'|'
p235
NNNI5
I1
I0
tp236
bS'brown'
p237
tp238
Rp239
I19
I0
tp240
aa(lp241
a.