(lp0
(lp1
(dp2
S'action'
p3
cnumpy.core.multiarray
scalar
p4
(cnumpy
dtype
p5
(S'S5'
p6
I0
I1
tp7
Rp8
(I3
S'|'
p9
NNNI5
I1
I0
tp10
bS'bring'
p11
tp12
Rp13
sS'recipient'
p14
S'm'
p15
sS'patient'
p16
S'oidx_6'
p17
sS'goal'
p18
NsS'source'
p19
Nsa(dp20
g3
g4
(g5
(S'S5'
p21
I0
I1
tp22
Rp23
(I3
S'|'
p24
NNNI5
I1
I0
tp25
bS'bring'
p26
tp27
Rp28
sg14
S'b'
p29
sg16
S'oidx_11'
p30
sg18
Nsg19
Nsa(dp31
g3
g4
(g5
(S'S5'
p32
I0
I1
tp33
Rp34
(I3
S'|'
p35
NNNI5
I1
I0
tp36
bS'bring'
p37
tp38
Rp39
sg14
g29
sg16
g17
sg18
Nsg19
Nsaa(lp40
(dp41
S'all'
p42
(lp43
S'task'
p44
asg16
(lp45
S'no'
p46
aS'no'
p47
asg18
(lp48
sg19
(lp49
sg3
(lp50
sg14
(lp51
sa(dp52
g42
(lp53
S'yes'
p54
asg16
(lp55
S'yes'
p56
aS'no'
p57
aS'no'
p58
aS'no'
p59
aS'yes'
p60
asg18
(lp61
sg19
(lp62
sg3
(lp63
sg14
(lp64
S'no'
p65
aS'yes'
p66
asa(dp67
g42
(lp68
S'yes'
p69
asg16
(lp70
S'no'
p71
aS'nop'
p72
asg18
(lp73
sg19
(lp74
sg3
(lp75
sg14
(lp76
S'no'
p77
aS'no'
p78
aS'no'
p79
aS'no'
p80
aS'no'
p81
aS'no'
p82
asaa(lp83
(g4
(g5
(S'S8'
p84
I0
I1
tp85
Rp86
(I3
S'|'
p87
NNNI8
I1
I0
tp88
bS'cylinder'
p89
tp90
Rp91
I21
I1
tp92
a(g91
I24
I1
tp93
a(g91
I19
I1
tp94
a(g91
I23
I1
tp95
a(g91
I16
I1
tp96
a(g91
I0
I1
tp97
a(g91
I4
I1
tp98
a(g91
I9
I1
tp99
a(g4
(g5
(S'S4'
p100
I0
I1
tp101
Rp102
(I3
S'|'
p103
NNNI4
I1
I0
tp104
bS'long'
p105
tp106
Rp107
I0
I1
tp108
a(g4
(g5
(S'S5'
p109
I0
I1
tp110
Rp111
(I3
S'|'
p112
NNNI5
I1
I0
tp113
bS'large'
p114
tp115
Rp116
I21
I1
tp117
a(g116
I24
I1
tp118
a(g116
I19
I1
tp119
a(g116
I23
I1
tp120
a(g116
I16
I1
tp121
a(g116
I0
I1
tp122
a(g116
I4
I1
tp123
a(g116
I9
I1
tp124
a(g4
(g5
(S'S5'
p125
I0
I1
tp126
Rp127
(I3
S'|'
p128
NNNI5
I1
I0
tp129
bS'peach'
p130
tp131
Rp132
I23
I1
tp133
a(g4
(g5
(S'S5'
p134
I0
I1
tp135
Rp136
(I3
S'|'
p137
NNNI5
I1
I0
tp138
bS'tower'
p139
tp140
Rp141
I21
I0
tp142
a(g141
I24
I0
tp143
a(g141
I19
I0
tp144
a(g141
I23
I0
tp145
a(g141
I16
I0
tp146
a(g141
I0
I0
tp147
a(g141
I4
I0
tp148
a(g141
I9
I0
tp149
a(g4
(g5
(S'S6'
p150
I0
I1
tp151
Rp152
(I3
S'|'
p153
NNNI6
I1
I0
tp154
bS'column'
p155
tp156
Rp157
I16
I0
tp158
a(g4
(g5
(S'S3'
p159
I0
I1
tp160
Rp161
(I3
S'|'
p162
NNNI3
I1
I0
tp163
bS'can'
p164
tp165
Rp166
I0
I0
tp167
a(g4
(g5
(S'S3'
p168
I0
I1
tp169
Rp170
(I3
S'|'
p171
NNNI3
I1
I0
tp172
bS'can'
p173
tp174
Rp175
I19
I0
tp176
a(g4
(g5
(S'S5'
p177
I0
I1
tp178
Rp179
(I3
S'|'
p180
NNNI5
I1
I0
tp181
bS'white'
p182
tp183
Rp184
I21
I0
tp185
a(g184
I24
I0
tp186
a(g184
I19
I0
tp187
a(g184
I23
I0
tp188
a(g184
I16
I0
tp189
a(g184
I0
I0
tp190
a(g184
I4
I0
tp191
a(g184
I9
I0
tp192
a(g4
(g5
(S'S8'
p193
I0
I1
tp194
Rp195
(I3
S'|'
p196
NNNI8
I1
I0
tp197
bS'metallic'
p198
tp199
Rp200
I24
I1
tp201
a(g4
(g5
(S'S9'
p202
I0
I1
tp203
Rp204
(I3
S'|'
p205
NNNI9
I1
I0
tp206
bS'styrofoam'
p207
tp208
Rp209
I24
I0
tp210
a(g4
(g5
(S'S8'
p211
I0
I1
tp212
Rp213
(I3
S'|'
p214
NNNI8
I1
I0
tp215
bS'metallic'
p216
tp217
Rp218
I4
I1
tp219
a(g4
(g5
(S'S5'
p220
I0
I1
tp221
Rp222
(I3
S'|'
p223
NNNI5
I1
I0
tp224
bS'peach'
p225
tp226
Rp227
I19
I1
tp228
a(g4
(g5
(S'S5'
p229
I0
I1
tp230
Rp231
(I3
S'|'
p232
NNNI5
I1
I0
tp233
bS'empty'
p234
tp235
Rp236
I9
I0
tp237
a(g4
(g5
(S'S5'
p238
I0
I1
tp239
Rp240
(I3
S'|'
p241
NNNI5
I1
I0
tp242
bS'clear'
p243
tp244
Rp245
I21
I0
tp246
a(g245
I24
I0
tp247
a(g245
I19
I0
tp248
a(g245
I23
I0
tp249
a(g245
I16
I0
tp250
a(g245
I0
I0
tp251
a(g245
I4
I0
tp252
a(g245
I9
I0
tp253
aa(lp254
a.