(lp0
(lp1
(dp2
S'action'
p3
cnumpy.core.multiarray
scalar
p4
(cnumpy
dtype
p5
(S'S5'
p6
I0
I1
tp7
Rp8
(I3
S'|'
p9
NNNI5
I1
I0
tp10
bS'bring'
p11
tp12
Rp13
sS'recipient'
p14
S'w'
p15
sS'patient'
p16
S'oidx_25'
p17
sS'goal'
p18
NsS'source'
p19
Nsa(dp20
g3
g4
(g5
(S'S5'
p21
I0
I1
tp22
Rp23
(I3
S'|'
p24
NNNI5
I1
I0
tp25
bS'bring'
p26
tp27
Rp28
sg14
g15
sg16
S'oidx_26'
p29
sg18
Nsg19
Nsaa(lp30
(dp31
S'all'
p32
(lp33
S'yes'
p34
asg16
(lp35
S'yes'
p36
aS'yes'
p37
aS'yes'
p38
aS'yes'
p39
asg18
(lp40
sg19
(lp41
sg3
(lp42
sg14
(lp43
sa(dp44
g32
(lp45
S'yes'
p46
asg16
(lp47
S'no'
p48
asg18
(lp49
sg19
(lp50
sg3
(lp51
sg14
(lp52
S'yes'
p53
aS'yes'
p54
asaa(lp55
(g4
(g5
(S'S9'
p56
I0
I1
tp57
Rp58
(I3
S'|'
p59
NNNI9
I1
I0
tp60
bS'container'
p61
tp62
Rp63
I16
I1
tp64
a(g4
(g5
(S'S5'
p65
I0
I1
tp66
Rp67
(I3
S'|'
p68
NNNI5
I1
I0
tp69
bS'empty'
p70
tp71
Rp72
I21
I1
tp73
a(g4
(g5
(S'S5'
p74
I0
I1
tp75
Rp76
(I3
S'|'
p77
NNNI5
I1
I0
tp78
bS'empty'
p79
tp80
Rp81
I0
I1
tp82
a(g4
(g5
(S'S5'
p83
I0
I1
tp84
Rp85
(I3
S'|'
p86
NNNI5
I1
I0
tp87
bS'brown'
p88
tp89
Rp90
I19
I1
tp91
a(g4
(g5
(S'S8'
p92
I0
I1
tp93
Rp94
(I3
S'|'
p95
NNNI8
I1
I0
tp96
bS'pringles'
p97
tp98
Rp99
I9
I1
tp100
a(g4
(g5
(S'S6'
p101
I0
I1
tp102
Rp103
(I3
S'|'
p104
NNNI6
I1
I0
tp105
bS'yellow'
p106
tp107
Rp108
I21
I0
tp109
a(g108
I24
I0
tp110
a(g108
I19
I0
tp111
a(g108
I23
I0
tp112
a(g108
I16
I0
tp113
a(g108
I0
I0
tp114
a(g108
I4
I0
tp115
a(g108
I9
I0
tp116
a(g4
(g5
(S'S5'
p117
I0
I1
tp118
Rp119
(I3
S'|'
p120
NNNI5
I1
I0
tp121
bS'peach'
p122
tp123
Rp124
I21
I1
tp125
a(g4
(g5
(S'S3'
p126
I0
I1
tp127
Rp128
(I3
S'|'
p129
NNNI3
I1
I0
tp130
bS'can'
p131
tp132
Rp133
I0
I1
tp134
a(g4
(g5
(S'S8'
p135
I0
I1
tp136
Rp137
(I3
S'|'
p138
NNNI8
I1
I0
tp139
bS'pringles'
p140
tp141
Rp142
I16
I1
tp143
a(g4
(g5
(S'S3'
p144
I0
I1
tp145
Rp146
(I3
S'|'
p147
NNNI3
I1
I0
tp148
bS'can'
p149
tp150
Rp151
I4
I1
tp152
aa(lp153
a.