(lp0
(lp1
(dp2
S'action'
p3
cnumpy.core.multiarray
scalar
p4
(cnumpy
dtype
p5
(S'S4'
p6
I0
I1
tp7
Rp8
(I3
S'|'
p9
NNNI4
I1
I0
tp10
bS'walk'
p11
tp12
Rp13
sS'recipient'
p14
NsS'patient'
p15
NsS'goal'
p16
S'3414'
p17
sS'source'
p18
Nsa(dp19
g3
g4
(g5
(S'S4'
p20
I0
I1
tp21
Rp22
(I3
S'|'
p23
NNNI4
I1
I0
tp24
bS'walk'
p25
tp26
Rp27
sg14
Nsg15
Nsg16
S'3416'
p28
sg18
Nsa(dp29
g3
g4
(g5
(S'S5'
p30
I0
I1
tp31
Rp32
(I3
S'|'
p33
NNNI5
I1
I0
tp34
bS'bring'
p35
tp36
Rp37
sg14
S'n'
p38
sg15
S'oidx_22'
p39
sg16
Nsg18
Nsaa(lp40
(dp41
S'all'
p42
(lp43
S'yes'
p44
asg15
(lp45
sg16
(lp46
S'yes'
p47
aS'yes'
p48
aS'yes'
p49
aS'yes'
p50
aS's'
p51
asg18
(lp52
sg3
(lp53
sg14
(lp54
sa(dp55
g42
(lp56
S'yes'
p57
asg15
(lp58
sg16
(lp59
S''
p60
aS'yes'
p61
aS'yes'
p62
aS'es'
p63
aS'yes'
p64
ag60
ag60
aS'yes'
p65
asg18
(lp66
sg3
(lp67
sg14
(lp68
sa(dp69
g42
(lp70
S'yes'
p71
asg15
(lp72
S'yes'
p73
aS'yes'
p74
asg16
(lp75
sg18
(lp76
sg3
(lp77
sg14
(lp78
saa(lp79
(g4
(g5
(S'S9'
p80
I0
I1
tp81
Rp82
(I3
S'|'
p83
NNNI9
I1
I0
tp84
bS'styrofoam'
p85
tp86
Rp87
I21
I1
tp88
a(g4
(g5
(S'S5'
p89
I0
I1
tp90
Rp91
(I3
S'|'
p92
NNNI5
I1
I0
tp93
bS'empty'
p94
tp95
Rp96
I4
I1
tp97
a(g4
(g5
(S'S5'
p98
I0
I1
tp99
Rp100
(I3
S'|'
p101
NNNI5
I1
I0
tp102
bS'empty'
p103
tp104
Rp105
I19
I1
tp106
a(g4
(g5
(S'S3'
p107
I0
I1
tp108
Rp109
(I3
S'|'
p110
NNNI3
I1
I0
tp111
bS'can'
p112
tp113
Rp114
I0
I1
tp115
a(g4
(g5
(S'S9'
p116
I0
I1
tp117
Rp118
(I3
S'|'
p119
NNNI9
I1
I0
tp120
bS'rectangle'
p121
tp122
Rp123
I23
I1
tp124
a(g4
(g5
(S'S4'
p125
I0
I1
tp126
Rp127
(I3
S'|'
p128
NNNI4
I1
I0
tp129
bS'blue'
p130
tp131
Rp132
I24
I1
tp133
a(g4
(g5
(S'S5'
p134
I0
I1
tp135
Rp136
(I3
S'|'
p137
NNNI5
I1
I0
tp138
bS'block'
p139
tp140
Rp141
I24
I1
tp142
a(g4
(g5
(S'S5'
p143
I0
I1
tp144
Rp145
(I3
S'|'
p146
NNNI5
I1
I0
tp147
bS'block'
p148
tp149
Rp150
I4
I1
tp151
a(g4
(g5
(S'S6'
p152
I0
I1
tp153
Rp154
(I3
S'|'
p155
NNNI6
I1
I0
tp156
bS'coffee'
p157
tp158
Rp159
I16
I1
tp160
a(g4
(g5
(S'S8'
p161
I0
I1
tp162
Rp163
(I3
S'|'
p164
NNNI8
I1
I0
tp165
bS'cylinder'
p166
tp167
Rp168
I21
I0
tp169
a(g4
(g5
(S'S5'
p170
I0
I1
tp171
Rp172
(I3
S'|'
p173
NNNI5
I1
I0
tp174
bS'peach'
p175
tp176
Rp177
I24
I1
tp178
a(g4
(g5
(S'S5'
p179
I0
I1
tp180
Rp181
(I3
S'|'
p182
NNNI5
I1
I0
tp183
bS'peach'
p184
tp185
Rp186
I4
I1
tp187
a(g4
(g5
(S'S5'
p188
I0
I1
tp189
Rp190
(I3
S'|'
p191
NNNI5
I1
I0
tp192
bS'block'
p193
tp194
Rp195
I19
I1
tp196
a(g4
(g5
(S'S9'
p197
I0
I1
tp198
Rp199
(I3
S'|'
p200
NNNI9
I1
I0
tp201
bS'rectangle'
p202
tp203
Rp204
I19
I1
tp205
a(g4
(g5
(S'S6'
p206
I0
I1
tp207
Rp208
(I3
S'|'
p209
NNNI6
I1
I0
tp210
bS'coffee'
p211
tp212
Rp213
I23
I1
tp214
aa(lp215
a.