(lp0
(I1
I10
I0
tp1
a(I1
I3
I0
tp2
a(I1
I27
I0
tp3
a(I1
I7
I0
tp4
a(I1
I18
I0
tp5
a(I1
I2
I0
tp6
a(I1
I20
I0
tp7
a(I1
I17
I0
tp8
a(I16
I10
I0
tp9
a(I16
I3
I0
tp10
a(I16
I27
I0
tp11
a(I16
I7
I0
tp12
a(I16
I18
I0
tp13
a(I16
I2
I0
tp14
a(I16
I20
I0
tp15
a(I16
I17
I0
tp16
a(I14
I17
I1
tp17
a(I15
I2
I1
tp18
a(I6
I18
I1
tp19
a(I2
I27
I1
tp20
a(I17
I7
I1
tp21
a(I2
I18
I0
tp22
a(I2
I3
I1
tp23
a(I8
I20
I1
tp24
a(I8
I3
I0
tp25
a(I4
I2
I1
tp26
a(I18
I3
I1
tp27
a(I17
I7
I0
tp28
a(I7
I20
I1
tp29
a(I12
I10
I0
tp30
a(I12
I3
I0
tp31
a(I12
I27
I0
tp32
a(I12
I7
I0
tp33
a(I12
I18
I0
tp34
a(I12
I2
I0
tp35
a(I12
I20
I0
tp36
a(I12
I17
I0
tp37
a(I0
I10
I1
tp38
a(I2
I18
I1
tp39
a(I13
I3
I1
tp40
a(I9
I2
I1
tp41
a(I18
I27
I1
tp42
a(I4
I18
I1
tp43
a(I16
I10
I0
tp44
a(I16
I3
I0
tp45
a(I16
I27
I0
tp46
a(I16
I7
I0
tp47
a(I16
I18
I0
tp48
a(I16
I2
I0
tp49
a(I16
I20
I0
tp50
a(I16
I17
I0
tp51
a(I18
I2
I0
tp52
a(I6
I2
I1
tp53
a(I3
I10
I0
tp54
a(I3
I3
I0
tp55
a(I3
I27
I0
tp56
a(I3
I7
I0
tp57
a(I3
I18
I0
tp58
a(I3
I2
I0
tp59
a(I3
I20
I0
tp60
a(I3
I17
I0
tp61
a(I14
I10
I0
tp62
a(I14
I3
I0
tp63
a(I14
I27
I0
tp64
a(I14
I7
I0
tp65
a(I14
I18
I0
tp66
a(I14
I2
I0
tp67
a(I14
I20
I0
tp68
a(I14
I17
I0
tp69
a(I5
I18
I1
tp70
a(I9
I2
I0
tp71
a(I7
I3
I1
tp72
a(I11
I10
I0
tp73
a(I11
I3
I0
tp74
a(I11
I27
I0
tp75
a(I11
I7
I0
tp76
a(I11
I18
I0
tp77
a(I11
I2
I0
tp78
a(I11
I20
I0
tp79
a(I11
I17
I0
tp80
a(I4
I10
I1
tp81
a(I12
I20
I1
tp82
a(I19
I3
I1
tp83
a(I18
I10
I0
tp84
a(I18
I3
I0
tp85
a(I18
I27
I0
tp86
a(I18
I7
I0
tp87
a(I18
I18
I0
tp88
a(I18
I2
I0
tp89
a(I18
I20
I0
tp90
a(I18
I17
I0
tp91
a(I4
I2
I0
tp92
a(I4
I2
I1
tp93
a(I4
I20
I0
tp94
a(I4
I10
I1
tp95
a(I4
I27
I0
tp96
a(I10
I10
I0
tp97
a(I10
I3
I0
tp98
a(I10
I27
I0
tp99
a(I10
I7
I0
tp100
a(I10
I18
I0
tp101
a(I10
I2
I0
tp102
a(I10
I20
I0
tp103
a(I10
I17
I0
tp104
a(I4
I10
I1
tp105
a(I4
I20
I0
tp106
a(I8
I3
I1
tp107
a(I0
I10
I0
tp108
a(I0
I3
I0
tp109
a(I0
I27
I0
tp110
a(I0
I7
I0
tp111
a(I0
I18
I0
tp112
a(I0
I2
I0
tp113
a(I0
I20
I0
tp114
a(I0
I17
I0
tp115
a(I4
I2
I1
tp116
a(I12
I20
I1
tp117
a(I19
I10
I0
tp118
a(I19
I3
I0
tp119
a(I19
I27
I0
tp120
a(I19
I7
I0
tp121
a(I19
I18
I0
tp122
a(I19
I2
I0
tp123
a(I19
I20
I0
tp124
a(I19
I17
I0
tp125
a(I13
I10
I0
tp126
a(I13
I3
I0
tp127
a(I13
I27
I0
tp128
a(I13
I7
I0
tp129
a(I13
I18
I0
tp130
a(I13
I2
I0
tp131
a(I13
I20
I0
tp132
a(I13
I17
I0
tp133
a(I7
I3
I1
tp134
a(I8
I20
I1
tp135
a(I8
I27
I0
tp136
a(I8
I18
I1
tp137
a(I8
I17
I1
tp138
a(I8
I3
I1
tp139
a(I15
I10
I0
tp140
a(I15
I3
I0
tp141
a(I15
I27
I0
tp142
a(I15
I7
I0
tp143
a(I15
I18
I0
tp144
a(I15
I2
I0
tp145
a(I15
I20
I0
tp146
a(I15
I17
I0
tp147
a(I18
I10
I0
tp148
a(I18
I3
I0
tp149
a(I18
I27
I0
tp150
a(I18
I7
I0
tp151
a(I18
I18
I0
tp152
a(I18
I2
I0
tp153
a(I18
I20
I0
tp154
a(I18
I17
I0
tp155
a(I11
I10
I0
tp156
a(I11
I3
I0
tp157
a(I11
I27
I0
tp158
a(I11
I7
I0
tp159
a(I11
I18
I0
tp160
a(I11
I2
I0
tp161
a(I11
I20
I0
tp162
a(I11
I17
I0
tp163
a(I5
I18
I1
tp164
a(I7
I27
I0
tp165
a(I1
I2
I1
tp166
a(I13
I10
I0
tp167
a(I13
I3
I0
tp168
a(I13
I27
I0
tp169
a(I13
I7
I0
tp170
a(I13
I18
I0
tp171
a(I13
I2
I0
tp172
a(I13
I20
I0
tp173
a(I13
I17
I0
tp174
a(I12
I20
I1
tp175
a(I9
I10
I1
tp176
a(I9
I27
I0
tp177
a(I16
I10
I0
tp178
a(I16
I3
I0
tp179
a(I16
I27
I0
tp180
a(I16
I7
I0
tp181
a(I16
I18
I0
tp182
a(I16
I2
I0
tp183
a(I16
I20
I0
tp184
a(I16
I17
I0
tp185
a(I11
I10
I0
tp186
a(I11
I3
I0
tp187
a(I11
I27
I0
tp188
a(I11
I7
I0
tp189
a(I11
I18
I0
tp190
a(I11
I2
I0
tp191
a(I11
I20
I0
tp192
a(I11
I17
I0
tp193
a(I15
I10
I0
tp194
a(I15
I3
I0
tp195
a(I15
I27
I0
tp196
a(I15
I7
I0
tp197
a(I15
I18
I0
tp198
a(I15
I2
I0
tp199
a(I15
I20
I0
tp200
a(I15
I17
I0
tp201
a(I6
I10
I0
tp202
a(I6
I3
I0
tp203
a(I6
I27
I0
tp204
a(I6
I7
I0
tp205
a(I6
I18
I0
tp206
a(I6
I2
I0
tp207
a(I6
I20
I0
tp208
a(I6
I17
I0
tp209
a(I1
I27
I0
tp210
a(I18
I10
I0
tp211
a(I18
I3
I0
tp212
a(I18
I27
I0
tp213
a(I18
I7
I0
tp214
a(I18
I18
I0
tp215
a(I18
I2
I0
tp216
a(I18
I20
I0
tp217
a(I18
I17
I0
tp218
a(I14
I10
I0
tp219
a(I14
I3
I0
tp220
a(I14
I27
I0
tp221
a(I14
I7
I0
tp222
a(I14
I18
I0
tp223
a(I14
I2
I0
tp224
a(I14
I20
I0
tp225
a(I14
I17
I0
tp226
a(I0
I10
I0
tp227
a(I0
I3
I0
tp228
a(I0
I27
I0
tp229
a(I0
I7
I0
tp230
a(I0
I18
I0
tp231
a(I0
I2
I0
tp232
a(I0
I20
I0
tp233
a(I0
I17
I0
tp234
a(I3
I10
I0
tp235
a(I3
I3
I0
tp236
a(I3
I27
I0
tp237
a(I3
I7
I0
tp238
a(I3
I18
I0
tp239
a(I3
I2
I0
tp240
a(I3
I20
I0
tp241
a(I3
I17
I0
tp242
a(I4
I2
I1
tp243
a(I12
I10
I0
tp244
a(I12
I3
I0
tp245
a(I12
I27
I0
tp246
a(I12
I7
I0
tp247
a(I12
I18
I0
tp248
a(I12
I2
I0
tp249
a(I12
I20
I0
tp250
a(I12
I17
I0
tp251
a(I5
I18
I1
tp252
a(I8
I7
I1
tp253
a(I19
I2
I1
tp254
a(I9
I10
I0
tp255
a(I9
I3
I0
tp256
a(I9
I27
I0
tp257
a(I9
I7
I0
tp258
a(I9
I18
I0
tp259
a(I9
I2
I0
tp260
a(I9
I20
I0
tp261
a(I9
I17
I0
tp262
a(I4
I17
I1
tp263
a(I13
I10
I0
tp264
a(I13
I3
I0
tp265
a(I13
I27
I0
tp266
a(I13
I7
I0
tp267
a(I13
I18
I0
tp268
a(I13
I2
I0
tp269
a(I13
I20
I0
tp270
a(I13
I17
I0
tp271
a(I15
I10
I0
tp272
a(I15
I3
I0
tp273
a(I15
I27
I0
tp274
a(I15
I7
I0
tp275
a(I15
I18
I0
tp276
a(I15
I2
I0
tp277
a(I15
I20
I0
tp278
a(I15
I17
I0
tp279
a(I3
I10
I0
tp280
a(I3
I3
I0
tp281
a(I3
I27
I0
tp282
a(I3
I7
I0
tp283
a(I3
I18
I0
tp284
a(I3
I2
I0
tp285
a(I3
I20
I0
tp286
a(I3
I17
I0
tp287
a(I7
I10
I0
tp288
a(I7
I3
I0
tp289
a(I7
I27
I0
tp290
a(I7
I7
I0
tp291
a(I7
I18
I0
tp292
a(I7
I2
I0
tp293
a(I7
I20
I0
tp294
a(I7
I17
I0
tp295
a(I2
I10
I0
tp296
a(I2
I3
I0
tp297
a(I2
I27
I0
tp298
a(I2
I7
I0
tp299
a(I2
I18
I0
tp300
a(I2
I2
I0
tp301
a(I2
I20
I0
tp302
a(I2
I17
I0
tp303
a(I10
I10
I0
tp304
a(I10
I3
I0
tp305
a(I10
I27
I0
tp306
a(I10
I7
I0
tp307
a(I10
I18
I0
tp308
a(I10
I2
I0
tp309
a(I10
I20
I0
tp310
a(I10
I17
I0
tp311
a(I17
I10
I0
tp312
a(I17
I3
I0
tp313
a(I17
I27
I0
tp314
a(I17
I7
I0
tp315
a(I17
I18
I0
tp316
a(I17
I2
I0
tp317
a(I17
I20
I0
tp318
a(I17
I17
I0
tp319
a(I4
I10
I1
tp320
a(I4
I3
I1
tp321
a(I4
I27
I1
tp322
a(I4
I7
I1
tp323
a(I4
I18
I1
tp324
a(I4
I2
I1
tp325
a(I4
I20
I1
tp326
a(I4
I17
I1
tp327
a(I11
I10
I0
tp328
a(I11
I3
I0
tp329
a(I11
I27
I0
tp330
a(I11
I7
I0
tp331
a(I11
I18
I0
tp332
a(I11
I2
I0
tp333
a(I11
I20
I0
tp334
a(I11
I17
I0
tp335
a(I14
I10
I0
tp336
a(I14
I3
I0
tp337
a(I14
I27
I0
tp338
a(I14
I7
I0
tp339
a(I14
I18
I0
tp340
a(I14
I2
I0
tp341
a(I14
I20
I0
tp342
a(I14
I17
I0
tp343
a(I16
I10
I0
tp344
a(I16
I3
I0
tp345
a(I16
I27
I0
tp346
a(I16
I7
I0
tp347
a(I16
I18
I0
tp348
a(I16
I2
I0
tp349
a(I16
I20
I0
tp350
a(I16
I17
I0
tp351
a(I17
I10
I0
tp352
a(I17
I3
I0
tp353
a(I17
I27
I0
tp354
a(I17
I7
I0
tp355
a(I17
I18
I0
tp356
a(I17
I2
I0
tp357
a(I17
I20
I0
tp358
a(I17
I17
I0
tp359
a(I13
I10
I0
tp360
a(I13
I3
I0
tp361
a(I13
I27
I0
tp362
a(I13
I7
I0
tp363
a(I13
I18
I0
tp364
a(I13
I2
I0
tp365
a(I13
I20
I0
tp366
a(I13
I17
I0
tp367
a(I4
I2
I1
tp368
a(I19
I10
I0
tp369
a(I19
I3
I0
tp370
a(I19
I27
I0
tp371
a(I19
I7
I0
tp372
a(I19
I18
I0
tp373
a(I19
I2
I0
tp374
a(I19
I20
I0
tp375
a(I19
I17
I0
tp376
a(I5
I18
I1
tp377
a(I9
I10
I0
tp378
a(I9
I3
I0
tp379
a(I9
I27
I0
tp380
a(I9
I7
I0
tp381
a(I9
I18
I0
tp382
a(I9
I2
I0
tp383
a(I9
I20
I0
tp384
a(I9
I17
I0
tp385
a(I5
I27
I0
tp386
a(I18
I10
I0
tp387
a(I18
I3
I0
tp388
a(I18
I27
I0
tp389
a(I18
I7
I0
tp390
a(I18
I18
I0
tp391
a(I18
I2
I0
tp392
a(I18
I20
I0
tp393
a(I18
I17
I0
tp394
a(I8
I3
I1
tp395
a(I12
I20
I1
tp396
a(I8
I27
I0
tp397
a(I10
I27
I1
tp398
a(I9
I17
I1
tp399
a(I12
I3
I1
tp400
a(I3
I2
I1
tp401
a(I12
I2
I0
tp402
a(I5
I7
I1
tp403
a(I15
I18
I1
tp404
a(I1
I18
I1
tp405
a(I2
I27
I1
tp406
a(I19
I27
I1
tp407
a(I15
I7
I0
tp408
a(I18
I7
I1
tp409
a(I17
I18
I1
tp410
a(I19
I27
I0
tp411
a(I11
I27
I1
tp412
a(I13
I7
I1
tp413
a(I14
I10
I0
tp414
a(I14
I3
I0
tp415
a(I14
I27
I0
tp416
a(I14
I7
I0
tp417
a(I14
I18
I0
tp418
a(I14
I2
I0
tp419
a(I14
I20
I0
tp420
a(I14
I17
I0
tp421
a(I2
I10
I0
tp422
a(I2
I3
I0
tp423
a(I2
I27
I0
tp424
a(I2
I7
I0
tp425
a(I2
I18
I0
tp426
a(I2
I2
I0
tp427
a(I2
I20
I0
tp428
a(I2
I17
I0
tp429
a(I4
I10
I1
tp430
a(I9
I2
I1
tp431
a(I4
I10
I0
tp432
a(I4
I10
I1
tp433
a(I4
I2
I0
tp434
a(I4
I10
I1
tp435
a(I4
I2
I0
tp436
a(I4
I10
I1
tp437
a(I19
I10
I0
tp438
a(I19
I3
I0
tp439
a(I19
I27
I0
tp440
a(I19
I7
I0
tp441
a(I19
I18
I0
tp442
a(I19
I2
I0
tp443
a(I19
I20
I0
tp444
a(I19
I17
I0
tp445
a(I16
I20
I1
tp446
a(I17
I10
I0
tp447
a(I17
I3
I0
tp448
a(I17
I27
I0
tp449
a(I17
I7
I0
tp450
a(I17
I18
I0
tp451
a(I17
I2
I0
tp452
a(I17
I20
I0
tp453
a(I17
I17
I0
tp454
a(I6
I10
I0
tp455
a(I6
I3
I0
tp456
a(I6
I27
I0
tp457
a(I6
I7
I0
tp458
a(I6
I18
I0
tp459
a(I6
I2
I0
tp460
a(I6
I20
I0
tp461
a(I6
I17
I0
tp462
a(I0
I10
I0
tp463
a(I0
I3
I0
tp464
a(I0
I27
I0
tp465
a(I0
I7
I0
tp466
a(I0
I18
I0
tp467
a(I0
I2
I0
tp468
a(I0
I20
I0
tp469
a(I0
I17
I0
tp470
a(I18
I3
I1
tp471
a(I6
I2
I1
tp472
a(I19
I10
I1
tp473
a(I10
I10
I1
tp474
a(I8
I10
I0
tp475
a(I8
I3
I0
tp476
a(I8
I27
I0
tp477
a(I8
I7
I0
tp478
a(I8
I18
I0
tp479
a(I8
I2
I0
tp480
a(I8
I20
I0
tp481
a(I8
I17
I0
tp482
a(I14
I17
I1
tp483
a(I15
I17
I1
tp484
a(I12
I7
I1
tp485
a(I17
I10
I0
tp486
a(I17
I3
I0
tp487
a(I17
I27
I0
tp488
a(I17
I7
I0
tp489
a(I17
I18
I0
tp490
a(I17
I2
I0
tp491
a(I17
I20
I0
tp492
a(I17
I17
I0
tp493
a(I1
I10
I1
tp494
a(I7
I10
I1
tp495
a(I11
I3
I1
tp496
a(I4
I7
I1
tp497
a(I13
I20
I1
tp498
a(I19
I17
I0
tp499
a(I13
I3
I1
tp500
a(I16
I3
I1
tp501
a(I9
I2
I1
tp502
a(I0
I10
I0
tp503
a(I0
I3
I0
tp504
a(I0
I27
I0
tp505
a(I0
I7
I0
tp506
a(I0
I18
I0
tp507
a(I0
I2
I0
tp508
a(I0
I20
I0
tp509
a(I0
I17
I0
tp510
a(I12
I10
I0
tp511
a(I12
I3
I0
tp512
a(I12
I27
I0
tp513
a(I12
I7
I0
tp514
a(I12
I18
I0
tp515
a(I12
I2
I0
tp516
a(I12
I20
I0
tp517
a(I12
I17
I0
tp518
a(I8
I3
I1
tp519
a(I7
I10
I0
tp520
a(I7
I3
I0
tp521
a(I7
I27
I0
tp522
a(I7
I7
I0
tp523
a(I7
I18
I0
tp524
a(I7
I2
I0
tp525
a(I7
I20
I0
tp526
a(I7
I17
I0
tp527
a(I19
I10
I0
tp528
a(I19
I3
I0
tp529
a(I19
I27
I0
tp530
a(I19
I7
I0
tp531
a(I19
I18
I0
tp532
a(I19
I2
I0
tp533
a(I19
I20
I0
tp534
a(I19
I17
I0
tp535
a(I5
I18
I1
tp536
a(I9
I27
I0
tp537
a(I3
I10
I0
tp538
a(I3
I3
I0
tp539
a(I3
I27
I0
tp540
a(I3
I7
I0
tp541
a(I3
I18
I0
tp542
a(I3
I2
I0
tp543
a(I3
I20
I0
tp544
a(I3
I17
I0
tp545
a(I6
I10
I0
tp546
a(I6
I3
I0
tp547
a(I6
I27
I0
tp548
a(I6
I7
I0
tp549
a(I6
I18
I0
tp550
a(I6
I2
I0
tp551
a(I6
I20
I0
tp552
a(I6
I17
I0
tp553
a(I9
I2
I1
tp554
a(I13
I27
I0
tp555
a(I11
I10
I0
tp556
a(I11
I3
I0
tp557
a(I11
I27
I0
tp558
a(I11
I7
I0
tp559
a(I11
I18
I0
tp560
a(I11
I2
I0
tp561
a(I11
I20
I0
tp562
a(I11
I17
I0
tp563
a(I3
I10
I0
tp564
a(I3
I3
I0
tp565
a(I3
I27
I0
tp566
a(I3
I7
I0
tp567
a(I3
I18
I0
tp568
a(I3
I2
I0
tp569
a(I3
I20
I0
tp570
a(I3
I17
I0
tp571
a(I19
I10
I0
tp572
a(I19
I3
I0
tp573
a(I19
I27
I0
tp574
a(I19
I7
I0
tp575
a(I19
I18
I0
tp576
a(I19
I2
I0
tp577
a(I19
I20
I0
tp578
a(I19
I17
I0
tp579
a(I7
I3
I1
tp580
a(I9
I10
I0
tp581
a(I9
I3
I0
tp582
a(I9
I27
I0
tp583
a(I9
I7
I0
tp584
a(I9
I18
I0
tp585
a(I9
I2
I0
tp586
a(I9
I20
I0
tp587
a(I9
I17
I0
tp588
a(I17
I10
I0
tp589
a(I17
I3
I0
tp590
a(I17
I27
I0
tp591
a(I17
I7
I0
tp592
a(I17
I18
I0
tp593
a(I17
I2
I0
tp594
a(I17
I20
I0
tp595
a(I17
I17
I0
tp596
a(I14
I10
I0
tp597
a(I14
I3
I0
tp598
a(I14
I27
I0
tp599
a(I14
I7
I0
tp600
a(I14
I18
I0
tp601
a(I14
I2
I0
tp602
a(I14
I20
I0
tp603
a(I14
I17
I0
tp604
a(I7
I18
I0
tp605
a(I7
I3
I1
tp606
a(I7
I2
I0
tp607
a(I7
I7
I1
tp608
a(I16
I20
I1
tp609
a(I8
I3
I1
tp610
a(I5
I18
I1
tp611
a(I10
I10
I0
tp612
a(I10
I3
I0
tp613
a(I10
I27
I0
tp614
a(I10
I7
I0
tp615
a(I10
I18
I0
tp616
a(I10
I2
I0
tp617
a(I10
I20
I0
tp618
a(I10
I17
I0
tp619
a(I6
I10
I0
tp620
a(I6
I3
I0
tp621
a(I6
I27
I0
tp622
a(I6
I7
I0
tp623
a(I6
I18
I0
tp624
a(I6
I2
I0
tp625
a(I6
I20
I0
tp626
a(I6
I17
I0
tp627
a(I8
I3
I1
tp628
a(I12
I3
I1
tp629
a(I18
I10
I0
tp630
a(I18
I3
I0
tp631
a(I18
I27
I0
tp632
a(I18
I7
I0
tp633
a(I18
I18
I0
tp634
a(I18
I2
I0
tp635
a(I18
I20
I0
tp636
a(I18
I17
I0
tp637
a(I17
I3
I1
tp638
a(I10
I10
I0
tp639
a(I10
I3
I0
tp640
a(I10
I27
I0
tp641
a(I10
I7
I0
tp642
a(I10
I18
I0
tp643
a(I10
I2
I0
tp644
a(I10
I20
I0
tp645
a(I10
I17
I0
tp646
a(I15
I10
I0
tp647
a(I15
I3
I0
tp648
a(I15
I27
I0
tp649
a(I15
I7
I0
tp650
a(I15
I18
I0
tp651
a(I15
I2
I0
tp652
a(I15
I20
I0
tp653
a(I15
I17
I0
tp654
a(I2
I10
I0
tp655
a(I2
I3
I0
tp656
a(I2
I27
I0
tp657
a(I2
I7
I0
tp658
a(I2
I18
I0
tp659
a(I2
I2
I0
tp660
a(I2
I20
I0
tp661
a(I2
I17
I0
tp662
a(I16
I20
I1
tp663
a(I1
I2
I1
tp664
a(I7
I3
I1
tp665
a(I12
I2
I0
tp666
a(I11
I2
I1
tp667
a(I5
I18
I1
tp668
a(I17
I10
I1
tp669
a(I17
I3
I1
tp670
a(I17
I27
I1
tp671
a(I17
I7
I1
tp672
a(I17
I18
I1
tp673
a(I17
I2
I1
tp674
a(I17
I20
I1
tp675
a(I17
I17
I1
tp676
a(I0
I10
I0
tp677
a(I0
I3
I0
tp678
a(I0
I27
I0
tp679
a(I0
I7
I0
tp680
a(I0
I18
I0
tp681
a(I0
I2
I0
tp682
a(I0
I20
I0
tp683
a(I0
I17
I0
tp684
a(I16
I10
I0
tp685
a(I16
I3
I0
tp686
a(I16
I27
I0
tp687
a(I16
I7
I0
tp688
a(I16
I18
I0
tp689
a(I16
I2
I0
tp690
a(I16
I20
I0
tp691
a(I16
I17
I0
tp692
a(I5
I18
I1
tp693
a(I12
I10
I0
tp694
a(I12
I3
I0
tp695
a(I12
I27
I0
tp696
a(I12
I7
I0
tp697
a(I12
I18
I0
tp698
a(I12
I2
I0
tp699
a(I12
I20
I0
tp700
a(I12
I17
I0
tp701
a(I0
I10
I0
tp702
a(I0
I3
I0
tp703
a(I0
I27
I0
tp704
a(I0
I7
I0
tp705
a(I0
I18
I0
tp706
a(I0
I2
I0
tp707
a(I0
I20
I0
tp708
a(I0
I17
I0
tp709
a(I17
I10
I0
tp710
a(I17
I3
I0
tp711
a(I17
I27
I0
tp712
a(I17
I7
I0
tp713
a(I17
I18
I0
tp714
a(I17
I2
I0
tp715
a(I17
I20
I0
tp716
a(I17
I17
I0
tp717
a(I9
I10
I0
tp718
a(I9
I3
I0
tp719
a(I9
I27
I0
tp720
a(I9
I7
I0
tp721
a(I9
I18
I0
tp722
a(I9
I2
I0
tp723
a(I9
I20
I0
tp724
a(I9
I17
I0
tp725
a(I10
I10
I0
tp726
a(I10
I3
I0
tp727
a(I10
I27
I0
tp728
a(I10
I7
I0
tp729
a(I10
I18
I0
tp730
a(I10
I2
I0
tp731
a(I10
I20
I0
tp732
a(I10
I17
I0
tp733
a(I2
I10
I0
tp734
a(I2
I3
I0
tp735
a(I2
I27
I0
tp736
a(I2
I7
I0
tp737
a(I2
I18
I0
tp738
a(I2
I2
I0
tp739
a(I2
I20
I0
tp740
a(I2
I17
I0
tp741
a(I13
I10
I0
tp742
a(I13
I3
I0
tp743
a(I13
I27
I0
tp744
a(I13
I7
I0
tp745
a(I13
I18
I0
tp746
a(I13
I2
I0
tp747
a(I13
I20
I0
tp748
a(I13
I17
I0
tp749
a(I6
I10
I0
tp750
a(I6
I3
I0
tp751
a(I6
I27
I0
tp752
a(I6
I7
I0
tp753
a(I6
I18
I0
tp754
a(I6
I2
I0
tp755
a(I6
I20
I0
tp756
a(I6
I17
I0
tp757
a(I4
I2
I1
tp758
a(I19
I10
I0
tp759
a(I19
I3
I0
tp760
a(I19
I27
I0
tp761
a(I19
I7
I0
tp762
a(I19
I18
I0
tp763
a(I19
I2
I0
tp764
a(I19
I20
I0
tp765
a(I19
I17
I0
tp766
a(I15
I10
I0
tp767
a(I15
I3
I0
tp768
a(I15
I27
I0
tp769
a(I15
I7
I0
tp770
a(I15
I18
I0
tp771
a(I15
I2
I0
tp772
a(I15
I20
I0
tp773
a(I15
I17
I0
tp774
a(I11
I10
I0
tp775
a(I11
I3
I0
tp776
a(I11
I27
I0
tp777
a(I11
I7
I0
tp778
a(I11
I18
I0
tp779
a(I11
I2
I0
tp780
a(I11
I20
I0
tp781
a(I11
I17
I0
tp782
a(I7
I3
I1
tp783
a(I19
I17
I1
tp784
a(I10
I10
I1
tp785
a(I16
I17
I1
tp786
a(I10
I17
I0
tp787
a(I15
I17
I1
tp788
a(I19
I7
I0
tp789
a(I11
I18
I1
tp790
a(I19
I18
I1
tp791
a(I7
I18
I1
tp792
a(I14
I7
I1
tp793
a(I8
I7
I1
tp794
a(I8
I7
I0
tp795
a(I13
I20
I1
tp796
a(I8
I20
I1
tp797
a(I14
I27
I0
tp798
a(I13
I10
I0
tp799
a(I13
I3
I0
tp800
a(I13
I27
I0
tp801
a(I13
I7
I0
tp802
a(I13
I18
I0
tp803
a(I13
I2
I0
tp804
a(I13
I20
I0
tp805
a(I13
I17
I0
tp806
a(I4
I2
I1
tp807
a(I7
I3
I1
tp808
a(I4
I27
I0
tp809
a(I15
I10
I0
tp810
a(I15
I3
I0
tp811
a(I15
I27
I0
tp812
a(I15
I7
I0
tp813
a(I15
I18
I0
tp814
a(I15
I2
I0
tp815
a(I15
I20
I0
tp816
a(I15
I17
I0
tp817
a(I4
I2
I1
tp818
a(I4
I20
I0
tp819
a(I4
I2
I1
tp820
a(I4
I17
I0
tp821
a(I4
I7
I0
tp822
a(I19
I10
I0
tp823
a(I19
I3
I0
tp824
a(I19
I27
I0
tp825
a(I19
I7
I0
tp826
a(I19
I18
I0
tp827
a(I19
I2
I0
tp828
a(I19
I20
I0
tp829
a(I19
I17
I0
tp830
a(I4
I10
I1
tp831
a(I8
I20
I1
tp832
a(I14
I10
I0
tp833
a(I14
I3
I0
tp834
a(I14
I27
I0
tp835
a(I14
I7
I0
tp836
a(I14
I18
I0
tp837
a(I14
I2
I0
tp838
a(I14
I20
I0
tp839
a(I14
I17
I0
tp840
a(I4
I10
I1
tp841
a(I10
I17
I1
tp842
a(I5
I7
I1
tp843
a(I6
I7
I1
tp844
a(I4
I3
I1
tp845
a(I4
I3
I0
tp846
a(I2
I18
I1
tp847
a(I15
I2
I1
tp848
a(I9
I17
I1
tp849
a(I18
I20
I1
tp850
a(I12
I7
I1
tp851
a(I17
I27
I1
tp852
a(I16
I3
I1
tp853
a(I11
I10
I1
tp854
a(I17
I2
I0
tp855
a(I5
I27
I0
tp856
a(I8
I3
I1
tp857
a(I3
I10
I0
tp858
a(I3
I3
I0
tp859
a(I3
I27
I0
tp860
a(I3
I7
I0
tp861
a(I3
I18
I0
tp862
a(I3
I2
I0
tp863
a(I3
I20
I0
tp864
a(I3
I17
I0
tp865
a(I9
I2
I1
tp866
a(I8
I27
I0
tp867
a(I4
I10
I0
tp868
a(I4
I3
I0
tp869
a(I4
I27
I0
tp870
a(I4
I7
I0
tp871
a(I4
I18
I0
tp872
a(I4
I2
I0
tp873
a(I4
I20
I0
tp874
a(I4
I17
I0
tp875
a(I22
I27
I1
tp876
a(I1
I10
I1
tp877
a(I22
I7
I0
tp878
a(I1
I27
I0
tp879
a(I22
I10
I1
tp880
a(I1
I10
I0
tp881
a(I1
I3
I0
tp882
a(I1
I27
I0
tp883
a(I1
I7
I0
tp884
a(I1
I18
I0
tp885
a(I1
I2
I0
tp886
a(I1
I20
I0
tp887
a(I1
I17
I0
tp888
a(I16
I3
I1
tp889
a(I21
I3
I1
tp890
a(I9
I10
I0
tp891
a(I10
I2
I1
tp892
a(I13
I10
I0
tp893
a(I13
I3
I0
tp894
a(I13
I27
I0
tp895
a(I13
I7
I0
tp896
a(I13
I18
I0
tp897
a(I13
I2
I0
tp898
a(I13
I20
I0
tp899
a(I13
I17
I0
tp900
a(I10
I18
I0
tp901
a(I9
I10
I0
tp902
a(I9
I3
I0
tp903
a(I9
I27
I0
tp904
a(I9
I7
I0
tp905
a(I9
I18
I0
tp906
a(I9
I2
I0
tp907
a(I9
I20
I0
tp908
a(I9
I17
I0
tp909
a(I4
I10
I1
tp910
a(I4
I3
I0
tp911
a(I4
I10
I0
tp912
a(I4
I3
I0
tp913
a(I4
I27
I0
tp914
a(I4
I7
I0
tp915
a(I4
I18
I0
tp916
a(I4
I2
I0
tp917
a(I4
I20
I0
tp918
a(I4
I17
I0
tp919
a(I7
I3
I1
tp920
a(I15
I10
I0
tp921
a(I15
I3
I0
tp922
a(I15
I27
I0
tp923
a(I15
I7
I0
tp924
a(I15
I18
I0
tp925
a(I15
I2
I0
tp926
a(I15
I20
I0
tp927
a(I15
I17
I0
tp928
a(I0
I10
I0
tp929
a(I0
I3
I0
tp930
a(I0
I27
I0
tp931
a(I0
I7
I0
tp932
a(I0
I18
I0
tp933
a(I0
I2
I0
tp934
a(I0
I20
I0
tp935
a(I0
I17
I0
tp936
a(I19
I10
I0
tp937
a(I19
I3
I0
tp938
a(I19
I27
I0
tp939
a(I19
I7
I0
tp940
a(I19
I18
I0
tp941
a(I19
I2
I0
tp942
a(I19
I20
I0
tp943
a(I19
I17
I0
tp944
a(I14
I10
I0
tp945
a(I14
I3
I0
tp946
a(I14
I27
I0
tp947
a(I14
I7
I0
tp948
a(I14
I18
I0
tp949
a(I14
I2
I0
tp950
a(I14
I20
I0
tp951
a(I14
I17
I0
tp952
a(I12
I20
I1
tp953
a(I18
I10
I0
tp954
a(I18
I3
I0
tp955
a(I18
I27
I0
tp956
a(I18
I7
I0
tp957
a(I18
I18
I0
tp958
a(I18
I2
I0
tp959
a(I18
I20
I0
tp960
a(I18
I17
I0
tp961
a(I6
I10
I0
tp962
a(I6
I3
I0
tp963
a(I6
I27
I0
tp964
a(I6
I7
I0
tp965
a(I6
I18
I0
tp966
a(I6
I2
I0
tp967
a(I6
I20
I0
tp968
a(I6
I17
I0
tp969
a(I2
I7
I1
tp970
a(I11
I7
I1
tp971
a(I6
I7
I1
tp972
a(I17
I17
I1
tp973
a(I8
I10
I1
tp974
a(I6
I10
I0
tp975
a(I11
I10
I0
tp976
a(I15
I17
I1
tp977
a(I14
I10
I1
tp978
a(I11
I17
I1
tp979
a(I17
I17
I0
tp980
a(I14
I17
I0
tp981
a(I14
I20
I1
tp982
a(I4
I2
I1
tp983
a(I13
I20
I1
tp984
a(I19
I10
I0
tp985
a(I19
I3
I0
tp986
a(I19
I27
I0
tp987
a(I19
I7
I0
tp988
a(I19
I18
I0
tp989
a(I19
I2
I0
tp990
a(I19
I20
I0
tp991
a(I19
I17
I0
tp992
a(I3
I10
I0
tp993
a(I3
I3
I0
tp994
a(I3
I27
I0
tp995
a(I3
I7
I0
tp996
a(I3
I18
I0
tp997
a(I3
I2
I0
tp998
a(I3
I20
I0
tp999
a(I3
I17
I0
tp1000
a(I12
I20
I1
tp1001
a(I9
I10
I0
tp1002
a(I9
I3
I0
tp1003
a(I9
I27
I0
tp1004
a(I9
I7
I0
tp1005
a(I9
I18
I0
tp1006
a(I9
I2
I0
tp1007
a(I9
I20
I0
tp1008
a(I9
I17
I0
tp1009
a(I11
I10
I0
tp1010
a(I11
I3
I0
tp1011
a(I11
I27
I0
tp1012
a(I11
I7
I0
tp1013
a(I11
I18
I0
tp1014
a(I11
I2
I0
tp1015
a(I11
I20
I0
tp1016
a(I11
I17
I0
tp1017
a(I4
I10
I0
tp1018
a(I4
I3
I0
tp1019
a(I4
I27
I0
tp1020
a(I4
I7
I0
tp1021
a(I4
I18
I0
tp1022
a(I4
I2
I0
tp1023
a(I4
I20
I0
tp1024
a(I4
I17
I0
tp1025
a(I7
I3
I1
tp1026
a(I6
I10
I0
tp1027
a(I6
I3
I0
tp1028
a(I6
I27
I0
tp1029
a(I6
I7
I0
tp1030
a(I6
I18
I0
tp1031
a(I6
I2
I0
tp1032
a(I6
I20
I0
tp1033
a(I6
I17
I0
tp1034
a(I8
I2
I1
tp1035
a(I17
I10
I0
tp1036
a(I17
I3
I0
tp1037
a(I17
I27
I0
tp1038
a(I17
I7
I0
tp1039
a(I17
I18
I0
tp1040
a(I17
I2
I0
tp1041
a(I17
I20
I0
tp1042
a(I17
I17
I0
tp1043
a(I1
I2
I1
tp1044
a(I2
I10
I0
tp1045
a(I2
I3
I0
tp1046
a(I2
I27
I0
tp1047
a(I2
I7
I0
tp1048
a(I2
I18
I0
tp1049
a(I2
I2
I0
tp1050
a(I2
I20
I0
tp1051
a(I2
I17
I0
tp1052
a(I12
I20
I0
tp1053
a(I0
I10
I0
tp1054
a(I0
I3
I0
tp1055
a(I0
I27
I0
tp1056
a(I0
I7
I0
tp1057
a(I0
I18
I0
tp1058
a(I0
I2
I0
tp1059
a(I0
I20
I0
tp1060
a(I0
I17
I0
tp1061
a(I8
I3
I0
tp1062
a(I17
I10
I0
tp1063
a(I17
I3
I0
tp1064
a(I17
I27
I0
tp1065
a(I17
I7
I0
tp1066
a(I17
I18
I0
tp1067
a(I17
I2
I0
tp1068
a(I17
I20
I0
tp1069
a(I17
I17
I0
tp1070
a(I16
I10
I0
tp1071
a(I16
I3
I0
tp1072
a(I16
I27
I0
tp1073
a(I16
I7
I0
tp1074
a(I16
I18
I0
tp1075
a(I16
I2
I0
tp1076
a(I16
I20
I0
tp1077
a(I16
I17
I0
tp1078
a(I14
I10
I0
tp1079
a(I14
I3
I0
tp1080
a(I14
I27
I0
tp1081
a(I14
I7
I0
tp1082
a(I14
I18
I0
tp1083
a(I14
I2
I0
tp1084
a(I14
I20
I0
tp1085
a(I14
I17
I0
tp1086
a(I5
I18
I1
tp1087
a(I9
I2
I1
tp1088
a(I4
I2
I1
tp1089
a(I4
I17
I0
tp1090
a(I3
I10
I0
tp1091
a(I3
I3
I0
tp1092
a(I3
I27
I0
tp1093
a(I3
I7
I0
tp1094
a(I3
I18
I0
tp1095
a(I3
I2
I0
tp1096
a(I3
I20
I0
tp1097
a(I3
I17
I0
tp1098
a(I4
I2
I1
tp1099
a(I4
I17
I0
tp1100
a(I19
I10
I1
tp1101
a(I7
I3
I1
tp1102
a(I7
I27
I0
tp1103
a(I4
I2
I1
tp1104
a(I1
I2
I1
tp1105
a(I0
I10
I0
tp1106
a(I0
I3
I0
tp1107
a(I0
I27
I0
tp1108
a(I0
I7
I0
tp1109
a(I0
I18
I0
tp1110
a(I0
I2
I0
tp1111
a(I0
I20
I0
tp1112
a(I0
I17
I0
tp1113
a(I16
I7
I1
tp1114
a(I3
I10
I0
tp1115
a(I3
I3
I0
tp1116
a(I3
I27
I0
tp1117
a(I3
I7
I0
tp1118
a(I3
I18
I0
tp1119
a(I3
I2
I0
tp1120
a(I3
I20
I0
tp1121
a(I3
I17
I0
tp1122
a(I13
I3
I1
tp1123
a(I12
I20
I1
tp1124
a(I1
I2
I1
tp1125
a(I1
I3
I0
tp1126
a(I1
I10
I1
tp1127
a(I1
I20
I0
tp1128
a(I1
I18
I1
tp1129
a(I1
I27
I0
tp1130
a(I1
I2
I1
tp1131
a(I1
I3
I0
tp1132
a(I1
I10
I1
tp1133
a(I1
I20
I0
tp1134
a(I7
I10
I1
tp1135
a(I12
I20
I1
tp1136
a(I8
I3
I1
tp1137
a(I8
I20
I0
tp1138
a(I2
I27
I1
tp1139
a(I10
I27
I1
tp1140
a(I16
I18
I1
tp1141
a(I13
I17
I1
tp1142
a(I8
I3
I1
tp1143
a(I8
I3
I0
tp1144
a(I13
I3
I0
tp1145
a(I13
I3
I1
tp1146
a(I10
I27
I0
tp1147
a(I6
I10
I1
tp1148
a(I3
I10
I1
tp1149
a(I13
I10
I0
tp1150
a(I13
I3
I0
tp1151
a(I13
I27
I0
tp1152
a(I13
I7
I0
tp1153
a(I13
I18
I0
tp1154
a(I13
I2
I0
tp1155
a(I13
I20
I0
tp1156
a(I13
I17
I0
tp1157
a(I11
I10
I0
tp1158
a(I11
I3
I0
tp1159
a(I11
I27
I0
tp1160
a(I11
I7
I0
tp1161
a(I11
I18
I0
tp1162
a(I11
I2
I0
tp1163
a(I11
I20
I0
tp1164
a(I11
I17
I0
tp1165
a(I9
I10
I0
tp1166
a(I9
I3
I0
tp1167
a(I9
I27
I0
tp1168
a(I9
I7
I0
tp1169
a(I9
I18
I0
tp1170
a(I9
I2
I0
tp1171
a(I9
I20
I0
tp1172
a(I9
I17
I0
tp1173
a(I8
I20
I1
tp1174
a(I3
I2
I1
tp1175
a(I1
I2
I1
tp1176
a(I20
I7
I1
tp1177
a(I1
I27
I0
tp1178
a(I20
I17
I0
tp1179
a(I20
I7
I1
tp1180
a(I18
I10
I0
tp1181
a(I18
I3
I0
tp1182
a(I18
I27
I0
tp1183
a(I18
I7
I0
tp1184
a(I18
I18
I0
tp1185
a(I18
I2
I0
tp1186
a(I18
I20
I0
tp1187
a(I18
I17
I0
tp1188
a(I14
I10
I0
tp1189
a(I14
I3
I0
tp1190
a(I14
I27
I0
tp1191
a(I14
I7
I0
tp1192
a(I14
I18
I0
tp1193
a(I14
I2
I0
tp1194
a(I14
I20
I0
tp1195
a(I14
I17
I0
tp1196
a(I1
I2
I1
tp1197
a(I4
I2
I1
tp1198
a(I12
I10
I0
tp1199
a(I12
I3
I0
tp1200
a(I12
I27
I0
tp1201
a(I12
I7
I0
tp1202
a(I12
I18
I0
tp1203
a(I12
I2
I0
tp1204
a(I12
I20
I0
tp1205
a(I12
I17
I0
tp1206
a(I14
I10
I0
tp1207
a(I14
I3
I0
tp1208
a(I14
I27
I0
tp1209
a(I14
I7
I0
tp1210
a(I14
I18
I0
tp1211
a(I14
I2
I0
tp1212
a(I14
I20
I0
tp1213
a(I14
I17
I0
tp1214
a(I18
I10
I0
tp1215
a(I18
I3
I0
tp1216
a(I18
I27
I0
tp1217
a(I18
I7
I0
tp1218
a(I18
I18
I0
tp1219
a(I18
I2
I0
tp1220
a(I18
I20
I0
tp1221
a(I18
I17
I0
tp1222
a(I10
I10
I0
tp1223
a(I10
I3
I0
tp1224
a(I10
I27
I0
tp1225
a(I10
I7
I0
tp1226
a(I10
I18
I0
tp1227
a(I10
I2
I0
tp1228
a(I10
I20
I0
tp1229
a(I10
I17
I0
tp1230
a(I19
I10
I0
tp1231
a(I19
I3
I0
tp1232
a(I19
I27
I0
tp1233
a(I19
I7
I0
tp1234
a(I19
I18
I0
tp1235
a(I19
I2
I0
tp1236
a(I19
I20
I0
tp1237
a(I19
I17
I0
tp1238
a(I4
I2
I1
tp1239
a(I16
I3
I1
tp1240
a(I4
I27
I0
tp1241
a(I5
I18
I1
tp1242
a(I13
I7
I1
tp1243
a(I2
I10
I0
tp1244
a(I2
I3
I0
tp1245
a(I2
I27
I0
tp1246
a(I2
I7
I0
tp1247
a(I2
I18
I0
tp1248
a(I2
I2
I0
tp1249
a(I2
I20
I0
tp1250
a(I2
I17
I0
tp1251
a(I11
I10
I0
tp1252
a(I11
I3
I0
tp1253
a(I11
I27
I0
tp1254
a(I11
I7
I0
tp1255
a(I11
I18
I0
tp1256
a(I11
I2
I0
tp1257
a(I11
I20
I0
tp1258
a(I11
I17
I0
tp1259
a(I13
I27
I0
tp1260
a(I12
I20
I1
tp1261
a(I4
I2
I1
tp1262
a(I7
I3
I1
tp1263
a(I10
I10
I0
tp1264
a(I10
I3
I0
tp1265
a(I10
I27
I0
tp1266
a(I10
I7
I0
tp1267
a(I10
I18
I0
tp1268
a(I10
I2
I0
tp1269
a(I10
I20
I0
tp1270
a(I10
I17
I0
tp1271
a(I5
I18
I1
tp1272
a(I8
I2
I1
tp1273
a(I13
I10
I0
tp1274
a(I13
I3
I0
tp1275
a(I13
I27
I0
tp1276
a(I13
I7
I0
tp1277
a(I13
I18
I0
tp1278
a(I13
I2
I0
tp1279
a(I13
I20
I0
tp1280
a(I13
I17
I0
tp1281
a(I12
I10
I0
tp1282
a(I12
I3
I0
tp1283
a(I12
I27
I0
tp1284
a(I12
I7
I0
tp1285
a(I12
I18
I0
tp1286
a(I12
I2
I0
tp1287
a(I12
I20
I0
tp1288
a(I12
I17
I0
tp1289
a(I17
I10
I0
tp1290
a(I17
I3
I0
tp1291
a(I17
I27
I0
tp1292
a(I17
I7
I0
tp1293
a(I17
I18
I0
tp1294
a(I17
I2
I0
tp1295
a(I17
I20
I0
tp1296
a(I17
I17
I0
tp1297
a(I15
I10
I0
tp1298
a(I15
I3
I0
tp1299
a(I15
I27
I0
tp1300
a(I15
I7
I0
tp1301
a(I15
I18
I0
tp1302
a(I15
I2
I0
tp1303
a(I15
I20
I0
tp1304
a(I15
I17
I0
tp1305
a(I0
I10
I0
tp1306
a(I0
I3
I0
tp1307
a(I0
I27
I0
tp1308
a(I0
I7
I0
tp1309
a(I0
I18
I0
tp1310
a(I0
I2
I0
tp1311
a(I0
I20
I0
tp1312
a(I0
I17
I0
tp1313
a(I6
I10
I0
tp1314
a(I6
I3
I0
tp1315
a(I6
I27
I0
tp1316
a(I6
I7
I0
tp1317
a(I6
I18
I0
tp1318
a(I6
I2
I0
tp1319
a(I6
I20
I0
tp1320
a(I6
I17
I0
tp1321
a(I19
I10
I0
tp1322
a(I19
I3
I0
tp1323
a(I19
I27
I0
tp1324
a(I19
I7
I0
tp1325
a(I19
I18
I0
tp1326
a(I19
I2
I0
tp1327
a(I19
I20
I0
tp1328
a(I19
I17
I0
tp1329
a(I14
I10
I0
tp1330
a(I14
I3
I0
tp1331
a(I14
I27
I0
tp1332
a(I14
I7
I0
tp1333
a(I14
I18
I0
tp1334
a(I14
I2
I0
tp1335
a(I14
I20
I0
tp1336
a(I14
I17
I0
tp1337
a(I16
I20
I1
tp1338
a(I9
I2
I1
tp1339
a(I9
I2
I0
tp1340
a(I6
I20
I1
tp1341
a(I17
I2
I1
tp1342
a(I12
I10
I1
tp1343
a(I5
I3
I1
tp1344
a(I3
I7
I1
tp1345
a(I1
I2
I1
tp1346
a(I1
I2
I0
tp1347
a(I1
I18
I1
tp1348
a(I1
I17
I0
tp1349
a(I1
I7
I1
tp1350
a(I11
I3
I1
tp1351
a(I17
I2
I0
tp1352
a(I9
I18
I1
tp1353
a(I5
I18
I0
tp1354
a(I19
I3
I1
tp1355
a(I11
I7
I1
tp1356
a(I10
I27
I1
tp1357
a(I5
I17
I1
tp1358
a(I5
I10
I0
tp1359
a(I1
I20
I1
tp1360
a(I3
I10
I1
tp1361
a(I15
I18
I1
tp1362
a(I5
I7
I1
tp1363
a(I11
I3
I0
tp1364
a(I1
I2
I0
tp1365
a(I7
I10
I1
tp1366
a(I15
I27
I0
tp1367
a(I11
I3
I1
tp1368
a(I17
I7
I1
tp1369
a(I12
I20
I1
tp1370
a(I1
I17
I1
tp1371
a(I12
I17
I1
tp1372
a(I8
I17
I1
tp1373
a(I13
I18
I1
tp1374
a(I19
I18
I1
tp1375
a(I2
I20
I1
tp1376
a(I8
I20
I0
tp1377
a(I12
I18
I0
tp1378
a(I10
I18
I1
tp1379
a(I1
I18
I0
tp1380
a(I8
I17
I1
tp1381
a(I1
I17
I1
tp1382
a(I5
I17
I1
tp1383
a(I1
I10
I0
tp1384
a(I1
I20
I1
tp1385
a(I7
I10
I0
tp1386
a(I7
I3
I0
tp1387
a(I7
I27
I0
tp1388
a(I7
I7
I0
tp1389
a(I7
I18
I0
tp1390
a(I7
I2
I0
tp1391
a(I7
I20
I0
tp1392
a(I7
I17
I0
tp1393
a(I1
I10
I0
tp1394
a(I1
I3
I0
tp1395
a(I1
I27
I0
tp1396
a(I1
I7
I0
tp1397
a(I1
I18
I0
tp1398
a(I1
I2
I0
tp1399
a(I1
I20
I0
tp1400
a(I1
I17
I0
tp1401
a(I16
I10
I0
tp1402
a(I16
I3
I0
tp1403
a(I16
I27
I0
tp1404
a(I16
I7
I0
tp1405
a(I16
I18
I0
tp1406
a(I16
I2
I0
tp1407
a(I16
I20
I0
tp1408
a(I16
I17
I0
tp1409
a(I14
I10
I0
tp1410
a(I14
I3
I0
tp1411
a(I14
I27
I0
tp1412
a(I14
I7
I0
tp1413
a(I14
I18
I0
tp1414
a(I14
I2
I0
tp1415
a(I14
I20
I0
tp1416
a(I14
I17
I0
tp1417
a(I17
I10
I0
tp1418
a(I17
I3
I0
tp1419
a(I17
I27
I0
tp1420
a(I17
I7
I0
tp1421
a(I17
I18
I0
tp1422
a(I17
I2
I0
tp1423
a(I17
I20
I0
tp1424
a(I17
I17
I0
tp1425
a(I13
I20
I1
tp1426
a(I9
I10
I0
tp1427
a(I9
I3
I0
tp1428
a(I9
I27
I0
tp1429
a(I9
I7
I0
tp1430
a(I9
I18
I0
tp1431
a(I9
I2
I0
tp1432
a(I9
I20
I0
tp1433
a(I9
I17
I0
tp1434
a(I11
I10
I0
tp1435
a(I11
I3
I0
tp1436
a(I11
I27
I0
tp1437
a(I11
I7
I0
tp1438
a(I11
I18
I0
tp1439
a(I11
I2
I0
tp1440
a(I11
I20
I0
tp1441
a(I11
I17
I0
tp1442
a(I0
I10
I0
tp1443
a(I0
I3
I0
tp1444
a(I0
I27
I0
tp1445
a(I0
I7
I0
tp1446
a(I0
I18
I0
tp1447
a(I0
I2
I0
tp1448
a(I0
I20
I0
tp1449
a(I0
I17
I0
tp1450
a(I10
I10
I0
tp1451
a(I10
I3
I0
tp1452
a(I10
I27
I0
tp1453
a(I10
I7
I0
tp1454
a(I10
I18
I0
tp1455
a(I10
I2
I0
tp1456
a(I10
I20
I0
tp1457
a(I10
I17
I0
tp1458
a(I4
I10
I0
tp1459
a(I4
I3
I0
tp1460
a(I4
I27
I0
tp1461
a(I4
I7
I0
tp1462
a(I4
I18
I0
tp1463
a(I4
I2
I0
tp1464
a(I4
I20
I0
tp1465
a(I4
I17
I0
tp1466
a(I5
I18
I1
tp1467
a(I6
I10
I0
tp1468
a(I6
I3
I0
tp1469
a(I6
I27
I0
tp1470
a(I6
I7
I0
tp1471
a(I6
I18
I0
tp1472
a(I6
I2
I0
tp1473
a(I6
I20
I0
tp1474
a(I6
I17
I0
tp1475
a(I12
I20
I1
tp1476
a(I18
I7
I1
tp1477
a(I3
I20
I1
tp1478
a(I15
I18
I1
tp1479
a(I6
I17
I1
tp1480
a(I14
I27
I1
tp1481
a(I8
I17
I1
tp1482
a(I7
I3
I1
tp1483
a(I17
I17
I1
tp1484
a(I3
I10
I0
tp1485
a(I17
I10
I0
tp1486
a(I18
I3
I0
tp1487
a(I17
I20
I1
tp1488
a(I10
I2
I1
tp1489
a(I15
I10
I0
tp1490
a(I14
I17
I0
tp1491
a(I15
I10
I0
tp1492
a(I15
I3
I0
tp1493
a(I15
I27
I0
tp1494
a(I15
I7
I0
tp1495
a(I15
I18
I0
tp1496
a(I15
I2
I0
tp1497
a(I15
I20
I0
tp1498
a(I15
I17
I0
tp1499
a(I11
I10
I0
tp1500
a(I11
I3
I0
tp1501
a(I11
I27
I0
tp1502
a(I11
I7
I0
tp1503
a(I11
I18
I0
tp1504
a(I11
I2
I0
tp1505
a(I11
I20
I0
tp1506
a(I11
I17
I0
tp1507
a(I16
I3
I1
tp1508
a(I10
I10
I0
tp1509
a(I10
I3
I0
tp1510
a(I10
I27
I0
tp1511
a(I10
I7
I0
tp1512
a(I10
I18
I0
tp1513
a(I10
I2
I0
tp1514
a(I10
I20
I0
tp1515
a(I10
I17
I0
tp1516
a(I12
I10
I0
tp1517
a(I12
I3
I0
tp1518
a(I12
I27
I0
tp1519
a(I12
I7
I0
tp1520
a(I12
I18
I0
tp1521
a(I12
I2
I0
tp1522
a(I12
I20
I0
tp1523
a(I12
I17
I0
tp1524
a(I14
I10
I1
tp1525
a(I19
I3
I1
tp1526
a(I5
I18
I1
tp1527
a(I18
I10
I0
tp1528
a(I18
I3
I0
tp1529
a(I18
I27
I0
tp1530
a(I18
I7
I0
tp1531
a(I18
I18
I0
tp1532
a(I18
I2
I0
tp1533
a(I18
I20
I0
tp1534
a(I18
I17
I0
tp1535
a(I13
I10
I0
tp1536
a(I13
I3
I0
tp1537
a(I13
I27
I0
tp1538
a(I13
I7
I0
tp1539
a(I13
I18
I0
tp1540
a(I13
I2
I0
tp1541
a(I13
I20
I0
tp1542
a(I13
I17
I0
tp1543
a(I16
I27
I0
tp1544
a(I5
I10
I0
tp1545
a(I6
I10
I0
tp1546
a(I6
I3
I0
tp1547
a(I6
I27
I0
tp1548
a(I6
I7
I0
tp1549
a(I6
I18
I0
tp1550
a(I6
I2
I0
tp1551
a(I6
I20
I0
tp1552
a(I6
I17
I0
tp1553
a(I9
I10
I0
tp1554
a(I9
I3
I0
tp1555
a(I9
I27
I0
tp1556
a(I9
I7
I0
tp1557
a(I9
I18
I0
tp1558
a(I9
I2
I0
tp1559
a(I9
I20
I0
tp1560
a(I9
I17
I0
tp1561
a(I16
I10
I0
tp1562
a(I16
I3
I0
tp1563
a(I16
I27
I0
tp1564
a(I16
I7
I0
tp1565
a(I16
I18
I0
tp1566
a(I16
I2
I0
tp1567
a(I16
I20
I0
tp1568
a(I16
I17
I0
tp1569
a(I19
I10
I0
tp1570
a(I19
I3
I0
tp1571
a(I19
I27
I0
tp1572
a(I19
I7
I0
tp1573
a(I19
I18
I0
tp1574
a(I19
I2
I0
tp1575
a(I19
I20
I0
tp1576
a(I19
I17
I0
tp1577
a(I0
I10
I0
tp1578
a(I0
I3
I0
tp1579
a(I0
I27
I0
tp1580
a(I0
I7
I0
tp1581
a(I0
I18
I0
tp1582
a(I0
I2
I0
tp1583
a(I0
I20
I0
tp1584
a(I0
I17
I0
tp1585
a(I4
I10
I1
tp1586
a(I2
I3
I1
tp1587
a(I13
I7
I1
tp1588
a(I1
I2
I1
tp1589
a(I1
I20
I0
tp1590
a(I1
I2
I1
tp1591
a(I1
I27
I0
tp1592
a(I1
I10
I1
tp1593
a(I17
I10
I0
tp1594
a(I17
I3
I0
tp1595
a(I17
I27
I0
tp1596
a(I17
I7
I0
tp1597
a(I17
I18
I0
tp1598
a(I17
I2
I0
tp1599
a(I17
I20
I0
tp1600
a(I17
I17
I0
tp1601
a(I18
I10
I0
tp1602
a(I18
I3
I0
tp1603
a(I18
I27
I0
tp1604
a(I18
I7
I0
tp1605
a(I18
I18
I0
tp1606
a(I18
I2
I0
tp1607
a(I18
I20
I0
tp1608
a(I18
I17
I0
tp1609
a(I14
I10
I0
tp1610
a(I14
I3
I0
tp1611
a(I14
I27
I0
tp1612
a(I14
I7
I0
tp1613
a(I14
I18
I0
tp1614
a(I14
I2
I0
tp1615
a(I14
I20
I0
tp1616
a(I14
I17
I0
tp1617
a(I9
I2
I1
tp1618
a(I5
I18
I1
tp1619
a(I13
I17
I1
tp1620
a(I2
I2
I1
tp1621
a(I16
I3
I1
tp1622
a(I12
I27
I1
tp1623
a(I6
I18
I1
tp1624
a(I1
I7
I1
tp1625
a(I14
I7
I1
tp1626
a(I1
I3
I0
tp1627
a(I9
I18
I1
tp1628
a(I14
I10
I0
tp1629
a(I4
I27
I1
tp1630
a(I1
I2
I1
tp1631
a(I0
I10
I1
tp1632
a(I10
I7
I1
tp1633
a(I19
I10
I0
tp1634
a(I19
I3
I0
tp1635
a(I19
I27
I0
tp1636
a(I19
I7
I0
tp1637
a(I19
I18
I0
tp1638
a(I19
I2
I0
tp1639
a(I19
I20
I0
tp1640
a(I19
I17
I0
tp1641
a(I1
I17
I1
tp1642
a(I12
I20
I1
tp1643
a(I4
I2
I1
tp1644
a(I9
I10
I0
tp1645
a(I9
I3
I0
tp1646
a(I9
I27
I0
tp1647
a(I9
I7
I0
tp1648
a(I9
I18
I0
tp1649
a(I9
I2
I0
tp1650
a(I9
I20
I0
tp1651
a(I9
I17
I0
tp1652
a(I5
I18
I1
tp1653
a(I18
I10
I0
tp1654
a(I18
I3
I0
tp1655
a(I18
I27
I0
tp1656
a(I18
I7
I0
tp1657
a(I18
I18
I0
tp1658
a(I18
I2
I0
tp1659
a(I18
I20
I0
tp1660
a(I18
I17
I0
tp1661
a(I12
I2
I0
tp1662
a(I14
I10
I0
tp1663
a(I14
I3
I0
tp1664
a(I14
I27
I0
tp1665
a(I14
I7
I0
tp1666
a(I14
I18
I0
tp1667
a(I14
I2
I0
tp1668
a(I14
I20
I0
tp1669
a(I14
I17
I0
tp1670
a(I2
I3
I1
tp1671
a(I1
I3
I0
tp1672
a(I1
I2
I1
tp1673
a(I5
I7
I0
tp1674
a(I5
I18
I1
tp1675
a(I5
I7
I0
tp1676
a(I2
I10
I0
tp1677
a(I2
I3
I0
tp1678
a(I2
I27
I0
tp1679
a(I2
I7
I0
tp1680
a(I2
I18
I0
tp1681
a(I2
I2
I0
tp1682
a(I2
I20
I0
tp1683
a(I2
I17
I0
tp1684
a(I7
I3
I1
tp1685
a(I3
I27
I1
tp1686
a(I7
I27
I0
tp1687
a(I12
I20
I1
tp1688
a(I4
I10
I0
tp1689
a(I4
I3
I0
tp1690
a(I4
I27
I0
tp1691
a(I4
I7
I0
tp1692
a(I4
I18
I0
tp1693
a(I4
I2
I0
tp1694
a(I4
I20
I0
tp1695
a(I4
I17
I0
tp1696
a(I7
I3
I1
tp1697
a(I8
I20
I1
tp1698
a(I8
I27
I0
tp1699
a(I7
I27
I0
tp1700
a(I18
I10
I0
tp1701
a(I18
I3
I0
tp1702
a(I18
I27
I0
tp1703
a(I18
I7
I0
tp1704
a(I18
I18
I0
tp1705
a(I18
I2
I0
tp1706
a(I18
I20
I0
tp1707
a(I18
I17
I0
tp1708
a(I10
I10
I0
tp1709
a(I10
I3
I0
tp1710
a(I10
I27
I0
tp1711
a(I10
I7
I0
tp1712
a(I10
I18
I0
tp1713
a(I10
I2
I0
tp1714
a(I10
I20
I0
tp1715
a(I10
I17
I0
tp1716
a(I14
I10
I0
tp1717
a(I14
I3
I0
tp1718
a(I14
I27
I0
tp1719
a(I14
I7
I0
tp1720
a(I14
I18
I0
tp1721
a(I14
I2
I0
tp1722
a(I14
I20
I0
tp1723
a(I14
I17
I0
tp1724
a(I9
I2
I1
tp1725
a(I7
I3
I1
tp1726
a(I19
I7
I1
tp1727
a(I3
I10
I0
tp1728
a(I3
I3
I0
tp1729
a(I3
I27
I0
tp1730
a(I3
I7
I0
tp1731
a(I3
I18
I0
tp1732
a(I3
I2
I0
tp1733
a(I3
I20
I0
tp1734
a(I3
I17
I0
tp1735
a(I5
I18
I1
tp1736
a(I17
I10
I0
tp1737
a(I17
I3
I0
tp1738
a(I17
I27
I0
tp1739
a(I17
I7
I0
tp1740
a(I17
I18
I0
tp1741
a(I17
I2
I0
tp1742
a(I17
I20
I0
tp1743
a(I17
I17
I0
tp1744
a(I10
I10
I0
tp1745
a(I10
I3
I0
tp1746
a(I10
I27
I0
tp1747
a(I10
I7
I0
tp1748
a(I10
I18
I0
tp1749
a(I10
I2
I0
tp1750
a(I10
I20
I0
tp1751
a(I10
I17
I0
tp1752
a(I19
I20
I0
tp1753
a(I9
I2
I1
tp1754
a(I12
I20
I1
tp1755
a(I16
I20
I1
tp1756
a(I8
I7
I1
tp1757
a(I8
I27
I0
tp1758
a(I4
I10
I0
tp1759
a(I4
I3
I0
tp1760
a(I4
I27
I0
tp1761
a(I4
I7
I0
tp1762
a(I4
I18
I0
tp1763
a(I4
I2
I0
tp1764
a(I4
I20
I0
tp1765
a(I4
I17
I0
tp1766
a(I8
I20
I1
tp1767
a(I11
I10
I0
tp1768
a(I11
I3
I0
tp1769
a(I11
I27
I0
tp1770
a(I11
I7
I0
tp1771
a(I11
I18
I0
tp1772
a(I11
I2
I0
tp1773
a(I11
I20
I0
tp1774
a(I11
I17
I0
tp1775
a(I8
I27
I0
tp1776
a(I17
I10
I0
tp1777
a(I17
I3
I0
tp1778
a(I17
I27
I0
tp1779
a(I17
I7
I0
tp1780
a(I17
I18
I0
tp1781
a(I17
I2
I0
tp1782
a(I17
I20
I0
tp1783
a(I17
I17
I0
tp1784
a(I13
I10
I0
tp1785
a(I13
I3
I0
tp1786
a(I13
I27
I0
tp1787
a(I13
I7
I0
tp1788
a(I13
I18
I0
tp1789
a(I13
I2
I0
tp1790
a(I13
I20
I0
tp1791
a(I13
I17
I0
tp1792
a(I9
I2
I1
tp1793
a(I11
I10
I0
tp1794
a(I11
I3
I0
tp1795
a(I11
I27
I0
tp1796
a(I11
I7
I0
tp1797
a(I11
I18
I0
tp1798
a(I11
I2
I0
tp1799
a(I11
I20
I0
tp1800
a(I11
I17
I0
tp1801
a(I2
I3
I1
tp1802
a(I1
I2
I1
tp1803
a(I1
I20
I0
tp1804
a(I1
I10
I1
tp1805
a(I5
I18
I1
tp1806
a(I1
I27
I0
tp1807
a(I5
I27
I0
tp1808
a(I18
I10
I0
tp1809
a(I18
I3
I0
tp1810
a(I18
I27
I0
tp1811
a(I18
I7
I0
tp1812
a(I18
I18
I0
tp1813
a(I18
I2
I0
tp1814
a(I18
I20
I0
tp1815
a(I18
I17
I0
tp1816
a(I6
I10
I0
tp1817
a(I6
I3
I0
tp1818
a(I6
I27
I0
tp1819
a(I6
I7
I0
tp1820
a(I6
I18
I0
tp1821
a(I6
I2
I0
tp1822
a(I6
I20
I0
tp1823
a(I6
I17
I0
tp1824
a(I1
I17
I1
tp1825
a(I9
I27
I0
tp1826
a(I19
I7
I1
tp1827
a(I7
I3
I1
tp1828
a(I2
I10
I0
tp1829
a(I2
I3
I0
tp1830
a(I2
I27
I0
tp1831
a(I2
I7
I0
tp1832
a(I2
I18
I0
tp1833
a(I2
I2
I0
tp1834
a(I2
I20
I0
tp1835
a(I2
I17
I0
tp1836
a(I11
I10
I0
tp1837
a(I11
I3
I0
tp1838
a(I11
I27
I0
tp1839
a(I11
I7
I0
tp1840
a(I11
I18
I0
tp1841
a(I11
I2
I0
tp1842
a(I11
I20
I0
tp1843
a(I11
I17
I0
tp1844
a(I10
I10
I0
tp1845
a(I10
I3
I0
tp1846
a(I10
I27
I0
tp1847
a(I10
I7
I0
tp1848
a(I10
I18
I0
tp1849
a(I10
I2
I0
tp1850
a(I10
I20
I0
tp1851
a(I10
I17
I0
tp1852
a(I4
I2
I1
tp1853
a(I5
I18
I1
tp1854
a(I4
I27
I0
tp1855
a(I5
I7
I0
tp1856
a(I5
I18
I1
tp1857
a(I13
I10
I0
tp1858
a(I13
I3
I0
tp1859
a(I13
I27
I0
tp1860
a(I13
I7
I0
tp1861
a(I13
I18
I0
tp1862
a(I13
I2
I0
tp1863
a(I13
I20
I0
tp1864
a(I13
I17
I0
tp1865
a(I15
I10
I0
tp1866
a(I15
I3
I0
tp1867
a(I15
I27
I0
tp1868
a(I15
I7
I0
tp1869
a(I15
I18
I0
tp1870
a(I15
I2
I0
tp1871
a(I15
I20
I0
tp1872
a(I15
I17
I0
tp1873
a(I7
I27
I0
tp1874
a(I6
I10
I0
tp1875
a(I6
I3
I0
tp1876
a(I6
I27
I0
tp1877
a(I6
I7
I0
tp1878
a(I6
I18
I0
tp1879
a(I6
I2
I0
tp1880
a(I6
I20
I0
tp1881
a(I6
I17
I0
tp1882
a(I7
I20
I1
tp1883
a(I18
I2
I1
tp1884
a(I0
I10
I0
tp1885
a(I0
I3
I0
tp1886
a(I0
I27
I0
tp1887
a(I0
I7
I0
tp1888
a(I0
I18
I0
tp1889
a(I0
I2
I0
tp1890
a(I0
I20
I0
tp1891
a(I0
I17
I0
tp1892
a(I1
I7
I1
tp1893
a(I19
I10
I0
tp1894
a(I19
I3
I0
tp1895
a(I19
I27
I0
tp1896
a(I19
I7
I0
tp1897
a(I19
I18
I0
tp1898
a(I19
I2
I0
tp1899
a(I19
I20
I0
tp1900
a(I19
I17
I0
tp1901
a(I1
I20
I0
tp1902
a(I14
I10
I0
tp1903
a(I14
I3
I0
tp1904
a(I14
I27
I0
tp1905
a(I14
I7
I0
tp1906
a(I14
I18
I0
tp1907
a(I14
I2
I0
tp1908
a(I14
I20
I0
tp1909
a(I14
I17
I0
tp1910
a(I5
I18
I1
tp1911
a(I11
I10
I0
tp1912
a(I11
I3
I0
tp1913
a(I11
I27
I0
tp1914
a(I11
I7
I0
tp1915
a(I11
I18
I0
tp1916
a(I11
I2
I0
tp1917
a(I11
I20
I0
tp1918
a(I11
I17
I0
tp1919
a(I17
I10
I0
tp1920
a(I17
I3
I0
tp1921
a(I17
I27
I0
tp1922
a(I17
I7
I0
tp1923
a(I17
I18
I0
tp1924
a(I17
I2
I0
tp1925
a(I17
I20
I0
tp1926
a(I17
I17
I0
tp1927
a(I9
I2
I1
tp1928
a(I4
I2
I1
tp1929
a(I18
I10
I1
tp1930
a(I18
I3
I1
tp1931
a(I18
I27
I1
tp1932
a(I18
I7
I1
tp1933
a(I18
I18
I1
tp1934
a(I18
I2
I1
tp1935
a(I18
I20
I1
tp1936
a(I18
I17
I1
tp1937
a(I1
I7
I1
tp1938
a(I4
I10
I0
tp1939
a(I4
I3
I0
tp1940
a(I4
I27
I0
tp1941
a(I4
I7
I0
tp1942
a(I4
I18
I0
tp1943
a(I4
I2
I0
tp1944
a(I4
I20
I0
tp1945
a(I4
I17
I0
tp1946
a(I8
I17
I1
tp1947
a(I16
I20
I1
tp1948
a(I3
I10
I0
tp1949
a(I3
I3
I0
tp1950
a(I3
I27
I0
tp1951
a(I3
I7
I0
tp1952
a(I3
I18
I0
tp1953
a(I3
I2
I0
tp1954
a(I3
I20
I0
tp1955
a(I3
I17
I0
tp1956
a(I16
I27
I0
tp1957
a(I7
I3
I1
tp1958
a(I11
I10
I0
tp1959
a(I11
I3
I0
tp1960
a(I11
I27
I0
tp1961
a(I11
I7
I0
tp1962
a(I11
I18
I0
tp1963
a(I11
I2
I0
tp1964
a(I11
I20
I0
tp1965
a(I11
I17
I0
tp1966
a(I0
I10
I0
tp1967
a(I0
I3
I0
tp1968
a(I0
I27
I0
tp1969
a(I0
I7
I0
tp1970
a(I0
I18
I0
tp1971
a(I0
I2
I0
tp1972
a(I0
I20
I0
tp1973
a(I0
I17
I0
tp1974
a(I18
I10
I0
tp1975
a(I18
I3
I0
tp1976
a(I18
I27
I0
tp1977
a(I18
I7
I0
tp1978
a(I18
I18
I0
tp1979
a(I18
I2
I0
tp1980
a(I18
I20
I0
tp1981
a(I18
I17
I0
tp1982
a(I5
I18
I1
tp1983
a(I19
I3
I1
tp1984
a(I7
I27
I0
tp1985
a(I16
I3
I1
tp1986
a(I16
I27
I0
tp1987
a(I8
I27
I0
tp1988
a(I12
I7
I1
tp1989
a(I7
I20
I1
tp1990
a(I5
I10
I1
tp1991
a(I19
I27
I1
tp1992
a(I10
I7
I1
tp1993
a(I9
I18
I1
tp1994
a(I2
I3
I1
tp1995
a(I12
I18
I0
tp1996
a(I0
I7
I1
tp1997
a(I13
I17
I1
tp1998
a(I12
I7
I1
tp1999
a(I3
I2
I1
tp2000
a(I5
I27
I0
tp2001
a(I17
I18
I1
tp2002
a(I18
I27
I1
tp2003
a(I7
I7
I1
tp2004
a(I5
I2
I1
tp2005
a(I3
I2
I1
tp2006
a(I11
I18
I1
tp2007
a(I9
I10
I1
tp2008
a(I15
I10
I1
tp2009
a(I10
I20
I1
tp2010
a(I8
I7
I1
tp2011
a(I1
I3
I1
tp2012
a(I0
I17
I1
tp2013
a(I12
I3
I1
tp2014
a(I3
I27
I0
tp2015
a(I11
I18
I0
tp2016
a(I19
I7
I1
tp2017
a(I14
I17
I1
tp2018
a(I14
I10
I0
tp2019
a(I14
I3
I0
tp2020
a(I14
I27
I0
tp2021
a(I14
I7
I0
tp2022
a(I14
I18
I0
tp2023
a(I14
I2
I0
tp2024
a(I14
I20
I0
tp2025
a(I14
I17
I0
tp2026
a(I19
I10
I0
tp2027
a(I19
I3
I0
tp2028
a(I19
I27
I0
tp2029
a(I19
I7
I0
tp2030
a(I19
I18
I0
tp2031
a(I19
I2
I0
tp2032
a(I19
I20
I0
tp2033
a(I19
I17
I0
tp2034
a(I7
I3
I1
tp2035
a(I11
I10
I0
tp2036
a(I11
I3
I0
tp2037
a(I11
I27
I0
tp2038
a(I11
I7
I0
tp2039
a(I11
I18
I0
tp2040
a(I11
I2
I0
tp2041
a(I11
I20
I0
tp2042
a(I11
I17
I0
tp2043
a(I9
I10
I0
tp2044
a(I9
I3
I0
tp2045
a(I9
I27
I0
tp2046
a(I9
I7
I0
tp2047
a(I9
I18
I0
tp2048
a(I9
I2
I0
tp2049
a(I9
I20
I0
tp2050
a(I9
I17
I0
tp2051
a(I1
I2
I1
tp2052
a(I1
I3
I0
tp2053
a(I1
I10
I1
tp2054
a(I1
I20
I0
tp2055
a(I1
I2
I1
tp2056
a(I3
I10
I0
tp2057
a(I3
I3
I0
tp2058
a(I3
I27
I0
tp2059
a(I3
I7
I0
tp2060
a(I3
I18
I0
tp2061
a(I3
I2
I0
tp2062
a(I3
I20
I0
tp2063
a(I3
I17
I0
tp2064
a(I10
I10
I0
tp2065
a(I10
I3
I0
tp2066
a(I10
I27
I0
tp2067
a(I10
I7
I0
tp2068
a(I10
I18
I0
tp2069
a(I10
I2
I0
tp2070
a(I10
I20
I0
tp2071
a(I10
I17
I0
tp2072
a(I2
I10
I0
tp2073
a(I2
I3
I0
tp2074
a(I2
I27
I0
tp2075
a(I2
I7
I0
tp2076
a(I2
I18
I0
tp2077
a(I2
I2
I0
tp2078
a(I2
I20
I0
tp2079
a(I2
I17
I0
tp2080
a(I1
I20
I0
tp2081
a(I16
I20
I1
tp2082
a(I6
I2
I1
tp2083
a(I14
I10
I0
tp2084
a(I14
I3
I0
tp2085
a(I14
I27
I0
tp2086
a(I14
I7
I0
tp2087
a(I14
I18
I0
tp2088
a(I14
I2
I0
tp2089
a(I14
I20
I0
tp2090
a(I14
I17
I0
tp2091
a(I5
I18
I1
tp2092
a(I15
I10
I0
tp2093
a(I15
I3
I0
tp2094
a(I15
I27
I0
tp2095
a(I15
I7
I0
tp2096
a(I15
I18
I0
tp2097
a(I15
I2
I0
tp2098
a(I15
I20
I0
tp2099
a(I15
I17
I0
tp2100
a(I16
I20
I1
tp2101
a(I8
I3
I1
tp2102
a(I18
I10
I0
tp2103
a(I18
I3
I0
tp2104
a(I18
I27
I0
tp2105
a(I18
I7
I0
tp2106
a(I18
I18
I0
tp2107
a(I18
I2
I0
tp2108
a(I18
I20
I0
tp2109
a(I18
I17
I0
tp2110
a(I17
I10
I0
tp2111
a(I17
I3
I0
tp2112
a(I17
I27
I0
tp2113
a(I17
I7
I0
tp2114
a(I17
I18
I0
tp2115
a(I17
I2
I0
tp2116
a(I17
I20
I0
tp2117
a(I17
I17
I0
tp2118
a(I9
I2
I1
tp2119
a(I11
I10
I0
tp2120
a(I11
I3
I0
tp2121
a(I11
I27
I0
tp2122
a(I11
I7
I0
tp2123
a(I11
I18
I0
tp2124
a(I11
I2
I0
tp2125
a(I11
I20
I0
tp2126
a(I11
I17
I0
tp2127
a(I9
I27
I0
tp2128
a(I5
I7
I0
tp2129
a(I13
I7
I1
tp2130
a(I12
I20
I1
tp2131
a(I3
I2
I1
tp2132
a(I15
I10
I1
tp2133
a(I4
I17
I1
tp2134
a(I6
I10
I0
tp2135
a(I6
I3
I0
tp2136
a(I6
I27
I0
tp2137
a(I6
I7
I0
tp2138
a(I6
I18
I0
tp2139
a(I6
I2
I0
tp2140
a(I6
I20
I0
tp2141
a(I6
I17
I0
tp2142
a(I15
I18
I0
tp2143
a(I10
I10
I1
tp2144
a(I11
I17
I1
tp2145
a(I5
I18
I1
tp2146
a(I16
I20
I1
tp2147
a(I15
I7
I1
tp2148
a(I2
I17
I1
tp2149
a(I3
I18
I1
tp2150
a(I16
I2
I0
tp2151
a(I4
I18
I0
tp2152
a(I1
I10
I1
tp2153
a(I12
I7
I1
tp2154
a(I0
I7
I1
tp2155
a(I10
I18
I1
tp2156
a(I1
I17
I1
tp2157
a(I2
I17
I1
tp2158
a(I4
I10
I1
tp2159
a(I10
I10
I0
tp2160
a(I1
I18
I0
tp2161
a(I16
I2
I1
tp2162
a(I10
I2
I1
tp2163
a(I5
I17
I1
tp2164
a(I14
I17
I1
tp2165
a(I11
I10
I1
tp2166
a(I8
I2
I1
tp2167
a(I6
I17
I1
tp2168
a(I15
I7
I1
tp2169
a(I17
I10
I1
tp2170
a(I9
I10
I1
tp2171
a(I4
I20
I1
tp2172
a(I10
I2
I1
tp2173
a(I10
I2
I0
tp2174
a(I15
I2
I0
tp2175
a(I0
I3
I1
tp2176
a(I8
I18
I1
tp2177
a(I16
I20
I1
tp2178
a(I3
I27
I1
tp2179
a(I6
I3
I1
tp2180
a(I18
I18
I1
tp2181
a(I13
I7
I1
tp2182
a(I15
I2
I1
tp2183
a(I10
I10
I0
tp2184
a(I10
I3
I0
tp2185
a(I10
I27
I0
tp2186
a(I10
I7
I0
tp2187
a(I10
I18
I0
tp2188
a(I10
I2
I0
tp2189
a(I10
I20
I0
tp2190
a(I10
I17
I0
tp2191
a(I17
I18
I1
tp2192
a(I9
I10
I0
tp2193
a(I9
I3
I0
tp2194
a(I9
I27
I0
tp2195
a(I9
I7
I0
tp2196
a(I9
I18
I0
tp2197
a(I9
I2
I0
tp2198
a(I9
I20
I0
tp2199
a(I9
I17
I0
tp2200
a(I17
I27
I0
tp2201
a(I8
I7
I1
tp2202
a(I1
I10
I1
tp2203
a(I1
I27
I0
tp2204
a(I1
I2
I1
tp2205
a(I1
I27
I0
tp2206
a(I1
I2
I1
tp2207
a(I1
I27
I0
tp2208
a(I1
I10
I1
tp2209
a(I1
I27
I0
tp2210
a(I1
I10
I1
tp2211
a(I1
I27
I0
tp2212
a(I0
I3
I1
tp2213
a(I3
I3
I1
tp2214
a(I14
I3
I1
tp2215
a(I15
I18
I1
tp2216
a(I8
I7
I1
tp2217
a(I6
I2
I1
tp2218
a(I8
I17
I0
tp2219
a(I17
I17
I1
tp2220
a(I6
I2
I0
tp2221
a(I17
I27
I0
tp2222
a(I8
I20
I1
tp2223
a(I19
I20
I1
tp2224
a(I15
I17
I0
tp2225
a(I17
I18
I1
tp2226
a(I19
I10
I0
tp2227
a(I18
I10
I0
tp2228
a(I18
I3
I0
tp2229
a(I18
I27
I0
tp2230
a(I18
I7
I0
tp2231
a(I18
I18
I0
tp2232
a(I18
I2
I0
tp2233
a(I18
I20
I0
tp2234
a(I18
I17
I0
tp2235
a(I17
I10
I0
tp2236
a(I17
I3
I0
tp2237
a(I17
I27
I0
tp2238
a(I17
I7
I0
tp2239
a(I17
I18
I0
tp2240
a(I17
I2
I0
tp2241
a(I17
I20
I0
tp2242
a(I17
I17
I0
tp2243
a(I12
I20
I1
tp2244
a(I13
I10
I0
tp2245
a(I13
I3
I0
tp2246
a(I13
I27
I0
tp2247
a(I13
I7
I0
tp2248
a(I13
I18
I0
tp2249
a(I13
I2
I0
tp2250
a(I13
I20
I0
tp2251
a(I13
I17
I0
tp2252
a(I1
I2
I1
tp2253
a(I1
I10
I1
tp2254
a(I1
I3
I1
tp2255
a(I1
I27
I1
tp2256
a(I1
I7
I1
tp2257
a(I1
I18
I1
tp2258
a(I1
I2
I1
tp2259
a(I1
I20
I1
tp2260
a(I1
I17
I1
tp2261
a(I9
I2
I1
tp2262
a(I10
I10
I0
tp2263
a(I10
I3
I0
tp2264
a(I10
I27
I0
tp2265
a(I10
I7
I0
tp2266
a(I10
I18
I0
tp2267
a(I10
I2
I0
tp2268
a(I10
I20
I0
tp2269
a(I10
I17
I0
tp2270
a(I7
I3
I1
tp2271
a(I0
I10
I0
tp2272
a(I0
I3
I0
tp2273
a(I0
I27
I0
tp2274
a(I0
I7
I0
tp2275
a(I0
I18
I0
tp2276
a(I0
I2
I0
tp2277
a(I0
I20
I0
tp2278
a(I0
I17
I0
tp2279
a(I6
I10
I0
tp2280
a(I6
I3
I0
tp2281
a(I6
I27
I0
tp2282
a(I6
I7
I0
tp2283
a(I6
I18
I0
tp2284
a(I6
I2
I0
tp2285
a(I6
I20
I0
tp2286
a(I6
I17
I0
tp2287
a(I14
I10
I0
tp2288
a(I14
I3
I0
tp2289
a(I14
I27
I0
tp2290
a(I14
I7
I0
tp2291
a(I14
I18
I0
tp2292
a(I14
I2
I0
tp2293
a(I14
I20
I0
tp2294
a(I14
I17
I0
tp2295
a(I12
I2
I0
tp2296
a(I16
I18
I1
tp2297
a(I16
I10
I1
tp2298
a(I16
I3
I1
tp2299
a(I16
I27
I1
tp2300
a(I16
I7
I1
tp2301
a(I16
I18
I1
tp2302
a(I16
I2
I1
tp2303
a(I16
I20
I1
tp2304
a(I16
I17
I1
tp2305
a(I1
I2
I1
tp2306
a(I3
I10
I0
tp2307
a(I3
I3
I0
tp2308
a(I3
I27
I0
tp2309
a(I3
I7
I0
tp2310
a(I3
I18
I0
tp2311
a(I3
I2
I0
tp2312
a(I3
I20
I0
tp2313
a(I3
I17
I0
tp2314
a(I10
I10
I0
tp2315
a(I10
I3
I0
tp2316
a(I10
I27
I0
tp2317
a(I10
I7
I0
tp2318
a(I10
I18
I0
tp2319
a(I10
I2
I0
tp2320
a(I10
I20
I0
tp2321
a(I10
I17
I0
tp2322
a(I1
I27
I0
tp2323
a(I1
I10
I1
tp2324
a(I1
I7
I0
tp2325
a(I1
I3
I0
tp2326
a(I1
I10
I1
tp2327
a(I9
I10
I0
tp2328
a(I9
I3
I0
tp2329
a(I9
I27
I0
tp2330
a(I9
I7
I0
tp2331
a(I9
I18
I0
tp2332
a(I9
I2
I0
tp2333
a(I9
I20
I0
tp2334
a(I9
I17
I0
tp2335
a(I8
I3
I1
tp2336
a(I18
I2
I1
tp2337
a(I14
I10
I0
tp2338
a(I14
I3
I0
tp2339
a(I14
I27
I0
tp2340
a(I14
I7
I0
tp2341
a(I14
I18
I0
tp2342
a(I14
I2
I0
tp2343
a(I14
I20
I0
tp2344
a(I14
I17
I0
tp2345
a(I1
I7
I1
tp2346
a(I8
I10
I0
tp2347
a(I8
I3
I0
tp2348
a(I8
I27
I0
tp2349
a(I8
I7
I0
tp2350
a(I8
I18
I0
tp2351
a(I8
I2
I0
tp2352
a(I8
I20
I0
tp2353
a(I8
I17
I0
tp2354
a(I18
I10
I0
tp2355
a(I18
I3
I0
tp2356
a(I18
I27
I0
tp2357
a(I18
I7
I0
tp2358
a(I18
I18
I0
tp2359
a(I18
I2
I0
tp2360
a(I18
I20
I0
tp2361
a(I18
I17
I0
tp2362
a(I9
I20
I1
tp2363
a(I7
I10
I0
tp2364
a(I7
I3
I0
tp2365
a(I7
I27
I0
tp2366
a(I7
I7
I0
tp2367
a(I7
I18
I0
tp2368
a(I7
I2
I0
tp2369
a(I7
I20
I0
tp2370
a(I7
I17
I0
tp2371
a(I4
I7
I1
tp2372
a(I1
I10
I0
tp2373
a(I1
I3
I0
tp2374
a(I1
I27
I0
tp2375
a(I1
I7
I0
tp2376
a(I1
I18
I0
tp2377
a(I1
I2
I0
tp2378
a(I1
I20
I0
tp2379
a(I1
I17
I0
tp2380
a(I10
I2
I1
tp2381
a(I10
I10
I1
tp2382
a(I10
I3
I1
tp2383
a(I10
I27
I1
tp2384
a(I10
I7
I1
tp2385
a(I10
I18
I1
tp2386
a(I10
I2
I1
tp2387
a(I10
I20
I1
tp2388
a(I10
I17
I1
tp2389
a(I5
I17
I1
tp2390
a(I12
I17
I1
tp2391
a(I19
I10
I0
tp2392
a(I19
I3
I0
tp2393
a(I19
I27
I0
tp2394
a(I19
I7
I0
tp2395
a(I19
I18
I0
tp2396
a(I19
I2
I0
tp2397
a(I19
I20
I0
tp2398
a(I19
I17
I0
tp2399
a(I9
I2
I0
tp2400
a(I4
I20
I0
tp2401
a(I2
I20
I1
tp2402
a(I2
I10
I1
tp2403
a(I2
I3
I1
tp2404
a(I2
I27
I1
tp2405
a(I2
I7
I1
tp2406
a(I2
I18
I1
tp2407
a(I2
I2
I1
tp2408
a(I2
I20
I1
tp2409
a(I2
I17
I1
tp2410
a(I6
I10
I0
tp2411
a(I6
I3
I0
tp2412
a(I6
I27
I0
tp2413
a(I6
I7
I0
tp2414
a(I6
I18
I0
tp2415
a(I6
I2
I0
tp2416
a(I6
I20
I0
tp2417
a(I6
I17
I0
tp2418
a(I18
I10
I0
tp2419
a(I18
I3
I0
tp2420
a(I18
I27
I0
tp2421
a(I18
I7
I0
tp2422
a(I18
I18
I0
tp2423
a(I18
I2
I0
tp2424
a(I18
I20
I0
tp2425
a(I18
I17
I0
tp2426
a(I2
I10
I0
tp2427
a(I2
I3
I0
tp2428
a(I2
I27
I0
tp2429
a(I2
I7
I0
tp2430
a(I2
I18
I0
tp2431
a(I2
I2
I0
tp2432
a(I2
I20
I0
tp2433
a(I2
I17
I0
tp2434
a(I16
I10
I0
tp2435
a(I16
I3
I0
tp2436
a(I16
I27
I0
tp2437
a(I16
I7
I0
tp2438
a(I16
I18
I0
tp2439
a(I16
I2
I0
tp2440
a(I16
I20
I0
tp2441
a(I16
I17
I0
tp2442
a(I8
I10
I0
tp2443
a(I8
I3
I0
tp2444
a(I8
I27
I0
tp2445
a(I8
I7
I0
tp2446
a(I8
I18
I0
tp2447
a(I8
I2
I0
tp2448
a(I8
I20
I0
tp2449
a(I8
I17
I0
tp2450
a(I3
I10
I0
tp2451
a(I3
I3
I0
tp2452
a(I3
I27
I0
tp2453
a(I3
I7
I0
tp2454
a(I3
I18
I0
tp2455
a(I3
I2
I0
tp2456
a(I3
I20
I0
tp2457
a(I3
I17
I0
tp2458
a(I13
I10
I0
tp2459
a(I13
I3
I0
tp2460
a(I13
I27
I0
tp2461
a(I13
I7
I0
tp2462
a(I13
I18
I0
tp2463
a(I13
I2
I0
tp2464
a(I13
I20
I0
tp2465
a(I13
I17
I0
tp2466
a(I4
I10
I0
tp2467
a(I4
I3
I0
tp2468
a(I4
I27
I0
tp2469
a(I4
I7
I0
tp2470
a(I4
I18
I0
tp2471
a(I4
I2
I0
tp2472
a(I4
I20
I0
tp2473
a(I4
I17
I0
tp2474
a(I5
I10
I0
tp2475
a(I5
I3
I0
tp2476
a(I5
I27
I0
tp2477
a(I5
I7
I0
tp2478
a(I5
I18
I0
tp2479
a(I5
I2
I0
tp2480
a(I5
I20
I0
tp2481
a(I5
I17
I0
tp2482
a(I14
I10
I0
tp2483
a(I14
I3
I0
tp2484
a(I14
I27
I0
tp2485
a(I14
I7
I0
tp2486
a(I14
I18
I0
tp2487
a(I14
I2
I0
tp2488
a(I14
I20
I0
tp2489
a(I14
I17
I0
tp2490
a(I15
I10
I0
tp2491
a(I15
I3
I0
tp2492
a(I15
I27
I0
tp2493
a(I15
I7
I0
tp2494
a(I15
I18
I0
tp2495
a(I15
I2
I0
tp2496
a(I15
I20
I0
tp2497
a(I15
I17
I0
tp2498
a(I10
I10
I0
tp2499
a(I10
I3
I0
tp2500
a(I10
I27
I0
tp2501
a(I10
I7
I0
tp2502
a(I10
I18
I0
tp2503
a(I10
I2
I0
tp2504
a(I10
I20
I0
tp2505
a(I10
I17
I0
tp2506
a(I11
I10
I0
tp2507
a(I11
I3
I0
tp2508
a(I11
I27
I0
tp2509
a(I11
I7
I0
tp2510
a(I11
I18
I0
tp2511
a(I11
I2
I0
tp2512
a(I11
I20
I0
tp2513
a(I11
I17
I0
tp2514
a(I19
I10
I0
tp2515
a(I19
I3
I0
tp2516
a(I19
I27
I0
tp2517
a(I19
I7
I0
tp2518
a(I19
I18
I0
tp2519
a(I19
I2
I0
tp2520
a(I19
I20
I0
tp2521
a(I19
I17
I0
tp2522
a(I17
I10
I0
tp2523
a(I17
I3
I0
tp2524
a(I17
I27
I0
tp2525
a(I17
I7
I0
tp2526
a(I17
I18
I0
tp2527
a(I17
I2
I0
tp2528
a(I17
I20
I0
tp2529
a(I17
I17
I0
tp2530
a(I6
I10
I0
tp2531
a(I6
I3
I0
tp2532
a(I6
I27
I0
tp2533
a(I6
I7
I0
tp2534
a(I6
I18
I0
tp2535
a(I6
I2
I0
tp2536
a(I6
I20
I0
tp2537
a(I6
I17
I0
tp2538
a(I12
I20
I1
tp2539
a(I13
I10
I0
tp2540
a(I13
I3
I0
tp2541
a(I13
I27
I0
tp2542
a(I13
I7
I0
tp2543
a(I13
I18
I0
tp2544
a(I13
I2
I0
tp2545
a(I13
I20
I0
tp2546
a(I13
I17
I0
tp2547
a(I4
I2
I1
tp2548
a(I14
I10
I0
tp2549
a(I14
I3
I0
tp2550
a(I14
I27
I0
tp2551
a(I14
I7
I0
tp2552
a(I14
I18
I0
tp2553
a(I14
I2
I0
tp2554
a(I14
I20
I0
tp2555
a(I14
I17
I0
tp2556
a(I1
I2
I1
tp2557
a(I1
I18
I0
tp2558
a(I1
I7
I1
tp2559
a(I1
I10
I0
tp2560
a(I1
I7
I1
tp2561
a(I15
I20
I1
tp2562
a(I15
I27
I0
tp2563
a(I2
I10
I0
tp2564
a(I2
I3
I0
tp2565
a(I2
I27
I0
tp2566
a(I2
I7
I0
tp2567
a(I2
I18
I0
tp2568
a(I2
I2
I0
tp2569
a(I2
I20
I0
tp2570
a(I2
I17
I0
tp2571
a(I0
I10
I0
tp2572
a(I0
I3
I0
tp2573
a(I0
I27
I0
tp2574
a(I0
I7
I0
tp2575
a(I0
I18
I0
tp2576
a(I0
I2
I0
tp2577
a(I0
I20
I0
tp2578
a(I0
I17
I0
tp2579
a(I1
I3
I0
tp2580
a.