(lp0
S'spice'
p1
aS'container'
p2
aS'empty'
p3
aS'peach'
p4
aS'can'
p5
aS'blue'
p6
aS'pringles'
p7
aS'long'
p8
aS'cylinder'
p9
aS'coffee'
p10
aS'bean'
p11
aS'clear'
p12
aS'styrofoam'
p13
aS'tower'
p14
aS'white'
p15
aS'rectangle'
p16
aS'column'
p17
aS'block'
p18
aS'yellow'
p19
aS'metallic'
p20
acnumpy.core.multiarray
scalar
p21
(cnumpy
dtype
p22
(S'S3'
p23
I0
I1
tp24
Rp25
(I3
S'|'
p26
NNNI3
I1
I0
tp27
bS'red'
p28
tp29
Rp30
ag21
(g22
(S'S5'
p31
I0
I1
tp32
Rp33
(I3
S'|'
p34
NNNI5
I1
I0
tp35
bS'brown'
p36
tp37
Rp38
ag21
(g22
(S'S5'
p39
I0
I1
tp40
Rp41
(I3
S'|'
p42
NNNI5
I1
I0
tp43
bS'small'
p44
tp45
Rp46
a.