(lp0
(lp1
(dp2
S'action'
p3
cnumpy.core.multiarray
scalar
p4
(cnumpy
dtype
p5
(S'S5'
p6
I0
I1
tp7
Rp8
(I3
S'|'
p9
NNNI5
I1
I0
tp10
bS'bring'
p11
tp12
Rp13
sS'recipient'
p14
S'r'
p15
sS'patient'
p16
S'oidx_12'
p17
sS'goal'
p18
NsS'source'
p19
Nsaa(lp20
(dp21
S'all'
p22
(lp23
S'go to office'
p24
asg16
(lp25
S'yes'
p26
aS'no'
p27
asg18
(lp28
sg19
(lp29
sg3
(lp30
sg14
(lp31
S'yes'
p32
asaa(lp33
(g4
(g5
(S'S3'
p34
I0
I1
tp35
Rp36
(I3
S'|'
p37
NNNI3
I1
I0
tp38
bS'can'
p39
tp40
Rp41
I29
I1
tp42
a(g4
(g5
(S'S9'
p43
I0
I1
tp44
Rp45
(I3
S'|'
p46
NNNI9
I1
I0
tp47
bS'container'
p48
tp49
Rp50
I5
I1
tp51
a(g50
I14
I1
tp52
a(g50
I8
I1
tp53
a(g50
I15
I1
tp54
a(g50
I1
I1
tp55
a(g50
I30
I1
tp56
a(g50
I29
I1
tp57
a(g50
I31
I1
tp58
a(g4
(g5
(S'S5'
p59
I0
I1
tp60
Rp61
(I3
S'|'
p62
NNNI5
I1
I0
tp63
bS'empty'
p64
tp65
Rp66
I14
I0
tp67
a(g4
(g5
(S'S8'
p68
I0
I1
tp69
Rp70
(I3
S'|'
p71
NNNI8
I1
I0
tp72
bS'cylinder'
p73
tp74
Rp75
I8
I1
tp76
a(g4
(g5
(S'S6'
p77
I0
I1
tp78
Rp79
(I3
S'|'
p80
NNNI6
I1
I0
tp81
bS'column'
p82
tp83
Rp84
I5
I0
tp85
a(g84
I14
I0
tp86
a(g84
I8
I0
tp87
a(g84
I15
I0
tp88
a(g84
I1
I0
tp89
a(g84
I30
I0
tp90
a(g84
I29
I0
tp91
a(g84
I31
I0
tp92
aa(lp93
a.