(lp0
(lp1
(dp2
S'action'
p3
cnumpy.core.multiarray
scalar
p4
(cnumpy
dtype
p5
(S'S4'
p6
I0
I1
tp7
Rp8
(I3
S'|'
p9
NNNI4
I1
I0
tp10
bS'walk'
p11
tp12
Rp13
sS'recipient'
p14
NsS'patient'
p15
NsS'goal'
p16
g4
(g5
(S'S4'
p17
I0
I1
tp18
Rp19
(I3
S'|'
p20
NNNI4
I1
I0
tp21
bS'3430'
p22
tp23
Rp24
sS'source'
p25
Nsa(dp26
g3
g4
(g5
(S'S5'
p27
I0
I1
tp28
Rp29
(I3
S'|'
p30
NNNI5
I1
I0
tp31
bS'bring'
p32
tp33
Rp34
sg14
g4
(g5
(S'S1'
p35
I0
I1
tp36
Rp37
(I3
S'|'
p38
NNNI1
I1
I0
tp39
bS'd'
p40
tp41
Rp42
sg15
S'oidx_11'
p43
sg16
Nsg25
Nsaa(lp44
(dp45
S'all'
p46
(lp47
S"go to dr smalt 's office"
p48
asg15
(lp49
sg16
(lp50
S"go to dr smalt 's office"
p51
aS"go to sybil 's office"
p52
asg25
(lp53
sg3
(lp54
sg14
(lp55
sa(dp56
g46
(lp57
S'bring the empty can to dave'
p58
asg15
(lp59
S'find the empty can'
p60
aS'find the empty food can'
p61
aS'find the empty tin can'
p62
asg16
(lp63
sg25
(lp64
sg3
(lp65
sg14
(lp66
S'deliver it to david'
p67
asaa(lp68
(g4
(g5
(S'S5'
p69
I0
I1
tp70
Rp71
(I3
S'|'
p72
NNNI5
I1
I0
tp73
bS'clear'
p74
tp75
Rp76
I5
I0
tp77
a(g76
I14
I0
tp78
a(g76
I8
I0
tp79
a(g76
I15
I0
tp80
a(g76
I1
I0
tp81
a(g76
I30
I0
tp82
a(g76
I29
I0
tp83
a(g76
I31
I0
tp84
a(g4
(g5
(S'S3'
p85
I0
I1
tp86
Rp87
(I3
S'|'
p88
NNNI3
I1
I0
tp89
bS'can'
p90
tp91
Rp92
I30
I0
tp93
a(g4
(g5
(S'S9'
p94
I0
I1
tp95
Rp96
(I3
S'|'
p97
NNNI9
I1
I0
tp98
bS'container'
p99
tp100
Rp101
I29
I0
tp102
a(g4
(g5
(S'S3'
p103
I0
I1
tp104
Rp105
(I3
S'|'
p106
NNNI3
I1
I0
tp107
bS'can'
p108
tp109
Rp110
I15
I0
tp111
a(g4
(g5
(S'S4'
p112
I0
I1
tp113
Rp114
(I3
S'|'
p115
NNNI4
I1
I0
tp116
bS'blue'
p117
tp118
Rp119
I30
I0
tp120
a(g4
(g5
(S'S9'
p121
I0
I1
tp122
Rp123
(I3
S'|'
p124
NNNI9
I1
I0
tp125
bS'styrofoam'
p126
tp127
Rp128
I31
I0
tp129
a(g4
(g5
(S'S6'
p130
I0
I1
tp131
Rp132
(I3
S'|'
p133
NNNI6
I1
I0
tp134
bS'yellow'
p135
tp136
Rp137
I5
I1
tp138
a(g4
(g5
(S'S8'
p139
I0
I1
tp140
Rp141
(I3
S'|'
p142
NNNI8
I1
I0
tp143
bS'cylinder'
p144
tp145
Rp146
I8
I0
tp147
a(g4
(g5
(S'S9'
p148
I0
I1
tp149
Rp150
(I3
S'|'
p151
NNNI9
I1
I0
tp152
bS'styrofoam'
p153
tp154
Rp155
I30
I0
tp156
a(g4
(g5
(S'S5'
p157
I0
I1
tp158
Rp159
(I3
S'|'
p160
NNNI5
I1
I0
tp161
bS'empty'
p162
tp163
Rp164
I14
I0
tp165
aa(lp166
(S'tin'
p167
S'container'
p168
I00
tp169
a(g167
S'metallic'
p170
I01
tp171
aa.