(lp0
(lp1
(dp2
S'action'
p3
cnumpy.core.multiarray
scalar
p4
(cnumpy
dtype
p5
(S'S5'
p6
I0
I1
tp7
Rp8
(I3
S'|'
p9
NNNI5
I1
I0
tp10
bS'bring'
p11
tp12
Rp13
sS'recipient'
p14
S'h'
p15
sS'patient'
p16
S'oidx_12'
p17
sS'goal'
p18
NsS'source'
p19
Nsa(dp20
g3
g4
(g5
(S'S5'
p21
I0
I1
tp22
Rp23
(I3
S'|'
p24
NNNI5
I1
I0
tp25
bS'bring'
p26
tp27
Rp28
sg14
S'n'
p29
sg16
S'oidx_22'
p30
sg18
Nsg19
Nsaa(lp31
(dp32
S'all'
p33
(lp34
S'go to office'
p35
asg16
(lp36
S'no'
p37
aS'no'
p38
aS'no'
p39
aS'yes'
p40
aS'no'
p41
asg18
(lp42
sg19
(lp43
sg3
(lp44
sg14
(lp45
S'no'
p46
aS'no'
p47
asa(dp48
g33
(lp49
S'go to office'
p50
asg16
(lp51
S'yes'
p52
aS'yes'
p53
aS'no'
p54
aS'no'
p55
asg18
(lp56
sg19
(lp57
sg3
(lp58
sg14
(lp59
saa(lp60
(g4
(g5
(S'S6'
p61
I0
I1
tp62
Rp63
(I3
S'|'
p64
NNNI6
I1
I0
tp65
bS'yellow'
p66
tp67
Rp68
I5
I0
tp69
a(g68
I14
I0
tp70
a(g68
I8
I0
tp71
a(g68
I15
I0
tp72
a(g68
I1
I0
tp73
a(g68
I30
I0
tp74
a(g68
I29
I0
tp75
a(g68
I31
I0
tp76
a(g4
(g5
(S'S5'
p77
I0
I1
tp78
Rp79
(I3
S'|'
p80
NNNI5
I1
I0
tp81
bS'tower'
p82
tp83
Rp84
I5
I0
tp85
a(g84
I14
I0
tp86
a(g84
I8
I0
tp87
a(g84
I15
I0
tp88
a(g84
I1
I0
tp89
a(g84
I30
I0
tp90
a(g84
I29
I0
tp91
a(g84
I31
I0
tp92
a(g4
(g5
(S'S9'
p93
I0
I1
tp94
Rp95
(I3
S'|'
p96
NNNI9
I1
I0
tp97
bS'rectangle'
p98
tp99
Rp100
I5
I0
tp101
a(g100
I14
I0
tp102
a(g100
I8
I0
tp103
a(g100
I15
I0
tp104
a(g100
I1
I0
tp105
a(g100
I30
I0
tp106
a(g100
I29
I0
tp107
a(g100
I31
I0
tp108
a(g4
(g5
(S'S8'
p109
I0
I1
tp110
Rp111
(I3
S'|'
p112
NNNI8
I1
I0
tp113
bS'pringles'
p114
tp115
Rp116
I5
I0
tp117
a(g116
I14
I0
tp118
a(g116
I8
I0
tp119
a(g116
I15
I0
tp120
a(g116
I1
I0
tp121
a(g116
I30
I0
tp122
a(g116
I29
I0
tp123
a(g116
I31
I0
tp124
a(g4
(g5
(S'S4'
p125
I0
I1
tp126
Rp127
(I3
S'|'
p128
NNNI4
I1
I0
tp129
bS'blue'
p130
tp131
Rp132
I30
I1
tp133
a(g4
(g5
(S'S8'
p134
I0
I1
tp135
Rp136
(I3
S'|'
p137
NNNI8
I1
I0
tp138
bS'cylinder'
p139
tp140
Rp141
I14
I1
tp142
a(g4
(g5
(S'S5'
p143
I0
I1
tp144
Rp145
(I3
S'|'
p146
NNNI5
I1
I0
tp147
bS'small'
p148
tp149
Rp150
I5
I0
tp151
a(g150
I14
I0
tp152
a(g150
I8
I0
tp153
a(g150
I15
I0
tp154
a(g150
I1
I0
tp155
a(g150
I30
I0
tp156
a(g150
I29
I0
tp157
a(g150
I31
I0
tp158
a(g4
(g5
(S'S4'
p159
I0
I1
tp160
Rp161
(I3
S'|'
p162
NNNI4
I1
I0
tp163
bS'blue'
p164
tp165
Rp166
I29
I0
tp167
a(g4
(g5
(S'S6'
p168
I0
I1
tp169
Rp170
(I3
S'|'
p171
NNNI6
I1
I0
tp172
bS'column'
p173
tp174
Rp175
I5
I0
tp176
a(g175
I14
I0
tp177
a(g175
I8
I0
tp178
a(g175
I15
I0
tp179
a(g175
I1
I0
tp180
a(g175
I30
I0
tp181
a(g175
I29
I0
tp182
a(g175
I31
I0
tp183
a(g4
(g5
(S'S4'
p184
I0
I1
tp185
Rp186
(I3
S'|'
p187
NNNI4
I1
I0
tp188
bS'bean'
p189
tp190
Rp191
I5
I0
tp192
a(g191
I14
I0
tp193
a(g191
I8
I0
tp194
a(g191
I15
I0
tp195
a(g191
I1
I0
tp196
a(g191
I30
I0
tp197
a(g191
I29
I0
tp198
a(g191
I31
I0
tp199
aa(lp200
a.