(lp0
(lp1
(dp2
S'action'
p3
cnumpy.core.multiarray
scalar
p4
(cnumpy
dtype
p5
(S'S4'
p6
I0
I1
tp7
Rp8
(I3
S'|'
p9
NNNI4
I1
I0
tp10
bS'walk'
p11
tp12
Rp13
sS'recipient'
p14
NsS'patient'
p15
NsS'goal'
p16
S'3506'
p17
sS'source'
p18
Nsa(dp19
g3
g4
(g5
(S'S5'
p20
I0
I1
tp21
Rp22
(I3
S'|'
p23
NNNI5
I1
I0
tp24
bS'bring'
p25
tp26
Rp27
sg14
S'b'
p28
sg15
S'oidx_22'
p29
sg16
Nsg18
Nsaa(lp30
(dp31
S'all'
p32
(lp33
S'go to the printer room'
p34
asg15
(lp35
sg16
(lp36
S'the printer room'
p37
asg18
(lp38
sg3
(lp39
sg14
(lp40
sa(dp41
g32
(lp42
S'take the jar to heidi'
p43
asg15
(lp44
S'jar'
p45
aS'jar'
p46
asg16
(lp47
sg18
(lp48
sg3
(lp49
sg14
(lp50
saa(lp51
(g4
(g5
(S'S5'
p52
I0
I1
tp53
Rp54
(I3
S'|'
p55
NNNI5
I1
I0
tp56
bS'small'
p57
tp58
Rp59
I14
I1
tp60
a(g4
(g5
(S'S5'
p61
I0
I1
tp62
Rp63
(I3
S'|'
p64
NNNI5
I1
I0
tp65
bS'small'
p66
tp67
Rp68
I8
I0
tp69
a(g4
(g5
(S'S4'
p70
I0
I1
tp71
Rp72
(I3
S'|'
p73
NNNI4
I1
I0
tp74
bS'long'
p75
tp76
Rp77
I14
I0
tp78
a(g4
(g5
(S'S6'
p79
I0
I1
tp80
Rp81
(I3
S'|'
p82
NNNI6
I1
I0
tp83
bS'yellow'
p84
tp85
Rp86
I5
I1
tp87
a(g4
(g5
(S'S5'
p88
I0
I1
tp89
Rp90
(I3
S'|'
p91
NNNI5
I1
I0
tp92
bS'spice'
p93
tp94
Rp95
I5
I0
tp96
a(g95
I14
I0
tp97
a(g95
I8
I0
tp98
a(g95
I15
I0
tp99
a(g95
I1
I0
tp100
a(g95
I30
I0
tp101
a(g95
I29
I0
tp102
a(g95
I31
I0
tp103
a(g4
(g5
(S'S4'
p104
I0
I1
tp105
Rp106
(I3
S'|'
p107
NNNI4
I1
I0
tp108
bS'blue'
p109
tp110
Rp111
I29
I1
tp112
a(g4
(g5
(S'S3'
p113
I0
I1
tp114
Rp115
(I3
S'|'
p116
NNNI3
I1
I0
tp117
bS'can'
p118
tp119
Rp120
I1
I1
tp121
a(g4
(g5
(S'S4'
p122
I0
I1
tp123
Rp124
(I3
S'|'
p125
NNNI4
I1
I0
tp126
bS'blue'
p127
tp128
Rp129
I29
I1
tp130
a(g4
(g5
(S'S9'
p131
I0
I1
tp132
Rp133
(I3
S'|'
p134
NNNI9
I1
I0
tp135
bS'rectangle'
p136
tp137
Rp138
I5
I0
tp139
a(g138
I14
I0
tp140
a(g138
I8
I0
tp141
a(g138
I15
I0
tp142
a(g138
I1
I0
tp143
a(g138
I30
I0
tp144
a(g138
I29
I0
tp145
a(g138
I31
I0
tp146
a(g4
(g5
(S'S5'
p147
I0
I1
tp148
Rp149
(I3
S'|'
p150
NNNI5
I1
I0
tp151
bS'small'
p152
tp153
Rp154
I14
I1
tp155
aa(lp156
a.