(lp0
(lp1
(dp2
S'action'
p3
cnumpy.core.multiarray
scalar
p4
(cnumpy
dtype
p5
(S'S4'
p6
I0
I1
tp7
Rp8
(I3
S'|'
p9
NNNI4
I1
I0
tp10
bS'walk'
p11
tp12
Rp13
sS'recipient'
p14
NsS'patient'
p15
NsS'goal'
p16
S'3414b'
p17
sS'source'
p18
Nsa(dp19
g3
g4
(g5
(S'S5'
p20
I0
I1
tp21
Rp22
(I3
S'|'
p23
NNNI5
I1
I0
tp24
bS'bring'
p25
tp26
Rp27
sg14
g4
(g5
(S'S1'
p28
I0
I1
tp29
Rp30
(I3
S'|'
p31
NNNI1
I1
I0
tp32
bS'r'
p33
tp34
Rp35
sg15
S'oidx_26'
p36
sg16
Nsg18
Nsa(dp37
g3
g4
(g5
(S'S4'
p38
I0
I1
tp39
Rp40
(I3
S'|'
p41
NNNI4
I1
I0
tp42
bS'move'
p43
tp44
Rp45
sg14
Nsg15
g4
(g5
(S'S6'
p46
I0
I1
tp47
Rp48
(I3
S'|'
p49
NNNI6
I1
I0
tp50
bS'oidx_6'
p51
tp52
Rp53
sg16
g4
(g5
(S'S4'
p54
I0
I1
tp55
Rp56
(I3
S'|'
p57
NNNI4
I1
I0
tp58
bS'3416'
p59
tp60
Rp61
sg18
g4
(g5
(S'S4'
p62
I0
I1
tp63
Rp64
(I3
S'|'
p65
NNNI4
I1
I0
tp66
bS'3436'
p67
tp68
Rp69
saa(lp70
(dp71
S'all'
p72
(lp73
S'go to the biggest lab'
p74
asg15
(lp75
sg16
(lp76
S'the biggest lab'
p77
aS'the big lab'
p78
asg18
(lp79
sg3
(lp80
sg14
(lp81
sa(dp82
g72
(lp83
S'give the red can to richard rogue'
p84
asg15
(lp85
S'the red can'
p86
asg16
(lp87
sg18
(lp88
sg3
(lp89
sg14
(lp90
sa(dp91
g72
(lp92
S'take the white bottle from the biggest lab to the conference next to an office'
p93
asg15
(lp94
S'white bottle'
p95
aS'the small white bottle'
p96
asg16
(lp97
sg18
(lp98
S'the biggest lab'
p99
asg3
(lp100
sg14
(lp101
saa(lp102
(g4
(g5
(S'S8'
p103
I0
I1
tp104
Rp105
(I3
S'|'
p106
NNNI8
I1
I0
tp107
bS'cylinder'
p108
tp109
Rp110
I8
I1
tp111
a(g4
(g5
(S'S8'
p112
I0
I1
tp113
Rp114
(I3
S'|'
p115
NNNI8
I1
I0
tp116
bS'metallic'
p117
tp118
Rp119
I8
I1
tp120
a(g4
(g5
(S'S4'
p121
I0
I1
tp122
Rp123
(I3
S'|'
p124
NNNI4
I1
I0
tp125
bS'blue'
p126
tp127
Rp128
I30
I0
tp129
a(g4
(g5
(S'S5'
p130
I0
I1
tp131
Rp132
(I3
S'|'
p133
NNNI5
I1
I0
tp134
bS'empty'
p135
tp136
Rp137
I14
I0
tp138
a(g4
(g5
(S'S5'
p139
I0
I1
tp140
Rp141
(I3
S'|'
p142
NNNI5
I1
I0
tp143
bS'spice'
p144
tp145
Rp146
I5
I0
tp147
a(g146
I14
I0
tp148
a(g146
I8
I0
tp149
a(g146
I15
I0
tp150
a(g146
I1
I0
tp151
a(g146
I30
I0
tp152
a(g146
I29
I0
tp153
a(g146
I31
I0
tp154
a(g4
(g5
(S'S3'
p155
I0
I1
tp156
Rp157
(I3
S'|'
p158
NNNI3
I1
I0
tp159
bS'red'
p160
tp161
Rp162
I30
I1
tp163
a(g4
(g5
(S'S3'
p164
I0
I1
tp165
Rp166
(I3
S'|'
p167
NNNI3
I1
I0
tp168
bS'can'
p169
tp170
Rp171
I5
I1
tp172
a(g4
(g5
(S'S3'
p173
I0
I1
tp174
Rp175
(I3
S'|'
p176
NNNI3
I1
I0
tp177
bS'red'
p178
tp179
Rp180
I8
I0
tp181
a(g4
(g5
(S'S3'
p182
I0
I1
tp183
Rp184
(I3
S'|'
p185
NNNI3
I1
I0
tp186
bS'can'
p187
tp188
Rp189
I30
I0
tp190
a(g4
(g5
(S'S3'
p191
I0
I1
tp192
Rp193
(I3
S'|'
p194
NNNI3
I1
I0
tp195
bS'can'
p196
tp197
Rp198
I1
I1
tp199
a(g4
(g5
(S'S5'
p200
I0
I1
tp201
Rp202
(I3
S'|'
p203
NNNI5
I1
I0
tp204
bS'white'
p205
tp206
Rp207
I14
I1
tp208
a(g4
(g5
(S'S9'
p209
I0
I1
tp210
Rp211
(I3
S'|'
p212
NNNI9
I1
I0
tp213
bS'container'
p214
tp215
Rp216
I5
I1
tp217
a(g216
I14
I1
tp218
a(g216
I8
I1
tp219
a(g216
I15
I1
tp220
a(g216
I1
I1
tp221
a(g216
I30
I1
tp222
a(g216
I29
I1
tp223
a(g216
I31
I1
tp224
a(g4
(g5
(S'S5'
p225
I0
I1
tp226
Rp227
(I3
S'|'
p228
NNNI5
I1
I0
tp229
bS'white'
p230
tp231
Rp232
I1
I0
tp233
a(g4
(g5
(S'S5'
p234
I0
I1
tp235
Rp236
(I3
S'|'
p237
NNNI5
I1
I0
tp238
bS'white'
p239
tp240
Rp241
I31
I0
tp242
a(g4
(g5
(S'S5'
p243
I0
I1
tp244
Rp245
(I3
S'|'
p246
NNNI5
I1
I0
tp247
bS'white'
p248
tp249
Rp250
I8
I0
tp251
aa(lp252
(S'big'
p253
S'want'
p254
I00
tp255
a(S'red'
p256
S'white'
p257
I00
tp258
a(g256
S'yellow'
p259
I00
tp260
a(g256
S'blue'
p261
I00
tp262
aa.