(lp0
(lp1
(dp2
S'action'
p3
cnumpy.core.multiarray
scalar
p4
(cnumpy
dtype
p5
(S'S4'
p6
I0
I1
tp7
Rp8
(I3
S'|'
p9
NNNI4
I1
I0
tp10
bS'walk'
p11
tp12
Rp13
sS'recipient'
p14
NsS'patient'
p15
NsS'goal'
p16
g4
(g5
(S'S4'
p17
I0
I1
tp18
Rp19
(I3
S'|'
p20
NNNI4
I1
I0
tp21
bS'3406'
p22
tp23
Rp24
sS'source'
p25
Nsa(dp26
g3
g4
(g5
(S'S5'
p27
I0
I1
tp28
Rp29
(I3
S'|'
p30
NNNI5
I1
I0
tp31
bS'bring'
p32
tp33
Rp34
sg14
g4
(g5
(S'S1'
p35
I0
I1
tp36
Rp37
(I3
S'|'
p38
NNNI1
I1
I0
tp39
bS'p'
p40
tp41
Rp42
sg15
S'oidx_12'
p43
sg16
Nsg25
Nsaa(lp44
(dp45
S'all'
p46
(lp47
S"go to the lounge opposite to mallory mal maroon 's office"
p48
asg15
(lp49
sg16
(lp50
sg25
(lp51
sg3
(lp52
sg14
(lp53
sa(dp54
g46
(lp55
S'get red and white color column box'
p56
asg15
(lp57
S'find the red and white column box'
p58
aS'find the red and white column box'
p59
aS'red box'
p60
aS'find red and white cylinder'
p61
aS'find red and white cylinder'
p62
aS'red cylinder'
p63
aS'red and white plastic cylinder'
p64
asg16
(lp65
sg25
(lp66
sg3
(lp67
sg14
(lp68
S'peggy parker'
p69
asaa(lp70
(g4
(g5
(S'S5'
p71
I0
I1
tp72
Rp73
(I3
S'|'
p74
NNNI5
I1
I0
tp75
bS'peach'
p76
tp77
Rp78
I5
I0
tp79
a(g78
I14
I0
tp80
a(g78
I8
I0
tp81
a(g78
I15
I0
tp82
a(g78
I1
I0
tp83
a(g78
I30
I0
tp84
a(g78
I29
I0
tp85
a(g78
I31
I0
tp86
a(g4
(g5
(S'S4'
p87
I0
I1
tp88
Rp89
(I3
S'|'
p90
NNNI4
I1
I0
tp91
bS'blue'
p92
tp93
Rp94
I30
I0
tp95
a(g4
(g5
(S'S6'
p96
I0
I1
tp97
Rp98
(I3
S'|'
p99
NNNI6
I1
I0
tp100
bS'yellow'
p101
tp102
Rp103
I5
I1
tp104
a(g4
(g5
(S'S6'
p105
I0
I1
tp106
Rp107
(I3
S'|'
p108
NNNI6
I1
I0
tp109
bS'column'
p110
tp111
Rp112
I5
I1
tp113
a(g4
(g5
(S'S5'
p114
I0
I1
tp115
Rp116
(I3
S'|'
p117
NNNI5
I1
I0
tp118
bS'empty'
p119
tp120
Rp121
I14
I0
tp122
a(g4
(g5
(S'S8'
p123
I0
I1
tp124
Rp125
(I3
S'|'
p126
NNNI8
I1
I0
tp127
bS'cylinder'
p128
tp129
Rp130
I15
I1
tp131
a(g4
(g5
(S'S6'
p132
I0
I1
tp133
Rp134
(I3
S'|'
p135
NNNI6
I1
I0
tp136
bS'yellow'
p137
tp138
Rp139
I15
I0
tp140
a(g4
(g5
(S'S4'
p141
I0
I1
tp142
Rp143
(I3
S'|'
p144
NNNI4
I1
I0
tp145
bS'long'
p146
tp147
Rp148
I31
I0
tp149
a(g4
(g5
(S'S8'
p150
I0
I1
tp151
Rp152
(I3
S'|'
p153
NNNI8
I1
I0
tp154
bS'metallic'
p155
tp156
Rp157
I8
I1
tp158
a(g4
(g5
(S'S5'
p159
I0
I1
tp160
Rp161
(I3
S'|'
p162
NNNI5
I1
I0
tp163
bS'empty'
p164
tp165
Rp166
I31
I0
tp167
aa(lp168
(S'red'
p169
S'white'
p170
I01
tp171
a(S'box'
p172
S'container'
p173
I01
tp174
a(S'plastic'
p175
g173
I00
tp176
a(g175
g170
I00
tp177
a(g175
S'metallic'
p178
I01
tp179
aa.