(lp0
(lp1
(dp2
S'action'
p3
cnumpy.core.multiarray
scalar
p4
(cnumpy
dtype
p5
(S'S4'
p6
I0
I1
tp7
Rp8
(I3
S'|'
p9
NNNI4
I1
I0
tp10
bS'walk'
p11
tp12
Rp13
sS'recipient'
p14
NsS'patient'
p15
NsS'goal'
p16
S'3514'
p17
sS'source'
p18
Nsa(dp19
g3
g4
(g5
(S'S5'
p20
I0
I1
tp21
Rp22
(I3
S'|'
p23
NNNI5
I1
I0
tp24
bS'bring'
p25
tp26
Rp27
sg14
g4
(g5
(S'S1'
p28
I0
I1
tp29
Rp30
(I3
S'|'
p31
NNNI1
I1
I0
tp32
bS'p'
p33
tp34
Rp35
sg15
g4
(g5
(S'S7'
p36
I0
I1
tp37
Rp38
(I3
S'|'
p39
NNNI7
I1
I0
tp40
bS'oidx_11'
p41
tp42
Rp43
sg16
Nsg18
Nsaa(lp44
(dp45
S'all'
p46
(lp47
S'go visit dave'
p48
asg15
(lp49
sg16
(lp50
S'visit dave'
p51
aS'office d'
p52
aS'dave'
p53
aS'go to the lounge'
p54
asg18
(lp55
sg3
(lp56
sg14
(lp57
sa(dp58
g46
(lp59
S'give the can to peggy parker intern'
p60
asg15
(lp61
S'the can'
p62
aS'a can'
p63
asg16
(lp64
sg18
(lp65
sg3
(lp66
sg14
(lp67
saa(lp68
(g4
(g5
(S'S3'
p69
I0
I1
tp70
Rp71
(I3
S'|'
p72
NNNI3
I1
I0
tp73
bS'can'
p74
tp75
Rp76
I29
I0
tp77
a(g4
(g5
(S'S6'
p78
I0
I1
tp79
Rp80
(I3
S'|'
p81
NNNI6
I1
I0
tp82
bS'coffee'
p83
tp84
Rp85
I5
I0
tp86
a(g85
I14
I0
tp87
a(g85
I8
I0
tp88
a(g85
I15
I0
tp89
a(g85
I1
I0
tp90
a(g85
I30
I0
tp91
a(g85
I29
I0
tp92
a(g85
I31
I0
tp93
a(g4
(g5
(S'S5'
p94
I0
I1
tp95
Rp96
(I3
S'|'
p97
NNNI5
I1
I0
tp98
bS'white'
p99
tp100
Rp101
I14
I1
tp102
a(g4
(g5
(S'S5'
p103
I0
I1
tp104
Rp105
(I3
S'|'
p106
NNNI5
I1
I0
tp107
bS'small'
p108
tp109
Rp110
I14
I1
tp111
a(g4
(g5
(S'S5'
p112
I0
I1
tp113
Rp114
(I3
S'|'
p115
NNNI5
I1
I0
tp116
bS'white'
p117
tp118
Rp119
I30
I0
tp120
a(g4
(g5
(S'S3'
p121
I0
I1
tp122
Rp123
(I3
S'|'
p124
NNNI3
I1
I0
tp125
bS'can'
p126
tp127
Rp128
I8
I1
tp129
a(g4
(g5
(S'S3'
p130
I0
I1
tp131
Rp132
(I3
S'|'
p133
NNNI3
I1
I0
tp134
bS'can'
p135
tp136
Rp137
I30
I0
tp138
a(g4
(g5
(S'S3'
p139
I0
I1
tp140
Rp141
(I3
S'|'
p142
NNNI3
I1
I0
tp143
bS'can'
p144
tp145
Rp146
I1
I1
tp147
a(g4
(g5
(S'S3'
p148
I0
I1
tp149
Rp150
(I3
S'|'
p151
NNNI3
I1
I0
tp152
bS'can'
p153
tp154
Rp155
I5
I1
tp156
a(g4
(g5
(S'S3'
p157
I0
I1
tp158
Rp159
(I3
S'|'
p160
NNNI3
I1
I0
tp161
bS'can'
p162
tp163
Rp164
I15
I1
tp165
aa(lp166
a.