(lp0
(lp1
(dp2
S'action'
p3
cnumpy.core.multiarray
scalar
p4
(cnumpy
dtype
p5
(S'S5'
p6
I0
I1
tp7
Rp8
(I3
S'|'
p9
NNNI5
I1
I0
tp10
bS'bring'
p11
tp12
Rp13
sS'recipient'
p14
S'w'
p15
sS'patient'
p16
S'oidx_6'
p17
sS'goal'
p18
NsS'source'
p19
Nsa(dp20
g3
g4
(g5
(S'S5'
p21
I0
I1
tp22
Rp23
(I3
S'|'
p24
NNNI5
I1
I0
tp25
bS'bring'
p26
tp27
Rp28
sg14
S'n'
p29
sg16
S'oidx_25'
p30
sg18
Nsg19
Nsa(dp31
g3
g4
(g5
(S'S4'
p32
I0
I1
tp33
Rp34
(I3
S'|'
p35
NNNI4
I1
I0
tp36
bS'walk'
p37
tp38
Rp39
sg14
Nsg16
Nsg18
S'3406'
p40
sg19
Nsaa(lp41
(dp42
S'all'
p43
(lp44
S'go to the conference room'
p45
asg16
(lp46
S'go to conference room'
p47
aS'go to b'
p48
aS'coffe'
p49
asg18
(lp50
sg19
(lp51
sg3
(lp52
sg14
(lp53
sa(dp54
g43
(lp55
S'took container and deliver to r'
p56
asg16
(lp57
S'deliver container to richard'
p58
aS'can'
p59
asg18
(lp60
sg19
(lp61
sg3
(lp62
sg14
(lp63
sa(dp64
g43
(lp65
S'go to richard room'
p66
asg16
(lp67
sg18
(lp68
S'to richard room'
p69
aS'kitchen'
p70
aS'go to lounge'
p71
asg19
(lp72
sg3
(lp73
sg14
(lp74
saa(lp75
(g4
(g5
(S'S4'
p76
I0
I1
tp77
Rp78
(I3
S'|'
p79
NNNI4
I1
I0
tp80
bS'long'
p81
tp82
Rp83
I5
I1
tp84
a(g83
I14
I1
tp85
a(g83
I8
I1
tp86
a(g83
I15
I1
tp87
a(g83
I1
I1
tp88
a(g83
I30
I1
tp89
a(g83
I29
I1
tp90
a(g83
I31
I1
tp91
a(g4
(g5
(S'S4'
p92
I0
I1
tp93
Rp94
(I3
S'|'
p95
NNNI4
I1
I0
tp96
bS'blue'
p97
tp98
Rp99
I29
I1
tp100
a(g4
(g5
(S'S9'
p101
I0
I1
tp102
Rp103
(I3
S'|'
p104
NNNI9
I1
I0
tp105
bS'container'
p106
tp107
Rp108
I5
I1
tp109
a(g108
I14
I1
tp110
a(g108
I8
I1
tp111
a(g108
I15
I1
tp112
a(g108
I1
I1
tp113
a(g108
I30
I1
tp114
a(g108
I29
I1
tp115
a(g108
I31
I1
tp116
a(g4
(g5
(S'S6'
p117
I0
I1
tp118
Rp119
(I3
S'|'
p120
NNNI6
I1
I0
tp121
bS'coffee'
p122
tp123
Rp124
I5
I0
tp125
a(g124
I14
I0
tp126
a(g124
I8
I0
tp127
a(g124
I15
I0
tp128
a(g124
I1
I0
tp129
a(g124
I30
I0
tp130
a(g124
I29
I0
tp131
a(g124
I31
I0
tp132
a(g4
(g5
(S'S8'
p133
I0
I1
tp134
Rp135
(I3
S'|'
p136
NNNI8
I1
I0
tp137
bS'cylinder'
p138
tp139
Rp140
I14
I0
tp141
a(g4
(g5
(S'S6'
p142
I0
I1
tp143
Rp144
(I3
S'|'
p145
NNNI6
I1
I0
tp146
bS'yellow'
p147
tp148
Rp149
I5
I0
tp150
a(g149
I14
I0
tp151
a(g149
I8
I0
tp152
a(g149
I15
I0
tp153
a(g149
I1
I0
tp154
a(g149
I30
I0
tp155
a(g149
I29
I0
tp156
a(g149
I31
I0
tp157
a(g4
(g5
(S'S8'
p158
I0
I1
tp159
Rp160
(I3
S'|'
p161
NNNI8
I1
I0
tp162
bS'pringles'
p163
tp164
Rp165
I5
I1
tp166
a(g4
(g5
(S'S3'
p167
I0
I1
tp168
Rp169
(I3
S'|'
p170
NNNI3
I1
I0
tp171
bS'can'
p172
tp173
Rp174
I15
I1
tp175
a(g4
(g5
(S'S5'
p176
I0
I1
tp177
Rp178
(I3
S'|'
p179
NNNI5
I1
I0
tp180
bS'clear'
p181
tp182
Rp183
I15
I1
tp184
a(g4
(g5
(S'S5'
p185
I0
I1
tp186
Rp187
(I3
S'|'
p188
NNNI5
I1
I0
tp189
bS'block'
p190
tp191
Rp192
I5
I0
tp193
a(g192
I14
I0
tp194
a(g192
I8
I0
tp195
a(g192
I15
I0
tp196
a(g192
I1
I0
tp197
a(g192
I30
I0
tp198
a(g192
I29
I0
tp199
a(g192
I31
I0
tp200
a(g4
(g5
(S'S3'
p201
I0
I1
tp202
Rp203
(I3
S'|'
p204
NNNI3
I1
I0
tp205
bS'can'
p206
tp207
Rp208
I31
I1
tp209
a(g4
(g5
(S'S5'
p210
I0
I1
tp211
Rp212
(I3
S'|'
p213
NNNI5
I1
I0
tp214
bS'empty'
p215
tp216
Rp217
I14
I0
tp218
a(g4
(g5
(S'S8'
p219
I0
I1
tp220
Rp221
(I3
S'|'
p222
NNNI8
I1
I0
tp223
bS'pringles'
p224
tp225
Rp226
I1
I1
tp227
a(g4
(g5
(S'S5'
p228
I0
I1
tp229
Rp230
(I3
S'|'
p231
NNNI5
I1
I0
tp232
bS'empty'
p233
tp234
Rp235
I31
I0
tp236
a(g4
(g5
(S'S4'
p237
I0
I1
tp238
Rp239
(I3
S'|'
p240
NNNI4
I1
I0
tp241
bS'bean'
p242
tp243
Rp244
I5
I0
tp245
a(g244
I14
I0
tp246
a(g244
I8
I0
tp247
a(g244
I15
I0
tp248
a(g244
I1
I0
tp249
a(g244
I30
I0
tp250
a(g244
I29
I0
tp251
a(g244
I31
I0
tp252
aa(lp253
a.