(lp0
(lp1
(dp2
S'action'
p3
cnumpy.core.multiarray
scalar
p4
(cnumpy
dtype
p5
(S'S4'
p6
I0
I1
tp7
Rp8
(I3
S'|'
p9
NNNI4
I1
I0
tp10
bS'walk'
p11
tp12
Rp13
sS'recipient'
p14
NsS'patient'
p15
NsS'goal'
p16
S'3514'
p17
sS'source'
p18
Nsa(dp19
g3
g4
(g5
(S'S4'
p20
I0
I1
tp21
Rp22
(I3
S'|'
p23
NNNI4
I1
I0
tp24
bS'move'
p25
tp26
Rp27
sg14
Nsg15
S'oidx_25'
p28
sg16
S'3406'
p29
sg18
g17
sa(dp30
g3
g4
(g5
(S'S4'
p31
I0
I1
tp32
Rp33
(I3
S'|'
p34
NNNI4
I1
I0
tp35
bS'move'
p36
tp37
Rp38
sg14
Nsg15
S'oidx_22'
p39
sg16
S'3506'
p40
sg18
g4
(g5
(S'S4'
p41
I0
I1
tp42
Rp43
(I3
S'|'
p44
NNNI4
I1
I0
tp45
bS'3514'
p46
tp47
Rp48
saa(lp49
(dp50
S'all'
p51
(lp52
S'go to mr david dave daniel'
p53
asg15
(lp54
sg16
(lp55
S'd'
p56
aS'office d'
p57
aS'lab'
p58
asg18
(lp59
sg3
(lp60
sg14
(lp61
sa(dp62
g51
(lp63
S'get the object'
p64
asg15
(lp65
S'cylinder'
p66
aS'cylinder'
p67
asg16
(lp68
S'here'
p69
asg18
(lp70
S'there'
p71
asg3
(lp72
sg14
(lp73
sa(dp74
g51
(lp75
S'move the object to m'
p76
asg15
(lp77
S'container'
p78
asg16
(lp79
S'to m'
p80
asg18
(lp81
S'there'
p82
asg3
(lp83
sg14
(lp84
saa(lp85
(g4
(g5
(S'S5'
p86
I0
I1
tp87
Rp88
(I3
S'|'
p89
NNNI5
I1
I0
tp90
bS'small'
p91
tp92
Rp93
I5
I0
tp94
a(g93
I14
I0
tp95
a(g93
I8
I0
tp96
a(g93
I15
I0
tp97
a(g93
I1
I0
tp98
a(g93
I30
I0
tp99
a(g93
I29
I0
tp100
a(g93
I31
I0
tp101
a(g4
(g5
(S'S4'
p102
I0
I1
tp103
Rp104
(I3
S'|'
p105
NNNI4
I1
I0
tp106
bS'long'
p107
tp108
Rp109
I5
I0
tp110
a(g4
(g5
(S'S5'
p111
I0
I1
tp112
Rp113
(I3
S'|'
p114
NNNI5
I1
I0
tp115
bS'spice'
p116
tp117
Rp118
I5
I0
tp119
a(g118
I14
I0
tp120
a(g118
I8
I0
tp121
a(g118
I15
I0
tp122
a(g118
I1
I0
tp123
a(g118
I30
I0
tp124
a(g118
I29
I0
tp125
a(g118
I31
I0
tp126
a(g4
(g5
(S'S9'
p127
I0
I1
tp128
Rp129
(I3
S'|'
p130
NNNI9
I1
I0
tp131
bS'styrofoam'
p132
tp133
Rp134
I30
I1
tp135
a(g4
(g5
(S'S9'
p136
I0
I1
tp137
Rp138
(I3
S'|'
p139
NNNI9
I1
I0
tp140
bS'styrofoam'
p141
tp142
Rp143
I14
I0
tp144
a(g4
(g5
(S'S9'
p145
I0
I1
tp146
Rp147
(I3
S'|'
p148
NNNI9
I1
I0
tp149
bS'container'
p150
tp151
Rp152
I14
I0
tp153
a(g4
(g5
(S'S6'
p154
I0
I1
tp155
Rp156
(I3
S'|'
p157
NNNI6
I1
I0
tp158
bS'column'
p159
tp160
Rp161
I5
I0
tp162
a(g161
I14
I0
tp163
a(g161
I8
I0
tp164
a(g161
I15
I0
tp165
a(g161
I1
I0
tp166
a(g161
I30
I0
tp167
a(g161
I29
I0
tp168
a(g161
I31
I0
tp169
a(g4
(g5
(S'S8'
p170
I0
I1
tp171
Rp172
(I3
S'|'
p173
NNNI8
I1
I0
tp174
bS'cylinder'
p175
tp176
Rp177
I14
I1
tp178
a(g4
(g5
(S'S5'
p179
I0
I1
tp180
Rp181
(I3
S'|'
p182
NNNI5
I1
I0
tp183
bS'empty'
p184
tp185
Rp186
I31
I0
tp187
a(g4
(g5
(S'S8'
p188
I0
I1
tp189
Rp190
(I3
S'|'
p191
NNNI8
I1
I0
tp192
bS'cylinder'
p193
tp194
Rp195
I15
I1
tp196
a(g4
(g5
(S'S9'
p197
I0
I1
tp198
Rp199
(I3
S'|'
p200
NNNI9
I1
I0
tp201
bS'container'
p202
tp203
Rp204
I14
I0
tp205
a(g4
(g5
(S'S9'
p206
I0
I1
tp207
Rp208
(I3
S'|'
p209
NNNI9
I1
I0
tp210
bS'container'
p211
tp212
Rp213
I15
I0
tp214
a(g4
(g5
(S'S9'
p215
I0
I1
tp216
Rp217
(I3
S'|'
p218
NNNI9
I1
I0
tp219
bS'container'
p220
tp221
Rp222
I8
I0
tp223
a(g4
(g5
(S'S9'
p224
I0
I1
tp225
Rp226
(I3
S'|'
p227
NNNI9
I1
I0
tp228
bS'container'
p229
tp230
Rp231
I5
I0
tp232
a(g4
(g5
(S'S9'
p233
I0
I1
tp234
Rp235
(I3
S'|'
p236
NNNI9
I1
I0
tp237
bS'container'
p238
tp239
Rp240
I29
I0
tp241
aa(lp242
a.