(lp0
(lp1
(dp2
S'action'
p3
cnumpy.core.multiarray
scalar
p4
(cnumpy
dtype
p5
(S'S4'
p6
I0
I1
tp7
Rp8
(I3
S'|'
p9
NNNI4
I1
I0
tp10
bS'walk'
p11
tp12
Rp13
sS'recipient'
p14
NsS'patient'
p15
NsS'goal'
p16
S'3506'
p17
sS'source'
p18
Nsa(dp19
g3
g4
(g5
(S'S5'
p20
I0
I1
tp21
Rp22
(I3
S'|'
p23
NNNI5
I1
I0
tp24
bS'bring'
p25
tp26
Rp27
sg14
S'p'
p28
sg15
g4
(g5
(S'S7'
p29
I0
I1
tp30
Rp31
(I3
S'|'
p32
NNNI7
I1
I0
tp33
bS'oidx_22'
p34
tp35
Rp36
sg16
Nsg18
Nsa(dp37
g3
g4
(g5
(S'S5'
p38
I0
I1
tp39
Rp40
(I3
S'|'
p41
NNNI5
I1
I0
tp42
bS'bring'
p43
tp44
Rp45
sg14
g4
(g5
(S'S1'
p46
I0
I1
tp47
Rp48
(I3
S'|'
p49
NNNI1
I1
I0
tp50
bS'h'
p51
tp52
Rp53
sg15
g4
(g5
(S'S7'
p54
I0
I1
tp55
Rp56
(I3
S'|'
p57
NNNI7
I1
I0
tp58
bS'oidx_11'
p59
tp60
Rp61
sg16
Nsg18
Nsaa(lp62
(dp63
S'all'
p64
(lp65
S'can you go to the printer'
p66
asg15
(lp67
sg16
(lp68
S'office r'
p69
asg18
(lp70
sg3
(lp71
sg14
(lp72
sa(dp73
g64
(lp74
S'container in office w'
p75
asg15
(lp76
S'a jar'
p77
aS'a jar of peanuts'
p78
aS'a jar of peanuts'
p79
asg16
(lp80
sg18
(lp81
sg3
(lp82
sg14
(lp83
sa(dp84
g64
(lp85
S'deliver a yellow can'
p86
asg15
(lp87
sg16
(lp88
sg18
(lp89
sg3
(lp90
sg14
(lp91
S'the lounge'
p92
aS'the lounge'
p93
aS'the lounge'
p94
aS'lounge'
p95
aS'office'
p96
aS'tom'
p97
aS'joe mama'
p98
aS'dr heidi hughes'
p99
asaa(lp100
(g4
(g5
(S'S4'
p101
I0
I1
tp102
Rp103
(I3
S'|'
p104
NNNI4
I1
I0
tp105
bS'bean'
p106
tp107
Rp108
I5
I0
tp109
a(g108
I14
I0
tp110
a(g108
I8
I0
tp111
a(g108
I15
I0
tp112
a(g108
I1
I0
tp113
a(g108
I30
I0
tp114
a(g108
I29
I0
tp115
a(g108
I31
I0
tp116
a(g4
(g5
(S'S3'
p117
I0
I1
tp118
Rp119
(I3
S'|'
p120
NNNI3
I1
I0
tp121
bS'you'
p122
tp123
Rp124
I5
I0
tp125
a(g124
I14
I0
tp126
a(g124
I8
I0
tp127
a(g124
I15
I0
tp128
a(g124
I1
I0
tp129
a(g124
I30
I0
tp130
a(g124
I29
I0
tp131
a(g124
I31
I0
tp132
a(g4
(g5
(S'S5'
p133
I0
I1
tp134
Rp135
(I3
S'|'
p136
NNNI5
I1
I0
tp137
bS'peach'
p138
tp139
Rp140
I5
I0
tp141
a(g140
I14
I0
tp142
a(g140
I8
I0
tp143
a(g140
I15
I0
tp144
a(g140
I1
I0
tp145
a(g140
I30
I0
tp146
a(g140
I29
I0
tp147
a(g140
I31
I0
tp148
a(g4
(g5
(S'S6'
p149
I0
I1
tp150
Rp151
(I3
S'|'
p152
NNNI6
I1
I0
tp153
bS'yellow'
p154
tp155
Rp156
I5
I1
tp157
a(g4
(g5
(S'S9'
p158
I0
I1
tp159
Rp160
(I3
S'|'
p161
NNNI9
I1
I0
tp162
bS'container'
p163
tp164
Rp165
I30
I0
tp166
a(g4
(g5
(S'S5'
p167
I0
I1
tp168
Rp169
(I3
S'|'
p170
NNNI5
I1
I0
tp171
bS'white'
p172
tp173
Rp174
I5
I0
tp175
a(g174
I14
I0
tp176
a(g174
I8
I0
tp177
a(g174
I15
I0
tp178
a(g174
I1
I0
tp179
a(g174
I30
I0
tp180
a(g174
I29
I0
tp181
a(g174
I31
I0
tp182
a(g4
(g5
(S'S8'
p183
I0
I1
tp184
Rp185
(I3
S'|'
p186
NNNI8
I1
I0
tp187
bS'cylinder'
p188
tp189
Rp190
I8
I1
tp191
a(g4
(g5
(S'S6'
p192
I0
I1
tp193
Rp194
(I3
S'|'
p195
NNNI6
I1
I0
tp196
bS'coffee'
p197
tp198
Rp199
I30
I1
tp200
a(g4
(g5
(S'S8'
p201
I0
I1
tp202
Rp203
(I3
S'|'
p204
NNNI8
I1
I0
tp205
bS'pringles'
p206
tp207
Rp208
I5
I0
tp209
a(g208
I14
I0
tp210
a(g208
I8
I0
tp211
a(g208
I15
I0
tp212
a(g208
I1
I0
tp213
a(g208
I30
I0
tp214
a(g208
I29
I0
tp215
a(g208
I31
I0
tp216
a(g4
(g5
(S'S3'
p217
I0
I1
tp218
Rp219
(I3
S'|'
p220
NNNI3
I1
I0
tp221
bS'can'
p222
tp223
Rp224
I5
I0
tp225
a(g4
(g5
(S'S6'
p226
I0
I1
tp227
Rp228
(I3
S'|'
p229
NNNI6
I1
I0
tp230
bS'yellow'
p231
tp232
Rp233
I15
I0
tp234
a(g4
(g5
(S'S3'
p235
I0
I1
tp236
Rp237
(I3
S'|'
p238
NNNI3
I1
I0
tp239
bS'can'
p240
tp241
Rp242
I31
I0
tp243
a(g4
(g5
(S'S6'
p244
I0
I1
tp245
Rp246
(I3
S'|'
p247
NNNI6
I1
I0
tp248
bS'yellow'
p249
tp250
Rp251
I8
I0
tp252
a(g4
(g5
(S'S3'
p253
I0
I1
tp254
Rp255
(I3
S'|'
p256
NNNI3
I1
I0
tp257
bS'can'
p258
tp259
Rp260
I1
I0
tp261
a(g4
(g5
(S'S3'
p262
I0
I1
tp263
Rp264
(I3
S'|'
p265
NNNI3
I1
I0
tp266
bS'can'
p267
tp268
Rp269
I30
I0
tp270
aa(lp271
(S'you'
p272
S'can'
p273
I00
tp274
a(S'mama'
p275
S'peaches'
p276
I00
tp277
a(g275
S'beans'
p278
I00
tp279
aa.