(lp0
(lp1
(dp2
S'action'
p3
cnumpy.core.multiarray
scalar
p4
(cnumpy
dtype
p5
(S'S4'
p6
I0
I1
tp7
Rp8
(I3
S'|'
p9
NNNI4
I1
I0
tp10
bS'walk'
p11
tp12
Rp13
sS'recipient'
p14
NsS'patient'
p15
NsS'goal'
p16
S'3418'
p17
sS'source'
p18
Nsa(dp19
g3
g4
(g5
(S'S5'
p20
I0
I1
tp21
Rp22
(I3
S'|'
p23
NNNI5
I1
I0
tp24
bS'bring'
p25
tp26
Rp27
sg14
S'n'
p28
sg15
S'oidx_12'
p29
sg16
Nsg18
Nsa(dp30
g3
g4
(g5
(S'S5'
p31
I0
I1
tp32
Rp33
(I3
S'|'
p34
NNNI5
I1
I0
tp35
bS'bring'
p36
tp37
Rp38
sg14
S'm'
p39
sg15
S'oidx_11'
p40
sg16
Nsg18
Nsaa(lp41
(dp42
S'all'
p43
(lp44
S''
p45
asg15
(lp46
sg16
(lp47
S'go to red mark'
p48
aS'yes'
p49
aS'office'
p50
aS'small'
p51
aS'move'
p52
aS'you should go to office h'
p53
aS'office d'
p54
aS'no'
p55
aS'small'
p56
asg18
(lp57
sg3
(lp58
sg14
(lp59
sa(dp60
g43
(lp61
S'move'
p62
asg15
(lp63
S'yellow'
p64
aS'yes'
p65
asg16
(lp66
sg18
(lp67
sg3
(lp68
sg14
(lp69
sa(dp70
g43
(lp71
S'move'
p72
asg15
(lp73
S'yes'
p74
aS'yes'
p75
asg16
(lp76
sg18
(lp77
sg3
(lp78
sg14
(lp79
saa(lp80
(g4
(g5
(S'S8'
p81
I0
I1
tp82
Rp83
(I3
S'|'
p84
NNNI8
I1
I0
tp85
bS'pringles'
p86
tp87
Rp88
I5
I1
tp89
a(g4
(g5
(S'S5'
p90
I0
I1
tp91
Rp92
(I3
S'|'
p93
NNNI5
I1
I0
tp94
bS'empty'
p95
tp96
Rp97
I14
I0
tp98
a(g4
(g5
(S'S3'
p99
I0
I1
tp100
Rp101
(I3
S'|'
p102
NNNI3
I1
I0
tp103
bS'can'
p104
tp105
Rp106
I15
I1
tp107
a(g4
(g5
(S'S5'
p108
I0
I1
tp109
Rp110
(I3
S'|'
p111
NNNI5
I1
I0
tp112
bS'small'
p113
tp114
Rp115
I31
I1
tp116
a(g4
(g5
(S'S4'
p117
I0
I1
tp118
Rp119
(I3
S'|'
p120
NNNI4
I1
I0
tp121
bS'long'
p122
tp123
Rp124
I29
I0
tp125
a(g4
(g5
(S'S3'
p126
I0
I1
tp127
Rp128
(I3
S'|'
p129
NNNI3
I1
I0
tp130
bS'red'
p131
tp132
Rp133
I14
I1
tp134
a(g4
(g5
(S'S6'
p135
I0
I1
tp136
Rp137
(I3
S'|'
p138
NNNI6
I1
I0
tp139
bS'yellow'
p140
tp141
Rp142
I1
I1
tp143
a(g4
(g5
(S'S8'
p144
I0
I1
tp145
Rp146
(I3
S'|'
p147
NNNI8
I1
I0
tp148
bS'metallic'
p149
tp150
Rp151
I1
I1
tp152
a(g4
(g5
(S'S3'
p153
I0
I1
tp154
Rp155
(I3
S'|'
p156
NNNI3
I1
I0
tp157
bS'can'
p158
tp159
Rp160
I29
I1
tp161
a(g4
(g5
(S'S6'
p162
I0
I1
tp163
Rp164
(I3
S'|'
p165
NNNI6
I1
I0
tp166
bS'coffee'
p167
tp168
Rp169
I29
I1
tp170
a(g4
(g5
(S'S6'
p171
I0
I1
tp172
Rp173
(I3
S'|'
p174
NNNI6
I1
I0
tp175
bS'coffee'
p176
tp177
Rp178
I31
I1
tp179
a(g4
(g5
(S'S8'
p180
I0
I1
tp181
Rp182
(I3
S'|'
p183
NNNI8
I1
I0
tp184
bS'metallic'
p185
tp186
Rp187
I15
I1
tp188
a(g4
(g5
(S'S4'
p189
I0
I1
tp190
Rp191
(I3
S'|'
p192
NNNI4
I1
I0
tp193
bS'blue'
p194
tp195
Rp196
I30
I1
tp197
a(g4
(g5
(S'S8'
p198
I0
I1
tp199
Rp200
(I3
S'|'
p201
NNNI8
I1
I0
tp202
bS'pringles'
p203
tp204
Rp205
I1
I1
tp206
a(g4
(g5
(S'S3'
p207
I0
I1
tp208
Rp209
(I3
S'|'
p210
NNNI3
I1
I0
tp211
bS'can'
p212
tp213
Rp214
I8
I1
tp215
aa(lp216
(S'red'
p217
S'white'
p218
I00
tp219
a(g217
S'yellow'
p220
I00
tp221
a(g217
S'blue'
p222
I00
tp223
a(S'd'
p224
g4
(g5
(S'S5'
p225
I0
I1
tp226
Rp227
(I3
S'|'
p228
NNNI5
I1
I0
tp229
bS'small'
p230
tp231
Rp232
I01
tp233
aa.