(lp0
(lp1
(dp2
S'action'
p3
cnumpy.core.multiarray
scalar
p4
(cnumpy
dtype
p5
(S'S4'
p6
I0
I1
tp7
Rp8
(I3
S'|'
p9
NNNI4
I1
I0
tp10
bS'walk'
p11
tp12
Rp13
sS'recipient'
p14
NsS'patient'
p15
NsS'goal'
p16
g4
(g5
(S'S4'
p17
I0
I1
tp18
Rp19
(I3
S'|'
p20
NNNI4
I1
I0
tp21
bS'3404'
p22
tp23
Rp24
sS'source'
p25
Nsa(dp26
g3
g4
(g5
(S'S5'
p27
I0
I1
tp28
Rp29
(I3
S'|'
p30
NNNI5
I1
I0
tp31
bS'bring'
p32
tp33
Rp34
sg14
g4
(g5
(S'S1'
p35
I0
I1
tp36
Rp37
(I3
S'|'
p38
NNNI1
I1
I0
tp39
bS'b'
p40
tp41
Rp42
sg15
g4
(g5
(S'S7'
p43
I0
I1
tp44
Rp45
(I3
S'|'
p46
NNNI7
I1
I0
tp47
bS'oidx_25'
p48
tp49
Rp50
sg16
Nsg25
Nsaa(lp51
(dp52
S'all'
p53
(lp54
S"pick up memo at dr nancy nagel 's office"
p55
asg15
(lp56
sg16
(lp57
S"dr nancy nagel 's office"
p58
asg25
(lp59
sg3
(lp60
sg14
(lp61
sa(dp62
g53
(lp63
S'take bottle to bob brown'
p64
asg15
(lp65
S'bottle'
p66
aS'bottle'
p67
aS'vitamin bottle'
p68
asg16
(lp69
sg25
(lp70
sg3
(lp71
sg14
(lp72
S'robert'
p73
asaa(lp74
(g4
(g5
(S'S9'
p75
I0
I1
tp76
Rp77
(I3
S'|'
p78
NNNI9
I1
I0
tp79
bS'styrofoam'
p80
tp81
Rp82
I31
I0
tp83
a(g4
(g5
(S'S9'
p84
I0
I1
tp85
Rp86
(I3
S'|'
p87
NNNI9
I1
I0
tp88
bS'styrofoam'
p89
tp90
Rp91
I30
I0
tp92
a(g4
(g5
(S'S8'
p93
I0
I1
tp94
Rp95
(I3
S'|'
p96
NNNI8
I1
I0
tp97
bS'cylinder'
p98
tp99
Rp100
I14
I1
tp101
a(g4
(g5
(S'S5'
p102
I0
I1
tp103
Rp104
(I3
S'|'
p105
NNNI5
I1
I0
tp106
bS'tower'
p107
tp108
Rp109
I5
I0
tp110
a(g109
I14
I0
tp111
a(g109
I8
I0
tp112
a(g109
I15
I0
tp113
a(g109
I1
I0
tp114
a(g109
I30
I0
tp115
a(g109
I29
I0
tp116
a(g109
I31
I0
tp117
a(g4
(g5
(S'S5'
p118
I0
I1
tp119
Rp120
(I3
S'|'
p121
NNNI5
I1
I0
tp122
bS'spice'
p123
tp124
Rp125
I5
I0
tp126
a(g125
I14
I0
tp127
a(g125
I8
I0
tp128
a(g125
I15
I0
tp129
a(g125
I1
I0
tp130
a(g125
I30
I0
tp131
a(g125
I29
I0
tp132
a(g125
I31
I0
tp133
a(g4
(g5
(S'S9'
p134
I0
I1
tp135
Rp136
(I3
S'|'
p137
NNNI9
I1
I0
tp138
bS'container'
p139
tp140
Rp141
I15
I0
tp142
a(g4
(g5
(S'S3'
p143
I0
I1
tp144
Rp145
(I3
S'|'
p146
NNNI3
I1
I0
tp147
bS'can'
p148
tp149
Rp150
I29
I0
tp151
a(g4
(g5
(S'S3'
p152
I0
I1
tp153
Rp154
(I3
S'|'
p155
NNNI3
I1
I0
tp156
bS'can'
p157
tp158
Rp159
I15
I1
tp160
a(g4
(g5
(S'S9'
p161
I0
I1
tp162
Rp163
(I3
S'|'
p164
NNNI9
I1
I0
tp165
bS'styrofoam'
p166
tp167
Rp168
I14
I0
tp169
a(g4
(g5
(S'S4'
p170
I0
I1
tp171
Rp172
(I3
S'|'
p173
NNNI4
I1
I0
tp174
bS'long'
p175
tp176
Rp177
I1
I0
tp178
aa(lp179
(S'memo'
p180
S'column'
p181
I00
tp182
aa.