(lp0
(lp1
(dp2
S'action'
p3
cnumpy.core.multiarray
scalar
p4
(cnumpy
dtype
p5
(S'S5'
p6
I0
I1
tp7
Rp8
(I3
S'|'
p9
NNNI5
I1
I0
tp10
bS'bring'
p11
tp12
Rp13
sS'recipient'
p14
g4
(g5
(S'S1'
p15
I0
I1
tp16
Rp17
(I3
S'|'
p18
NNNI1
I1
I0
tp19
bS'w'
p20
tp21
Rp22
sS'patient'
p23
S'oidx_26'
p24
sS'goal'
p25
NsS'source'
p26
Nsa(dp27
g3
g4
(g5
(S'S5'
p28
I0
I1
tp29
Rp30
(I3
S'|'
p31
NNNI5
I1
I0
tp32
bS'bring'
p33
tp34
Rp35
sg14
g4
(g5
(S'S1'
p36
I0
I1
tp37
Rp38
(I3
S'|'
p39
NNNI1
I1
I0
tp40
bS'n'
p41
tp42
Rp43
sg23
g4
(g5
(S'S6'
p44
I0
I1
tp45
Rp46
(I3
S'|'
p47
NNNI6
I1
I0
tp48
bS'oidx_6'
p49
tp50
Rp51
sg25
Nsg26
Nsaa(lp52
(dp53
S'all'
p54
(lp55
S'go to the x on the green map'
p56
asg23
(lp57
S'styrofoam'
p58
aS'styrofoam'
p59
asg25
(lp60
sg26
(lp61
sg3
(lp62
sg14
(lp63
sa(dp64
g54
(lp65
S'deliver this object to dr nancy nagel'
p66
asg23
(lp67
S'the bottle'
p68
aS'the small bottle'
p69
aS'the small white bottle'
p70
asg25
(lp71
sg26
(lp72
sg3
(lp73
sg14
(lp74
saa(lp75
(g4
(g5
(S'S3'
p76
I0
I1
tp77
Rp78
(I3
S'|'
p79
NNNI3
I1
I0
tp80
bS'map'
p81
tp82
Rp83
I5
I0
tp84
a(g83
I14
I0
tp85
a(g83
I8
I0
tp86
a(g83
I15
I0
tp87
a(g83
I1
I0
tp88
a(g83
I30
I0
tp89
a(g83
I29
I0
tp90
a(g83
I31
I0
tp91
a(g4
(g5
(S'S5'
p92
I0
I1
tp93
Rp94
(I3
S'|'
p95
NNNI5
I1
I0
tp96
bS'white'
p97
tp98
Rp99
I5
I0
tp100
a(g99
I14
I0
tp101
a(g99
I8
I0
tp102
a(g99
I15
I0
tp103
a(g99
I1
I0
tp104
a(g99
I30
I0
tp105
a(g99
I29
I0
tp106
a(g99
I31
I0
tp107
a(g4
(g5
(S'S6'
p108
I0
I1
tp109
Rp110
(I3
S'|'
p111
NNNI6
I1
I0
tp112
bS'coffee'
p113
tp114
Rp115
I8
I1
tp116
a(g4
(g5
(S'S9'
p117
I0
I1
tp118
Rp119
(I3
S'|'
p120
NNNI9
I1
I0
tp121
bS'styrofoam'
p122
tp123
Rp124
I31
I0
tp125
a(g4
(g5
(S'S9'
p126
I0
I1
tp127
Rp128
(I3
S'|'
p129
NNNI9
I1
I0
tp130
bS'styrofoam'
p131
tp132
Rp133
I30
I0
tp134
a(g4
(g5
(S'S9'
p135
I0
I1
tp136
Rp137
(I3
S'|'
p138
NNNI9
I1
I0
tp139
bS'container'
p140
tp141
Rp142
I5
I1
tp143
a(g142
I14
I1
tp144
a(g142
I8
I1
tp145
a(g142
I15
I1
tp146
a(g142
I1
I1
tp147
a(g142
I30
I1
tp148
a(g142
I29
I1
tp149
a(g142
I31
I1
tp150
a(g4
(g5
(S'S9'
p151
I0
I1
tp152
Rp153
(I3
S'|'
p154
NNNI9
I1
I0
tp155
bS'styrofoam'
p156
tp157
Rp158
I8
I0
tp159
a(g4
(g5
(S'S5'
p160
I0
I1
tp161
Rp162
(I3
S'|'
p163
NNNI5
I1
I0
tp164
bS'peach'
p165
tp166
Rp167
I5
I0
tp168
a(g167
I14
I0
tp169
a(g167
I8
I0
tp170
a(g167
I15
I0
tp171
a(g167
I1
I0
tp172
a(g167
I30
I0
tp173
a(g167
I29
I0
tp174
a(g167
I31
I0
tp175
a(g4
(g5
(S'S4'
p176
I0
I1
tp177
Rp178
(I3
S'|'
p179
NNNI4
I1
I0
tp180
bS'blue'
p181
tp182
Rp183
I29
I1
tp184
a(g4
(g5
(S'S4'
p185
I0
I1
tp186
Rp187
(I3
S'|'
p188
NNNI4
I1
I0
tp189
bS'bean'
p190
tp191
Rp192
I5
I0
tp193
a(g192
I14
I0
tp194
a(g192
I8
I0
tp195
a(g192
I15
I0
tp196
a(g192
I1
I0
tp197
a(g192
I30
I0
tp198
a(g192
I29
I0
tp199
a(g192
I31
I0
tp200
aa(lp201
(S'green'
p202
S'white'
p203
I01
tp204
a(S'map'
p205
S'blue'
p206
I00
tp207
aa.