(lp0
(lp1
(dp2
S'action'
p3
cnumpy.core.multiarray
scalar
p4
(cnumpy
dtype
p5
(S'S4'
p6
I0
I1
tp7
Rp8
(I3
S'|'
p9
NNNI4
I1
I0
tp10
bS'walk'
p11
tp12
Rp13
sS'recipient'
p14
NsS'patient'
p15
NsS'goal'
p16
g4
(g5
(S'S4'
p17
I0
I1
tp18
Rp19
(I3
S'|'
p20
NNNI4
I1
I0
tp21
bS'3506'
p22
tp23
Rp24
sS'source'
p25
Nsa(dp26
g3
g4
(g5
(S'S5'
p27
I0
I1
tp28
Rp29
(I3
S'|'
p30
NNNI5
I1
I0
tp31
bS'bring'
p32
tp33
Rp34
sg14
g4
(g5
(S'S1'
p35
I0
I1
tp36
Rp37
(I3
S'|'
p38
NNNI1
I1
I0
tp39
bS'n'
p40
tp41
Rp42
sg15
g4
(g5
(S'S7'
p43
I0
I1
tp44
Rp45
(I3
S'|'
p46
NNNI7
I1
I0
tp47
bS'oidx_26'
p48
tp49
Rp50
sg16
Nsg25
Nsa(dp51
g3
g4
(g5
(S'S5'
p52
I0
I1
tp53
Rp54
(I3
S'|'
p55
NNNI5
I1
I0
tp56
bS'bring'
p57
tp58
Rp59
sg14
g4
(g5
(S'S1'
p60
I0
I1
tp61
Rp62
(I3
S'|'
p63
NNNI1
I1
I0
tp64
bg40
tp65
Rp66
sg15
g4
(g5
(S'S7'
p67
I0
I1
tp68
Rp69
(I3
S'|'
p70
NNNI7
I1
I0
tp71
bS'oidx_22'
p72
tp73
Rp74
sg16
Nsg25
Nsaa(lp75
(dp76
S'all'
p77
(lp78
S'move to the printer room'
p79
asg15
(lp80
sg16
(lp81
sg25
(lp82
sg3
(lp83
sg14
(lp84
sa(dp85
g77
(lp86
S'give the red soda can to person n'
p87
asg15
(lp88
S'a red can'
p89
aS'a red can'
p90
asg16
(lp91
sg25
(lp92
sg3
(lp93
sg14
(lp94
S'nancy'
p95
asa(dp96
g77
(lp97
S'give nancy the clear can'
p98
asg15
(lp99
S'yes'
p100
aS'a clear coffee container'
p101
aS'coffee'
p102
aS'clear container'
p103
aS'a clear can of coffee to nancy'
p104
aS'a can of coffee to nancy'
p105
aS'a clear can with a red top'
p106
aS'a red can'
p107
asg16
(lp108
sg25
(lp109
sg3
(lp110
sg14
(lp111
S'nancy'
p112
asaa(lp113
(g4
(g5
(S'S6'
p114
I0
I1
tp115
Rp116
(I3
S'|'
p117
NNNI6
I1
I0
tp118
bS'coffee'
p119
tp120
Rp121
I5
I0
tp122
a(g121
I14
I0
tp123
a(g121
I8
I0
tp124
a(g121
I15
I0
tp125
a(g121
I1
I0
tp126
a(g121
I30
I0
tp127
a(g121
I29
I0
tp128
a(g121
I31
I0
tp129
a(g4
(g5
(S'S4'
p130
I0
I1
tp131
Rp132
(I3
S'|'
p133
NNNI4
I1
I0
tp134
bS'bean'
p135
tp136
Rp137
I5
I0
tp138
a(g137
I14
I0
tp139
a(g137
I8
I0
tp140
a(g137
I15
I0
tp141
a(g137
I1
I0
tp142
a(g137
I30
I0
tp143
a(g137
I29
I0
tp144
a(g137
I31
I0
tp145
a(g4
(g5
(S'S4'
p146
I0
I1
tp147
Rp148
(I3
S'|'
p149
NNNI4
I1
I0
tp150
bS'blue'
p151
tp152
Rp153
I30
I0
tp154
a(g4
(g5
(S'S4'
p155
I0
I1
tp156
Rp157
(I3
S'|'
p158
NNNI4
I1
I0
tp159
bS'long'
p160
tp161
Rp162
I31
I0
tp163
a(g4
(g5
(S'S5'
p164
I0
I1
tp165
Rp166
(I3
S'|'
p167
NNNI5
I1
I0
tp168
bS'white'
p169
tp170
Rp171
I14
I1
tp172
a(g4
(g5
(S'S5'
p173
I0
I1
tp174
Rp175
(I3
S'|'
p176
NNNI5
I1
I0
tp177
bS'small'
p178
tp179
Rp180
I14
I1
tp181
a(g4
(g5
(S'S3'
p182
I0
I1
tp183
Rp184
(I3
S'|'
p185
NNNI3
I1
I0
tp186
bS'red'
p187
tp188
Rp189
I30
I1
tp190
a(g4
(g5
(S'S3'
p191
I0
I1
tp192
Rp193
(I3
S'|'
p194
NNNI3
I1
I0
tp195
bS'can'
p196
tp197
Rp198
I8
I1
tp199
a(g4
(g5
(S'S8'
p200
I0
I1
tp201
Rp202
(I3
S'|'
p203
NNNI8
I1
I0
tp204
bS'pringles'
p205
tp206
Rp207
I5
I0
tp208
a(g207
I14
I0
tp209
a(g207
I8
I0
tp210
a(g207
I15
I0
tp211
a(g207
I1
I0
tp212
a(g207
I30
I0
tp213
a(g207
I29
I0
tp214
a(g207
I31
I0
tp215
a(g4
(g5
(S'S5'
p216
I0
I1
tp217
Rp218
(I3
S'|'
p219
NNNI5
I1
I0
tp220
bS'clear'
p221
tp222
Rp223
I5
I0
tp224
a(g223
I14
I0
tp225
a(g223
I8
I0
tp226
a(g223
I15
I0
tp227
a(g223
I1
I0
tp228
a(g223
I30
I0
tp229
a(g223
I29
I0
tp230
a(g223
I31
I0
tp231
a(g4
(g5
(S'S3'
p232
I0
I1
tp233
Rp234
(I3
S'|'
p235
NNNI3
I1
I0
tp236
bS'can'
p237
tp238
Rp239
I5
I1
tp240
a(g4
(g5
(S'S3'
p241
I0
I1
tp242
Rp243
(I3
S'|'
p244
NNNI3
I1
I0
tp245
bS'can'
p246
tp247
Rp248
I1
I1
tp249
a(g4
(g5
(S'S3'
p250
I0
I1
tp251
Rp252
(I3
S'|'
p253
NNNI3
I1
I0
tp254
bS'can'
p255
tp256
Rp257
I8
I1
tp258
a(g4
(g5
(S'S3'
p259
I0
I1
tp260
Rp261
(I3
S'|'
p262
NNNI3
I1
I0
tp263
bS'can'
p264
tp265
Rp266
I8
I1
tp267
a(g4
(g5
(S'S3'
p268
I0
I1
tp269
Rp270
(I3
S'|'
p271
NNNI3
I1
I0
tp272
bS'can'
p273
tp274
Rp275
I5
I1
tp276
aa(lp277
(S'red'
p278
S'white'
p279
I00
tp280
a(g278
S'yellow'
p281
I00
tp282
a(g278
S'blue'
p283
I00
tp284
aa.