(lp0
(lp1
(dp2
S'action'
p3
cnumpy.core.multiarray
scalar
p4
(cnumpy
dtype
p5
(S'S4'
p6
I0
I1
tp7
Rp8
(I3
S'|'
p9
NNNI4
I1
I0
tp10
bS'walk'
p11
tp12
Rp13
sS'recipient'
p14
NsS'patient'
p15
NsS'goal'
p16
S'3502'
p17
sS'source'
p18
Nsa(dp19
g3
g4
(g5
(S'S5'
p20
I0
I1
tp21
Rp22
(I3
S'|'
p23
NNNI5
I1
I0
tp24
bS'bring'
p25
tp26
Rp27
sg14
g4
(g5
(S'S1'
p28
I0
I1
tp29
Rp30
(I3
S'|'
p31
NNNI1
I1
I0
tp32
bS'b'
p33
tp34
Rp35
sg15
g4
(g5
(S'S7'
p36
I0
I1
tp37
Rp38
(I3
S'|'
p39
NNNI7
I1
I0
tp40
bS'oidx_22'
p41
tp42
Rp43
sg16
Nsg18
Nsa(dp44
g3
g4
(g5
(S'S5'
p45
I0
I1
tp46
Rp47
(I3
S'|'
p48
NNNI5
I1
I0
tp49
bS'bring'
p50
tp51
Rp52
sg14
g4
(g5
(S'S1'
p53
I0
I1
tp54
Rp55
(I3
S'|'
p56
NNNI1
I1
I0
tp57
bS's'
p58
tp59
Rp60
sg15
g4
(g5
(S'S6'
p61
I0
I1
tp62
Rp63
(I3
S'|'
p64
NNNI6
I1
I0
tp65
bS'oidx_6'
p66
tp67
Rp68
sg16
Nsg18
Nsaa(lp69
(dp70
S'all'
p71
(lp72
S"you should go to mallory mal maroon 's office"
p73
asg15
(lp74
sg16
(lp75
S"mallory mal maroon 's office"
p76
asg18
(lp77
sg3
(lp78
sg14
(lp79
sa(dp80
g71
(lp81
S'bring the peanuts to robert bob brown'
p82
asg15
(lp83
S'the peanuts'
p84
aS'peanuts'
p85
asg16
(lp86
sg18
(lp87
sg3
(lp88
sg14
(lp89
sa(dp90
g71
(lp91
S'deliver the pill bottle to dr sybil smalt'
p92
asg15
(lp93
S'the pill bottle'
p94
aS'pill bottle'
p95
aS'the pill bottle'
p96
asg16
(lp97
sg18
(lp98
sg3
(lp99
sg14
(lp100
saa(lp101
(g4
(g5
(S'S5'
p102
I0
I1
tp103
Rp104
(I3
S'|'
p105
NNNI5
I1
I0
tp106
bS'empty'
p107
tp108
Rp109
I31
I0
tp110
a(g4
(g5
(S'S5'
p111
I0
I1
tp112
Rp113
(I3
S'|'
p114
NNNI5
I1
I0
tp115
bS'spice'
p116
tp117
Rp118
I5
I0
tp119
a(g118
I14
I0
tp120
a(g118
I8
I0
tp121
a(g118
I15
I0
tp122
a(g118
I1
I0
tp123
a(g118
I30
I0
tp124
a(g118
I29
I0
tp125
a(g118
I31
I0
tp126
a(g4
(g5
(S'S9'
p127
I0
I1
tp128
Rp129
(I3
S'|'
p130
NNNI9
I1
I0
tp131
bS'styrofoam'
p132
tp133
Rp134
I31
I0
tp135
a(g4
(g5
(S'S5'
p136
I0
I1
tp137
Rp138
(I3
S'|'
p139
NNNI5
I1
I0
tp140
bS'empty'
p141
tp142
Rp143
I1
I0
tp144
a(g4
(g5
(S'S6'
p145
I0
I1
tp146
Rp147
(I3
S'|'
p148
NNNI6
I1
I0
tp149
bS'yellow'
p150
tp151
Rp152
I5
I1
tp153
a(g4
(g5
(S'S5'
p154
I0
I1
tp155
Rp156
(I3
S'|'
p157
NNNI5
I1
I0
tp158
bS'brown'
p159
tp160
Rp161
I5
I0
tp162
a(g161
I14
I0
tp163
a(g161
I8
I0
tp164
a(g161
I15
I0
tp165
a(g161
I1
I0
tp166
a(g161
I30
I0
tp167
a(g161
I29
I0
tp168
a(g161
I31
I0
tp169
a(g4
(g5
(S'S8'
p170
I0
I1
tp171
Rp172
(I3
S'|'
p173
NNNI8
I1
I0
tp174
bS'cylinder'
p175
tp176
Rp177
I31
I1
tp178
a(g4
(g5
(S'S8'
p179
I0
I1
tp180
Rp181
(I3
S'|'
p182
NNNI8
I1
I0
tp183
bS'metallic'
p184
tp185
Rp186
I8
I1
tp187
a(g4
(g5
(S'S8'
p188
I0
I1
tp189
Rp190
(I3
S'|'
p191
NNNI8
I1
I0
tp192
bS'pringles'
p193
tp194
Rp195
I5
I0
tp196
a(g195
I14
I0
tp197
a(g195
I8
I0
tp198
a(g195
I15
I0
tp199
a(g195
I1
I0
tp200
a(g195
I30
I0
tp201
a(g195
I29
I0
tp202
a(g195
I31
I0
tp203
a(g4
(g5
(S'S9'
p204
I0
I1
tp205
Rp206
(I3
S'|'
p207
NNNI9
I1
I0
tp208
bS'styrofoam'
p209
tp210
Rp211
I30
I0
tp212
a(g4
(g5
(S'S9'
p213
I0
I1
tp214
Rp215
(I3
S'|'
p216
NNNI9
I1
I0
tp217
bS'container'
p218
tp219
Rp220
I5
I1
tp221
a(g220
I14
I1
tp222
a(g220
I8
I1
tp223
a(g220
I15
I1
tp224
a(g220
I1
I1
tp225
a(g220
I30
I1
tp226
a(g220
I29
I1
tp227
a(g220
I31
I1
tp228
a(g4
(g5
(S'S4'
p229
I0
I1
tp230
Rp231
(I3
S'|'
p232
NNNI4
I1
I0
tp233
bS'long'
p234
tp235
Rp236
I14
I0
tp237
a(g4
(g5
(S'S4'
p238
I0
I1
tp239
Rp240
(I3
S'|'
p241
NNNI4
I1
I0
tp242
bS'long'
p243
tp244
Rp245
I8
I0
tp246
a(g4
(g5
(S'S5'
p247
I0
I1
tp248
Rp249
(I3
S'|'
p250
NNNI5
I1
I0
tp251
bS'empty'
p252
tp253
Rp254
I14
I0
tp255
a(g4
(g5
(S'S3'
p256
I0
I1
tp257
Rp258
(I3
S'|'
p259
NNNI3
I1
I0
tp260
bS'can'
p261
tp262
Rp263
I31
I0
tp264
aa(lp265
(S'brown'
p266
S'white'
p267
I00
tp268
a(g266
S'yellow'
p269
I00
tp270
a(g266
S'blue'
p271
I00
tp272
aa.