(lp0
(lp1
(dp2
S'action'
p3
cnumpy.core.multiarray
scalar
p4
(cnumpy
dtype
p5
(S'S4'
p6
I0
I1
tp7
Rp8
(I3
S'|'
p9
NNNI4
I1
I0
tp10
bS'walk'
p11
tp12
Rp13
sS'recipient'
p14
NsS'patient'
p15
NsS'goal'
p16
S'3520'
p17
sS'source'
p18
Nsaa(lp19
(dp20
S'all'
p21
(lp22
S'go to the last lab on the farthest right of map then make a left'
p23
asg15
(lp24
sg16
(lp25
S'the office'
p26
aS'the office to the right of dr sybil smalt'
p27
aS'to the left of where you were'
p28
aS'left'
p29
aS'the office next to the s office'
p30
aS'to the farthest right of where you were'
p31
aS'the office to the farthest right'
p32
aS'go to the office next to the one marked with the letter s'
p33
aS'go to the office next to dr sybil smalt'
p34
aS'go to the office on the top right'
p35
aS'the office'
p36
aS"go to the lab and i'l 's direct you from there"
p37
aS'go to the kitchen'
p38
asg18
(lp39
sg3
(lp40
sg14
(lp41
saa(lp42
(g4
(g5
(S'S8'
p43
I0
I1
tp44
Rp45
(I3
S'|'
p46
NNNI8
I1
I0
tp47
bS'pringles'
p48
tp49
Rp50
I5
I0
tp51
a(g50
I14
I0
tp52
a(g50
I8
I0
tp53
a(g50
I15
I0
tp54
a(g50
I1
I0
tp55
a(g50
I30
I0
tp56
a(g50
I29
I0
tp57
a(g50
I31
I0
tp58
a(g4
(g5
(S'S4'
p59
I0
I1
tp60
Rp61
(I3
S'|'
p62
NNNI4
I1
I0
tp63
bS'blue'
p64
tp65
Rp66
I30
I1
tp67
a(g4
(g5
(S'S3'
p68
I0
I1
tp69
Rp70
(I3
S'|'
p71
NNNI3
I1
I0
tp72
bS'can'
p73
tp74
Rp75
I31
I0
tp76
a(g4
(g5
(S'S5'
p77
I0
I1
tp78
Rp79
(I3
S'|'
p80
NNNI5
I1
I0
tp81
bS'empty'
p82
tp83
Rp84
I14
I0
tp85
a(g4
(g5
(S'S5'
p86
I0
I1
tp87
Rp88
(I3
S'|'
p89
NNNI5
I1
I0
tp90
bS'empty'
p91
tp92
Rp93
I1
I0
tp94
aa(lp95
(S'letter'
p96
S'column'
p97
I00
tp98
aa.