(lp0
(lp1
(dp2
S'action'
p3
cnumpy.core.multiarray
scalar
p4
(cnumpy
dtype
p5
(S'S5'
p6
I0
I1
tp7
Rp8
(I3
S'|'
p9
NNNI5
I1
I0
tp10
bS'bring'
p11
tp12
Rp13
sS'recipient'
p14
S'b'
p15
sS'patient'
p16
S'oidx_26'
p17
sS'goal'
p18
NsS'source'
p19
Nsa(dp20
g3
g4
(g5
(S'S4'
p21
I0
I1
tp22
Rp23
(I3
S'|'
p24
NNNI4
I1
I0
tp25
bS'walk'
p26
tp27
Rp28
sg14
Nsg16
Nsg18
S'3430'
p29
sg19
Nsa(dp30
g3
g4
(g5
(S'S4'
p31
I0
I1
tp32
Rp33
(I3
S'|'
p34
NNNI4
I1
I0
tp35
bS'move'
p36
tp37
Rp38
sg14
Nsg16
S'oidx_6'
p39
sg18
S'3518'
p40
sg19
g40
saa(lp41
(dp42
S'all'
p43
(lp44
S'help me'
p45
asg16
(lp46
S'of course'
p47
asg18
(lp48
sg19
(lp49
sg3
(lp50
sg14
(lp51
S'born'
p52
asa(dp53
g43
(lp54
S'want to help'
p55
asg16
(lp56
sg18
(lp57
S'to object'
p58
asg19
(lp59
sg3
(lp60
sg14
(lp61
sa(dp62
g43
(lp63
S'help'
p64
asg16
(lp65
sg18
(lp66
sg19
(lp67
S'yes sure'
p68
aS'office'
p69
aS'yes'
p70
asg3
(lp71
sg14
(lp72
saa(lp73
(g4
(g5
(S'S5'
p74
I0
I1
tp75
Rp76
(I3
S'|'
p77
NNNI5
I1
I0
tp78
bS'block'
p79
tp80
Rp81
I8
I1
tp82
a(g4
(g5
(S'S5'
p83
I0
I1
tp84
Rp85
(I3
S'|'
p86
NNNI5
I1
I0
tp87
bS'small'
p88
tp89
Rp90
I8
I1
tp91
a(g4
(g5
(S'S8'
p92
I0
I1
tp93
Rp94
(I3
S'|'
p95
NNNI8
I1
I0
tp96
bS'cylinder'
p97
tp98
Rp99
I8
I1
tp100
a(g4
(g5
(S'S3'
p101
I0
I1
tp102
Rp103
(I3
S'|'
p104
NNNI3
I1
I0
tp105
bS'can'
p106
tp107
Rp108
I15
I1
tp109
a(g4
(g5
(S'S4'
p110
I0
I1
tp111
Rp112
(I3
S'|'
p113
NNNI4
I1
I0
tp114
bS'bean'
p115
tp116
Rp117
I30
I1
tp118
a(g4
(g5
(S'S5'
p119
I0
I1
tp120
Rp121
(I3
S'|'
p122
NNNI5
I1
I0
tp123
bS'empty'
p124
tp125
Rp126
I31
I0
tp127
a(g4
(g5
(S'S5'
p128
I0
I1
tp129
Rp130
(I3
S'|'
p131
NNNI5
I1
I0
tp132
bS'small'
p133
tp134
Rp135
I5
I0
tp136
a(g4
(g5
(S'S5'
p137
I0
I1
tp138
Rp139
(I3
S'|'
p140
NNNI5
I1
I0
tp141
bS'spice'
p142
tp143
Rp144
I5
I1
tp145
a(g4
(g5
(S'S4'
p146
I0
I1
tp147
Rp148
(I3
S'|'
p149
NNNI4
I1
I0
tp150
bS'long'
p151
tp152
Rp153
I5
I0
tp154
a(g4
(g5
(S'S5'
p155
I0
I1
tp156
Rp157
(I3
S'|'
p158
NNNI5
I1
I0
tp159
bS'spice'
p160
tp161
Rp162
I1
I1
tp163
a(g4
(g5
(S'S5'
p164
I0
I1
tp165
Rp166
(I3
S'|'
p167
NNNI5
I1
I0
tp168
bS'block'
p169
tp170
Rp171
I31
I1
tp172
a(g4
(g5
(S'S8'
p173
I0
I1
tp174
Rp175
(I3
S'|'
p176
NNNI8
I1
I0
tp177
bS'cylinder'
p178
tp179
Rp180
I14
I1
tp181
a(g4
(g5
(S'S4'
p182
I0
I1
tp183
Rp184
(I3
S'|'
p185
NNNI4
I1
I0
tp186
bS'blue'
p187
tp188
Rp189
I30
I0
tp190
a(g4
(g5
(S'S8'
p191
I0
I1
tp192
Rp193
(I3
S'|'
p194
NNNI8
I1
I0
tp195
bS'pringles'
p196
tp197
Rp198
I30
I1
tp199
a(g4
(g5
(S'S8'
p200
I0
I1
tp201
Rp202
(I3
S'|'
p203
NNNI8
I1
I0
tp204
bS'metallic'
p205
tp206
Rp207
I31
I1
tp208
aa(lp209
a.