(lp0
(lp1
(dp2
S'action'
p3
cnumpy.core.multiarray
scalar
p4
(cnumpy
dtype
p5
(S'S5'
p6
I0
I1
tp7
Rp8
(I3
S'|'
p9
NNNI5
I1
I0
tp10
bS'bring'
p11
tp12
Rp13
sS'recipient'
p14
S'm'
p15
sS'patient'
p16
S'oidx_22'
p17
sS'goal'
p18
NsS'source'
p19
Nsa(dp20
g3
g4
(g5
(S'S5'
p21
I0
I1
tp22
Rp23
(I3
S'|'
p24
NNNI5
I1
I0
tp25
bS'bring'
p26
tp27
Rp28
sg14
S'h'
p29
sg16
S'oidx_6'
p30
sg18
Nsg19
Nsaa(lp31
(dp32
S'all'
p33
(lp34
S'go to office h'
p35
asg16
(lp36
S'printer'
p37
aS'printer'
p38
asg18
(lp39
sg19
(lp40
sg3
(lp41
sg14
(lp42
sa(dp43
g33
(lp44
S'bring softdrink'
p45
asg16
(lp46
S'soft drinks'
p47
asg18
(lp48
sg19
(lp49
sg3
(lp50
sg14
(lp51
S'yes'
p52
asaa(lp53
(g4
(g5
(S'S6'
p54
I0
I1
tp55
Rp56
(I3
S'|'
p57
NNNI6
I1
I0
tp58
bS'column'
p59
tp60
Rp61
I5
I0
tp62
a(g61
I14
I0
tp63
a(g61
I8
I0
tp64
a(g61
I15
I0
tp65
a(g61
I1
I0
tp66
a(g61
I30
I0
tp67
a(g61
I29
I0
tp68
a(g61
I31
I0
tp69
a(g4
(g5
(S'S6'
p70
I0
I1
tp71
Rp72
(I3
S'|'
p73
NNNI6
I1
I0
tp74
bS'yellow'
p75
tp76
Rp77
I31
I1
tp78
a(g4
(g5
(S'S6'
p79
I0
I1
tp80
Rp81
(I3
S'|'
p82
NNNI6
I1
I0
tp83
bS'yellow'
p84
tp85
Rp86
I29
I0
tp87
a(g4
(g5
(S'S4'
p88
I0
I1
tp89
Rp90
(I3
S'|'
p91
NNNI4
I1
I0
tp92
bS'long'
p93
tp94
Rp95
I31
I0
tp96
a(g4
(g5
(S'S5'
p97
I0
I1
tp98
Rp99
(I3
S'|'
p100
NNNI5
I1
I0
tp101
bS'white'
p102
tp103
Rp104
I31
I1
tp105
a(g4
(g5
(S'S9'
p106
I0
I1
tp107
Rp108
(I3
S'|'
p109
NNNI9
I1
I0
tp110
bS'container'
p111
tp112
Rp113
I1
I0
tp114
a(g4
(g5
(S'S3'
p115
I0
I1
tp116
Rp117
(I3
S'|'
p118
NNNI3
I1
I0
tp119
bS'can'
p120
tp121
Rp122
I15
I1
tp123
a(g4
(g5
(S'S5'
p124
I0
I1
tp125
Rp126
(I3
S'|'
p127
NNNI5
I1
I0
tp128
bS'empty'
p129
tp130
Rp131
I14
I1
tp132
a(g4
(g5
(S'S5'
p133
I0
I1
tp134
Rp135
(I3
S'|'
p136
NNNI5
I1
I0
tp137
bS'small'
p138
tp139
Rp140
I1
I1
tp141
a(g4
(g5
(S'S5'
p142
I0
I1
tp143
Rp144
(I3
S'|'
p145
NNNI5
I1
I0
tp146
bS'white'
p147
tp148
Rp149
I14
I1
tp150
aa(lp151
(S'soft'
p152
S'blue'
p153
I01
tp154
a(S'drinks'
p155
S'coffee'
p156
I01
tp157
aa.