(lp0
(lp1
(dp2
S'action'
p3
cnumpy.core.multiarray
scalar
p4
(cnumpy
dtype
p5
(S'S4'
p6
I0
I1
tp7
Rp8
(I3
S'|'
p9
NNNI4
I1
I0
tp10
bS'walk'
p11
tp12
Rp13
sS'recipient'
p14
NsS'patient'
p15
NsS'goal'
p16
S'3418'
p17
sS'source'
p18
Nsa(dp19
g3
g4
(g5
(S'S4'
p20
I0
I1
tp21
Rp22
(I3
S'|'
p23
NNNI4
I1
I0
tp24
bS'walk'
p25
tp26
Rp27
sg14
Nsg15
Nsg16
S'3512'
p28
sg18
Nsa(dp29
g3
g4
(g5
(S'S4'
p30
I0
I1
tp31
Rp32
(I3
S'|'
p33
NNNI4
I1
I0
tp34
bS'walk'
p35
tp36
Rp37
sg14
Nsg15
Nsg16
S'3404'
p38
sg18
Nsaa(lp39
(dp40
S'all'
p41
(lp42
S'go to n office'
p43
asg15
(lp44
sg16
(lp45
S'go to s office'
p46
asg18
(lp47
sg3
(lp48
sg14
(lp49
sa(dp50
g41
(lp51
S'go to n office'
p52
asg15
(lp53
sg16
(lp54
S'go to w office'
p55
asg18
(lp56
sg3
(lp57
sg14
(lp58
sa(dp59
g41
(lp60
S'go to n office'
p61
asg15
(lp62
sg16
(lp63
S'go to n office'
p64
aS'go to office n'
p65
aS'go to office'
p66
aS'go into the hall'
p67
asg18
(lp68
sg3
(lp69
sg14
(lp70
saa(lp71
(g4
(g5
(S'S5'
p72
I0
I1
tp73
Rp74
(I3
S'|'
p75
NNNI5
I1
I0
tp76
bS'small'
p77
tp78
Rp79
I14
I1
tp80
a(g4
(g5
(S'S3'
p81
I0
I1
tp82
Rp83
(I3
S'|'
p84
NNNI3
I1
I0
tp85
bS'can'
p86
tp87
Rp88
I31
I0
tp89
a(g4
(g5
(S'S4'
p90
I0
I1
tp91
Rp92
(I3
S'|'
p93
NNNI4
I1
I0
tp94
bS'bean'
p95
tp96
Rp97
I5
I0
tp98
a(g97
I14
I0
tp99
a(g97
I8
I0
tp100
a(g97
I15
I0
tp101
a(g97
I1
I0
tp102
a(g97
I30
I0
tp103
a(g97
I29
I0
tp104
a(g97
I31
I0
tp105
a(g4
(g5
(S'S5'
p106
I0
I1
tp107
Rp108
(I3
S'|'
p109
NNNI5
I1
I0
tp110
bS'clear'
p111
tp112
Rp113
I5
I0
tp114
a(g113
I14
I0
tp115
a(g113
I8
I0
tp116
a(g113
I15
I0
tp117
a(g113
I1
I0
tp118
a(g113
I30
I0
tp119
a(g113
I29
I0
tp120
a(g113
I31
I0
tp121
a(g4
(g5
(S'S9'
p122
I0
I1
tp123
Rp124
(I3
S'|'
p125
NNNI9
I1
I0
tp126
bS'container'
p127
tp128
Rp129
I5
I1
tp130
a(g129
I14
I1
tp131
a(g129
I8
I1
tp132
a(g129
I15
I1
tp133
a(g129
I1
I1
tp134
a(g129
I30
I1
tp135
a(g129
I29
I1
tp136
a(g129
I31
I1
tp137
a(g4
(g5
(S'S5'
p138
I0
I1
tp139
Rp140
(I3
S'|'
p141
NNNI5
I1
I0
tp142
bS'empty'
p143
tp144
Rp145
I14
I0
tp146
a(g4
(g5
(S'S4'
p147
I0
I1
tp148
Rp149
(I3
S'|'
p150
NNNI4
I1
I0
tp151
bS'long'
p152
tp153
Rp154
I14
I0
tp155
a(g4
(g5
(S'S6'
p156
I0
I1
tp157
Rp158
(I3
S'|'
p159
NNNI6
I1
I0
tp160
bS'coffee'
p161
tp162
Rp163
I30
I1
tp164
a(g4
(g5
(S'S8'
p165
I0
I1
tp166
Rp167
(I3
S'|'
p168
NNNI8
I1
I0
tp169
bS'cylinder'
p170
tp171
Rp172
I14
I1
tp173
a(g4
(g5
(S'S4'
p174
I0
I1
tp175
Rp176
(I3
S'|'
p177
NNNI4
I1
I0
tp178
bS'blue'
p179
tp180
Rp181
I15
I0
tp182
a(g4
(g5
(S'S5'
p183
I0
I1
tp184
Rp185
(I3
S'|'
p186
NNNI5
I1
I0
tp187
bS'spice'
p188
tp189
Rp190
I5
I0
tp191
a(g190
I14
I0
tp192
a(g190
I8
I0
tp193
a(g190
I15
I0
tp194
a(g190
I1
I0
tp195
a(g190
I30
I0
tp196
a(g190
I29
I0
tp197
a(g190
I31
I0
tp198
a(g4
(g5
(S'S4'
p199
I0
I1
tp200
Rp201
(I3
S'|'
p202
NNNI4
I1
I0
tp203
bS'blue'
p204
tp205
Rp206
I30
I0
tp207
a(g4
(g5
(S'S8'
p208
I0
I1
tp209
Rp210
(I3
S'|'
p211
NNNI8
I1
I0
tp212
bS'metallic'
p213
tp214
Rp215
I8
I1
tp216
a(g4
(g5
(S'S5'
p217
I0
I1
tp218
Rp219
(I3
S'|'
p220
NNNI5
I1
I0
tp221
bS'block'
p222
tp223
Rp224
I5
I0
tp225
a(g224
I14
I0
tp226
a(g224
I8
I0
tp227
a(g224
I15
I0
tp228
a(g224
I1
I0
tp229
a(g224
I30
I0
tp230
a(g224
I29
I0
tp231
a(g224
I31
I0
tp232
a(g4
(g5
(S'S4'
p233
I0
I1
tp234
Rp235
(I3
S'|'
p236
NNNI4
I1
I0
tp237
bS'long'
p238
tp239
Rp240
I30
I1
tp241
aa(lp242
a.