(lp0
(lp1
(dp2
S'action'
p3
cnumpy.core.multiarray
scalar
p4
(cnumpy
dtype
p5
(S'S5'
p6
I0
I1
tp7
Rp8
(I3
S'|'
p9
NNNI5
I1
I0
tp10
bS'bring'
p11
tp12
Rp13
sS'recipient'
p14
S'b'
p15
sS'patient'
p16
S'oidx_12'
p17
sS'goal'
p18
NsS'source'
p19
Nsa(dp20
g3
g4
(g5
(S'S5'
p21
I0
I1
tp22
Rp23
(I3
S'|'
p24
NNNI5
I1
I0
tp25
bS'bring'
p26
tp27
Rp28
sg14
S'p'
p29
sg16
g17
sg18
Nsg19
Nsa(dp30
g3
g4
(g5
(S'S4'
p31
I0
I1
tp32
Rp33
(I3
S'|'
p34
NNNI4
I1
I0
tp35
bS'walk'
p36
tp37
Rp38
sg14
Nsg16
Nsg18
g4
(g5
(S'S4'
p39
I0
I1
tp40
Rp41
(I3
S'|'
p42
NNNI4
I1
I0
tp43
bS'3510'
p44
tp45
Rp46
sg19
Nsaa(lp47
(dp48
S'all'
p49
(lp50
S'hai'
p51
asg16
(lp52
S'yes'
p53
asg18
(lp54
sg19
(lp55
sg3
(lp56
sg14
(lp57
S'yes'
p58
asa(dp59
g49
(lp60
S'yes'
p61
asg16
(lp62
S'yes'
p63
asg18
(lp64
sg19
(lp65
sg3
(lp66
sg14
(lp67
S'yes'
p68
asa(dp69
g49
(lp70
S'yes'
p71
asg16
(lp72
sg18
(lp73
S'thank you'
p74
asg19
(lp75
sg3
(lp76
sg14
(lp77
saa(lp78
(g4
(g5
(S'S9'
p79
I0
I1
tp80
Rp81
(I3
S'|'
p82
NNNI9
I1
I0
tp83
bS'styrofoam'
p84
tp85
Rp86
I31
I1
tp87
a(g4
(g5
(S'S4'
p88
I0
I1
tp89
Rp90
(I3
S'|'
p91
NNNI4
I1
I0
tp92
bS'blue'
p93
tp94
Rp95
I29
I1
tp96
a(g4
(g5
(S'S9'
p97
I0
I1
tp98
Rp99
(I3
S'|'
p100
NNNI9
I1
I0
tp101
bS'styrofoam'
p102
tp103
Rp104
I8
I1
tp105
a(g4
(g5
(S'S8'
p106
I0
I1
tp107
Rp108
(I3
S'|'
p109
NNNI8
I1
I0
tp110
bS'metallic'
p111
tp112
Rp113
I1
I1
tp114
a(g4
(g5
(S'S5'
p115
I0
I1
tp116
Rp117
(I3
S'|'
p118
NNNI5
I1
I0
tp119
bS'clear'
p120
tp121
Rp122
I30
I1
tp123
a(g4
(g5
(S'S3'
p124
I0
I1
tp125
Rp126
(I3
S'|'
p127
NNNI3
I1
I0
tp128
bS'can'
p129
tp130
Rp131
I29
I1
tp132
a(g4
(g5
(S'S5'
p133
I0
I1
tp134
Rp135
(I3
S'|'
p136
NNNI5
I1
I0
tp137
bS'tower'
p138
tp139
Rp140
I30
I1
tp141
a(g4
(g5
(S'S5'
p142
I0
I1
tp143
Rp144
(I3
S'|'
p145
NNNI5
I1
I0
tp146
bS'tower'
p147
tp148
Rp149
I1
I1
tp150
a(g4
(g5
(S'S5'
p151
I0
I1
tp152
Rp153
(I3
S'|'
p154
NNNI5
I1
I0
tp155
bS'empty'
p156
tp157
Rp158
I8
I1
tp159
a(g4
(g5
(S'S6'
p160
I0
I1
tp161
Rp162
(I3
S'|'
p163
NNNI6
I1
I0
tp164
bS'column'
p165
tp166
Rp167
I1
I1
tp168
a(g4
(g5
(S'S4'
p169
I0
I1
tp170
Rp171
(I3
S'|'
p172
NNNI4
I1
I0
tp173
bS'blue'
p174
tp175
Rp176
I31
I1
tp177
a(g4
(g5
(S'S8'
p178
I0
I1
tp179
Rp180
(I3
S'|'
p181
NNNI8
I1
I0
tp182
bS'metallic'
p183
tp184
Rp185
I15
I1
tp186
a(g4
(g5
(S'S8'
p187
I0
I1
tp188
Rp189
(I3
S'|'
p190
NNNI8
I1
I0
tp191
bS'cylinder'
p192
tp193
Rp194
I31
I1
tp195
a(g4
(g5
(S'S4'
p196
I0
I1
tp197
Rp198
(I3
S'|'
p199
NNNI4
I1
I0
tp200
bS'bean'
p201
tp202
Rp203
I31
I1
tp204
a(g4
(g5
(S'S4'
p205
I0
I1
tp206
Rp207
(I3
S'|'
p208
NNNI4
I1
I0
tp209
bS'bean'
p210
tp211
Rp212
I8
I1
tp213
aa(lp214
a.