(lp0
(lp1
(dp2
S'action'
p3
cnumpy.core.multiarray
scalar
p4
(cnumpy
dtype
p5
(S'S4'
p6
I0
I1
tp7
Rp8
(I3
S'|'
p9
NNNI4
I1
I0
tp10
bS'walk'
p11
tp12
Rp13
sS'recipient'
p14
NsS'patient'
p15
NsS'goal'
p16
g4
(g5
(S'S4'
p17
I0
I1
tp18
Rp19
(I3
S'|'
p20
NNNI4
I1
I0
tp21
bS'3502'
p22
tp23
Rp24
sS'source'
p25
Nsa(dp26
g3
g4
(g5
(S'S5'
p27
I0
I1
tp28
Rp29
(I3
S'|'
p30
NNNI5
I1
I0
tp31
bS'bring'
p32
tp33
Rp34
sg14
g4
(g5
(S'S1'
p35
I0
I1
tp36
Rp37
(I3
S'|'
p38
NNNI1
I1
I0
tp39
bS'h'
p40
tp41
Rp42
sg15
g4
(g5
(S'S7'
p43
I0
I1
tp44
Rp45
(I3
S'|'
p46
NNNI7
I1
I0
tp47
bS'oidx_11'
p48
tp49
Rp50
sg16
Nsg25
Nsaa(lp51
(dp52
S'all'
p53
(lp54
S"go to mal 's office and stay there"
p55
asg15
(lp56
sg16
(lp57
S"to mallory 's office"
p58
asg25
(lp59
sg3
(lp60
sg14
(lp61
sa(dp62
g53
(lp63
S'take the peach can to dr heidi hughes'
p64
asg15
(lp65
S'a yellow can'
p66
aS'a yellow peach can'
p67
asg16
(lp68
sg25
(lp69
sg3
(lp70
sg14
(lp71
S'dr heidi hughes'
p72
asaa(lp73
(g4
(g5
(S'S5'
p74
I0
I1
tp75
Rp76
(I3
S'|'
p77
NNNI5
I1
I0
tp78
bS'white'
p79
tp80
Rp81
I1
I1
tp82
a(g4
(g5
(S'S9'
p83
I0
I1
tp84
Rp85
(I3
S'|'
p86
NNNI9
I1
I0
tp87
bS'styrofoam'
p88
tp89
Rp90
I31
I0
tp91
a(g4
(g5
(S'S8'
p92
I0
I1
tp93
Rp94
(I3
S'|'
p95
NNNI8
I1
I0
tp96
bS'cylinder'
p97
tp98
Rp99
I14
I1
tp100
a(g4
(g5
(S'S3'
p101
I0
I1
tp102
Rp103
(I3
S'|'
p104
NNNI3
I1
I0
tp105
bS'can'
p106
tp107
Rp108
I14
I0
tp109
a(g4
(g5
(S'S4'
p110
I0
I1
tp111
Rp112
(I3
S'|'
p113
NNNI4
I1
I0
tp114
bS'bean'
p115
tp116
Rp117
I5
I0
tp118
a(g117
I14
I0
tp119
a(g117
I8
I0
tp120
a(g117
I15
I0
tp121
a(g117
I1
I0
tp122
a(g117
I30
I0
tp123
a(g117
I29
I0
tp124
a(g117
I31
I0
tp125
a(g4
(g5
(S'S3'
p126
I0
I1
tp127
Rp128
(I3
S'|'
p129
NNNI3
I1
I0
tp130
bS'can'
p131
tp132
Rp133
I8
I1
tp134
a(g4
(g5
(S'S3'
p135
I0
I1
tp136
Rp137
(I3
S'|'
p138
NNNI3
I1
I0
tp139
bS'can'
p140
tp141
Rp142
I31
I0
tp143
a(g4
(g5
(S'S6'
p144
I0
I1
tp145
Rp146
(I3
S'|'
p147
NNNI6
I1
I0
tp148
bS'yellow'
p149
tp150
Rp151
I5
I1
tp152
a(g4
(g5
(S'S9'
p153
I0
I1
tp154
Rp155
(I3
S'|'
p156
NNNI9
I1
I0
tp157
bS'rectangle'
p158
tp159
Rp160
I5
I0
tp161
a(g160
I14
I0
tp162
a(g160
I8
I0
tp163
a(g160
I15
I0
tp164
a(g160
I1
I0
tp165
a(g160
I30
I0
tp166
a(g160
I29
I0
tp167
a(g160
I31
I0
tp168
a(g4
(g5
(S'S4'
p169
I0
I1
tp170
Rp171
(I3
S'|'
p172
NNNI4
I1
I0
tp173
bS'blue'
p174
tp175
Rp176
I29
I1
tp177
aa(lp178
a.