(lp0
(lp1
(dp2
S'action'
p3
cnumpy.core.multiarray
scalar
p4
(cnumpy
dtype
p5
(S'S4'
p6
I0
I1
tp7
Rp8
(I3
S'|'
p9
NNNI4
I1
I0
tp10
bS'walk'
p11
tp12
Rp13
sS'recipient'
p14
NsS'patient'
p15
NsS'goal'
p16
g4
(g5
(S'S4'
p17
I0
I1
tp18
Rp19
(I3
S'|'
p20
NNNI4
I1
I0
tp21
bS'3506'
p22
tp23
Rp24
sS'source'
p25
Nsa(dp26
g3
g4
(g5
(S'S5'
p27
I0
I1
tp28
Rp29
(I3
S'|'
p30
NNNI5
I1
I0
tp31
bS'bring'
p32
tp33
Rp34
sg14
S'n'
p35
sg15
S'oidx_26'
p36
sg16
Nsg25
Nsaa(lp37
(dp38
S'all'
p39
(lp40
S'move to the printer'
p41
asg15
(lp42
sg16
(lp43
S'to the printer'
p44
asg25
(lp45
sg3
(lp46
sg14
(lp47
sa(dp48
g39
(lp49
S'give a can to dr nancy nagel'
p50
asg15
(lp51
S'red can'
p52
aS'red can'
p53
aS'red can'
p54
aS'red can'
p55
aS'red can'
p56
aS'can'
p57
aS'can'
p58
aS'red can'
p59
aS'can'
p60
aS'aluminum'
p61
asg16
(lp62
sg25
(lp63
sg3
(lp64
sg14
(lp65
S'dr nancy nagel'
p66
aS'dr nancy nagel'
p67
asaa(lp68
(g4
(g5
(S'S3'
p69
I0
I1
tp70
Rp71
(I3
S'|'
p72
NNNI3
I1
I0
tp73
bS'can'
p74
tp75
Rp76
I30
I1
tp77
a(g4
(g5
(S'S8'
p78
I0
I1
tp79
Rp80
(I3
S'|'
p81
NNNI8
I1
I0
tp82
bS'cylinder'
p83
tp84
Rp85
I8
I1
tp86
a(g4
(g5
(S'S6'
p87
I0
I1
tp88
Rp89
(I3
S'|'
p90
NNNI6
I1
I0
tp91
bS'yellow'
p92
tp93
Rp94
I31
I1
tp95
a(g4
(g5
(S'S9'
p96
I0
I1
tp97
Rp98
(I3
S'|'
p99
NNNI9
I1
I0
tp100
bS'container'
p101
tp102
Rp103
I5
I1
tp104
a(g103
I14
I1
tp105
a(g103
I8
I1
tp106
a(g103
I15
I1
tp107
a(g103
I1
I1
tp108
a(g103
I30
I1
tp109
a(g103
I29
I1
tp110
a(g103
I31
I1
tp111
a(g4
(g5
(S'S5'
p112
I0
I1
tp113
Rp114
(I3
S'|'
p115
NNNI5
I1
I0
tp116
bS'peach'
p117
tp118
Rp119
I5
I0
tp120
a(g119
I14
I0
tp121
a(g119
I8
I0
tp122
a(g119
I15
I0
tp123
a(g119
I1
I0
tp124
a(g119
I30
I0
tp125
a(g119
I29
I0
tp126
a(g119
I31
I0
tp127
a(g4
(g5
(S'S3'
p128
I0
I1
tp129
Rp130
(I3
S'|'
p131
NNNI3
I1
I0
tp132
bS'can'
p133
tp134
Rp135
I8
I1
tp136
a(g4
(g5
(S'S3'
p137
I0
I1
tp138
Rp139
(I3
S'|'
p140
NNNI3
I1
I0
tp141
bS'can'
p142
tp143
Rp144
I8
I1
tp145
a(g4
(g5
(S'S3'
p146
I0
I1
tp147
Rp148
(I3
S'|'
p149
NNNI3
I1
I0
tp150
bS'can'
p151
tp152
Rp153
I8
I1
tp154
a(g4
(g5
(S'S3'
p155
I0
I1
tp156
Rp157
(I3
S'|'
p158
NNNI3
I1
I0
tp159
bS'can'
p160
tp161
Rp162
I5
I0
tp163
a(g162
I14
I0
tp164
a(g162
I8
I0
tp165
a(g162
I15
I0
tp166
a(g162
I1
I0
tp167
a(g162
I30
I0
tp168
a(g162
I29
I0
tp169
a(g162
I31
I0
tp170
a(g4
(g5
(S'S4'
p171
I0
I1
tp172
Rp173
(I3
S'|'
p174
NNNI4
I1
I0
tp175
bS'bean'
p176
tp177
Rp178
I5
I0
tp179
a(g178
I14
I0
tp180
a(g178
I8
I0
tp181
a(g178
I15
I0
tp182
a(g178
I1
I0
tp183
a(g178
I30
I0
tp184
a(g178
I29
I0
tp185
a(g178
I31
I0
tp186
aa(lp187
(S'red'
p188
S'white'
p189
I00
tp190
a(g188
S'yellow'
p191
I00
tp192
a(g188
S'blue'
p193
I00
tp194
a(g61
S'cylinder'
p195
I00
tp196
a(g61
S'metallic'
p197
I01
tp198
aa.