(lp0
(lp1
(dp2
S'action'
p3
cnumpy.core.multiarray
scalar
p4
(cnumpy
dtype
p5
(S'S4'
p6
I0
I1
tp7
Rp8
(I3
S'|'
p9
NNNI4
I1
I0
tp10
bS'walk'
p11
tp12
Rp13
sS'recipient'
p14
NsS'patient'
p15
NsS'goal'
p16
S'3430'
p17
sS'source'
p18
Nsa(dp19
g3
g4
(g5
(S'S5'
p20
I0
I1
tp21
Rp22
(I3
S'|'
p23
NNNI5
I1
I0
tp24
bS'bring'
p25
tp26
Rp27
sg14
S'r'
p28
sg15
S'oidx_22'
p29
sg16
Nsg18
Nsa(dp30
g3
g4
(g5
(S'S4'
p31
I0
I1
tp32
Rp33
(I3
S'|'
p34
NNNI4
I1
I0
tp35
bS'move'
p36
tp37
Rp38
sg14
Nsg15
S'oidx_6'
p39
sg16
S'3512'
p40
sg18
S'3422'
p41
saa(lp42
(dp43
S'all'
p44
(lp45
S'robot go to office b'
p46
asg15
(lp47
sg16
(lp48
S'office b'
p49
aS'printer'
p50
aS'robert brown'
p51
asg18
(lp52
sg3
(lp53
sg14
(lp54
sa(dp55
g44
(lp56
S'grab bottle'
p57
asg15
(lp58
S'bottle'
p59
aS'bottle'
p60
aS'pill bottle'
p61
aS'white'
p62
aS'person r'
p63
asg16
(lp64
sg18
(lp65
sg3
(lp66
sg14
(lp67
S'richard rogue'
p68
asa(dp69
g44
(lp70
S'go to office h'
p71
asg15
(lp72
S'can'
p73
asg16
(lp74
S'here'
p75
asg18
(lp76
S'office m to office h'
p77
asg3
(lp78
sg14
(lp79
saa(lp80
(g4
(g5
(S'S5'
p81
I0
I1
tp82
Rp83
(I3
S'|'
p84
NNNI5
I1
I0
tp85
bS'small'
p86
tp87
Rp88
I5
I0
tp89
a(g88
I14
I0
tp90
a(g88
I8
I0
tp91
a(g88
I15
I0
tp92
a(g88
I1
I0
tp93
a(g88
I30
I0
tp94
a(g88
I29
I0
tp95
a(g88
I31
I0
tp96
a(g4
(g5
(S'S9'
p97
I0
I1
tp98
Rp99
(I3
S'|'
p100
NNNI9
I1
I0
tp101
bS'styrofoam'
p102
tp103
Rp104
I30
I0
tp105
a(g4
(g5
(S'S5'
p106
I0
I1
tp107
Rp108
(I3
S'|'
p109
NNNI5
I1
I0
tp110
bS'clear'
p111
tp112
Rp113
I5
I0
tp114
a(g113
I14
I0
tp115
a(g113
I8
I0
tp116
a(g113
I15
I0
tp117
a(g113
I1
I0
tp118
a(g113
I30
I0
tp119
a(g113
I29
I0
tp120
a(g113
I31
I0
tp121
a(g4
(g5
(S'S8'
p122
I0
I1
tp123
Rp124
(I3
S'|'
p125
NNNI8
I1
I0
tp126
bS'metallic'
p127
tp128
Rp129
I8
I1
tp130
a(g4
(g5
(S'S6'
p131
I0
I1
tp132
Rp133
(I3
S'|'
p134
NNNI6
I1
I0
tp135
bS'coffee'
p136
tp137
Rp138
I5
I0
tp139
a(g138
I14
I0
tp140
a(g138
I8
I0
tp141
a(g138
I15
I0
tp142
a(g138
I1
I0
tp143
a(g138
I30
I0
tp144
a(g138
I29
I0
tp145
a(g138
I31
I0
tp146
a(g4
(g5
(S'S4'
p147
I0
I1
tp148
Rp149
(I3
S'|'
p150
NNNI4
I1
I0
tp151
bS'blue'
p152
tp153
Rp154
I29
I1
tp155
a(g4
(g5
(S'S6'
p156
I0
I1
tp157
Rp158
(I3
S'|'
p159
NNNI6
I1
I0
tp160
bS'yellow'
p161
tp162
Rp163
I5
I1
tp164
a(g4
(g5
(S'S3'
p165
I0
I1
tp166
Rp167
(I3
S'|'
p168
NNNI3
I1
I0
tp169
bS'can'
p170
tp171
Rp172
I29
I0
tp173
a(g4
(g5
(S'S9'
p174
I0
I1
tp175
Rp176
(I3
S'|'
p177
NNNI9
I1
I0
tp178
bS'styrofoam'
p179
tp180
Rp181
I31
I0
tp182
a(g4
(g5
(S'S5'
p183
I0
I1
tp184
Rp185
(I3
S'|'
p186
NNNI5
I1
I0
tp187
bS'spice'
p188
tp189
Rp190
I5
I0
tp191
a(g190
I14
I0
tp192
a(g190
I8
I0
tp193
a(g190
I15
I0
tp194
a(g190
I1
I0
tp195
a(g190
I30
I0
tp196
a(g190
I29
I0
tp197
a(g190
I31
I0
tp198
a(g4
(g5
(S'S9'
p199
I0
I1
tp200
Rp201
(I3
S'|'
p202
NNNI9
I1
I0
tp203
bS'styrofoam'
p204
tp205
Rp206
I29
I0
tp207
a(g4
(g5
(S'S3'
p208
I0
I1
tp209
Rp210
(I3
S'|'
p211
NNNI3
I1
I0
tp212
bS'can'
p213
tp214
Rp215
I8
I1
tp216
a(g4
(g5
(S'S4'
p217
I0
I1
tp218
Rp219
(I3
S'|'
p220
NNNI4
I1
I0
tp221
bS'long'
p222
tp223
Rp224
I31
I0
tp225
a(g4
(g5
(S'S6'
p226
I0
I1
tp227
Rp228
(I3
S'|'
p229
NNNI6
I1
I0
tp230
bS'column'
p231
tp232
Rp233
I5
I1
tp234
a(g4
(g5
(S'S3'
p235
I0
I1
tp236
Rp237
(I3
S'|'
p238
NNNI3
I1
I0
tp239
bS'can'
p240
tp241
Rp242
I30
I0
tp243
aa(lp244
(S'robot'
p245
S'metallic'
p246
I01
tp247
a(S'brown'
p248
S'white'
p249
I00
tp250
a(g248
S'yellow'
p251
I00
tp252
a(g248
S'blue'
p253
I00
tp254
a(S'person'
p255
S'can'
p256
I00
tp257
aa.