(lp0
(lp1
(dp2
S'action'
p3
cnumpy.core.multiarray
scalar
p4
(cnumpy
dtype
p5
(S'S4'
p6
I0
I1
tp7
Rp8
(I3
S'|'
p9
NNNI4
I1
I0
tp10
bS'walk'
p11
tp12
Rp13
sS'recipient'
p14
NsS'patient'
p15
NsS'goal'
p16
g4
(g5
(S'S4'
p17
I0
I1
tp18
Rp19
(I3
S'|'
p20
NNNI4
I1
I0
tp21
bS'3402'
p22
tp23
Rp24
sS'source'
p25
Nsa(dp26
g3
g4
(g5
(S'S5'
p27
I0
I1
tp28
Rp29
(I3
S'|'
p30
NNNI5
I1
I0
tp31
bS'bring'
p32
tp33
Rp34
sg14
g4
(g5
(S'S1'
p35
I0
I1
tp36
Rp37
(I3
S'|'
p38
NNNI1
I1
I0
tp39
bS'n'
p40
tp41
Rp42
sg15
S'oidx_25'
p43
sg16
Nsg25
Nsaa(lp44
(dp45
S'all'
p46
(lp47
S"go to dr heidi 's office"
p48
asg15
(lp49
sg16
(lp50
S"go to dr heidi 's office"
p51
asg25
(lp52
sg3
(lp53
sg14
(lp54
sa(dp55
g46
(lp56
S'give a bottle of spice to dr nancy'
p57
asg15
(lp58
S'a bottle of spice'
p59
aS'spice'
p60
aS'spice'
p61
asg16
(lp62
sg25
(lp63
sg3
(lp64
sg14
(lp65
S'dr nancy'
p66
asaa(lp67
(g4
(g5
(S'S5'
p68
I0
I1
tp69
Rp70
(I3
S'|'
p71
NNNI5
I1
I0
tp72
bS'spice'
p73
tp74
Rp75
I5
I0
tp76
a(g75
I14
I0
tp77
a(g75
I8
I0
tp78
a(g75
I15
I0
tp79
a(g75
I1
I0
tp80
a(g75
I30
I0
tp81
a(g75
I29
I0
tp82
a(g75
I31
I0
tp83
a(g4
(g5
(S'S5'
p84
I0
I1
tp85
Rp86
(I3
S'|'
p87
NNNI5
I1
I0
tp88
bS'tower'
p89
tp90
Rp91
I5
I0
tp92
a(g91
I14
I0
tp93
a(g91
I8
I0
tp94
a(g91
I15
I0
tp95
a(g91
I1
I0
tp96
a(g91
I30
I0
tp97
a(g91
I29
I0
tp98
a(g91
I31
I0
tp99
a(g4
(g5
(S'S3'
p100
I0
I1
tp101
Rp102
(I3
S'|'
p103
NNNI3
I1
I0
tp104
bS'can'
p105
tp106
Rp107
I29
I0
tp108
a(g4
(g5
(S'S9'
p109
I0
I1
tp110
Rp111
(I3
S'|'
p112
NNNI9
I1
I0
tp113
bS'styrofoam'
p114
tp115
Rp116
I30
I0
tp117
a(g4
(g5
(S'S6'
p118
I0
I1
tp119
Rp120
(I3
S'|'
p121
NNNI6
I1
I0
tp122
bS'yellow'
p123
tp124
Rp125
I5
I1
tp126
a(g4
(g5
(S'S9'
p127
I0
I1
tp128
Rp129
(I3
S'|'
p130
NNNI9
I1
I0
tp131
bS'container'
p132
tp133
Rp134
I15
I0
tp135
a(g4
(g5
(S'S9'
p136
I0
I1
tp137
Rp138
(I3
S'|'
p139
NNNI9
I1
I0
tp140
bS'container'
p141
tp142
Rp143
I1
I0
tp144
a(g4
(g5
(S'S9'
p145
I0
I1
tp146
Rp147
(I3
S'|'
p148
NNNI9
I1
I0
tp149
bS'container'
p150
tp151
Rp152
I1
I0
tp153
a(g4
(g5
(S'S9'
p154
I0
I1
tp155
Rp156
(I3
S'|'
p157
NNNI9
I1
I0
tp158
bS'container'
p159
tp160
Rp161
I15
I0
tp162
a(g4
(g5
(S'S9'
p163
I0
I1
tp164
Rp165
(I3
S'|'
p166
NNNI9
I1
I0
tp167
bS'container'
p168
tp169
Rp170
I1
I0
tp171
aa(lp172
a.