(lp0
(lp1
(dp2
S'action'
p3
cnumpy.core.multiarray
scalar
p4
(cnumpy
dtype
p5
(S'S4'
p6
I0
I1
tp7
Rp8
(I3
S'|'
p9
NNNI4
I1
I0
tp10
bS'move'
p11
tp12
Rp13
sS'recipient'
p14
NsS'patient'
p15
S'oidx_11'
p16
sS'goal'
p17
S'3422'
p18
sS'source'
p19
g4
(g5
(S'S4'
p20
I0
I1
tp21
Rp22
(I3
S'|'
p23
NNNI4
I1
I0
tp24
bS'3422'
p25
tp26
Rp27
sa(dp28
g3
g4
(g5
(S'S5'
p29
I0
I1
tp30
Rp31
(I3
S'|'
p32
NNNI5
I1
I0
tp33
bS'bring'
p34
tp35
Rp36
sg14
g4
(g5
(S'S1'
p37
I0
I1
tp38
Rp39
(I3
S'|'
p40
NNNI1
I1
I0
tp41
bS'm'
p42
tp43
Rp44
sg15
g4
(g5
(S'S6'
p45
I0
I1
tp46
Rp47
(I3
S'|'
p48
NNNI6
I1
I0
tp49
bS'oidx_6'
p50
tp51
Rp52
sg17
Nsg19
Nsa(dp53
g3
g4
(g5
(S'S5'
p54
I0
I1
tp55
Rp56
(I3
S'|'
p57
NNNI5
I1
I0
tp58
bS'bring'
p59
tp60
Rp61
sg14
g4
(g5
(S'S1'
p62
I0
I1
tp63
Rp64
(I3
S'|'
p65
NNNI1
I1
I0
tp66
bS'b'
p67
tp68
Rp69
sg15
g4
(g5
(S'S7'
p70
I0
I1
tp71
Rp72
(I3
S'|'
p73
NNNI7
I1
I0
tp74
bS'oidx_11'
p75
tp76
Rp77
sg17
Nsg19
Nsaa(lp78
(dp79
S'all'
p80
(lp81
S'go to the office'
p82
asg15
(lp83
sg17
(lp84
sg19
(lp85
S"in dave 's room"
p86
aS"to walter ward 's room"
p87
aS"to dave 's room"
p88
aS'to the nearest office'
p89
asg3
(lp90
sg14
(lp91
sa(dp92
g80
(lp93
S"take the object shown and bring it to the room with mallory maroon don' 's give mallory the item just bring it to the room"
p94
asg15
(lp95
S'the small cylindar'
p96
aS'the small pill bottle'
p97
aS'the small pill bottle'
p98
asg17
(lp99
sg19
(lp100
sg3
(lp101
sg14
(lp102
S'to mallory mal maroon'
p103
asa(dp104
g80
(lp105
S'take the large can to robert bob brown'
p106
asg15
(lp107
S'the large can'
p108
aS'the large can'
p109
aS'the tin can'
p110
asg17
(lp111
sg19
(lp112
sg3
(lp113
sg14
(lp114
S'to robert bob brown'
p115
asaa(lp116
(g4
(g5
(S'S5'
p117
I0
I1
tp118
Rp119
(I3
S'|'
p120
NNNI5
I1
I0
tp121
bS'clear'
p122
tp123
Rp124
I5
I0
tp125
a(g124
I14
I0
tp126
a(g124
I8
I0
tp127
a(g124
I15
I0
tp128
a(g124
I1
I0
tp129
a(g124
I30
I0
tp130
a(g124
I29
I0
tp131
a(g124
I31
I0
tp132
a(g4
(g5
(S'S8'
p133
I0
I1
tp134
Rp135
(I3
S'|'
p136
NNNI8
I1
I0
tp137
bS'cylinder'
p138
tp139
Rp140
I14
I0
tp141
a(g4
(g5
(S'S6'
p142
I0
I1
tp143
Rp144
(I3
S'|'
p145
NNNI6
I1
I0
tp146
bS'yellow'
p147
tp148
Rp149
I5
I1
tp150
a(g4
(g5
(S'S5'
p151
I0
I1
tp152
Rp153
(I3
S'|'
p154
NNNI5
I1
I0
tp155
bS'small'
p156
tp157
Rp158
I14
I1
tp159
a(g4
(g5
(S'S6'
p160
I0
I1
tp161
Rp162
(I3
S'|'
p163
NNNI6
I1
I0
tp164
bS'coffee'
p165
tp166
Rp167
I30
I1
tp168
a(g4
(g5
(S'S5'
p169
I0
I1
tp170
Rp171
(I3
S'|'
p172
NNNI5
I1
I0
tp173
bS'small'
p174
tp175
Rp176
I8
I0
tp177
a(g4
(g5
(S'S5'
p178
I0
I1
tp179
Rp180
(I3
S'|'
p181
NNNI5
I1
I0
tp182
bS'small'
p183
tp184
Rp185
I14
I1
tp186
a(g4
(g5
(S'S5'
p187
I0
I1
tp188
Rp189
(I3
S'|'
p190
NNNI5
I1
I0
tp191
bS'small'
p192
tp193
Rp194
I29
I0
tp195
a(g4
(g5
(S'S5'
p196
I0
I1
tp197
Rp198
(I3
S'|'
p199
NNNI5
I1
I0
tp200
bS'small'
p201
tp202
Rp203
I1
I1
tp204
a(g4
(g5
(S'S5'
p205
I0
I1
tp206
Rp207
(I3
S'|'
p208
NNNI5
I1
I0
tp209
bS'small'
p210
tp211
Rp212
I8
I0
tp213
a(g4
(g5
(S'S3'
p214
I0
I1
tp215
Rp216
(I3
S'|'
p217
NNNI3
I1
I0
tp218
bS'can'
p219
tp220
Rp221
I31
I0
tp222
a(g4
(g5
(S'S3'
p223
I0
I1
tp224
Rp225
(I3
S'|'
p226
NNNI3
I1
I0
tp227
bS'can'
p228
tp229
Rp230
I5
I0
tp231
a(g4
(g5
(S'S5'
p232
I0
I1
tp233
Rp234
(I3
S'|'
p235
NNNI5
I1
I0
tp236
bS'large'
p237
tp238
Rp239
I8
I1
tp240
a(g4
(g5
(S'S5'
p241
I0
I1
tp242
Rp243
(I3
S'|'
p244
NNNI5
I1
I0
tp245
bS'large'
p246
tp247
Rp248
I14
I0
tp249
a(g4
(g5
(S'S5'
p250
I0
I1
tp251
Rp252
(I3
S'|'
p253
NNNI5
I1
I0
tp254
bS'large'
p255
tp256
Rp257
I1
I1
tp258
aa(lp259
(S'item'
p260
S'column'
p261
I01
tp262
a(S'large'
p263
S'want'
p264
I00
tp265
a(g263
S'white'
p266
I00
tp267
a(S'brown'
p268
g266
I00
tp269
a(g268
S'yellow'
p270
I00
tp271
a(g268
S'blue'
p272
I00
tp273
a(S'tin'
p274
S'container'
p275
I01
tp276
aa.