(lp0
(lp1
(dp2
S'action'
p3
cnumpy.core.multiarray
scalar
p4
(cnumpy
dtype
p5
(S'S4'
p6
I0
I1
tp7
Rp8
(I3
S'|'
p9
NNNI4
I1
I0
tp10
bS'walk'
p11
tp12
Rp13
sS'recipient'
p14
NsS'patient'
p15
NsS'goal'
p16
S'3432'
p17
sS'source'
p18
Nsa(dp19
g3
g4
(g5
(S'S5'
p20
I0
I1
tp21
Rp22
(I3
S'|'
p23
NNNI5
I1
I0
tp24
bS'bring'
p25
tp26
Rp27
sg14
S'b'
p28
sg15
S'oidx_11'
p29
sg16
Nsg18
Nsa(dp30
g3
g4
(g5
(S'S4'
p31
I0
I1
tp32
Rp33
(I3
S'|'
p34
NNNI4
I1
I0
tp35
bS'move'
p36
tp37
Rp38
sg14
Nsg15
g4
(g5
(S'S7'
p39
I0
I1
tp40
Rp41
(I3
S'|'
p42
NNNI7
I1
I0
tp43
bS'oidx_11'
p44
tp45
Rp46
sg16
S'3512'
p47
sg18
S'3436'
p48
saa(lp49
(dp50
S'all'
p51
(lp52
S'please go to the room inbetween maroon and parker offices'
p53
asg15
(lp54
sg16
(lp55
S'to the room next to the room occupied by mal maroon'
p56
asg18
(lp57
sg3
(lp58
sg14
(lp59
sa(dp60
g51
(lp61
S'give this object to dr sybil smalt'
p62
asg15
(lp63
S'a white piece of styrofoam'
p64
aS'the white object shaped like a tower or column'
p65
asg16
(lp66
sg18
(lp67
sg3
(lp68
sg14
(lp69
sa(dp70
g51
(lp71
S"pick up the empty can from the pod next to dr sybill smalt 's office and take it to the office of peggy parker"
p72
asg15
(lp73
S'the can'
p74
aS'metal can'
p75
aS'the yellow container'
p76
asg16
(lp77
S"to peggy parker 's office"
p78
asg18
(lp79
S"the pod next to dr smalt 's office"
p80
aS"the pod next to dr smalt 's office"
p81
aS"from the pod that is in between walter ward and dr smalt 's offices"
p82
asg3
(lp83
sg14
(lp84
saa(lp85
(g4
(g5
(S'S9'
p86
I0
I1
tp87
Rp88
(I3
S'|'
p89
NNNI9
I1
I0
tp90
bS'container'
p91
tp92
Rp93
I5
I1
tp94
a(g93
I14
I1
tp95
a(g93
I8
I1
tp96
a(g93
I15
I1
tp97
a(g93
I1
I1
tp98
a(g93
I30
I1
tp99
a(g93
I29
I1
tp100
a(g93
I31
I1
tp101
a(g4
(g5
(S'S5'
p102
I0
I1
tp103
Rp104
(I3
S'|'
p105
NNNI5
I1
I0
tp106
bS'tower'
p107
tp108
Rp109
I5
I0
tp110
a(g109
I14
I0
tp111
a(g109
I8
I0
tp112
a(g109
I15
I0
tp113
a(g109
I1
I0
tp114
a(g109
I30
I0
tp115
a(g109
I29
I0
tp116
a(g109
I31
I0
tp117
a(g4
(g5
(S'S4'
p118
I0
I1
tp119
Rp120
(I3
S'|'
p121
NNNI4
I1
I0
tp122
bS'blue'
p123
tp124
Rp125
I30
I0
tp126
a(g4
(g5
(S'S6'
p127
I0
I1
tp128
Rp129
(I3
S'|'
p130
NNNI6
I1
I0
tp131
bS'yellow'
p132
tp133
Rp134
I5
I1
tp135
a(g4
(g5
(S'S5'
p136
I0
I1
tp137
Rp138
(I3
S'|'
p139
NNNI5
I1
I0
tp140
bS'small'
p141
tp142
Rp143
I14
I1
tp144
a(g4
(g5
(S'S9'
p145
I0
I1
tp146
Rp147
(I3
S'|'
p148
NNNI9
I1
I0
tp149
bS'styrofoam'
p150
tp151
Rp152
I14
I0
tp153
a(g4
(g5
(S'S3'
p154
I0
I1
tp155
Rp156
(I3
S'|'
p157
NNNI3
I1
I0
tp158
bS'can'
p159
tp160
Rp161
I1
I1
tp162
a(g4
(g5
(S'S5'
p163
I0
I1
tp164
Rp165
(I3
S'|'
p166
NNNI5
I1
I0
tp167
bS'white'
p168
tp169
Rp170
I5
I0
tp171
a(g170
I14
I0
tp172
a(g170
I8
I0
tp173
a(g170
I15
I0
tp174
a(g170
I1
I0
tp175
a(g170
I30
I0
tp176
a(g170
I29
I0
tp177
a(g170
I31
I0
tp178
a(g4
(g5
(S'S4'
p179
I0
I1
tp180
Rp181
(I3
S'|'
p182
NNNI4
I1
I0
tp183
bS'bean'
p184
tp185
Rp186
I5
I0
tp187
a(g186
I14
I0
tp188
a(g186
I8
I0
tp189
a(g186
I15
I0
tp190
a(g186
I1
I0
tp191
a(g186
I30
I0
tp192
a(g186
I29
I0
tp193
a(g186
I31
I0
tp194
a(g4
(g5
(S'S6'
p195
I0
I1
tp196
Rp197
(I3
S'|'
p198
NNNI6
I1
I0
tp199
bS'shaped'
p200
tp201
Rp202
I5
I0
tp203
a(g202
I14
I0
tp204
a(g202
I8
I0
tp205
a(g202
I15
I0
tp206
a(g202
I1
I0
tp207
a(g202
I30
I0
tp208
a(g202
I29
I0
tp209
a(g202
I31
I0
tp210
aa(lp211
(S'offices'
p212
g4
(g5
(S'S6'
p213
I0
I1
tp214
Rp215
(I3
S'|'
p216
NNNI6
I1
I0
tp217
bS'object'
p218
tp219
Rp220
I00
tp221
a(S'piece'
p222
S'column'
p223
I00
tp224
a(g222
S'container'
p225
I00
tp226
a(g222
S'tower'
p227
I00
tp228
a(S'shaped'
p229
S'metallic'
p230
I00
tp231
a(g229
S'white'
p232
I00
tp233
a(g229
S'blue'
p234
I00
tp235
a(S'metal'
p236
g225
I00
tp237
a(g236
S'yellow'
p238
I00
tp239
a(g236
g230
I01
tp240
aa.