(lp0
(lp1
(dp2
S'action'
p3
cnumpy.core.multiarray
scalar
p4
(cnumpy
dtype
p5
(S'S4'
p6
I0
I1
tp7
Rp8
(I3
S'|'
p9
NNNI4
I1
I0
tp10
bS'walk'
p11
tp12
Rp13
sS'recipient'
p14
NsS'patient'
p15
NsS'goal'
p16
g4
(g5
(S'S5'
p17
I0
I1
tp18
Rp19
(I3
S'|'
p20
NNNI5
I1
I0
tp21
bS'3414a'
p22
tp23
Rp24
sS'source'
p25
Nsa(dp26
g3
g4
(g5
(S'S5'
p27
I0
I1
tp28
Rp29
(I3
S'|'
p30
NNNI5
I1
I0
tp31
bS'bring'
p32
tp33
Rp34
sg14
g4
(g5
(S'S1'
p35
I0
I1
tp36
Rp37
(I3
S'|'
p38
NNNI1
I1
I0
tp39
bS'p'
p40
tp41
Rp42
sg15
S'oidx_13'
p43
sg16
Nsg25
Nsa(dp44
g3
g4
(g5
(S'S4'
p45
I0
I1
tp46
Rp47
(I3
S'|'
p48
NNNI4
I1
I0
tp49
bS'walk'
p50
tp51
Rp52
sg14
Nsg15
Nsg16
S'3512'
p53
sg25
Nsaa(lp54
(dp55
S'all'
p56
(lp57
S'move to lab'
p58
asg15
(lp59
sg16
(lp60
S'lab'
p61
aS'near kitchen'
p62
aS'opposite to david dave daniel office'
p63
aS'lab located opposite to david dave daniel'
p64
aS'down to david dave daniel office'
p65
asg25
(lp66
sg3
(lp67
sg14
(lp68
sa(dp69
g56
(lp70
S'take the box and give to peggy parker intern'
p71
asg15
(lp72
S'container'
p73
asg16
(lp74
sg25
(lp75
sg3
(lp76
sg14
(lp77
S'peggy parker'
p78
asa(dp79
g56
(lp80
S'relocate'
p81
asg15
(lp82
sg16
(lp83
S'relocate to r'
p84
aS'richard rogue office'
p85
aS'green lab richard rogue office'
p86
aS'green map'
p87
asg25
(lp88
sg3
(lp89
sg14
(lp90
saa(lp91
(g4
(g5
(S'S9'
p92
I0
I1
tp93
Rp94
(I3
S'|'
p95
NNNI9
I1
I0
tp96
bS'styrofoam'
p97
tp98
Rp99
I31
I0
tp100
a(g4
(g5
(S'S4'
p101
I0
I1
tp102
Rp103
(I3
S'|'
p104
NNNI4
I1
I0
tp105
bS'long'
p106
tp107
Rp108
I14
I0
tp109
a(g4
(g5
(S'S8'
p110
I0
I1
tp111
Rp112
(I3
S'|'
p113
NNNI8
I1
I0
tp114
bS'metallic'
p115
tp116
Rp117
I8
I1
tp118
a(g4
(g5
(S'S4'
p119
I0
I1
tp120
Rp121
(I3
S'|'
p122
NNNI4
I1
I0
tp123
bS'bean'
p124
tp125
Rp126
I5
I0
tp127
a(g126
I14
I0
tp128
a(g126
I8
I0
tp129
a(g126
I15
I0
tp130
a(g126
I1
I0
tp131
a(g126
I30
I0
tp132
a(g126
I29
I0
tp133
a(g126
I31
I0
tp134
a(g4
(g5
(S'S9'
p135
I0
I1
tp136
Rp137
(I3
S'|'
p138
NNNI9
I1
I0
tp139
bS'styrofoam'
p140
tp141
Rp142
I30
I0
tp143
a(g4
(g5
(S'S9'
p144
I0
I1
tp145
Rp146
(I3
S'|'
p147
NNNI9
I1
I0
tp148
bS'rectangle'
p149
tp150
Rp151
I30
I1
tp152
a(g4
(g5
(S'S4'
p153
I0
I1
tp154
Rp155
(I3
S'|'
p156
NNNI4
I1
I0
tp157
bS'blue'
p158
tp159
Rp160
I15
I0
tp161
a(g4
(g5
(S'S5'
p162
I0
I1
tp163
Rp164
(I3
S'|'
p165
NNNI5
I1
I0
tp166
bS'white'
p167
tp168
Rp169
I5
I0
tp170
a(g169
I14
I0
tp171
a(g169
I8
I0
tp172
a(g169
I15
I0
tp173
a(g169
I1
I0
tp174
a(g169
I30
I0
tp175
a(g169
I29
I0
tp176
a(g169
I31
I0
tp177
a(g4
(g5
(S'S5'
p178
I0
I1
tp179
Rp180
(I3
S'|'
p181
NNNI5
I1
I0
tp182
bS'empty'
p183
tp184
Rp185
I8
I0
tp186
a(g4
(g5
(S'S4'
p187
I0
I1
tp188
Rp189
(I3
S'|'
p190
NNNI4
I1
I0
tp191
bS'blue'
p192
tp193
Rp194
I30
I1
tp195
a(g4
(g5
(S'S9'
p196
I0
I1
tp197
Rp198
(I3
S'|'
p199
NNNI9
I1
I0
tp200
bS'container'
p201
tp202
Rp203
I5
I1
tp204
a(g203
I14
I1
tp205
a(g203
I8
I1
tp206
a(g203
I15
I1
tp207
a(g203
I1
I1
tp208
a(g203
I30
I1
tp209
a(g203
I29
I1
tp210
a(g203
I31
I1
tp211
a(g4
(g5
(S'S6'
p212
I0
I1
tp213
Rp214
(I3
S'|'
p215
NNNI6
I1
I0
tp216
bS'yellow'
p217
tp218
Rp219
I30
I1
tp220
a(g4
(g5
(S'S6'
p221
I0
I1
tp222
Rp223
(I3
S'|'
p224
NNNI6
I1
I0
tp225
bS'yellow'
p226
tp227
Rp228
I31
I0
tp229
a(g4
(g5
(S'S9'
p230
I0
I1
tp231
Rp232
(I3
S'|'
p233
NNNI9
I1
I0
tp234
bS'rectangle'
p235
tp236
Rp237
I5
I0
tp238
a(g4
(g5
(S'S3'
p239
I0
I1
tp240
Rp241
(I3
S'|'
p242
NNNI3
I1
I0
tp243
bS'can'
p244
tp245
Rp246
I15
I1
tp247
aa(lp248
(S'box'
p249
S'container'
p250
I01
tp251
a(S'green'
p252
S'white'
p253
I00
tp254
a(g252
S'yellow'
p255
I00
tp256
a(g252
S'blue'
p257
I00
tp258
a(S'map'
p259
g257
I01
tp260
aa.