(lp0
(lp1
(dp2
S'action'
p3
cnumpy.core.multiarray
scalar
p4
(cnumpy
dtype
p5
(S'S5'
p6
I0
I1
tp7
Rp8
(I3
S'|'
p9
NNNI5
I1
I0
tp10
bS'bring'
p11
tp12
Rp13
sS'recipient'
p14
S'r'
p15
sS'patient'
p16
S'oidx_11'
p17
sS'goal'
p18
NsS'source'
p19
Nsa(dp20
g3
g4
(g5
(S'S4'
p21
I0
I1
tp22
Rp23
(I3
S'|'
p24
NNNI4
I1
I0
tp25
bS'move'
p26
tp27
Rp28
sg14
Nsg16
S'oidx_6'
p29
sg18
S'3518'
p30
sg19
S'3506'
p31
sa(dp32
g3
g4
(g5
(S'S4'
p33
I0
I1
tp34
Rp35
(I3
S'|'
p36
NNNI4
I1
I0
tp37
bS'walk'
p38
tp39
Rp40
sg14
Nsg16
Nsg18
S'3504'
p41
sg19
Nsaa(lp42
(dp43
S'all'
p44
(lp45
S'i dont know'
p46
asg16
(lp47
S'i dont know'
p48
asg18
(lp49
sg19
(lp50
sg3
(lp51
sg14
(lp52
S'i know'
p53
aS'no'
p54
asa(dp55
g44
(lp56
S'yes'
p57
asg16
(lp58
sg18
(lp59
S'no'
p60
aS'yes'
p61
asg19
(lp62
S'no'
p63
asg3
(lp64
sg14
(lp65
sa(dp66
g44
(lp67
S'i dont know'
p68
asg16
(lp69
sg18
(lp70
S'no'
p71
aS'ok'
p72
aS'i dont know'
p73
asg19
(lp74
sg3
(lp75
sg14
(lp76
saa(lp77
(g4
(g5
(S'S5'
p78
I0
I1
tp79
Rp80
(I3
S'|'
p81
NNNI5
I1
I0
tp82
bS'small'
p83
tp84
Rp85
I15
I1
tp86
a(g4
(g5
(S'S5'
p87
I0
I1
tp88
Rp89
(I3
S'|'
p90
NNNI5
I1
I0
tp91
bS'block'
p92
tp93
Rp94
I5
I1
tp95
a(g4
(g5
(S'S5'
p96
I0
I1
tp97
Rp98
(I3
S'|'
p99
NNNI5
I1
I0
tp100
bS'block'
p101
tp102
Rp103
I15
I1
tp104
a(g4
(g5
(S'S9'
p105
I0
I1
tp106
Rp107
(I3
S'|'
p108
NNNI9
I1
I0
tp109
bS'rectangle'
p110
tp111
Rp112
I15
I1
tp113
a(g4
(g5
(S'S4'
p114
I0
I1
tp115
Rp116
(I3
S'|'
p117
NNNI4
I1
I0
tp118
bS'long'
p119
tp120
Rp121
I5
I0
tp122
a(g4
(g5
(S'S9'
p123
I0
I1
tp124
Rp125
(I3
S'|'
p126
NNNI9
I1
I0
tp127
bS'rectangle'
p128
tp129
Rp130
I5
I1
tp131
a(g4
(g5
(S'S5'
p132
I0
I1
tp133
Rp134
(I3
S'|'
p135
NNNI5
I1
I0
tp136
bS'empty'
p137
tp138
Rp139
I8
I0
tp140
a(g4
(g5
(S'S4'
p141
I0
I1
tp142
Rp143
(I3
S'|'
p144
NNNI4
I1
I0
tp145
bS'bean'
p146
tp147
Rp148
I15
I1
tp149
a(g4
(g5
(S'S8'
p150
I0
I1
tp151
Rp152
(I3
S'|'
p153
NNNI8
I1
I0
tp154
bS'cylinder'
p155
tp156
Rp157
I14
I0
tp158
a(g4
(g5
(S'S6'
p159
I0
I1
tp160
Rp161
(I3
S'|'
p162
NNNI6
I1
I0
tp163
bS'column'
p164
tp165
Rp166
I15
I1
tp167
a(g4
(g5
(S'S4'
p168
I0
I1
tp169
Rp170
(I3
S'|'
p171
NNNI4
I1
I0
tp172
bS'bean'
p173
tp174
Rp175
I1
I1
tp176
a(g4
(g5
(S'S5'
p177
I0
I1
tp178
Rp179
(I3
S'|'
p180
NNNI5
I1
I0
tp181
bS'spice'
p182
tp183
Rp184
I31
I1
tp185
a(g4
(g5
(S'S8'
p186
I0
I1
tp187
Rp188
(I3
S'|'
p189
NNNI8
I1
I0
tp190
bS'pringles'
p191
tp192
Rp193
I31
I1
tp194
a(g4
(g5
(S'S5'
p195
I0
I1
tp196
Rp197
(I3
S'|'
p198
NNNI5
I1
I0
tp199
bS'peach'
p200
tp201
Rp202
I31
I1
tp203
a(g4
(g5
(S'S5'
p204
I0
I1
tp205
Rp206
(I3
S'|'
p207
NNNI5
I1
I0
tp208
bS'spice'
p209
tp210
Rp211
I29
I0
tp212
aa(lp213
(S'i'
p214
g4
(g5
(S'S5'
p215
I0
I1
tp216
Rp217
(I3
S'|'
p218
NNNI5
I1
I0
tp219
bS'small'
p220
tp221
Rp222
I00
tp223
aa.