(lp0
(lp1
(dp2
S'action'
p3
cnumpy.core.multiarray
scalar
p4
(cnumpy
dtype
p5
(S'S5'
p6
I0
I1
tp7
Rp8
(I3
S'|'
p9
NNNI5
I1
I0
tp10
bS'bring'
p11
tp12
Rp13
sS'recipient'
p14
g4
(g5
(S'S1'
p15
I0
I1
tp16
Rp17
(I3
S'|'
p18
NNNI1
I1
I0
tp19
bS'm'
p20
tp21
Rp22
sS'patient'
p23
S'oidx_25'
p24
sS'goal'
p25
NsS'source'
p26
Nsa(dp27
g3
g4
(g5
(S'S5'
p28
I0
I1
tp29
Rp30
(I3
S'|'
p31
NNNI5
I1
I0
tp32
bS'bring'
p33
tp34
Rp35
sg14
g4
(g5
(S'S1'
p36
I0
I1
tp37
Rp38
(I3
S'|'
p39
NNNI1
I1
I0
tp40
bS'n'
p41
tp42
Rp43
sg23
S'oidx_26'
p44
sg25
Nsg26
Nsa(dp45
g3
g4
(g5
(S'S5'
p46
I0
I1
tp47
Rp48
(I3
S'|'
p49
NNNI5
I1
I0
tp50
bS'bring'
p51
tp52
Rp53
sg14
S'p'
p54
sg23
g4
(g5
(S'S7'
p55
I0
I1
tp56
Rp57
(I3
S'|'
p58
NNNI7
I1
I0
tp59
bS'oidx_26'
p60
tp61
Rp62
sg25
Nsg26
Nsaa(lp63
(dp64
S'all'
p65
(lp66
S"go to mallory maroon 's office"
p67
asg23
(lp68
S"i don' 's know"
p69
asg25
(lp70
sg26
(lp71
sg3
(lp72
sg14
(lp73
S'mallory maroon'
p74
asa(dp75
g65
(lp76
S'deliver the can of soda to dr nancy nagel'
p77
asg23
(lp78
S'a red can of soda'
p79
asg25
(lp80
sg26
(lp81
sg3
(lp82
sg14
(lp83
S'dr nancy nagel'
p84
asa(dp85
g65
(lp86
S"go to robert brown 's office to retrieve the soda can bring it to the pod in between mallory maroon 's office and peggy parker 's office"
p87
asg23
(lp88
S'a red soda can'
p89
aS'a red soda can'
p90
aS'a red soda can'
p91
asg25
(lp92
sg26
(lp93
sg3
(lp94
sg14
(lp95
S'the pod'
p96
aS'pod'
p97
asaa(lp98
(g4
(g5
(S'S4'
p99
I0
I1
tp100
Rp101
(I3
S'|'
p102
NNNI4
I1
I0
tp103
bS'blue'
p104
tp105
Rp106
I30
I0
tp107
a(g4
(g5
(S'S6'
p108
I0
I1
tp109
Rp110
(I3
S'|'
p111
NNNI6
I1
I0
tp112
bS'coffee'
p113
tp114
Rp115
I5
I0
tp116
a(g115
I14
I0
tp117
a(g115
I8
I0
tp118
a(g115
I15
I0
tp119
a(g115
I1
I0
tp120
a(g115
I30
I0
tp121
a(g115
I29
I0
tp122
a(g115
I31
I0
tp123
a(g4
(g5
(S'S5'
p124
I0
I1
tp125
Rp126
(I3
S'|'
p127
NNNI5
I1
I0
tp128
bS'block'
p129
tp130
Rp131
I5
I0
tp132
a(g131
I14
I0
tp133
a(g131
I8
I0
tp134
a(g131
I15
I0
tp135
a(g131
I1
I0
tp136
a(g131
I30
I0
tp137
a(g131
I29
I0
tp138
a(g131
I31
I0
tp139
a(g4
(g5
(S'S5'
p140
I0
I1
tp141
Rp142
(I3
S'|'
p143
NNNI5
I1
I0
tp144
bS'empty'
p145
tp146
Rp147
I14
I0
tp148
a(g4
(g5
(S'S4'
p149
I0
I1
tp150
Rp151
(I3
S'|'
p152
NNNI4
I1
I0
tp153
bS'bean'
p154
tp155
Rp156
I14
I1
tp157
a(g4
(g5
(S'S5'
p158
I0
I1
tp159
Rp160
(I3
S'|'
p161
NNNI5
I1
I0
tp162
bS'clear'
p163
tp164
Rp165
I5
I0
tp166
a(g165
I14
I0
tp167
a(g165
I8
I0
tp168
a(g165
I15
I0
tp169
a(g165
I1
I0
tp170
a(g165
I30
I0
tp171
a(g165
I29
I0
tp172
a(g165
I31
I0
tp173
a(g4
(g5
(S'S4'
p174
I0
I1
tp175
Rp176
(I3
S'|'
p177
NNNI4
I1
I0
tp178
bS'long'
p179
tp180
Rp181
I31
I0
tp182
a(g4
(g5
(S'S8'
p183
I0
I1
tp184
Rp185
(I3
S'|'
p186
NNNI8
I1
I0
tp187
bS'cylinder'
p188
tp189
Rp190
I8
I1
tp191
a(g4
(g5
(S'S3'
p192
I0
I1
tp193
Rp194
(I3
S'|'
p195
NNNI3
I1
I0
tp196
bS'can'
p197
tp198
Rp199
I15
I1
tp200
a(g4
(g5
(S'S3'
p201
I0
I1
tp202
Rp203
(I3
S'|'
p204
NNNI3
I1
I0
tp205
bS'can'
p206
tp207
Rp208
I5
I1
tp209
a(g4
(g5
(S'S3'
p210
I0
I1
tp211
Rp212
(I3
S'|'
p213
NNNI3
I1
I0
tp214
bS'can'
p215
tp216
Rp217
I8
I1
tp218
a(g4
(g5
(S'S3'
p219
I0
I1
tp220
Rp221
(I3
S'|'
p222
NNNI3
I1
I0
tp223
bS'can'
p224
tp225
Rp226
I15
I1
tp227
a(g4
(g5
(S'S3'
p228
I0
I1
tp229
Rp230
(I3
S'|'
p231
NNNI3
I1
I0
tp232
bS'can'
p233
tp234
Rp235
I8
I1
tp236
a(g4
(g5
(S'S3'
p237
I0
I1
tp238
Rp239
(I3
S'|'
p240
NNNI3
I1
I0
tp241
bS'can'
p242
tp243
Rp244
I1
I1
tp245
a(g4
(g5
(S'S3'
p246
I0
I1
tp247
Rp248
(I3
S'|'
p249
NNNI3
I1
I0
tp250
bS'can'
p251
tp252
Rp253
I5
I1
tp254
aa(lp255
a.