(lp0
(lp1
(dp2
S'action'
p3
cnumpy.core.multiarray
scalar
p4
(cnumpy
dtype
p5
(S'S4'
p6
I0
I1
tp7
Rp8
(I3
S'|'
p9
NNNI4
I1
I0
tp10
bS'walk'
p11
tp12
Rp13
sS'recipient'
p14
NsS'patient'
p15
NsS'goal'
p16
S'3518'
p17
sS'source'
p18
Nsa(dp19
g3
g4
(g5
(S'S5'
p20
I0
I1
tp21
Rp22
(I3
S'|'
p23
NNNI5
I1
I0
tp24
bS'bring'
p25
tp26
Rp27
sg14
S's'
p28
sg15
S'oidx_28'
p29
sg16
Nsg18
Nsa(dp30
g3
g4
(g5
(S'S4'
p31
I0
I1
tp32
Rp33
(I3
S'|'
p34
NNNI4
I1
I0
tp35
bS'move'
p36
tp37
Rp38
sg14
Nsg15
S'oidx_25'
p39
sg16
S'3432'
p40
sg18
S'3424'
p41
saa(lp42
(dp43
S'all'
p44
(lp45
S'move'
p46
asg15
(lp47
sg16
(lp48
S'office'
p49
aS'ok'
p50
asg18
(lp51
sg3
(lp52
sg14
(lp53
sa(dp54
g44
(lp55
S'yes'
p56
asg15
(lp57
S'blue'
p58
asg16
(lp59
sg18
(lp60
sg3
(lp61
sg14
(lp62
S'h'
p63
asa(dp64
g44
(lp65
S'move'
p66
asg15
(lp67
sg16
(lp68
sg18
(lp69
S'small'
p70
aS'yellow'
p71
aS'yes'
p72
aS'pod'
p73
asg3
(lp74
sg14
(lp75
saa(lp76
(g4
(g5
(S'S3'
p77
I0
I1
tp78
Rp79
(I3
S'|'
p80
NNNI3
I1
I0
tp81
bS'can'
p82
tp83
Rp84
I15
I1
tp85
a(g4
(g5
(S'S5'
p86
I0
I1
tp87
Rp88
(I3
S'|'
p89
NNNI5
I1
I0
tp90
bS'empty'
p91
tp92
Rp93
I14
I1
tp94
a(g4
(g5
(S'S5'
p95
I0
I1
tp96
Rp97
(I3
S'|'
p98
NNNI5
I1
I0
tp99
bS'small'
p100
tp101
Rp102
I30
I1
tp103
a(g4
(g5
(S'S5'
p104
I0
I1
tp105
Rp106
(I3
S'|'
p107
NNNI5
I1
I0
tp108
bS'clear'
p109
tp110
Rp111
I15
I1
tp112
a(g4
(g5
(S'S6'
p113
I0
I1
tp114
Rp115
(I3
S'|'
p116
NNNI6
I1
I0
tp117
bS'yellow'
p118
tp119
Rp120
I14
I1
tp121
a(g4
(g5
(S'S6'
p122
I0
I1
tp123
Rp124
(I3
S'|'
p125
NNNI6
I1
I0
tp126
bS'column'
p127
tp128
Rp129
I5
I1
tp130
a(g4
(g5
(S'S8'
p131
I0
I1
tp132
Rp133
(I3
S'|'
p134
NNNI8
I1
I0
tp135
bS'metallic'
p136
tp137
Rp138
I1
I1
tp139
a(g4
(g5
(S'S5'
p140
I0
I1
tp141
Rp142
(I3
S'|'
p143
NNNI5
I1
I0
tp144
bS'peach'
p145
tp146
Rp147
I29
I1
tp148
a(g4
(g5
(S'S4'
p149
I0
I1
tp150
Rp151
(I3
S'|'
p152
NNNI4
I1
I0
tp153
bS'blue'
p154
tp155
Rp156
I15
I1
tp157
a(g4
(g5
(S'S4'
p158
I0
I1
tp159
Rp160
(I3
S'|'
p161
NNNI4
I1
I0
tp162
bS'blue'
p163
tp164
Rp165
I29
I1
tp166
a(g4
(g5
(S'S6'
p167
I0
I1
tp168
Rp169
(I3
S'|'
p170
NNNI6
I1
I0
tp171
bS'yellow'
p172
tp173
Rp174
I31
I1
tp175
a(g4
(g5
(S'S6'
p176
I0
I1
tp177
Rp178
(I3
S'|'
p179
NNNI6
I1
I0
tp180
bS'column'
p181
tp182
Rp183
I8
I1
tp184
a(g4
(g5
(S'S5'
p185
I0
I1
tp186
Rp187
(I3
S'|'
p188
NNNI5
I1
I0
tp189
bS'small'
p190
tp191
Rp192
I1
I0
tp193
a(g4
(g5
(S'S8'
p194
I0
I1
tp195
Rp196
(I3
S'|'
p197
NNNI8
I1
I0
tp198
bS'metallic'
p199
tp200
Rp201
I5
I1
tp202
a(g4
(g5
(S'S6'
p203
I0
I1
tp204
Rp205
(I3
S'|'
p206
NNNI6
I1
I0
tp207
bS'yellow'
p208
tp209
Rp210
I1
I1
tp211
aa(lp212
(g63
g4
(g5
(S'S5'
p213
I0
I1
tp214
Rp215
(I3
S'|'
p216
NNNI5
I1
I0
tp217
bS'small'
p218
tp219
Rp220
I01
tp221
aa.