(lp0
(lp1
(dp2
S'action'
p3
cnumpy.core.multiarray
scalar
p4
(cnumpy
dtype
p5
(S'S4'
p6
I0
I1
tp7
Rp8
(I3
S'|'
p9
NNNI4
I1
I0
tp10
bS'move'
p11
tp12
Rp13
sS'recipient'
p14
NsS'patient'
p15
g4
(g5
(S'S7'
p16
I0
I1
tp17
Rp18
(I3
S'|'
p19
NNNI7
I1
I0
tp20
bS'oidx_22'
p21
tp22
Rp23
sS'goal'
p24
g4
(g5
(S'S4'
p25
I0
I1
tp26
Rp27
(I3
S'|'
p28
NNNI4
I1
I0
tp29
bS'3404'
p30
tp31
Rp32
sS'source'
p33
g4
(g5
(S'S4'
p34
I0
I1
tp35
Rp36
(I3
S'|'
p37
NNNI4
I1
I0
tp38
bS'3520'
p39
tp40
Rp41
saa(lp42
(dp43
S'all'
p44
(lp45
S"please go to dr nancy nagel 's office"
p46
asg15
(lp47
S'the can'
p48
aS'the butter'
p49
aS'the styrofoam'
p50
aS'the spray'
p51
aS'an object'
p52
aS'the water bottle'
p53
asg24
(lp54
S"dr nancy nagel 's office"
p55
asg33
(lp56
S'the kitchen'
p57
asg3
(lp58
sg14
(lp59
saa(lp60
(g4
(g5
(S'S5'
p61
I0
I1
tp62
Rp63
(I3
S'|'
p64
NNNI5
I1
I0
tp65
bS'spice'
p66
tp67
Rp68
I5
I0
tp69
a(g68
I14
I0
tp70
a(g68
I8
I0
tp71
a(g68
I15
I0
tp72
a(g68
I1
I0
tp73
a(g68
I30
I0
tp74
a(g68
I29
I0
tp75
a(g68
I31
I0
tp76
a(g4
(g5
(S'S9'
p77
I0
I1
tp78
Rp79
(I3
S'|'
p80
NNNI9
I1
I0
tp81
bS'styrofoam'
p82
tp83
Rp84
I31
I0
tp85
a(g4
(g5
(S'S3'
p86
I0
I1
tp87
Rp88
(I3
S'|'
p89
NNNI3
I1
I0
tp90
bS'can'
p91
tp92
Rp93
I14
I0
tp94
a(g4
(g5
(S'S9'
p95
I0
I1
tp96
Rp97
(I3
S'|'
p98
NNNI9
I1
I0
tp99
bS'styrofoam'
p100
tp101
Rp102
I30
I0
tp103
a(g4
(g5
(S'S9'
p104
I0
I1
tp105
Rp106
(I3
S'|'
p107
NNNI9
I1
I0
tp108
bS'styrofoam'
p109
tp110
Rp111
I1
I0
tp112
aa(lp113
a.