(lp0
(lp1
(dp2
S'action'
p3
cnumpy.core.multiarray
scalar
p4
(cnumpy
dtype
p5
(S'S5'
p6
I0
I1
tp7
Rp8
(I3
S'|'
p9
NNNI5
I1
I0
tp10
bS'bring'
p11
tp12
Rp13
sS'recipient'
p14
S'w'
p15
sS'patient'
p16
S'oidx_22'
p17
sS'goal'
p18
NsS'source'
p19
Nsa(dp20
g3
g4
(g5
(S'S4'
p21
I0
I1
tp22
Rp23
(I3
S'|'
p24
NNNI4
I1
I0
tp25
bS'walk'
p26
tp27
Rp28
sg14
Nsg16
Nsg18
g4
(g5
(S'S4'
p29
I0
I1
tp30
Rp31
(I3
S'|'
p32
NNNI4
I1
I0
tp33
bS'3422'
p34
tp35
Rp36
sg19
Nsa(dp37
g3
g4
(g5
(S'S4'
p38
I0
I1
tp39
Rp40
(I3
S'|'
p41
NNNI4
I1
I0
tp42
bS'walk'
p43
tp44
Rp45
sg14
Nsg16
Nsg18
S'3410'
p46
sg19
Nsaa(lp47
(dp48
S'all'
p49
(lp50
S'yes'
p51
asg16
(lp52
S'anything product'
p53
aS'food'
p54
asg18
(lp55
sg19
(lp56
sg3
(lp57
sg14
(lp58
sa(dp59
g49
(lp60
S'something for me'
p61
asg16
(lp62
sg18
(lp63
S'office d'
p64
aS'i shall go office'
p65
aS'thank you'
p66
aS'yes'
p67
asg19
(lp68
sg3
(lp69
sg14
(lp70
sa(dp71
g49
(lp72
S'office b'
p73
asg16
(lp74
sg18
(lp75
S'd'
p76
aS'kitchen'
p77
asg19
(lp78
sg3
(lp79
sg14
(lp80
saa(lp81
(g4
(g5
(S'S4'
p82
I0
I1
tp83
Rp84
(I3
S'|'
p85
NNNI4
I1
I0
tp86
bS'blue'
p87
tp88
Rp89
I30
I1
tp90
a(g4
(g5
(S'S9'
p91
I0
I1
tp92
Rp93
(I3
S'|'
p94
NNNI9
I1
I0
tp95
bS'styrofoam'
p96
tp97
Rp98
I30
I1
tp99
a(g4
(g5
(S'S8'
p100
I0
I1
tp101
Rp102
(I3
S'|'
p103
NNNI8
I1
I0
tp104
bS'metallic'
p105
tp106
Rp107
I29
I1
tp108
a(g4
(g5
(S'S8'
p109
I0
I1
tp110
Rp111
(I3
S'|'
p112
NNNI8
I1
I0
tp113
bS'pringles'
p114
tp115
Rp116
I15
I1
tp117
a(g4
(g5
(S'S3'
p118
I0
I1
tp119
Rp120
(I3
S'|'
p121
NNNI3
I1
I0
tp122
bS'can'
p123
tp124
Rp125
I8
I1
tp126
a(g4
(g5
(S'S8'
p127
I0
I1
tp128
Rp129
(I3
S'|'
p130
NNNI8
I1
I0
tp131
bS'cylinder'
p132
tp133
Rp134
I14
I1
tp135
a(g4
(g5
(S'S3'
p136
I0
I1
tp137
Rp138
(I3
S'|'
p139
NNNI3
I1
I0
tp140
bS'can'
p141
tp142
Rp143
I30
I1
tp144
a(g4
(g5
(S'S8'
p145
I0
I1
tp146
Rp147
(I3
S'|'
p148
NNNI8
I1
I0
tp149
bS'cylinder'
p150
tp151
Rp152
I8
I1
tp153
a(g4
(g5
(S'S8'
p154
I0
I1
tp155
Rp156
(I3
S'|'
p157
NNNI8
I1
I0
tp158
bS'pringles'
p159
tp160
Rp161
I5
I1
tp162
a(g4
(g5
(S'S4'
p163
I0
I1
tp164
Rp165
(I3
S'|'
p166
NNNI4
I1
I0
tp167
bS'long'
p168
tp169
Rp170
I30
I0
tp171
a(g4
(g5
(S'S5'
p172
I0
I1
tp173
Rp174
(I3
S'|'
p175
NNNI5
I1
I0
tp176
bS'peach'
p177
tp178
Rp179
I31
I1
tp180
a(g4
(g5
(S'S4'
p181
I0
I1
tp182
Rp183
(I3
S'|'
p184
NNNI4
I1
I0
tp185
bS'bean'
p186
tp187
Rp188
I1
I1
tp189
a(g4
(g5
(S'S5'
p190
I0
I1
tp191
Rp192
(I3
S'|'
p193
NNNI5
I1
I0
tp194
bS'tower'
p195
tp196
Rp197
I15
I1
tp198
a(g4
(g5
(S'S3'
p199
I0
I1
tp200
Rp201
(I3
S'|'
p202
NNNI3
I1
I0
tp203
bS'can'
p204
tp205
Rp206
I31
I1
tp207
a(g4
(g5
(S'S5'
p208
I0
I1
tp209
Rp210
(I3
S'|'
p211
NNNI5
I1
I0
tp212
bS'empty'
p213
tp214
Rp215
I8
I1
tp216
aa(lp217
(S'anything'
p218
S'can'
p219
I01
tp220
a(S'product'
p221
S'container'
p222
I01
tp223
a(g54
S'jar'
p224
I01
tp225
a(S'd'
p226
g4
(g5
(S'S5'
p227
I0
I1
tp228
Rp229
(I3
S'|'
p230
NNNI5
I1
I0
tp231
bS'small'
p232
tp233
Rp234
I01
tp235
a(S'shall'
p236
g219
I01
tp237
aa.