(lp0
(lp1
(dp2
S'action'
p3
cnumpy.core.multiarray
scalar
p4
(cnumpy
dtype
p5
(S'S4'
p6
I0
I1
tp7
Rp8
(I3
S'|'
p9
NNNI4
I1
I0
tp10
bS'walk'
p11
tp12
Rp13
sS'recipient'
p14
NsS'patient'
p15
NsS'goal'
p16
S'3504'
p17
sS'source'
p18
Nsa(dp19
g3
g4
(g5
(S'S4'
p20
I0
I1
tp21
Rp22
(I3
S'|'
p23
NNNI4
I1
I0
tp24
bS'walk'
p25
tp26
Rp27
sg14
Nsg15
Nsg16
S'3406'
p28
sg18
Nsaa(lp29
(dp30
S'all'
p31
(lp32
S'walk'
p33
asg15
(lp34
sg16
(lp35
S'kitchen'
p36
aS'left'
p37
aS'david'
p38
aS'up'
p39
aS'go to the lab'
p40
aS'p'
p41
aS'peggy parker'
p42
asg18
(lp43
sg3
(lp44
sg14
(lp45
sa(dp46
g31
(lp47
S'get can'
p48
asg15
(lp49
sg16
(lp50
S'heidi hughes needs can'
p51
aS'heidi hughes'
p52
aS'drink'
p53
aS'h'
p54
aS'can'
p55
aS'up'
p56
aS'top'
p57
aS'bottom'
p58
aS'take'
p59
asg18
(lp60
sg3
(lp61
sg14
(lp62
saa(lp63
(g4
(g5
(S'S6'
p64
I0
I1
tp65
Rp66
(I3
S'|'
p67
NNNI6
I1
I0
tp68
bS'coffee'
p69
tp70
Rp71
I5
I0
tp72
a(g71
I14
I0
tp73
a(g71
I8
I0
tp74
a(g71
I15
I0
tp75
a(g71
I1
I0
tp76
a(g71
I30
I0
tp77
a(g71
I29
I0
tp78
a(g71
I31
I0
tp79
a(g4
(g5
(S'S6'
p80
I0
I1
tp81
Rp82
(I3
S'|'
p83
NNNI6
I1
I0
tp84
bS'yellow'
p85
tp86
Rp87
I5
I1
tp88
a(g4
(g5
(S'S5'
p89
I0
I1
tp90
Rp91
(I3
S'|'
p92
NNNI5
I1
I0
tp93
bS'empty'
p94
tp95
Rp96
I14
I0
tp97
a(g4
(g5
(S'S5'
p98
I0
I1
tp99
Rp100
(I3
S'|'
p101
NNNI5
I1
I0
tp102
bS'spice'
p103
tp104
Rp105
I5
I0
tp106
a(g105
I14
I0
tp107
a(g105
I8
I0
tp108
a(g105
I15
I0
tp109
a(g105
I1
I0
tp110
a(g105
I30
I0
tp111
a(g105
I29
I0
tp112
a(g105
I31
I0
tp113
a(g4
(g5
(S'S4'
p114
I0
I1
tp115
Rp116
(I3
S'|'
p117
NNNI4
I1
I0
tp118
bS'blue'
p119
tp120
Rp121
I30
I0
tp122
a(g4
(g5
(S'S8'
p123
I0
I1
tp124
Rp125
(I3
S'|'
p126
NNNI8
I1
I0
tp127
bS'metallic'
p128
tp129
Rp130
I8
I1
tp131
a(g4
(g5
(S'S5'
p132
I0
I1
tp133
Rp134
(I3
S'|'
p135
NNNI5
I1
I0
tp136
bS'peach'
p137
tp138
Rp139
I1
I1
tp140
a(g4
(g5
(S'S9'
p141
I0
I1
tp142
Rp143
(I3
S'|'
p144
NNNI9
I1
I0
tp145
bS'rectangle'
p146
tp147
Rp148
I5
I0
tp149
a(g148
I14
I0
tp150
a(g148
I8
I0
tp151
a(g148
I15
I0
tp152
a(g148
I1
I0
tp153
a(g148
I30
I0
tp154
a(g148
I29
I0
tp155
a(g148
I31
I0
tp156
a(g4
(g5
(S'S5'
p157
I0
I1
tp158
Rp159
(I3
S'|'
p160
NNNI5
I1
I0
tp161
bS'clear'
p162
tp163
Rp164
I5
I0
tp165
a(g164
I14
I0
tp166
a(g164
I8
I0
tp167
a(g164
I15
I0
tp168
a(g164
I1
I0
tp169
a(g164
I30
I0
tp170
a(g164
I29
I0
tp171
a(g164
I31
I0
tp172
a(g4
(g5
(S'S9'
p173
I0
I1
tp174
Rp175
(I3
S'|'
p176
NNNI9
I1
I0
tp177
bS'container'
p178
tp179
Rp180
I31
I0
tp181
aa(lp182
a.