(lp0
(lp1
(dp2
S'action'
p3
cnumpy.core.multiarray
scalar
p4
(cnumpy
dtype
p5
(S'S4'
p6
I0
I1
tp7
Rp8
(I3
S'|'
p9
NNNI4
I1
I0
tp10
bS'walk'
p11
tp12
Rp13
sS'recipient'
p14
NsS'patient'
p15
NsS'goal'
p16
g4
(g5
(S'S4'
p17
I0
I1
tp18
Rp19
(I3
S'|'
p20
NNNI4
I1
I0
tp21
bS'3506'
p22
tp23
Rp24
sS'source'
p25
Nsa(dp26
g3
g4
(g5
(S'S5'
p27
I0
I1
tp28
Rp29
(I3
S'|'
p30
NNNI5
I1
I0
tp31
bS'bring'
p32
tp33
Rp34
sg14
g4
(g5
(S'S1'
p35
I0
I1
tp36
Rp37
(I3
S'|'
p38
NNNI1
I1
I0
tp39
bS'd'
p40
tp41
Rp42
sg15
S'oidx_28'
p43
sg16
Nsg25
Nsaa(lp44
(dp45
S'all'
p46
(lp47
S'go forward'
p48
asg15
(lp49
sg16
(lp50
S'office b'
p51
aS'office'
p52
aS'to the printer'
p53
asg25
(lp54
sg3
(lp55
sg14
(lp56
sa(dp57
g46
(lp58
S'give the can to the person'
p59
asg15
(lp60
S'the can'
p61
aS'the object'
p62
aS'the soda can'
p63
aS'nothing'
p64
aS'nothing'
p65
aS'nothing'
p66
asg16
(lp67
sg25
(lp68
sg3
(lp69
sg14
(lp70
saa(lp71
(g4
(g5
(S'S8'
p72
I0
I1
tp73
Rp74
(I3
S'|'
p75
NNNI8
I1
I0
tp76
bS'cylinder'
p77
tp78
Rp79
I8
I1
tp80
a(g4
(g5
(S'S3'
p81
I0
I1
tp82
Rp83
(I3
S'|'
p84
NNNI3
I1
I0
tp85
bS'can'
p86
tp87
Rp88
I31
I0
tp89
a(g4
(g5
(S'S4'
p90
I0
I1
tp91
Rp92
(I3
S'|'
p93
NNNI4
I1
I0
tp94
bS'blue'
p95
tp96
Rp97
I29
I1
tp98
a(g4
(g5
(S'S5'
p99
I0
I1
tp100
Rp101
(I3
S'|'
p102
NNNI5
I1
I0
tp103
bS'empty'
p104
tp105
Rp106
I14
I0
tp107
a(g4
(g5
(S'S9'
p108
I0
I1
tp109
Rp110
(I3
S'|'
p111
NNNI9
I1
I0
tp112
bS'styrofoam'
p113
tp114
Rp115
I14
I0
tp116
a(g4
(g5
(S'S3'
p117
I0
I1
tp118
Rp119
(I3
S'|'
p120
NNNI3
I1
I0
tp121
bS'can'
p122
tp123
Rp124
I1
I1
tp125
a(g4
(g5
(S'S3'
p126
I0
I1
tp127
Rp128
(I3
S'|'
p129
NNNI3
I1
I0
tp130
bS'can'
p131
tp132
Rp133
I30
I0
tp134
a(g4
(g5
(S'S3'
p135
I0
I1
tp136
Rp137
(I3
S'|'
p138
NNNI3
I1
I0
tp139
bS'can'
p140
tp141
Rp142
I15
I1
tp143
a(g4
(g5
(S'S3'
p144
I0
I1
tp145
Rp146
(I3
S'|'
p147
NNNI3
I1
I0
tp148
bS'can'
p149
tp150
Rp151
I29
I0
tp152
a(g4
(g5
(S'S3'
p153
I0
I1
tp154
Rp155
(I3
S'|'
p156
NNNI3
I1
I0
tp157
bS'can'
p158
tp159
Rp160
I5
I1
tp161
aa(lp162
a.