(lp0
(lp1
(dp2
S'action'
p3
cnumpy.core.multiarray
scalar
p4
(cnumpy
dtype
p5
(S'S4'
p6
I0
I1
tp7
Rp8
(I3
S'|'
p9
NNNI4
I1
I0
tp10
bS'walk'
p11
tp12
Rp13
sS'recipient'
p14
NsS'patient'
p15
NsS'goal'
p16
g4
(g5
(S'S4'
p17
I0
I1
tp18
Rp19
(I3
S'|'
p20
NNNI4
I1
I0
tp21
bS'3430'
p22
tp23
Rp24
sS'source'
p25
Nsa(dp26
g3
g4
(g5
(S'S4'
p27
I0
I1
tp28
Rp29
(I3
S'|'
p30
NNNI4
I1
I0
tp31
bS'move'
p32
tp33
Rp34
sg14
Nsg15
S'oidx_22'
p35
sg16
S'3510'
p36
sg25
g4
(g5
(S'S4'
p37
I0
I1
tp38
Rp39
(I3
S'|'
p40
NNNI4
I1
I0
tp41
bS'3502'
p42
tp43
Rp44
sa(dp45
g3
g4
(g5
(S'S4'
p46
I0
I1
tp47
Rp48
(I3
S'|'
p49
NNNI4
I1
I0
tp50
bS'walk'
p51
tp52
Rp53
sg14
Nsg15
Nsg16
g4
(g5
(S'S4'
p54
I0
I1
tp55
Rp56
(I3
S'|'
p57
NNNI4
I1
I0
tp58
bS'3432'
p59
tp60
Rp61
sg25
Nsaa(lp62
(dp63
S'all'
p64
(lp65
S"walk to dr sybil smalt 's office"
p66
asg15
(lp67
sg16
(lp68
sg25
(lp69
sg3
(lp70
sg14
(lp71
sa(dp72
g64
(lp73
S'take the red capped product and deliver it'
p74
asg15
(lp75
S'move the product with white and red'
p76
aS'the product that closed with red color'
p77
aS'move the antibacterial product'
p78
asg16
(lp79
sg25
(lp80
S'move to the person who needs it'
p81
aS"walk to mallory mal maroon 's office"
p82
aS'to the customer'
p83
asg3
(lp84
sg14
(lp85
sa(dp86
g64
(lp87
S'walk to the green map'
p88
asg15
(lp89
sg16
(lp90
S'go to pod in pink map'
p91
aS'go to pink map'
p92
aS'go to the pod in above map'
p93
aS'walk to pod'
p94
aS'walk to pod in another map'
p95
aS'walk to pod in pink colored map'
p96
aS'you are in the wrong map move to pod in next map'
p97
aS'walk to pod in pink map'
p98
aS"walk to office next to dr sybil smalt 's office"
p99
aS'move to office'
p100
aS"walk to office near to dr sybil smalt 's office"
p101
asg25
(lp102
sg3
(lp103
sg14
(lp104
saa(lp105
(g4
(g5
(S'S3'
p106
I0
I1
tp107
Rp108
(I3
S'|'
p109
NNNI3
I1
I0
tp110
bS'red'
p111
tp112
Rp113
I5
I1
tp114
a(g113
I14
I1
tp115
a(g113
I8
I1
tp116
a(g113
I15
I1
tp117
a(g113
I1
I1
tp118
a(g113
I30
I1
tp119
a(g113
I29
I1
tp120
a(g113
I31
I1
tp121
a(g4
(g5
(S'S5'
p122
I0
I1
tp123
Rp124
(I3
S'|'
p125
NNNI5
I1
I0
tp126
bS'block'
p127
tp128
Rp129
I8
I1
tp130
a(g4
(g5
(S'S5'
p131
I0
I1
tp132
Rp133
(I3
S'|'
p134
NNNI5
I1
I0
tp135
bS'small'
p136
tp137
Rp138
I29
I0
tp139
a(g4
(g5
(S'S5'
p140
I0
I1
tp141
Rp142
(I3
S'|'
p143
NNNI5
I1
I0
tp144
bS'block'
p145
tp146
Rp147
I31
I1
tp148
a(g4
(g5
(S'S6'
p149
I0
I1
tp150
Rp151
(I3
S'|'
p152
NNNI6
I1
I0
tp153
bS'column'
p154
tp155
Rp156
I14
I0
tp157
a(g4
(g5
(S'S8'
p158
I0
I1
tp159
Rp160
(I3
S'|'
p161
NNNI8
I1
I0
tp162
bS'cylinder'
p163
tp164
Rp165
I8
I1
tp166
a(g4
(g5
(S'S8'
p167
I0
I1
tp168
Rp169
(I3
S'|'
p170
NNNI8
I1
I0
tp171
bS'cylinder'
p172
tp173
Rp174
I8
I1
tp175
a(g4
(g5
(S'S5'
p176
I0
I1
tp177
Rp178
(I3
S'|'
p179
NNNI5
I1
I0
tp180
bS'peach'
p181
tp182
Rp183
I14
I1
tp184
a(g4
(g5
(S'S5'
p185
I0
I1
tp186
Rp187
(I3
S'|'
p188
NNNI5
I1
I0
tp189
bS'tower'
p190
tp191
Rp192
I29
I1
tp193
a(g4
(g5
(S'S5'
p194
I0
I1
tp195
Rp196
(I3
S'|'
p197
NNNI5
I1
I0
tp198
bS'white'
p199
tp200
Rp201
I31
I1
tp202
a(g4
(g5
(S'S5'
p203
I0
I1
tp204
Rp205
(I3
S'|'
p206
NNNI5
I1
I0
tp207
bS'white'
p208
tp209
Rp210
I14
I1
tp211
a(g4
(g5
(S'S8'
p212
I0
I1
tp213
Rp214
(I3
S'|'
p215
NNNI8
I1
I0
tp216
bS'cylinder'
p217
tp218
Rp219
I8
I1
tp220
a(g4
(g5
(S'S5'
p221
I0
I1
tp222
Rp223
(I3
S'|'
p224
NNNI5
I1
I0
tp225
bS'block'
p226
tp227
Rp228
I29
I1
tp229
a(g4
(g5
(S'S5'
p230
I0
I1
tp231
Rp232
(I3
S'|'
p233
NNNI5
I1
I0
tp234
bS'brown'
p235
tp236
Rp237
I14
I0
tp238
a(g4
(g5
(S'S5'
p239
I0
I1
tp240
Rp241
(I3
S'|'
p242
NNNI5
I1
I0
tp243
bS'tower'
p244
tp245
Rp246
I31
I1
tp247
aa(lp248
(S'green'
p249
S'yellow'
p250
I01
tp251
a(S'colored'
p252
S'is'
p253
I01
tp254
aa.