(lp0
(lp1
(dp2
S'action'
p3
cnumpy.core.multiarray
scalar
p4
(cnumpy
dtype
p5
(S'S4'
p6
I0
I1
tp7
Rp8
(I3
S'|'
p9
NNNI4
I1
I0
tp10
bS'walk'
p11
tp12
Rp13
sS'recipient'
p14
NsS'patient'
p15
NsS'goal'
p16
S'3514'
p17
sS'source'
p18
Nsaa(lp19
(dp20
S'all'
p21
(lp22
S'go to the x marked on the ma['
p23
asg15
(lp24
sg16
(lp25
S"to the pod closest to richard rogue 's office"
p26
aS'to the conference room'
p27
asg18
(lp28
sg3
(lp29
sg14
(lp30
saa(lp31
(g4
(g5
(S'S5'
p32
I0
I1
tp33
Rp34
(I3
S'|'
p35
NNNI5
I1
I0
tp36
bS'clear'
p37
tp38
Rp39
I5
I0
tp40
a(g39
I14
I0
tp41
a(g39
I8
I0
tp42
a(g39
I15
I0
tp43
a(g39
I1
I0
tp44
a(g39
I30
I0
tp45
a(g39
I29
I0
tp46
a(g39
I31
I0
tp47
a(g4
(g5
(S'S8'
p48
I0
I1
tp49
Rp50
(I3
S'|'
p51
NNNI8
I1
I0
tp52
bS'pringles'
p53
tp54
Rp55
I5
I0
tp56
a(g55
I14
I0
tp57
a(g55
I8
I0
tp58
a(g55
I15
I0
tp59
a(g55
I1
I0
tp60
a(g55
I30
I0
tp61
a(g55
I29
I0
tp62
a(g55
I31
I0
tp63
a(g4
(g5
(S'S8'
p64
I0
I1
tp65
Rp66
(I3
S'|'
p67
NNNI8
I1
I0
tp68
bS'cylinder'
p69
tp70
Rp71
I8
I1
tp72
a(g4
(g5
(S'S9'
p73
I0
I1
tp74
Rp75
(I3
S'|'
p76
NNNI9
I1
I0
tp77
bS'container'
p78
tp79
Rp80
I30
I1
tp81
a(g4
(g5
(S'S5'
p82
I0
I1
tp83
Rp84
(I3
S'|'
p85
NNNI5
I1
I0
tp86
bS'small'
p87
tp88
Rp89
I30
I0
tp90
aa(lp91
(S'x'
p92
S'food'
p93
I00
tp94
a(g92
S'body'
p95
I00
tp96
aa.