(lp0
(lp1
(dp2
S'action'
p3
cnumpy.core.multiarray
scalar
p4
(cnumpy
dtype
p5
(S'S4'
p6
I0
I1
tp7
Rp8
(I3
S'|'
p9
NNNI4
I1
I0
tp10
bS'walk'
p11
tp12
Rp13
sS'recipient'
p14
NsS'patient'
p15
NsS'goal'
p16
S'3506'
p17
sS'source'
p18
Nsa(dp19
g3
g4
(g5
(S'S5'
p20
I0
I1
tp21
Rp22
(I3
S'|'
p23
NNNI5
I1
I0
tp24
bS'bring'
p25
tp26
Rp27
sg14
g4
(g5
(S'S1'
p28
I0
I1
tp29
Rp30
(I3
S'|'
p31
NNNI1
I1
I0
tp32
bS'h'
p33
tp34
Rp35
sg15
S'oidx_28'
p36
sg16
Nsg18
Nsaa(lp37
(dp38
S'all'
p39
(lp40
S'go to office d'
p41
asg15
(lp42
sg16
(lp43
S'office d'
p44
aS'office d'
p45
aS'office d'
p46
aS'office d'
p47
aS'david daniel'
p48
aS'office'
p49
aS'go to office d'
p50
aS'office d'
p51
asg18
(lp52
sg3
(lp53
sg14
(lp54
sa(dp55
g39
(lp56
S'take styrofoam to heidi hughes'
p57
asg15
(lp58
S'styrofoam'
p59
aS'styrofoam'
p60
asg16
(lp61
sg18
(lp62
sg3
(lp63
sg14
(lp64
saa(lp65
(g4
(g5
(S'S9'
p66
I0
I1
tp67
Rp68
(I3
S'|'
p69
NNNI9
I1
I0
tp70
bS'container'
p71
tp72
Rp73
I31
I1
tp74
a(g4
(g5
(S'S5'
p75
I0
I1
tp76
Rp77
(I3
S'|'
p78
NNNI5
I1
I0
tp79
bS'brown'
p80
tp81
Rp82
I30
I0
tp83
a(g4
(g5
(S'S3'
p84
I0
I1
tp85
Rp86
(I3
S'|'
p87
NNNI3
I1
I0
tp88
bS'can'
p89
tp90
Rp91
I8
I1
tp92
a(g4
(g5
(S'S5'
p93
I0
I1
tp94
Rp95
(I3
S'|'
p96
NNNI5
I1
I0
tp97
bS'small'
p98
tp99
Rp100
I31
I0
tp101
a(g4
(g5
(S'S5'
p102
I0
I1
tp103
Rp104
(I3
S'|'
p105
NNNI5
I1
I0
tp106
bS'brown'
p107
tp108
Rp109
I31
I1
tp110
a(g4
(g5
(S'S5'
p111
I0
I1
tp112
Rp113
(I3
S'|'
p114
NNNI5
I1
I0
tp115
bS'block'
p116
tp117
Rp118
I5
I0
tp119
a(g118
I14
I0
tp120
a(g118
I8
I0
tp121
a(g118
I15
I0
tp122
a(g118
I1
I0
tp123
a(g118
I30
I0
tp124
a(g118
I29
I0
tp125
a(g118
I31
I0
tp126
a(g4
(g5
(S'S6'
p127
I0
I1
tp128
Rp129
(I3
S'|'
p130
NNNI6
I1
I0
tp131
bS'yellow'
p132
tp133
Rp134
I5
I1
tp135
a(g4
(g5
(S'S3'
p136
I0
I1
tp137
Rp138
(I3
S'|'
p139
NNNI3
I1
I0
tp140
bS'red'
p141
tp142
Rp143
I5
I0
tp144
a(g4
(g5
(S'S6'
p145
I0
I1
tp146
Rp147
(I3
S'|'
p148
NNNI6
I1
I0
tp149
bS'yellow'
p150
tp151
Rp152
I31
I0
tp153
a(g4
(g5
(S'S5'
p154
I0
I1
tp155
Rp156
(I3
S'|'
p157
NNNI5
I1
I0
tp158
bS'brown'
p159
tp160
Rp161
I14
I0
tp162
aa(lp163
a.