(lp0
(lp1
(dp2
S'action'
p3
cnumpy.core.multiarray
scalar
p4
(cnumpy
dtype
p5
(S'S4'
p6
I0
I1
tp7
Rp8
(I3
S'|'
p9
NNNI4
I1
I0
tp10
bS'walk'
p11
tp12
Rp13
sS'recipient'
p14
NsS'patient'
p15
NsS'goal'
p16
g4
(g5
(S'S4'
p17
I0
I1
tp18
Rp19
(I3
S'|'
p20
NNNI4
I1
I0
tp21
bS'3422'
p22
tp23
Rp24
sS'source'
p25
Nsa(dp26
g3
g4
(g5
(S'S5'
p27
I0
I1
tp28
Rp29
(I3
S'|'
p30
NNNI5
I1
I0
tp31
bS'bring'
p32
tp33
Rp34
sg14
g4
(g5
(S'S1'
p35
I0
I1
tp36
Rp37
(I3
S'|'
p38
NNNI1
I1
I0
tp39
bS'w'
p40
tp41
Rp42
sg15
g4
(g5
(S'S7'
p43
I0
I1
tp44
Rp45
(I3
S'|'
p46
NNNI7
I1
I0
tp47
bS'oidx_12'
p48
tp49
Rp50
sg16
Nsg25
Nsa(dp51
g3
g4
(g5
(S'S4'
p52
I0
I1
tp53
Rp54
(I3
S'|'
p55
NNNI4
I1
I0
tp56
bS'move'
p57
tp58
Rp59
sg14
Nsg15
S'oidx_11'
p60
sg16
g4
(g5
(S'S4'
p61
I0
I1
tp62
Rp63
(I3
S'|'
p64
NNNI4
I1
I0
tp65
bS'3410'
p66
tp67
Rp68
sg25
S'3514'
p69
saa(lp70
(dp71
S'all'
p72
(lp73
S"robot go to walter ward 's office"
p74
asg15
(lp75
sg16
(lp76
sg25
(lp77
sg3
(lp78
sg14
(lp79
sa(dp80
g72
(lp81
S'take the container to walter ward'
p82
asg15
(lp83
S'the container'
p84
aS'the red and white container'
p85
aS'the white container with the red lid'
p86
asg16
(lp87
sg25
(lp88
sg3
(lp89
sg14
(lp90
S'walter ward'
p91
asa(dp92
g72
(lp93
S'take the can from the lounge to the large pod'
p94
asg15
(lp95
sg16
(lp96
S'the pod'
p97
aS'the pod'
p98
aS'the pod'
p99
asg25
(lp100
S'the lounge'
p101
aS'yes'
p102
asg3
(lp103
sg14
(lp104
saa(lp105
(g4
(g5
(S'S9'
p106
I0
I1
tp107
Rp108
(I3
S'|'
p109
NNNI9
I1
I0
tp110
bS'container'
p111
tp112
Rp113
I31
I1
tp114
a(g4
(g5
(S'S9'
p115
I0
I1
tp116
Rp117
(I3
S'|'
p118
NNNI9
I1
I0
tp119
bS'styrofoam'
p120
tp121
Rp122
I31
I0
tp123
a(g4
(g5
(S'S6'
p124
I0
I1
tp125
Rp126
(I3
S'|'
p127
NNNI6
I1
I0
tp128
bS'column'
p129
tp130
Rp131
I31
I0
tp132
a(g4
(g5
(S'S5'
p133
I0
I1
tp134
Rp135
(I3
S'|'
p136
NNNI5
I1
I0
tp137
bS'clear'
p138
tp139
Rp140
I5
I0
tp141
a(g140
I14
I0
tp142
a(g140
I8
I0
tp143
a(g140
I15
I0
tp144
a(g140
I1
I0
tp145
a(g140
I30
I0
tp146
a(g140
I29
I0
tp147
a(g140
I31
I0
tp148
a(g4
(g5
(S'S6'
p149
I0
I1
tp150
Rp151
(I3
S'|'
p152
NNNI6
I1
I0
tp153
bS'column'
p154
tp155
Rp156
I30
I0
tp157
a(g4
(g5
(S'S9'
p158
I0
I1
tp159
Rp160
(I3
S'|'
p161
NNNI9
I1
I0
tp162
bS'container'
p163
tp164
Rp165
I29
I1
tp166
a(g4
(g5
(S'S9'
p167
I0
I1
tp168
Rp169
(I3
S'|'
p170
NNNI9
I1
I0
tp171
bS'container'
p172
tp173
Rp174
I31
I1
tp175
a(g4
(g5
(S'S9'
p176
I0
I1
tp177
Rp178
(I3
S'|'
p179
NNNI9
I1
I0
tp180
bS'container'
p181
tp182
Rp183
I8
I1
tp184
a(g4
(g5
(S'S9'
p185
I0
I1
tp186
Rp187
(I3
S'|'
p188
NNNI9
I1
I0
tp189
bS'container'
p190
tp191
Rp192
I30
I1
tp193
a(g4
(g5
(S'S9'
p194
I0
I1
tp195
Rp196
(I3
S'|'
p197
NNNI9
I1
I0
tp198
bS'container'
p199
tp200
Rp201
I14
I1
tp202
a(g4
(g5
(S'S5'
p203
I0
I1
tp204
Rp205
(I3
S'|'
p206
NNNI5
I1
I0
tp207
bS'large'
p208
tp209
Rp210
I30
I1
tp211
a(g4
(g5
(S'S4'
p212
I0
I1
tp213
Rp214
(I3
S'|'
p215
NNNI4
I1
I0
tp216
bS'long'
p217
tp218
Rp219
I1
I0
tp220
a(g4
(g5
(S'S4'
p221
I0
I1
tp222
Rp223
(I3
S'|'
p224
NNNI4
I1
I0
tp225
bS'long'
p226
tp227
Rp228
I31
I0
tp229
a(g4
(g5
(S'S3'
p230
I0
I1
tp231
Rp232
(I3
S'|'
p233
NNNI3
I1
I0
tp234
bS'can'
p235
tp236
Rp237
I15
I0
tp238
a(g4
(g5
(S'S9'
p239
I0
I1
tp240
Rp241
(I3
S'|'
p242
NNNI9
I1
I0
tp243
bS'styrofoam'
p244
tp245
Rp246
I30
I0
tp247
aa(lp248
(S'large'
p249
S'your'
p250
I00
tp251
a(g249
S'white'
p252
I00
tp253
aa.