(lp0
(lp1
(dp2
S'action'
p3
cnumpy.core.multiarray
scalar
p4
(cnumpy
dtype
p5
(S'S4'
p6
I0
I1
tp7
Rp8
(I3
S'|'
p9
NNNI4
I1
I0
tp10
bS'walk'
p11
tp12
Rp13
sS'recipient'
p14
NsS'patient'
p15
NsS'goal'
p16
S'3514'
p17
sS'source'
p18
Nsaa(lp19
(dp20
S'all'
p21
(lp22
S'go'
p23
asg15
(lp24
sg16
(lp25
S'lounge'
p26
aS'go to lounge'
p27
asg18
(lp28
sg3
(lp29
sg14
(lp30
saa(lp31
(g4
(g5
(S'S5'
p32
I0
I1
tp33
Rp34
(I3
S'|'
p35
NNNI5
I1
I0
tp36
bS'brown'
p37
tp38
Rp39
I30
I0
tp40
a(g4
(g5
(S'S5'
p41
I0
I1
tp42
Rp43
(I3
S'|'
p44
NNNI5
I1
I0
tp45
bS'spice'
p46
tp47
Rp48
I5
I0
tp49
a(g48
I14
I0
tp50
a(g48
I8
I0
tp51
a(g48
I15
I0
tp52
a(g48
I1
I0
tp53
a(g48
I30
I0
tp54
a(g48
I29
I0
tp55
a(g48
I31
I0
tp56
a(g4
(g5
(S'S8'
p57
I0
I1
tp58
Rp59
(I3
S'|'
p60
NNNI8
I1
I0
tp61
bS'cylinder'
p62
tp63
Rp64
I5
I1
tp65
a(g4
(g5
(S'S3'
p66
I0
I1
tp67
Rp68
(I3
S'|'
p69
NNNI3
I1
I0
tp70
bS'red'
p71
tp72
Rp73
I31
I0
tp74
a(g4
(g5
(S'S3'
p75
I0
I1
tp76
Rp77
(I3
S'|'
p78
NNNI3
I1
I0
tp79
bS'red'
p80
tp81
Rp82
I30
I1
tp83
aa(lp84
a.