(lp0
(lp1
(dp2
S'action'
p3
cnumpy.core.multiarray
scalar
p4
(cnumpy
dtype
p5
(S'S5'
p6
I0
I1
tp7
Rp8
(I3
S'|'
p9
NNNI5
I1
I0
tp10
bS'bring'
p11
tp12
Rp13
sS'recipient'
p14
S'r'
p15
sS'patient'
p16
S'oidx_12'
p17
sS'goal'
p18
NsS'source'
p19
Nsa(dp20
g3
g4
(g5
(S'S5'
p21
I0
I1
tp22
Rp23
(I3
S'|'
p24
NNNI5
I1
I0
tp25
bS'bring'
p26
tp27
Rp28
sg14
g4
(g5
(S'S1'
p29
I0
I1
tp30
Rp31
(I3
S'|'
p32
NNNI1
I1
I0
tp33
bS'h'
p34
tp35
Rp36
sg16
g17
sg18
Nsg19
Nsa(dp37
g3
g4
(g5
(S'S5'
p38
I0
I1
tp39
Rp40
(I3
S'|'
p41
NNNI5
I1
I0
tp42
bS'bring'
p43
tp44
Rp45
sg14
g4
(g5
(S'S1'
p46
I0
I1
tp47
Rp48
(I3
S'|'
p49
NNNI1
I1
I0
tp50
bS'p'
p51
tp52
Rp53
sg16
g4
(g5
(S'S7'
p54
I0
I1
tp55
Rp56
(I3
S'|'
p57
NNNI7
I1
I0
tp58
bS'oidx_22'
p59
tp60
Rp61
sg18
Nsg19
Nsaa(lp62
(dp63
S'all'
p64
(lp65
S'go to the office and talk to dave'
p66
asg16
(lp67
S'a letter'
p68
aS'a container'
p69
asg18
(lp70
sg19
(lp71
sg3
(lp72
sg14
(lp73
sa(dp74
g64
(lp75
S'deliver this item to dr heidi hughes'
p76
asg16
(lp77
S'deliver that container to dr hughes'
p78
asg18
(lp79
sg19
(lp80
sg3
(lp81
sg14
(lp82
S'dr heidi hughes'
p83
asa(dp84
g64
(lp85
S'deliver a container to peggy parker'
p86
asg16
(lp87
S'a container'
p88
aS'a container'
p89
asg18
(lp90
sg19
(lp91
sg3
(lp92
sg14
(lp93
saa(lp94
(g4
(g5
(S'S8'
p95
I0
I1
tp96
Rp97
(I3
S'|'
p98
NNNI8
I1
I0
tp99
bS'cylinder'
p100
tp101
Rp102
I29
I1
tp103
a(g4
(g5
(S'S9'
p104
I0
I1
tp105
Rp106
(I3
S'|'
p107
NNNI9
I1
I0
tp108
bS'container'
p109
tp110
Rp111
I8
I1
tp112
a(g4
(g5
(S'S4'
p113
I0
I1
tp114
Rp115
(I3
S'|'
p116
NNNI4
I1
I0
tp117
bS'blue'
p118
tp119
Rp120
I5
I0
tp121
a(g4
(g5
(S'S5'
p122
I0
I1
tp123
Rp124
(I3
S'|'
p125
NNNI5
I1
I0
tp126
bS'small'
p127
tp128
Rp129
I5
I1
tp130
a(g129
I14
I1
tp131
a(g129
I8
I1
tp132
a(g129
I15
I1
tp133
a(g129
I1
I1
tp134
a(g129
I30
I1
tp135
a(g129
I29
I1
tp136
a(g129
I31
I1
tp137
a(g4
(g5
(S'S9'
p138
I0
I1
tp139
Rp140
(I3
S'|'
p141
NNNI9
I1
I0
tp142
bS'styrofoam'
p143
tp144
Rp145
I31
I0
tp146
a(g4
(g5
(S'S5'
p147
I0
I1
tp148
Rp149
(I3
S'|'
p150
NNNI5
I1
I0
tp151
bS'white'
p152
tp153
Rp154
I5
I0
tp155
a(g154
I14
I0
tp156
a(g154
I8
I0
tp157
a(g154
I15
I0
tp158
a(g154
I1
I0
tp159
a(g154
I30
I0
tp160
a(g154
I29
I0
tp161
a(g154
I31
I0
tp162
a(g4
(g5
(S'S4'
p163
I0
I1
tp164
Rp165
(I3
S'|'
p166
NNNI4
I1
I0
tp167
bS'bean'
p168
tp169
Rp170
I8
I1
tp171
a(g4
(g5
(S'S5'
p172
I0
I1
tp173
Rp174
(I3
S'|'
p175
NNNI5
I1
I0
tp176
bS'empty'
p177
tp178
Rp179
I8
I1
tp180
a(g4
(g5
(S'S5'
p181
I0
I1
tp182
Rp183
(I3
S'|'
p184
NNNI5
I1
I0
tp185
bS'empty'
p186
tp187
Rp188
I31
I0
tp189
a(g4
(g5
(S'S5'
p190
I0
I1
tp191
Rp192
(I3
S'|'
p193
NNNI5
I1
I0
tp194
bS'spice'
p195
tp196
Rp197
I5
I0
tp198
a(g197
I14
I0
tp199
a(g197
I8
I0
tp200
a(g197
I15
I0
tp201
a(g197
I1
I0
tp202
a(g197
I30
I0
tp203
a(g197
I29
I0
tp204
a(g197
I31
I0
tp205
a(g4
(g5
(S'S9'
p206
I0
I1
tp207
Rp208
(I3
S'|'
p209
NNNI9
I1
I0
tp210
bS'container'
p211
tp212
Rp213
I8
I1
tp214
a(g4
(g5
(S'S9'
p215
I0
I1
tp216
Rp217
(I3
S'|'
p218
NNNI9
I1
I0
tp219
bS'container'
p220
tp221
Rp222
I8
I1
tp223
a(g4
(g5
(S'S9'
p224
I0
I1
tp225
Rp226
(I3
S'|'
p227
NNNI9
I1
I0
tp228
bS'container'
p229
tp230
Rp231
I30
I1
tp232
a(g4
(g5
(S'S9'
p233
I0
I1
tp234
Rp235
(I3
S'|'
p236
NNNI9
I1
I0
tp237
bS'container'
p238
tp239
Rp240
I29
I1
tp241
a(g4
(g5
(S'S9'
p242
I0
I1
tp243
Rp244
(I3
S'|'
p245
NNNI9
I1
I0
tp246
bS'container'
p247
tp248
Rp249
I31
I1
tp250
aa(lp251
a.