(lp0
(lp1
(dp2
S'action'
p3
cnumpy.core.multiarray
scalar
p4
(cnumpy
dtype
p5
(S'S5'
p6
I0
I1
tp7
Rp8
(I3
S'|'
p9
NNNI5
I1
I0
tp10
bS'bring'
p11
tp12
Rp13
sS'recipient'
p14
S'w'
p15
sS'patient'
p16
g4
(g5
(S'S7'
p17
I0
I1
tp18
Rp19
(I3
S'|'
p20
NNNI7
I1
I0
tp21
bS'oidx_28'
p22
tp23
Rp24
sS'goal'
p25
NsS'source'
p26
Nsaa(lp27
(dp28
S'all'
p29
(lp30
S'vano'
p31
asg16
(lp32
S'yogurt'
p33
aS'money'
p34
aS'beer'
p35
asg25
(lp36
sg26
(lp37
sg3
(lp38
sg14
(lp39
saa(lp40
(g4
(g5
(S'S3'
p41
I0
I1
tp42
Rp43
(I3
S'|'
p44
NNNI3
I1
I0
tp45
bS'red'
p46
tp47
Rp48
I5
I1
tp49
a(g48
I14
I1
tp50
a(g48
I8
I1
tp51
a(g48
I15
I1
tp52
a(g48
I1
I1
tp53
a(g48
I30
I1
tp54
a(g48
I29
I1
tp55
a(g48
I31
I1
tp56
a(g4
(g5
(S'S3'
p57
I0
I1
tp58
Rp59
(I3
S'|'
p60
NNNI3
I1
I0
tp61
bS'can'
p62
tp63
Rp64
I29
I1
tp65
a(g4
(g5
(S'S5'
p66
I0
I1
tp67
Rp68
(I3
S'|'
p69
NNNI5
I1
I0
tp70
bS'brown'
p71
tp72
Rp73
I31
I0
tp74
a(g4
(g5
(S'S4'
p75
I0
I1
tp76
Rp77
(I3
S'|'
p78
NNNI4
I1
I0
tp79
bS'long'
p80
tp81
Rp82
I1
I0
tp83
a(g4
(g5
(S'S6'
p84
I0
I1
tp85
Rp86
(I3
S'|'
p87
NNNI6
I1
I0
tp88
bS'column'
p89
tp90
Rp91
I14
I0
tp92
aa(lp93
(g35
S'coffee'
p94
I00
tp95
a(g35
g4
(g5
(S'S3'
p96
I0
I1
tp97
Rp98
(I3
S'|'
p99
NNNI3
I1
I0
tp100
bS'red'
p101
tp102
Rp103
I00
tp104
a(g35
S'peaches'
p105
I00
tp106
aa.