(lp0
(lp1
(dp2
S'action'
p3
cnumpy.core.multiarray
scalar
p4
(cnumpy
dtype
p5
(S'S4'
p6
I0
I1
tp7
Rp8
(I3
S'|'
p9
NNNI4
I1
I0
tp10
bS'walk'
p11
tp12
Rp13
sS'recipient'
p14
NsS'patient'
p15
NsS'goal'
p16
g4
(g5
(S'S5'
p17
I0
I1
tp18
Rp19
(I3
S'|'
p20
NNNI5
I1
I0
tp21
bS'3414a'
p22
tp23
Rp24
sS'source'
p25
Nsaa(lp26
(dp27
S'all'
p28
(lp29
S'go to the lab'
p30
asg15
(lp31
sg16
(lp32
S'the lab'
p33
aS'the lab'
p34
aS'the lab'
p35
asg25
(lp36
sg3
(lp37
sg14
(lp38
saa(lp39
(g4
(g5
(S'S5'
p40
I0
I1
tp41
Rp42
(I3
S'|'
p43
NNNI5
I1
I0
tp44
bS'small'
p45
tp46
Rp47
I30
I0
tp48
a(g4
(g5
(S'S4'
p49
I0
I1
tp50
Rp51
(I3
S'|'
p52
NNNI4
I1
I0
tp53
bS'long'
p54
tp55
Rp56
I8
I0
tp57
a(g4
(g5
(S'S5'
p58
I0
I1
tp59
Rp60
(I3
S'|'
p61
NNNI5
I1
I0
tp62
bS'small'
p63
tp64
Rp65
I14
I1
tp66
a(g4
(g5
(S'S9'
p67
I0
I1
tp68
Rp69
(I3
S'|'
p70
NNNI9
I1
I0
tp71
bS'container'
p72
tp73
Rp74
I29
I1
tp75
a(g4
(g5
(S'S5'
p76
I0
I1
tp77
Rp78
(I3
S'|'
p79
NNNI5
I1
I0
tp80
bS'block'
p81
tp82
Rp83
I5
I0
tp84
a(g83
I14
I0
tp85
a(g83
I8
I0
tp86
a(g83
I15
I0
tp87
a(g83
I1
I0
tp88
a(g83
I30
I0
tp89
a(g83
I29
I0
tp90
a(g83
I31
I0
tp91
aa(lp92
a.