(lp0
(lp1
(dp2
S'action'
p3
cnumpy.core.multiarray
scalar
p4
(cnumpy
dtype
p5
(S'S4'
p6
I0
I1
tp7
Rp8
(I3
S'|'
p9
NNNI4
I1
I0
tp10
bS'walk'
p11
tp12
Rp13
sS'recipient'
p14
NsS'patient'
p15
NsS'goal'
p16
S'3414'
p17
sS'source'
p18
Nsa(dp19
g3
g4
(g5
(S'S5'
p20
I0
I1
tp21
Rp22
(I3
S'|'
p23
NNNI5
I1
I0
tp24
bS'bring'
p25
tp26
Rp27
sg14
g4
(g5
(S'S1'
p28
I0
I1
tp29
Rp30
(I3
S'|'
p31
NNNI1
I1
I0
tp32
bS'h'
p33
tp34
Rp35
sg15
g4
(g5
(S'S7'
p36
I0
I1
tp37
Rp38
(I3
S'|'
p39
NNNI7
I1
I0
tp40
bS'oidx_22'
p41
tp42
Rp43
sg16
Nsg18
Nsaa(lp44
(dp45
S'all'
p46
(lp47
S'please set the oven to defrost'
p48
asg15
(lp49
sg16
(lp50
S'kitchen'
p51
aS'kitchen'
p52
asg18
(lp53
sg3
(lp54
sg14
(lp55
sa(dp56
g46
(lp57
S'give the object to dr heidi hughes'
p58
asg15
(lp59
S'a small bottle with grey color cap'
p60
asg16
(lp61
sg18
(lp62
sg3
(lp63
sg14
(lp64
saa(lp65
(g4
(g5
(S'S8'
p66
I0
I1
tp67
Rp68
(I3
S'|'
p69
NNNI8
I1
I0
tp70
bS'cylinder'
p71
tp72
Rp73
I8
I1
tp74
a(g4
(g5
(S'S3'
p75
I0
I1
tp76
Rp77
(I3
S'|'
p78
NNNI3
I1
I0
tp79
bS'can'
p80
tp81
Rp82
I8
I1
tp83
a(g4
(g5
(S'S5'
p84
I0
I1
tp85
Rp86
(I3
S'|'
p87
NNNI5
I1
I0
tp88
bS'small'
p89
tp90
Rp91
I14
I0
tp92
a(g4
(g5
(S'S6'
p93
I0
I1
tp94
Rp95
(I3
S'|'
p96
NNNI6
I1
I0
tp97
bS'column'
p98
tp99
Rp100
I14
I0
tp101
a(g4
(g5
(S'S5'
p102
I0
I1
tp103
Rp104
(I3
S'|'
p105
NNNI5
I1
I0
tp106
bS'spice'
p107
tp108
Rp109
I30
I1
tp110
a(g4
(g5
(S'S9'
p111
I0
I1
tp112
Rp113
(I3
S'|'
p114
NNNI9
I1
I0
tp115
bS'container'
p116
tp117
Rp118
I5
I0
tp119
a(g118
I14
I0
tp120
a(g118
I8
I0
tp121
a(g118
I15
I0
tp122
a(g118
I1
I0
tp123
a(g118
I30
I0
tp124
a(g118
I29
I0
tp125
a(g118
I31
I0
tp126
a(g4
(g5
(S'S8'
p127
I0
I1
tp128
Rp129
(I3
S'|'
p130
NNNI8
I1
I0
tp131
bS'cylinder'
p132
tp133
Rp134
I14
I1
tp135
a(g4
(g5
(S'S5'
p136
I0
I1
tp137
Rp138
(I3
S'|'
p139
NNNI5
I1
I0
tp140
bS'clear'
p141
tp142
Rp143
I8
I1
tp144
a(g4
(g5
(S'S6'
p145
I0
I1
tp146
Rp147
(I3
S'|'
p148
NNNI6
I1
I0
tp149
bS'coffee'
p150
tp151
Rp152
I5
I0
tp153
a(g152
I14
I0
tp154
a(g152
I8
I0
tp155
a(g152
I15
I0
tp156
a(g152
I1
I0
tp157
a(g152
I30
I0
tp158
a(g152
I29
I0
tp159
a(g152
I31
I0
tp160
a(g4
(g5
(S'S8'
p161
I0
I1
tp162
Rp163
(I3
S'|'
p164
NNNI8
I1
I0
tp165
bS'pringles'
p166
tp167
Rp168
I31
I1
tp169
aa(lp170
a.