(lp0
(lp1
(dp2
S'action'
p3
cnumpy.core.multiarray
scalar
p4
(cnumpy
dtype
p5
(S'S4'
p6
I0
I1
tp7
Rp8
(I3
S'|'
p9
NNNI4
I1
I0
tp10
bS'walk'
p11
tp12
Rp13
sS'recipient'
p14
NsS'patient'
p15
NsS'goal'
p16
g4
(g5
(S'S4'
p17
I0
I1
tp18
Rp19
(I3
S'|'
p20
NNNI4
I1
I0
tp21
bS'3510'
p22
tp23
Rp24
sS'source'
p25
Nsa(dp26
g3
g4
(g5
(S'S5'
p27
I0
I1
tp28
Rp29
(I3
S'|'
p30
NNNI5
I1
I0
tp31
bS'bring'
p32
tp33
Rp34
sg14
g4
(g5
(S'S1'
p35
I0
I1
tp36
Rp37
(I3
S'|'
p38
NNNI1
I1
I0
tp39
bS'n'
p40
tp41
Rp42
sg15
g4
(g5
(S'S7'
p43
I0
I1
tp44
Rp45
(I3
S'|'
p46
NNNI7
I1
I0
tp47
bS'oidx_22'
p48
tp49
Rp50
sg16
Nsg25
Nsa(dp51
g3
g4
(g5
(S'S4'
p52
I0
I1
tp53
Rp54
(I3
S'|'
p55
NNNI4
I1
I0
tp56
bS'move'
p57
tp58
Rp59
sg14
Nsg15
S'oidx_25'
p60
sg16
S'3414'
p61
sg25
S'3410'
p62
saa(lp63
(dp64
S'all'
p65
(lp66
S"go to robert 's office"
p67
asg15
(lp68
sg16
(lp69
sg25
(lp70
sg3
(lp71
sg14
(lp72
sa(dp73
g65
(lp74
S'dr nancy nagel needs springles'
p75
asg15
(lp76
S'a blue colume'
p77
aS'pringles chips'
p78
asg16
(lp79
sg25
(lp80
sg3
(lp81
sg14
(lp82
sa(dp83
g65
(lp84
S'find the letter in the office'
p85
asg15
(lp86
sg16
(lp87
sg25
(lp88
S'move a can from the lab to the office'
p89
aS'lab'
p90
aS'office'
p91
asg3
(lp92
sg14
(lp93
saa(lp94
(g4
(g5
(S'S5'
p95
I0
I1
tp96
Rp97
(I3
S'|'
p98
NNNI5
I1
I0
tp99
bS'clear'
p100
tp101
Rp102
I5
I0
tp103
a(g102
I14
I0
tp104
a(g102
I8
I0
tp105
a(g102
I15
I0
tp106
a(g102
I1
I0
tp107
a(g102
I30
I0
tp108
a(g102
I29
I0
tp109
a(g102
I31
I0
tp110
a(g4
(g5
(S'S5'
p111
I0
I1
tp112
Rp113
(I3
S'|'
p114
NNNI5
I1
I0
tp115
bS'white'
p116
tp117
Rp118
I29
I1
tp119
a(g4
(g5
(S'S3'
p120
I0
I1
tp121
Rp122
(I3
S'|'
p123
NNNI3
I1
I0
tp124
bS'can'
p125
tp126
Rp127
I31
I0
tp128
a(g4
(g5
(S'S8'
p129
I0
I1
tp130
Rp131
(I3
S'|'
p132
NNNI8
I1
I0
tp133
bS'metallic'
p134
tp135
Rp136
I8
I1
tp137
a(g4
(g5
(S'S5'
p138
I0
I1
tp139
Rp140
(I3
S'|'
p141
NNNI5
I1
I0
tp142
bS'white'
p143
tp144
Rp145
I31
I0
tp146
a(g4
(g5
(S'S5'
p147
I0
I1
tp148
Rp149
(I3
S'|'
p150
NNNI5
I1
I0
tp151
bS'tower'
p152
tp153
Rp154
I5
I0
tp155
a(g154
I14
I0
tp156
a(g154
I8
I0
tp157
a(g154
I15
I0
tp158
a(g154
I1
I0
tp159
a(g154
I30
I0
tp160
a(g154
I29
I0
tp161
a(g154
I31
I0
tp162
a(g4
(g5
(S'S6'
p163
I0
I1
tp164
Rp165
(I3
S'|'
p166
NNNI6
I1
I0
tp167
bS'column'
p168
tp169
Rp170
I31
I1
tp171
a(g4
(g5
(S'S5'
p172
I0
I1
tp173
Rp174
(I3
S'|'
p175
NNNI5
I1
I0
tp176
bS'empty'
p177
tp178
Rp179
I8
I1
tp180
a(g4
(g5
(S'S6'
p181
I0
I1
tp182
Rp183
(I3
S'|'
p184
NNNI6
I1
I0
tp185
bS'column'
p186
tp187
Rp188
I8
I1
tp189
a(g4
(g5
(S'S8'
p190
I0
I1
tp191
Rp192
(I3
S'|'
p193
NNNI8
I1
I0
tp194
bS'pringles'
p195
tp196
Rp197
I5
I0
tp198
a(g197
I14
I0
tp199
a(g197
I8
I0
tp200
a(g197
I15
I0
tp201
a(g197
I1
I0
tp202
a(g197
I30
I0
tp203
a(g197
I29
I0
tp204
a(g197
I31
I0
tp205
a(g4
(g5
(S'S6'
p206
I0
I1
tp207
Rp208
(I3
S'|'
p209
NNNI6
I1
I0
tp210
bS'letter'
p211
tp212
Rp213
I5
I0
tp214
a(g213
I14
I0
tp215
a(g213
I8
I0
tp216
a(g213
I15
I0
tp217
a(g213
I1
I0
tp218
a(g213
I30
I0
tp219
a(g213
I29
I0
tp220
a(g213
I31
I0
tp221
a(g4
(g5
(S'S5'
p222
I0
I1
tp223
Rp224
(I3
S'|'
p225
NNNI5
I1
I0
tp226
bS'small'
p227
tp228
Rp229
I30
I0
tp230
a(g4
(g5
(S'S5'
p231
I0
I1
tp232
Rp233
(I3
S'|'
p234
NNNI5
I1
I0
tp235
bS'brown'
p236
tp237
Rp238
I30
I0
tp239
a(g4
(g5
(S'S6'
p240
I0
I1
tp241
Rp242
(I3
S'|'
p243
NNNI6
I1
I0
tp244
bS'column'
p245
tp246
Rp247
I15
I0
tp248
a(g4
(g5
(S'S5'
p249
I0
I1
tp250
Rp251
(I3
S'|'
p252
NNNI5
I1
I0
tp253
bS'chips'
p254
tp255
Rp256
I5
I0
tp257
a(g256
I14
I0
tp258
a(g256
I8
I0
tp259
a(g256
I15
I0
tp260
a(g256
I1
I0
tp261
a(g256
I30
I0
tp262
a(g256
I29
I0
tp263
a(g256
I31
I0
tp264
aa(lp265
(S'chips'
p266
S'spices'
p267
I00
tp268
a(g266
g4
(g5
(S'S3'
p269
I0
I1
tp270
Rp271
(I3
S'|'
p272
NNNI3
I1
I0
tp273
bS'red'
p274
tp275
Rp276
I00
tp277
a(g266
S'metallic'
p278
I00
tp279
a(g266
S'medicine'
p280
I00
tp281
a(S'letter'
p282
S'column'
p283
I00
tp284
a(g282
S'tall'
p285
I00
tp286
aa.