(lp0
(lp1
(dp2
S'action'
p3
cnumpy.core.multiarray
scalar
p4
(cnumpy
dtype
p5
(S'S4'
p6
I0
I1
tp7
Rp8
(I3
S'|'
p9
NNNI4
I1
I0
tp10
bS'walk'
p11
tp12
Rp13
sS'recipient'
p14
NsS'patient'
p15
NsS'goal'
p16
g4
(g5
(S'S4'
p17
I0
I1
tp18
Rp19
(I3
S'|'
p20
NNNI4
I1
I0
tp21
bS'3502'
p22
tp23
Rp24
sS'source'
p25
Nsa(dp26
g3
g4
(g5
(S'S5'
p27
I0
I1
tp28
Rp29
(I3
S'|'
p30
NNNI5
I1
I0
tp31
bS'bring'
p32
tp33
Rp34
sg14
g4
(g5
(S'S1'
p35
I0
I1
tp36
Rp37
(I3
S'|'
p38
NNNI1
I1
I0
tp39
bS's'
p40
tp41
Rp42
sg15
g4
(g5
(S'S7'
p43
I0
I1
tp44
Rp45
(I3
S'|'
p46
NNNI7
I1
I0
tp47
bS'oidx_26'
p48
tp49
Rp50
sg16
Nsg25
Nsa(dp51
g3
g4
(g5
(S'S5'
p52
I0
I1
tp53
Rp54
(I3
S'|'
p55
NNNI5
I1
I0
tp56
bS'bring'
p57
tp58
Rp59
sg14
g4
(g5
(S'S1'
p60
I0
I1
tp61
Rp62
(I3
S'|'
p63
NNNI1
I1
I0
tp64
bS'w'
p65
tp66
Rp67
sg15
g4
(g5
(S'S7'
p68
I0
I1
tp69
Rp70
(I3
S'|'
p71
NNNI7
I1
I0
tp72
bS'oidx_11'
p73
tp74
Rp75
sg16
Nsg25
Nsaa(lp76
(dp77
S'all'
p78
(lp79
S"go to mallory 's office"
p80
asg15
(lp81
sg16
(lp82
sg25
(lp83
sg3
(lp84
sg14
(lp85
sa(dp86
g78
(lp87
S"take dr sybil 's soda can to him"
p88
asg15
(lp89
S'find a red can'
p90
aS'a red can'
p91
aS'a medium red can'
p92
asg16
(lp93
sg25
(lp94
sg3
(lp95
sg14
(lp96
S'dr sybil'
p97
asa(dp98
g78
(lp99
S"deliver the yellow can that is at walter 's office to the conference room"
p100
asg15
(lp101
S'a yellow can'
p102
aS'a yellow empty can'
p103
aS'a yellow empty can'
p104
asg16
(lp105
sg25
(lp106
sg3
(lp107
sg14
(lp108
S'conference room'
p109
aS'conference'
p110
aS'conference'
p111
aS'conference room'
p112
aS'conference'
p113
aS'conference room'
p114
aS'walter'
p115
asaa(lp116
(g4
(g5
(S'S5'
p117
I0
I1
tp118
Rp119
(I3
S'|'
p120
NNNI5
I1
I0
tp121
bS'white'
p122
tp123
Rp124
I1
I1
tp125
a(g4
(g5
(S'S3'
p126
I0
I1
tp127
Rp128
(I3
S'|'
p129
NNNI3
I1
I0
tp130
bS'can'
p131
tp132
Rp133
I8
I1
tp134
a(g4
(g5
(S'S5'
p135
I0
I1
tp136
Rp137
(I3
S'|'
p138
NNNI5
I1
I0
tp139
bS'empty'
p140
tp141
Rp142
I8
I1
tp143
a(g4
(g5
(S'S4'
p144
I0
I1
tp145
Rp146
(I3
S'|'
p147
NNNI4
I1
I0
tp148
bS'blue'
p149
tp150
Rp151
I30
I0
tp152
a(g4
(g5
(S'S6'
p153
I0
I1
tp154
Rp155
(I3
S'|'
p156
NNNI6
I1
I0
tp157
bS'coffee'
p158
tp159
Rp160
I5
I0
tp161
a(g160
I14
I0
tp162
a(g160
I8
I0
tp163
a(g160
I15
I0
tp164
a(g160
I1
I0
tp165
a(g160
I30
I0
tp166
a(g160
I29
I0
tp167
a(g160
I31
I0
tp168
a(g4
(g5
(S'S3'
p169
I0
I1
tp170
Rp171
(I3
S'|'
p172
NNNI3
I1
I0
tp173
bS'red'
p174
tp175
Rp176
I5
I0
tp177
a(g4
(g5
(S'S8'
p178
I0
I1
tp179
Rp180
(I3
S'|'
p181
NNNI8
I1
I0
tp182
bS'cylinder'
p183
tp184
Rp185
I5
I1
tp186
a(g4
(g5
(S'S5'
p187
I0
I1
tp188
Rp189
(I3
S'|'
p190
NNNI5
I1
I0
tp191
bS'white'
p192
tp193
Rp194
I15
I0
tp195
a(g4
(g5
(S'S4'
p196
I0
I1
tp197
Rp198
(I3
S'|'
p199
NNNI4
I1
I0
tp200
bS'long'
p201
tp202
Rp203
I1
I0
tp204
a(g4
(g5
(S'S5'
p205
I0
I1
tp206
Rp207
(I3
S'|'
p208
NNNI5
I1
I0
tp209
bS'small'
p210
tp211
Rp212
I5
I0
tp213
a(g4
(g5
(S'S3'
p214
I0
I1
tp215
Rp216
(I3
S'|'
p217
NNNI3
I1
I0
tp218
bS'can'
p219
tp220
Rp221
I1
I1
tp222
a(g4
(g5
(S'S3'
p223
I0
I1
tp224
Rp225
(I3
S'|'
p226
NNNI3
I1
I0
tp227
bS'can'
p228
tp229
Rp230
I15
I1
tp231
a(g4
(g5
(S'S3'
p232
I0
I1
tp233
Rp234
(I3
S'|'
p235
NNNI3
I1
I0
tp236
bS'can'
p237
tp238
Rp239
I5
I1
tp240
a(g4
(g5
(S'S6'
p241
I0
I1
tp242
Rp243
(I3
S'|'
p244
NNNI6
I1
I0
tp245
bS'yellow'
p246
tp247
Rp248
I5
I0
tp249
a(g248
I14
I0
tp250
a(g248
I8
I0
tp251
a(g248
I15
I0
tp252
a(g248
I1
I0
tp253
a(g248
I30
I0
tp254
a(g248
I29
I0
tp255
a(g248
I31
I0
tp256
a(g4
(g5
(S'S3'
p257
I0
I1
tp258
Rp259
(I3
S'|'
p260
NNNI3
I1
I0
tp261
bS'can'
p262
tp263
Rp264
I8
I1
tp265
aa(lp266
(S'medium'
p267
S'is'
p268
I00
tp269
a(g267
S'your'
p270
I00
tp271
a(g267
S'long'
p272
I00
tp273
aa.