(lp0
(lp1
(dp2
S'action'
p3
cnumpy.core.multiarray
scalar
p4
(cnumpy
dtype
p5
(S'S4'
p6
I0
I1
tp7
Rp8
(I3
S'|'
p9
NNNI4
I1
I0
tp10
bS'walk'
p11
tp12
Rp13
sS'recipient'
p14
NsS'patient'
p15
NsS'goal'
p16
S'3514'
p17
sS'source'
p18
Nsa(dp19
g3
g4
(g5
(S'S5'
p20
I0
I1
tp21
Rp22
(I3
S'|'
p23
NNNI5
I1
I0
tp24
bS'bring'
p25
tp26
Rp27
sg14
g4
(g5
(S'S1'
p28
I0
I1
tp29
Rp30
(I3
S'|'
p31
NNNI1
I1
I0
tp32
bS'd'
p33
tp34
Rp35
sg15
g4
(g5
(S'S7'
p36
I0
I1
tp37
Rp38
(I3
S'|'
p39
NNNI7
I1
I0
tp40
bS'oidx_22'
p41
tp42
Rp43
sg16
Nsg18
Nsa(dp44
g3
g4
(g5
(S'S5'
p45
I0
I1
tp46
Rp47
(I3
S'|'
p48
NNNI5
I1
I0
tp49
bS'bring'
p50
tp51
Rp52
sg14
g4
(g5
(S'S1'
p53
I0
I1
tp54
Rp55
(I3
S'|'
p56
NNNI1
I1
I0
tp57
bS'm'
p58
tp59
Rp60
sg15
g4
(g5
(S'S7'
p61
I0
I1
tp62
Rp63
(I3
S'|'
p64
NNNI7
I1
I0
tp65
bS'oidx_11'
p66
tp67
Rp68
sg16
Nsg18
Nsaa(lp69
(dp70
S'all'
p71
(lp72
S"go to the lounge located beside richard rogue 's office"
p73
asg15
(lp74
sg16
(lp75
S'to the lounge'
p76
aS'go to the lounge'
p77
asg18
(lp78
sg3
(lp79
sg14
(lp80
sa(dp81
g71
(lp82
S'can you get me the item on the table'
p83
asg15
(lp84
S'item on the table'
p85
aS'small container'
p86
aS'the item is on a table'
p87
aS'it is a gray bottle'
p88
aS'a gray object'
p89
asg16
(lp90
sg18
(lp91
sg3
(lp92
sg14
(lp93
S'david daniel'
p94
asa(dp95
g71
(lp96
S'deliver the can to mallory'
p97
asg15
(lp98
S'the can'
p99
aS'the yellow can'
p100
asg16
(lp101
sg18
(lp102
sg3
(lp103
sg14
(lp104
saa(lp105
(g4
(g5
(S'S4'
p106
I0
I1
tp107
Rp108
(I3
S'|'
p109
NNNI4
I1
I0
tp110
bS'bean'
p111
tp112
Rp113
I5
I0
tp114
a(g113
I14
I0
tp115
a(g113
I8
I0
tp116
a(g113
I15
I0
tp117
a(g113
I1
I0
tp118
a(g113
I30
I0
tp119
a(g113
I29
I0
tp120
a(g113
I31
I0
tp121
a(g4
(g5
(S'S5'
p122
I0
I1
tp123
Rp124
(I3
S'|'
p125
NNNI5
I1
I0
tp126
bS'white'
p127
tp128
Rp129
I5
I0
tp130
a(g129
I14
I0
tp131
a(g129
I8
I0
tp132
a(g129
I15
I0
tp133
a(g129
I1
I0
tp134
a(g129
I30
I0
tp135
a(g129
I29
I0
tp136
a(g129
I31
I0
tp137
a(g4
(g5
(S'S5'
p138
I0
I1
tp139
Rp140
(I3
S'|'
p141
NNNI5
I1
I0
tp142
bS'clear'
p143
tp144
Rp145
I5
I0
tp146
a(g145
I14
I0
tp147
a(g145
I8
I0
tp148
a(g145
I15
I0
tp149
a(g145
I1
I0
tp150
a(g145
I30
I0
tp151
a(g145
I29
I0
tp152
a(g145
I31
I0
tp153
a(g4
(g5
(S'S4'
p154
I0
I1
tp155
Rp156
(I3
S'|'
p157
NNNI4
I1
I0
tp158
bS'long'
p159
tp160
Rp161
I14
I0
tp162
a(g4
(g5
(S'S4'
p163
I0
I1
tp164
Rp165
(I3
S'|'
p166
NNNI4
I1
I0
tp167
bS'long'
p168
tp169
Rp170
I31
I0
tp171
a(g4
(g5
(S'S9'
p172
I0
I1
tp173
Rp174
(I3
S'|'
p175
NNNI9
I1
I0
tp176
bS'styrofoam'
p177
tp178
Rp179
I31
I0
tp180
a(g4
(g5
(S'S5'
p181
I0
I1
tp182
Rp183
(I3
S'|'
p184
NNNI5
I1
I0
tp185
bS'peach'
p186
tp187
Rp188
I5
I0
tp189
a(g188
I14
I0
tp190
a(g188
I8
I0
tp191
a(g188
I15
I0
tp192
a(g188
I1
I0
tp193
a(g188
I30
I0
tp194
a(g188
I29
I0
tp195
a(g188
I31
I0
tp196
a(g4
(g5
(S'S3'
p197
I0
I1
tp198
Rp199
(I3
S'|'
p200
NNNI3
I1
I0
tp201
bS'can'
p202
tp203
Rp204
I15
I0
tp205
a(g4
(g5
(S'S6'
p206
I0
I1
tp207
Rp208
(I3
S'|'
p209
NNNI6
I1
I0
tp210
bS'beside'
p211
tp212
Rp213
I5
I0
tp214
a(g213
I14
I0
tp215
a(g213
I8
I0
tp216
a(g213
I15
I0
tp217
a(g213
I1
I0
tp218
a(g213
I30
I0
tp219
a(g213
I29
I0
tp220
a(g213
I31
I0
tp221
a(g4
(g5
(S'S3'
p222
I0
I1
tp223
Rp224
(I3
S'|'
p225
NNNI3
I1
I0
tp226
bS'red'
p227
tp228
Rp229
I5
I0
tp230
a(g4
(g5
(S'S3'
p231
I0
I1
tp232
Rp233
(I3
S'|'
p234
NNNI3
I1
I0
tp235
bS'can'
p236
tp237
Rp238
I31
I0
tp239
a(g4
(g5
(S'S3'
p240
I0
I1
tp241
Rp242
(I3
S'|'
p243
NNNI3
I1
I0
tp244
bS'can'
p245
tp246
Rp247
I30
I0
tp248
a(g4
(g5
(S'S3'
p249
I0
I1
tp250
Rp251
(I3
S'|'
p252
NNNI3
I1
I0
tp253
bS'can'
p254
tp255
Rp256
I1
I0
tp257
a(g4
(g5
(S'S3'
p258
I0
I1
tp259
Rp260
(I3
S'|'
p261
NNNI3
I1
I0
tp262
bS'can'
p263
tp264
Rp265
I8
I1
tp266
a(g4
(g5
(S'S3'
p267
I0
I1
tp268
Rp269
(I3
S'|'
p270
NNNI3
I1
I0
tp271
bS'can'
p272
tp273
Rp274
I5
I0
tp275
aa(lp276
(S'beside'
p277
S'empty'
p278
I00
tp279
a(S'gray'
p280
S'is'
p281
I00
tp282
a(g280
S'white'
p283
I00
tp284
a(g280
S'blue'
p285
I00
tp286
aa.