(lp0
(lp1
(dp2
S'action'
p3
cnumpy.core.multiarray
scalar
p4
(cnumpy
dtype
p5
(S'S4'
p6
I0
I1
tp7
Rp8
(I3
S'|'
p9
NNNI4
I1
I0
tp10
bS'walk'
p11
tp12
Rp13
sS'recipient'
p14
NsS'patient'
p15
NsS'goal'
p16
g4
(g5
(S'S4'
p17
I0
I1
tp18
Rp19
(I3
S'|'
p20
NNNI4
I1
I0
tp21
bS'3514'
p22
tp23
Rp24
sS'source'
p25
Nsa(dp26
g3
g4
(g5
(S'S5'
p27
I0
I1
tp28
Rp29
(I3
S'|'
p30
NNNI5
I1
I0
tp31
bS'bring'
p32
tp33
Rp34
sg14
g4
(g5
(S'S1'
p35
I0
I1
tp36
Rp37
(I3
S'|'
p38
NNNI1
I1
I0
tp39
bS'd'
p40
tp41
Rp42
sg15
g4
(g5
(S'S7'
p43
I0
I1
tp44
Rp45
(I3
S'|'
p46
NNNI7
I1
I0
tp47
bS'oidx_11'
p48
tp49
Rp50
sg16
Nsg25
Nsaa(lp51
(dp52
S'all'
p53
(lp54
S'go to the loung next to richard rogue'
p55
asg15
(lp56
sg16
(lp57
S'the lounge next to richards office'
p58
aS'the lounge next to richards office'
p59
asg25
(lp60
sg3
(lp61
sg14
(lp62
sa(dp63
g53
(lp64
S'give dave the canister of coffee'
p65
asg15
(lp66
S'coffee container'
p67
aS'coffee canister'
p68
aS'coffee canister'
p69
aS'coffee'
p70
aS'peach can'
p71
aS'peaches'
p72
asg16
(lp73
sg25
(lp74
sg3
(lp75
sg14
(lp76
S'dave'
p77
asaa(lp78
(g4
(g5
(S'S5'
p79
I0
I1
tp80
Rp81
(I3
S'|'
p82
NNNI5
I1
I0
tp83
bS'tower'
p84
tp85
Rp86
I5
I0
tp87
a(g86
I14
I0
tp88
a(g86
I8
I0
tp89
a(g86
I15
I0
tp90
a(g86
I1
I0
tp91
a(g86
I30
I0
tp92
a(g86
I29
I0
tp93
a(g86
I31
I0
tp94
a(g4
(g5
(S'S9'
p95
I0
I1
tp96
Rp97
(I3
S'|'
p98
NNNI9
I1
I0
tp99
bS'styrofoam'
p100
tp101
Rp102
I31
I1
tp103
a(g4
(g5
(S'S6'
p104
I0
I1
tp105
Rp106
(I3
S'|'
p107
NNNI6
I1
I0
tp108
bS'column'
p109
tp110
Rp111
I30
I0
tp112
a(g4
(g5
(S'S8'
p113
I0
I1
tp114
Rp115
(I3
S'|'
p116
NNNI8
I1
I0
tp117
bS'cylinder'
p118
tp119
Rp120
I8
I1
tp121
a(g4
(g5
(S'S5'
p122
I0
I1
tp123
Rp124
(I3
S'|'
p125
NNNI5
I1
I0
tp126
bS'clear'
p127
tp128
Rp129
I14
I1
tp130
a(g4
(g5
(S'S9'
p131
I0
I1
tp132
Rp133
(I3
S'|'
p134
NNNI9
I1
I0
tp135
bS'container'
p136
tp137
Rp138
I8
I1
tp139
a(g4
(g5
(S'S6'
p140
I0
I1
tp141
Rp142
(I3
S'|'
p143
NNNI6
I1
I0
tp144
bS'coffee'
p145
tp146
Rp147
I30
I1
tp148
a(g4
(g5
(S'S9'
p149
I0
I1
tp150
Rp151
(I3
S'|'
p152
NNNI9
I1
I0
tp153
bS'container'
p154
tp155
Rp156
I8
I1
tp157
a(g4
(g5
(S'S6'
p158
I0
I1
tp159
Rp160
(I3
S'|'
p161
NNNI6
I1
I0
tp162
bS'coffee'
p163
tp164
Rp165
I1
I0
tp166
a(g4
(g5
(S'S9'
p167
I0
I1
tp168
Rp169
(I3
S'|'
p170
NNNI9
I1
I0
tp171
bS'container'
p172
tp173
Rp174
I30
I1
tp175
aa(lp176
a.