(lp0
(lp1
(dp2
S'action'
p3
cnumpy.core.multiarray
scalar
p4
(cnumpy
dtype
p5
(S'S4'
p6
I0
I1
tp7
Rp8
(I3
S'|'
p9
NNNI4
I1
I0
tp10
bS'walk'
p11
tp12
Rp13
sS'recipient'
p14
NsS'patient'
p15
NsS'goal'
p16
g4
(g5
(S'S4'
p17
I0
I1
tp18
Rp19
(I3
S'|'
p20
NNNI4
I1
I0
tp21
bS'3516'
p22
tp23
Rp24
sS'source'
p25
Nsaa(lp26
(dp27
S'all'
p28
(lp29
S'go to the conference room by the lounge'
p30
asg15
(lp31
sg16
(lp32
sg25
(lp33
sg3
(lp34
sg14
(lp35
saa(lp36
(g4
(g5
(S'S5'
p37
I0
I1
tp38
Rp39
(I3
S'|'
p40
NNNI5
I1
I0
tp41
bS'white'
p42
tp43
Rp44
I5
I0
tp45
a(g44
I14
I0
tp46
a(g44
I8
I0
tp47
a(g44
I15
I0
tp48
a(g44
I1
I0
tp49
a(g44
I30
I0
tp50
a(g44
I29
I0
tp51
a(g44
I31
I0
tp52
a(g4
(g5
(S'S8'
p53
I0
I1
tp54
Rp55
(I3
S'|'
p56
NNNI8
I1
I0
tp57
bS'cylinder'
p58
tp59
Rp60
I8
I1
tp61
a(g4
(g5
(S'S6'
p62
I0
I1
tp63
Rp64
(I3
S'|'
p65
NNNI6
I1
I0
tp66
bS'column'
p67
tp68
Rp69
I31
I0
tp70
a(g4
(g5
(S'S5'
p71
I0
I1
tp72
Rp73
(I3
S'|'
p74
NNNI5
I1
I0
tp75
bS'block'
p76
tp77
Rp78
I5
I0
tp79
a(g78
I14
I0
tp80
a(g78
I8
I0
tp81
a(g78
I15
I0
tp82
a(g78
I1
I0
tp83
a(g78
I30
I0
tp84
a(g78
I29
I0
tp85
a(g78
I31
I0
tp86
a(g4
(g5
(S'S8'
p87
I0
I1
tp88
Rp89
(I3
S'|'
p90
NNNI8
I1
I0
tp91
bS'metallic'
p92
tp93
Rp94
I8
I1
tp95
aa(lp96
a.