(lp0
(lp1
(dp2
S'action'
p3
cnumpy.core.multiarray
scalar
p4
(cnumpy
dtype
p5
(S'S4'
p6
I0
I1
tp7
Rp8
(I3
S'|'
p9
NNNI4
I1
I0
tp10
bS'walk'
p11
tp12
Rp13
sS'recipient'
p14
NsS'patient'
p15
NsS'goal'
p16
g4
(g5
(S'S4'
p17
I0
I1
tp18
Rp19
(I3
S'|'
p20
NNNI4
I1
I0
tp21
bS'3508'
p22
tp23
Rp24
sS'source'
p25
Nsa(dp26
g3
g4
(g5
(S'S4'
p27
I0
I1
tp28
Rp29
(I3
S'|'
p30
NNNI4
I1
I0
tp31
bS'move'
p32
tp33
Rp34
sg14
Nsg15
S'oidx_13'
p35
sg16
S'3414a'
p36
sg25
S'3402'
p37
sa(dp38
g3
g4
(g5
(S'S4'
p39
I0
I1
tp40
Rp41
(I3
S'|'
p42
NNNI4
I1
I0
tp43
bS'walk'
p44
tp45
Rp46
sg14
Nsg15
Nsg16
S'3502'
p47
sg25
Nsaa(lp48
(dp49
S'all'
p50
(lp51
S'go to the lounge'
p52
asg15
(lp53
sg16
(lp54
S'lounge'
p55
aS'lounge'
p56
aS'towards roberts office'
p57
aS''
p58
aS'lounge'
p59
aS'near peggy'
p60
aS'lounge'
p61
aS'peggy office'
p62
aS"i' 's done"
p63
asg25
(lp64
sg3
(lp65
sg14
(lp66
sa(dp67
g50
(lp68
S"i' 's done"
p69
asg15
(lp70
S'can'
p71
asg16
(lp72
S'yes'
p73
asg25
(lp74
S'no'
p75
asg3
(lp76
sg14
(lp77
sa(dp78
g50
(lp79
S'yes'
p80
asg15
(lp81
sg16
(lp82
S'pod'
p83
aS'pod'
p84
aS'office'
p85
aS"ni' 's done"
p86
asg25
(lp87
sg3
(lp88
sg14
(lp89
saa(lp90
(g4
(g5
(S'S6'
p91
I0
I1
tp92
Rp93
(I3
S'|'
p94
NNNI6
I1
I0
tp95
bS'yellow'
p96
tp97
Rp98
I31
I1
tp99
a(g4
(g5
(S'S4'
p100
I0
I1
tp101
Rp102
(I3
S'|'
p103
NNNI4
I1
I0
tp104
bS'bean'
p105
tp106
Rp107
I8
I1
tp108
a(g4
(g5
(S'S3'
p109
I0
I1
tp110
Rp111
(I3
S'|'
p112
NNNI3
I1
I0
tp113
bS'red'
p114
tp115
Rp116
I15
I0
tp117
a(g4
(g5
(S'S4'
p118
I0
I1
tp119
Rp120
(I3
S'|'
p121
NNNI4
I1
I0
tp122
bS'bean'
p123
tp124
Rp125
I31
I0
tp126
a(g4
(g5
(S'S5'
p127
I0
I1
tp128
Rp129
(I3
S'|'
p130
NNNI5
I1
I0
tp131
bS'small'
p132
tp133
Rp134
I15
I0
tp135
a(g4
(g5
(S'S8'
p136
I0
I1
tp137
Rp138
(I3
S'|'
p139
NNNI8
I1
I0
tp140
bS'pringles'
p141
tp142
Rp143
I5
I0
tp144
a(g143
I14
I0
tp145
a(g143
I8
I0
tp146
a(g143
I15
I0
tp147
a(g143
I1
I0
tp148
a(g143
I30
I0
tp149
a(g143
I29
I0
tp150
a(g143
I31
I0
tp151
a(g4
(g5
(S'S6'
p152
I0
I1
tp153
Rp154
(I3
S'|'
p155
NNNI6
I1
I0
tp156
bS'yellow'
p157
tp158
Rp159
I29
I1
tp160
a(g4
(g5
(S'S9'
p161
I0
I1
tp162
Rp163
(I3
S'|'
p164
NNNI9
I1
I0
tp165
bS'styrofoam'
p166
tp167
Rp168
I14
I1
tp169
a(g4
(g5
(S'S6'
p170
I0
I1
tp171
Rp172
(I3
S'|'
p173
NNNI6
I1
I0
tp174
bS'yellow'
p175
tp176
Rp177
I8
I1
tp178
a(g4
(g5
(S'S9'
p179
I0
I1
tp180
Rp181
(I3
S'|'
p182
NNNI9
I1
I0
tp183
bS'container'
p184
tp185
Rp186
I1
I1
tp187
a(g4
(g5
(S'S3'
p188
I0
I1
tp189
Rp190
(I3
S'|'
p191
NNNI3
I1
I0
tp192
bS'red'
p193
tp194
Rp195
I29
I1
tp196
a(g4
(g5
(S'S9'
p197
I0
I1
tp198
Rp199
(I3
S'|'
p200
NNNI9
I1
I0
tp201
bS'rectangle'
p202
tp203
Rp204
I29
I1
tp205
a(g4
(g5
(S'S8'
p206
I0
I1
tp207
Rp208
(I3
S'|'
p209
NNNI8
I1
I0
tp210
bS'metallic'
p211
tp212
Rp213
I5
I0
tp214
a(g213
I14
I0
tp215
a(g213
I8
I0
tp216
a(g213
I15
I0
tp217
a(g213
I1
I0
tp218
a(g213
I30
I0
tp219
a(g213
I29
I0
tp220
a(g213
I31
I0
tp221
a(g4
(g5
(S'S6'
p222
I0
I1
tp223
Rp224
(I3
S'|'
p225
NNNI6
I1
I0
tp226
bS'column'
p227
tp228
Rp229
I14
I1
tp230
a(g4
(g5
(S'S5'
p231
I0
I1
tp232
Rp233
(I3
S'|'
p234
NNNI5
I1
I0
tp235
bS'small'
p236
tp237
Rp238
I29
I1
tp239
aa(lp240
a.