(lp0
(lp1
(dp2
S'action'
p3
cnumpy.core.multiarray
scalar
p4
(cnumpy
dtype
p5
(S'S4'
p6
I0
I1
tp7
Rp8
(I3
S'|'
p9
NNNI4
I1
I0
tp10
bS'walk'
p11
tp12
Rp13
sS'recipient'
p14
NsS'patient'
p15
NsS'goal'
p16
S'3520'
p17
sS'source'
p18
Nsaa(lp19
(dp20
S'all'
p21
(lp22
S'go to office b'
p23
asg15
(lp24
sg16
(lp25
S'lab'
p26
aS'go to the kitchen'
p27
asg18
(lp28
sg3
(lp29
sg14
(lp30
saa(lp31
(g4
(g5
(S'S3'
p32
I0
I1
tp33
Rp34
(I3
S'|'
p35
NNNI3
I1
I0
tp36
bS'red'
p37
tp38
Rp39
I5
I1
tp40
a(g39
I14
I1
tp41
a(g39
I8
I1
tp42
a(g39
I15
I1
tp43
a(g39
I1
I1
tp44
a(g39
I30
I1
tp45
a(g39
I29
I1
tp46
a(g39
I31
I1
tp47
a(g4
(g5
(S'S4'
p48
I0
I1
tp49
Rp50
(I3
S'|'
p51
NNNI4
I1
I0
tp52
bS'bean'
p53
tp54
Rp55
I5
I0
tp56
a(g55
I14
I0
tp57
a(g55
I8
I0
tp58
a(g55
I15
I0
tp59
a(g55
I1
I0
tp60
a(g55
I30
I0
tp61
a(g55
I29
I0
tp62
a(g55
I31
I0
tp63
a(g4
(g5
(S'S5'
p64
I0
I1
tp65
Rp66
(I3
S'|'
p67
NNNI5
I1
I0
tp68
bS'peach'
p69
tp70
Rp71
I5
I0
tp72
a(g71
I14
I0
tp73
a(g71
I8
I0
tp74
a(g71
I15
I0
tp75
a(g71
I1
I0
tp76
a(g71
I30
I0
tp77
a(g71
I29
I0
tp78
a(g71
I31
I0
tp79
a(g4
(g5
(S'S8'
p80
I0
I1
tp81
Rp82
(I3
S'|'
p83
NNNI8
I1
I0
tp84
bS'metallic'
p85
tp86
Rp87
I8
I1
tp88
a(g4
(g5
(S'S9'
p89
I0
I1
tp90
Rp91
(I3
S'|'
p92
NNNI9
I1
I0
tp93
bS'rectangle'
p94
tp95
Rp96
I5
I0
tp97
a(g96
I14
I0
tp98
a(g96
I8
I0
tp99
a(g96
I15
I0
tp100
a(g96
I1
I0
tp101
a(g96
I30
I0
tp102
a(g96
I29
I0
tp103
a(g96
I31
I0
tp104
aa(lp105
a.