(lp0
(lp1
(dp2
S'action'
p3
cnumpy.core.multiarray
scalar
p4
(cnumpy
dtype
p5
(S'S4'
p6
I0
I1
tp7
Rp8
(I3
S'|'
p9
NNNI4
I1
I0
tp10
bS'walk'
p11
tp12
Rp13
sS'recipient'
p14
NsS'patient'
p15
NsS'goal'
p16
g4
(g5
(S'S4'
p17
I0
I1
tp18
Rp19
(I3
S'|'
p20
NNNI4
I1
I0
tp21
bS'3420'
p22
tp23
Rp24
sS'source'
p25
Nsa(dp26
g3
g4
(g5
(S'S5'
p27
I0
I1
tp28
Rp29
(I3
S'|'
p30
NNNI5
I1
I0
tp31
bS'bring'
p32
tp33
Rp34
sg14
g4
(g5
(S'S1'
p35
I0
I1
tp36
Rp37
(I3
S'|'
p38
NNNI1
I1
I0
tp39
bS's'
p40
tp41
Rp42
sg15
g4
(g5
(S'S6'
p43
I0
I1
tp44
Rp45
(I3
S'|'
p46
NNNI6
I1
I0
tp47
bS'oidx_6'
p48
tp49
Rp50
sg16
Nsg25
Nsa(dp51
g3
g4
(g5
(S'S5'
p52
I0
I1
tp53
Rp54
(I3
S'|'
p55
NNNI5
I1
I0
tp56
bS'bring'
p57
tp58
Rp59
sg14
S'b'
p60
sg15
g4
(g5
(S'S7'
p61
I0
I1
tp62
Rp63
(I3
S'|'
p64
NNNI7
I1
I0
tp65
bS'oidx_13'
p66
tp67
Rp68
sg16
Nsg25
Nsaa(lp69
(dp70
S'all'
p71
(lp72
S"please go to dave 's office"
p73
asg15
(lp74
sg16
(lp75
sg25
(lp76
sg3
(lp77
sg14
(lp78
sa(dp79
g71
(lp80
S'take the bottle to dr sybil smalt'
p81
asg15
(lp82
S'the white bottle'
p83
aS'white bottle'
p84
aS'bottle'
p85
aS'bottle'
p86
asg16
(lp87
sg25
(lp88
sg3
(lp89
sg14
(lp90
S'dr sybil smalt'
p91
asa(dp92
g71
(lp93
S'take the container of chips to robert bob brown'
p94
asg15
(lp95
S'can'
p96
aS'container'
p97
aS'tall broken can'
p98
aS'tall broken container'
p99
aS'broken empty can'
p100
aS'container'
p101
aS'container'
p102
asg16
(lp103
sg25
(lp104
sg3
(lp105
sg14
(lp106
saa(lp107
(g4
(g5
(S'S6'
p108
I0
I1
tp109
Rp110
(I3
S'|'
p111
NNNI6
I1
I0
tp112
bS'column'
p113
tp114
Rp115
I14
I0
tp116
a(g4
(g5
(S'S6'
p117
I0
I1
tp118
Rp119
(I3
S'|'
p120
NNNI6
I1
I0
tp121
bS'column'
p122
tp123
Rp124
I31
I0
tp125
a(g4
(g5
(S'S3'
p126
I0
I1
tp127
Rp128
(I3
S'|'
p129
NNNI3
I1
I0
tp130
bS'can'
p131
tp132
Rp133
I1
I0
tp134
a(g4
(g5
(S'S6'
p135
I0
I1
tp136
Rp137
(I3
S'|'
p138
NNNI6
I1
I0
tp139
bS'yellow'
p140
tp141
Rp142
I5
I0
tp143
a(g142
I14
I0
tp144
a(g142
I8
I0
tp145
a(g142
I15
I0
tp146
a(g142
I1
I0
tp147
a(g142
I30
I0
tp148
a(g142
I29
I0
tp149
a(g142
I31
I0
tp150
a(g4
(g5
(S'S4'
p151
I0
I1
tp152
Rp153
(I3
S'|'
p154
NNNI4
I1
I0
tp155
bS'blue'
p156
tp157
Rp158
I29
I0
tp159
a(g4
(g5
(S'S9'
p160
I0
I1
tp161
Rp162
(I3
S'|'
p163
NNNI9
I1
I0
tp164
bS'container'
p165
tp166
Rp167
I30
I1
tp168
a(g4
(g5
(S'S9'
p169
I0
I1
tp170
Rp171
(I3
S'|'
p172
NNNI9
I1
I0
tp173
bS'container'
p174
tp175
Rp176
I30
I1
tp177
a(g4
(g5
(S'S9'
p178
I0
I1
tp179
Rp180
(I3
S'|'
p181
NNNI9
I1
I0
tp182
bS'container'
p183
tp184
Rp185
I29
I1
tp186
a(g4
(g5
(S'S5'
p187
I0
I1
tp188
Rp189
(I3
S'|'
p190
NNNI5
I1
I0
tp191
bS'white'
p192
tp193
Rp194
I5
I0
tp195
a(g194
I14
I0
tp196
a(g194
I8
I0
tp197
a(g194
I15
I0
tp198
a(g194
I1
I0
tp199
a(g194
I30
I0
tp200
a(g194
I29
I0
tp201
a(g194
I31
I0
tp202
a(g4
(g5
(S'S9'
p203
I0
I1
tp204
Rp205
(I3
S'|'
p206
NNNI9
I1
I0
tp207
bS'container'
p208
tp209
Rp210
I31
I1
tp211
a(g4
(g5
(S'S3'
p212
I0
I1
tp213
Rp214
(I3
S'|'
p215
NNNI3
I1
I0
tp216
bS'can'
p217
tp218
Rp219
I31
I0
tp220
a(g4
(g5
(S'S3'
p221
I0
I1
tp222
Rp223
(I3
S'|'
p224
NNNI3
I1
I0
tp225
bS'can'
p226
tp227
Rp228
I5
I0
tp229
a(g4
(g5
(S'S3'
p230
I0
I1
tp231
Rp232
(I3
S'|'
p233
NNNI3
I1
I0
tp234
bS'can'
p235
tp236
Rp237
I15
I0
tp238
a(g4
(g5
(S'S3'
p239
I0
I1
tp240
Rp241
(I3
S'|'
p242
NNNI3
I1
I0
tp243
bS'can'
p244
tp245
Rp246
I8
I1
tp247
a(g4
(g5
(S'S3'
p248
I0
I1
tp249
Rp250
(I3
S'|'
p251
NNNI3
I1
I0
tp252
bS'can'
p253
tp254
Rp255
I29
I0
tp256
aa(lp257
(S'broken'
p258
S'empty'
p259
I00
tp260
aa.