(lp0
(lp1
(dp2
S'action'
p3
cnumpy.core.multiarray
scalar
p4
(cnumpy
dtype
p5
(S'S4'
p6
I0
I1
tp7
Rp8
(I3
S'|'
p9
NNNI4
I1
I0
tp10
bS'walk'
p11
tp12
Rp13
sS'recipient'
p14
NsS'patient'
p15
NsS'goal'
p16
S'3502'
p17
sS'source'
p18
Nsa(dp19
g3
g4
(g5
(S'S5'
p20
I0
I1
tp21
Rp22
(I3
S'|'
p23
NNNI5
I1
I0
tp24
bS'bring'
p25
tp26
Rp27
sg14
g4
(g5
(S'S1'
p28
I0
I1
tp29
Rp30
(I3
S'|'
p31
NNNI1
I1
I0
tp32
bS'p'
p33
tp34
Rp35
sg15
g4
(g5
(S'S7'
p36
I0
I1
tp37
Rp38
(I3
S'|'
p39
NNNI7
I1
I0
tp40
bS'oidx_13'
p41
tp42
Rp43
sg16
Nsg18
Nsaa(lp44
(dp45
S'all'
p46
(lp47
S"go to mallory 's office"
p48
asg15
(lp49
sg16
(lp50
sg18
(lp51
sg3
(lp52
sg14
(lp53
sa(dp54
g46
(lp55
S'pringl'
p56
asg15
(lp57
S'pringles'
p58
aS'tall blue can'
p59
aS'long column'
p60
asg16
(lp61
sg18
(lp62
sg3
(lp63
sg14
(lp64
S'peggy parker'
p65
asaa(lp66
(g4
(g5
(S'S5'
p67
I0
I1
tp68
Rp69
(I3
S'|'
p70
NNNI5
I1
I0
tp71
bS'clear'
p72
tp73
Rp74
I15
I1
tp75
a(g4
(g5
(S'S4'
p76
I0
I1
tp77
Rp78
(I3
S'|'
p79
NNNI4
I1
I0
tp80
bS'long'
p81
tp82
Rp83
I14
I0
tp84
a(g4
(g5
(S'S5'
p85
I0
I1
tp86
Rp87
(I3
S'|'
p88
NNNI5
I1
I0
tp89
bS'spice'
p90
tp91
Rp92
I5
I0
tp93
a(g92
I14
I0
tp94
a(g92
I8
I0
tp95
a(g92
I15
I0
tp96
a(g92
I1
I0
tp97
a(g92
I30
I0
tp98
a(g92
I29
I0
tp99
a(g92
I31
I0
tp100
a(g4
(g5
(S'S6'
p101
I0
I1
tp102
Rp103
(I3
S'|'
p104
NNNI6
I1
I0
tp105
bS'yellow'
p106
tp107
Rp108
I5
I1
tp109
a(g4
(g5
(S'S8'
p110
I0
I1
tp111
Rp112
(I3
S'|'
p113
NNNI8
I1
I0
tp114
bS'pringles'
p115
tp116
Rp117
I5
I0
tp118
a(g117
I14
I0
tp119
a(g117
I8
I0
tp120
a(g117
I15
I0
tp121
a(g117
I1
I0
tp122
a(g117
I30
I0
tp123
a(g117
I29
I0
tp124
a(g117
I31
I0
tp125
a(g4
(g5
(S'S4'
p126
I0
I1
tp127
Rp128
(I3
S'|'
p129
NNNI4
I1
I0
tp130
bS'long'
p131
tp132
Rp133
I31
I0
tp134
a(g4
(g5
(S'S6'
p135
I0
I1
tp136
Rp137
(I3
S'|'
p138
NNNI6
I1
I0
tp139
bS'column'
p140
tp141
Rp142
I31
I1
tp143
a(g4
(g5
(S'S5'
p144
I0
I1
tp145
Rp146
(I3
S'|'
p147
NNNI5
I1
I0
tp148
bS'brown'
p149
tp150
Rp151
I31
I0
tp152
a(g4
(g5
(S'S3'
p153
I0
I1
tp154
Rp155
(I3
S'|'
p156
NNNI3
I1
I0
tp157
bS'can'
p158
tp159
Rp160
I8
I1
tp161
a(g4
(g5
(S'S6'
p162
I0
I1
tp163
Rp164
(I3
S'|'
p165
NNNI6
I1
I0
tp166
bS'yellow'
p167
tp168
Rp169
I31
I1
tp170
aa(lp171
a.