(lp0
(lp1
(dp2
S'action'
p3
cnumpy.core.multiarray
scalar
p4
(cnumpy
dtype
p5
(S'S4'
p6
I0
I1
tp7
Rp8
(I3
S'|'
p9
NNNI4
I1
I0
tp10
bS'walk'
p11
tp12
Rp13
sS'recipient'
p14
NsS'patient'
p15
NsS'goal'
p16
g4
(g5
(S'S4'
p17
I0
I1
tp18
Rp19
(I3
S'|'
p20
NNNI4
I1
I0
tp21
bS'3402'
p22
tp23
Rp24
sS'source'
p25
Nsa(dp26
g3
g4
(g5
(S'S5'
p27
I0
I1
tp28
Rp29
(I3
S'|'
p30
NNNI5
I1
I0
tp31
bS'bring'
p32
tp33
Rp34
sg14
g4
(g5
(S'S1'
p35
I0
I1
tp36
Rp37
(I3
S'|'
p38
NNNI1
I1
I0
tp39
bS'h'
p40
tp41
Rp42
sg15
g4
(g5
(S'S7'
p43
I0
I1
tp44
Rp45
(I3
S'|'
p46
NNNI7
I1
I0
tp47
bS'oidx_28'
p48
tp49
Rp50
sg16
Nsg25
Nsa(dp51
g3
g4
(g5
(S'S4'
p52
I0
I1
tp53
Rp54
(I3
S'|'
p55
NNNI4
I1
I0
tp56
bS'move'
p57
tp58
Rp59
sg14
Nsg15
g4
(g5
(S'S7'
p60
I0
I1
tp61
Rp62
(I3
S'|'
p63
NNNI7
I1
I0
tp64
bS'oidx_22'
p65
tp66
Rp67
sg16
g4
(g5
(S'S4'
p68
I0
I1
tp69
Rp70
(I3
S'|'
p71
NNNI4
I1
I0
tp72
bS'3502'
p73
tp74
Rp75
sg25
g4
(g5
(S'S4'
p76
I0
I1
tp77
Rp78
(I3
S'|'
p79
NNNI4
I1
I0
tp80
bS'3508'
p81
tp82
Rp83
saa(lp84
(dp85
S'all'
p86
(lp87
S'go to dr heidi hughes office'
p88
asg15
(lp89
sg16
(lp90
sg25
(lp91
sg3
(lp92
sg14
(lp93
sa(dp94
g86
(lp95
S'give styrofoam to dr heidi hughes'
p96
asg15
(lp97
sg16
(lp98
sg25
(lp99
sg3
(lp100
sg14
(lp101
sa(dp102
g86
(lp103
S'bring container to mallory mal maroon office'
p104
asg15
(lp105
S'container'
p106
aS'container'
p107
asg16
(lp108
S'from peggy parker intern office to mallory mal maroon'
p109
aS'to mallory mal maroon office'
p110
asg25
(lp111
S'from peggy parker intern office'
p112
asg3
(lp113
sg14
(lp114
saa(lp115
(g4
(g5
(S'S6'
p116
I0
I1
tp117
Rp118
(I3
S'|'
p119
NNNI6
I1
I0
tp120
bS'coffee'
p121
tp122
Rp123
I30
I1
tp124
a(g4
(g5
(S'S9'
p125
I0
I1
tp126
Rp127
(I3
S'|'
p128
NNNI9
I1
I0
tp129
bS'rectangle'
p130
tp131
Rp132
I5
I0
tp133
a(g132
I14
I0
tp134
a(g132
I8
I0
tp135
a(g132
I15
I0
tp136
a(g132
I1
I0
tp137
a(g132
I30
I0
tp138
a(g132
I29
I0
tp139
a(g132
I31
I0
tp140
a(g4
(g5
(S'S3'
p141
I0
I1
tp142
Rp143
(I3
S'|'
p144
NNNI3
I1
I0
tp145
bS'red'
p146
tp147
Rp148
I5
I0
tp149
a(g4
(g5
(S'S9'
p150
I0
I1
tp151
Rp152
(I3
S'|'
p153
NNNI9
I1
I0
tp154
bS'styrofoam'
p155
tp156
Rp157
I31
I0
tp158
a(g4
(g5
(S'S9'
p159
I0
I1
tp160
Rp161
(I3
S'|'
p162
NNNI9
I1
I0
tp163
bS'styrofoam'
p164
tp165
Rp166
I30
I0
tp167
a(g4
(g5
(S'S9'
p168
I0
I1
tp169
Rp170
(I3
S'|'
p171
NNNI9
I1
I0
tp172
bS'styrofoam'
p173
tp174
Rp175
I8
I0
tp176
a(g4
(g5
(S'S8'
p177
I0
I1
tp178
Rp179
(I3
S'|'
p180
NNNI8
I1
I0
tp181
bS'metallic'
p182
tp183
Rp184
I8
I1
tp185
a(g4
(g5
(S'S8'
p186
I0
I1
tp187
Rp188
(I3
S'|'
p189
NNNI8
I1
I0
tp190
bS'pringles'
p191
tp192
Rp193
I5
I0
tp194
a(g193
I14
I0
tp195
a(g193
I8
I0
tp196
a(g193
I15
I0
tp197
a(g193
I1
I0
tp198
a(g193
I30
I0
tp199
a(g193
I29
I0
tp200
a(g193
I31
I0
tp201
a(g4
(g5
(S'S6'
p202
I0
I1
tp203
Rp204
(I3
S'|'
p205
NNNI6
I1
I0
tp206
bS'coffee'
p207
tp208
Rp209
I5
I0
tp210
a(g4
(g5
(S'S9'
p211
I0
I1
tp212
Rp213
(I3
S'|'
p214
NNNI9
I1
I0
tp215
bS'container'
p216
tp217
Rp218
I14
I1
tp219
a(g4
(g5
(S'S9'
p220
I0
I1
tp221
Rp222
(I3
S'|'
p223
NNNI9
I1
I0
tp224
bS'container'
p225
tp226
Rp227
I8
I0
tp228
a(g4
(g5
(S'S9'
p229
I0
I1
tp230
Rp231
(I3
S'|'
p232
NNNI9
I1
I0
tp233
bS'container'
p234
tp235
Rp236
I14
I1
tp237
a(g4
(g5
(S'S9'
p238
I0
I1
tp239
Rp240
(I3
S'|'
p241
NNNI9
I1
I0
tp242
bS'container'
p243
tp244
Rp245
I29
I1
tp246
a(g4
(g5
(S'S9'
p247
I0
I1
tp248
Rp249
(I3
S'|'
p250
NNNI9
I1
I0
tp251
bS'container'
p252
tp253
Rp254
I31
I1
tp255
a(g4
(g5
(S'S9'
p256
I0
I1
tp257
Rp258
(I3
S'|'
p259
NNNI9
I1
I0
tp260
bS'container'
p261
tp262
Rp263
I1
I1
tp264
aa(lp265
a.