(lp0
(lp1
(dp2
S'action'
p3
cnumpy.core.multiarray
scalar
p4
(cnumpy
dtype
p5
(S'S4'
p6
I0
I1
tp7
Rp8
(I3
S'|'
p9
NNNI4
I1
I0
tp10
bS'walk'
p11
tp12
Rp13
sS'recipient'
p14
NsS'patient'
p15
NsS'goal'
p16
g4
(g5
(S'S4'
p17
I0
I1
tp18
Rp19
(I3
S'|'
p20
NNNI4
I1
I0
tp21
bS'3502'
p22
tp23
Rp24
sS'source'
p25
Nsaa(lp26
(dp27
S'all'
p28
(lp29
S'start in the pod between m and p'
p30
asg15
(lp31
sg16
(lp32
S'office m'
p33
aS'to the left'
p34
aS'to the bottom corner'
p35
aS"to mallory mal maroon 's office"
p36
asg25
(lp37
sg3
(lp38
sg14
(lp39
saa(lp40
(g4
(g5
(S'S3'
p41
I0
I1
tp42
Rp43
(I3
S'|'
p44
NNNI3
I1
I0
tp45
bS'can'
p46
tp47
Rp48
I8
I1
tp49
a(g4
(g5
(S'S6'
p50
I0
I1
tp51
Rp52
(I3
S'|'
p53
NNNI6
I1
I0
tp54
bS'column'
p55
tp56
Rp57
I30
I0
tp58
a(g4
(g5
(S'S5'
p59
I0
I1
tp60
Rp61
(I3
S'|'
p62
NNNI5
I1
I0
tp63
bS'empty'
p64
tp65
Rp66
I5
I0
tp67
a(g66
I14
I0
tp68
a(g66
I8
I0
tp69
a(g66
I15
I0
tp70
a(g66
I1
I0
tp71
a(g66
I30
I0
tp72
a(g66
I29
I0
tp73
a(g66
I31
I0
tp74
a(g4
(g5
(S'S5'
p75
I0
I1
tp76
Rp77
(I3
S'|'
p78
NNNI5
I1
I0
tp79
bS'spice'
p80
tp81
Rp82
I5
I0
tp83
a(g82
I14
I0
tp84
a(g82
I8
I0
tp85
a(g82
I15
I0
tp86
a(g82
I1
I0
tp87
a(g82
I30
I0
tp88
a(g82
I29
I0
tp89
a(g82
I31
I0
tp90
a(g4
(g5
(S'S6'
p91
I0
I1
tp92
Rp93
(I3
S'|'
p94
NNNI6
I1
I0
tp95
bS'yellow'
p96
tp97
Rp98
I5
I1
tp99
aa(lp100
a.