(lp0
(lp1
(dp2
S'action'
p3
cnumpy.core.multiarray
scalar
p4
(cnumpy
dtype
p5
(S'S4'
p6
I0
I1
tp7
Rp8
(I3
S'|'
p9
NNNI4
I1
I0
tp10
bS'walk'
p11
tp12
Rp13
sS'recipient'
p14
NsS'patient'
p15
NsS'goal'
p16
S'3430'
p17
sS'source'
p18
Nsa(dp19
g3
g4
(g5
(S'S5'
p20
I0
I1
tp21
Rp22
(I3
S'|'
p23
NNNI5
I1
I0
tp24
bS'bring'
p25
tp26
Rp27
sg14
g4
(g5
(S'S1'
p28
I0
I1
tp29
Rp30
(I3
S'|'
p31
NNNI1
I1
I0
tp32
bS'n'
p33
tp34
Rp35
sg15
S'oidx_6'
p36
sg16
Nsg18
Nsaa(lp37
(dp38
S'all'
p39
(lp40
S''
p41
asg15
(lp42
sg16
(lp43
S'go to dr sybil smalt office'
p44
asg18
(lp45
sg3
(lp46
sg14
(lp47
sa(dp48
g39
(lp49
S"bring medicine to dr nancy nagel 's office"
p50
asg15
(lp51
S'medicine'
p52
aS'pills'
p53
asg16
(lp54
sg18
(lp55
sg3
(lp56
sg14
(lp57
S'dr nancy nagel'
p58
asaa(lp59
(g4
(g5
(S'S5'
p60
I0
I1
tp61
Rp62
(I3
S'|'
p63
NNNI5
I1
I0
tp64
bS'brown'
p65
tp66
Rp67
I1
I0
tp68
a(g4
(g5
(S'S5'
p69
I0
I1
tp70
Rp71
(I3
S'|'
p72
NNNI5
I1
I0
tp73
bS'spice'
p74
tp75
Rp76
I5
I0
tp77
a(g76
I14
I0
tp78
a(g76
I8
I0
tp79
a(g76
I15
I0
tp80
a(g76
I1
I0
tp81
a(g76
I30
I0
tp82
a(g76
I29
I0
tp83
a(g76
I31
I0
tp84
a(g4
(g5
(S'S4'
p85
I0
I1
tp86
Rp87
(I3
S'|'
p88
NNNI4
I1
I0
tp89
bS'long'
p90
tp91
Rp92
I1
I0
tp93
a(g4
(g5
(S'S8'
p94
I0
I1
tp95
Rp96
(I3
S'|'
p97
NNNI8
I1
I0
tp98
bS'pringles'
p99
tp100
Rp101
I5
I0
tp102
a(g101
I14
I0
tp103
a(g101
I8
I0
tp104
a(g101
I15
I0
tp105
a(g101
I1
I0
tp106
a(g101
I30
I0
tp107
a(g101
I29
I0
tp108
a(g101
I31
I0
tp109
a(g4
(g5
(S'S5'
p110
I0
I1
tp111
Rp112
(I3
S'|'
p113
NNNI5
I1
I0
tp114
bS'block'
p115
tp116
Rp117
I5
I0
tp118
a(g117
I14
I0
tp119
a(g117
I8
I0
tp120
a(g117
I15
I0
tp121
a(g117
I1
I0
tp122
a(g117
I30
I0
tp123
a(g117
I29
I0
tp124
a(g117
I31
I0
tp125
a(g4
(g5
(S'S3'
p126
I0
I1
tp127
Rp128
(I3
S'|'
p129
NNNI3
I1
I0
tp130
bS'can'
p131
tp132
Rp133
I30
I0
tp134
a(g4
(g5
(S'S6'
p135
I0
I1
tp136
Rp137
(I3
S'|'
p138
NNNI6
I1
I0
tp139
bS'yellow'
p140
tp141
Rp142
I5
I1
tp143
a(g4
(g5
(S'S4'
p144
I0
I1
tp145
Rp146
(I3
S'|'
p147
NNNI4
I1
I0
tp148
bS'bean'
p149
tp150
Rp151
I8
I1
tp152
a(g4
(g5
(S'S9'
p153
I0
I1
tp154
Rp155
(I3
S'|'
p156
NNNI9
I1
I0
tp157
bS'styrofoam'
p158
tp159
Rp160
I31
I0
tp161
a(g4
(g5
(S'S9'
p162
I0
I1
tp163
Rp164
(I3
S'|'
p165
NNNI9
I1
I0
tp166
bS'styrofoam'
p167
tp168
Rp169
I30
I0
tp170
aa(lp171
a.