(lp0
(lp1
(dp2
S'action'
p3
cnumpy.core.multiarray
scalar
p4
(cnumpy
dtype
p5
(S'S4'
p6
I0
I1
tp7
Rp8
(I3
S'|'
p9
NNNI4
I1
I0
tp10
bS'walk'
p11
tp12
Rp13
sS'recipient'
p14
NsS'patient'
p15
NsS'goal'
p16
S'3420'
p17
sS'source'
p18
Nsaa(lp19
(dp20
S'all'
p21
(lp22
S'go to office s'
p23
asg15
(lp24
sg16
(lp25
S'office s'
p26
aS'dr sybil smalt'
p27
asg18
(lp28
sg3
(lp29
sg14
(lp30
saa(lp31
(g4
(g5
(S'S9'
p32
I0
I1
tp33
Rp34
(I3
S'|'
p35
NNNI9
I1
I0
tp36
bS'container'
p37
tp38
Rp39
I5
I0
tp40
a(g39
I14
I0
tp41
a(g39
I8
I0
tp42
a(g39
I15
I0
tp43
a(g39
I1
I0
tp44
a(g39
I30
I0
tp45
a(g39
I29
I0
tp46
a(g39
I31
I0
tp47
a(g4
(g5
(S'S4'
p48
I0
I1
tp49
Rp50
(I3
S'|'
p51
NNNI4
I1
I0
tp52
bS'long'
p53
tp54
Rp55
I8
I0
tp56
a(g4
(g5
(S'S3'
p57
I0
I1
tp58
Rp59
(I3
S'|'
p60
NNNI3
I1
I0
tp61
bS'can'
p62
tp63
Rp64
I15
I1
tp65
a(g4
(g5
(S'S5'
p66
I0
I1
tp67
Rp68
(I3
S'|'
p69
NNNI5
I1
I0
tp70
bS'brown'
p71
tp72
Rp73
I8
I0
tp74
a(g4
(g5
(S'S6'
p75
I0
I1
tp76
Rp77
(I3
S'|'
p78
NNNI6
I1
I0
tp79
bS'column'
p80
tp81
Rp82
I30
I0
tp83
aa(lp84
a.