(lp0
(lp1
(dp2
S'action'
p3
cnumpy.core.multiarray
scalar
p4
(cnumpy
dtype
p5
(S'S5'
p6
I0
I1
tp7
Rp8
(I3
S'|'
p9
NNNI5
I1
I0
tp10
bS'bring'
p11
tp12
Rp13
sS'recipient'
p14
g4
(g5
(S'S1'
p15
I0
I1
tp16
Rp17
(I3
S'|'
p18
NNNI1
I1
I0
tp19
bS'd'
p20
tp21
Rp22
sS'patient'
p23
S'oidx_22'
p24
sS'goal'
p25
NsS'source'
p26
Nsa(dp27
g3
g4
(g5
(S'S5'
p28
I0
I1
tp29
Rp30
(I3
S'|'
p31
NNNI5
I1
I0
tp32
bS'bring'
p33
tp34
Rp35
sg14
S'p'
p36
sg23
S'oidx_13'
p37
sg25
Nsg26
Nsa(dp38
g3
g4
(g5
(S'S5'
p39
I0
I1
tp40
Rp41
(I3
S'|'
p42
NNNI5
I1
I0
tp43
bS'bring'
p44
tp45
Rp46
sg14
g4
(g5
(S'S1'
p47
I0
I1
tp48
Rp49
(I3
S'|'
p50
NNNI1
I1
I0
tp51
bS'b'
p52
tp53
Rp54
sg23
S'oidx_28'
p55
sg25
Nsg26
Nsaa(lp56
(dp57
S'all'
p58
(lp59
S'dave'
p60
asg23
(lp61
S'dr heidi hughes'
p62
asg25
(lp63
sg26
(lp64
sg3
(lp65
sg14
(lp66
sa(dp67
g58
(lp68
S'mal'
p69
asg23
(lp70
S'dr nancy nagel'
p71
aS'dr nancy nagel'
p72
asg25
(lp73
sg26
(lp74
sg3
(lp75
sg14
(lp76
sa(dp77
g58
(lp78
S'bob'
p79
asg23
(lp80
S'dr sybil smalt'
p81
asg25
(lp82
sg26
(lp83
sg3
(lp84
sg14
(lp85
saa(lp86
(g4
(g5
(S'S9'
p87
I0
I1
tp88
Rp89
(I3
S'|'
p90
NNNI9
I1
I0
tp91
bS'container'
p92
tp93
Rp94
I1
I1
tp95
a(g4
(g5
(S'S8'
p96
I0
I1
tp97
Rp98
(I3
S'|'
p99
NNNI8
I1
I0
tp100
bS'cylinder'
p101
tp102
Rp103
I30
I1
tp104
a(g4
(g5
(S'S5'
p105
I0
I1
tp106
Rp107
(I3
S'|'
p108
NNNI5
I1
I0
tp109
bS'tower'
p110
tp111
Rp112
I15
I1
tp113
a(g4
(g5
(S'S6'
p114
I0
I1
tp115
Rp116
(I3
S'|'
p117
NNNI6
I1
I0
tp118
bS'column'
p119
tp120
Rp121
I30
I1
tp122
a(g4
(g5
(S'S9'
p123
I0
I1
tp124
Rp125
(I3
S'|'
p126
NNNI9
I1
I0
tp127
bS'styrofoam'
p128
tp129
Rp130
I14
I1
tp131
a(g4
(g5
(S'S4'
p132
I0
I1
tp133
Rp134
(I3
S'|'
p135
NNNI4
I1
I0
tp136
bS'bean'
p137
tp138
Rp139
I29
I1
tp140
a(g4
(g5
(S'S5'
p141
I0
I1
tp142
Rp143
(I3
S'|'
p144
NNNI5
I1
I0
tp145
bS'small'
p146
tp147
Rp148
I31
I0
tp149
a(g4
(g5
(S'S8'
p150
I0
I1
tp151
Rp152
(I3
S'|'
p153
NNNI8
I1
I0
tp154
bS'pringles'
p155
tp156
Rp157
I5
I0
tp158
a(g157
I14
I0
tp159
a(g157
I8
I0
tp160
a(g157
I15
I0
tp161
a(g157
I1
I0
tp162
a(g157
I30
I0
tp163
a(g157
I29
I0
tp164
a(g157
I31
I0
tp165
a(g4
(g5
(S'S5'
p166
I0
I1
tp167
Rp168
(I3
S'|'
p169
NNNI5
I1
I0
tp170
bS'peach'
p171
tp172
Rp173
I14
I1
tp174
a(g4
(g5
(S'S5'
p175
I0
I1
tp176
Rp177
(I3
S'|'
p178
NNNI5
I1
I0
tp179
bS'tower'
p180
tp181
Rp182
I1
I1
tp183
a(g4
(g5
(S'S9'
p184
I0
I1
tp185
Rp186
(I3
S'|'
p187
NNNI9
I1
I0
tp188
bS'styrofoam'
p189
tp190
Rp191
I30
I1
tp192
a(g4
(g5
(S'S5'
p193
I0
I1
tp194
Rp195
(I3
S'|'
p196
NNNI5
I1
I0
tp197
bS'block'
p198
tp199
Rp200
I5
I0
tp201
a(g200
I14
I0
tp202
a(g200
I8
I0
tp203
a(g200
I15
I0
tp204
a(g200
I1
I0
tp205
a(g200
I30
I0
tp206
a(g200
I29
I0
tp207
a(g200
I31
I0
tp208
a(g4
(g5
(S'S4'
p209
I0
I1
tp210
Rp211
(I3
S'|'
p212
NNNI4
I1
I0
tp213
bS'blue'
p214
tp215
Rp216
I15
I0
tp217
a(g4
(g5
(S'S4'
p218
I0
I1
tp219
Rp220
(I3
S'|'
p221
NNNI4
I1
I0
tp222
bS'bean'
p223
tp224
Rp225
I14
I1
tp226
a(g4
(g5
(S'S5'
p227
I0
I1
tp228
Rp229
(I3
S'|'
p230
NNNI5
I1
I0
tp231
bS'clear'
p232
tp233
Rp234
I5
I1
tp235
aa(lp236
a.