(lp0
(lp1
(dp2
S'action'
p3
cnumpy.core.multiarray
scalar
p4
(cnumpy
dtype
p5
(S'S4'
p6
I0
I1
tp7
Rp8
(I3
S'|'
p9
NNNI4
I1
I0
tp10
bS'move'
p11
tp12
Rp13
sS'recipient'
p14
NsS'patient'
p15
S'oidx_12'
p16
sS'goal'
p17
g4
(g5
(S'S4'
p18
I0
I1
tp19
Rp20
(I3
S'|'
p21
NNNI4
I1
I0
tp22
bS'3414'
p23
tp24
Rp25
sS'source'
p26
S'3414'
p27
sa(dp28
g3
g4
(g5
(S'S5'
p29
I0
I1
tp30
Rp31
(I3
S'|'
p32
NNNI5
I1
I0
tp33
bS'bring'
p34
tp35
Rp36
sg14
S's'
p37
sg15
S'oidx_6'
p38
sg17
Nsg26
Nsa(dp39
g3
g4
(g5
(S'S4'
p40
I0
I1
tp41
Rp42
(I3
S'|'
p43
NNNI4
I1
I0
tp44
bS'move'
p45
tp46
Rp47
sg14
Nsg15
g4
(g5
(S'S7'
p48
I0
I1
tp49
Rp50
(I3
S'|'
p51
NNNI7
I1
I0
tp52
bS'oidx_11'
p53
tp54
Rp55
sg17
g4
(g5
(S'S4'
p56
I0
I1
tp57
Rp58
(I3
S'|'
p59
NNNI4
I1
I0
tp60
bS'3514'
p61
tp62
Rp63
sg26
g4
(g5
(S'S4'
p64
I0
I1
tp65
Rp66
(I3
S'|'
p67
NNNI4
I1
I0
tp68
bS'3514'
p69
tp70
Rp71
saa(lp72
(dp73
S'all'
p74
(lp75
S'go to dr nancy nagel'
p76
asg15
(lp77
sg17
(lp78
S'to the lab'
p79
aS'to the lab'
p80
aS'to a lab'
p81
asg26
(lp82
S'to n'
p83
asg3
(lp84
sg14
(lp85
sa(dp86
g74
(lp87
S'give the object to this person'
p88
asg15
(lp89
S's'
p90
aS'drugs'
p91
asg17
(lp92
sg26
(lp93
sg3
(lp94
sg14
(lp95
sa(dp96
g74
(lp97
S'take this object to the pod'
p98
asg15
(lp99
S'move object'
p100
aS'move object'
p101
aS'move cylinder yellow object'
p102
aS'object'
p103
asg17
(lp104
S'to the lounge'
p105
asg26
(lp106
S'to the lounge'
p107
asg3
(lp108
sg14
(lp109
saa(lp110
(g4
(g5
(S'S9'
p111
I0
I1
tp112
Rp113
(I3
S'|'
p114
NNNI9
I1
I0
tp115
bS'styrofoam'
p116
tp117
Rp118
I30
I0
tp119
a(g4
(g5
(S'S8'
p120
I0
I1
tp121
Rp122
(I3
S'|'
p123
NNNI8
I1
I0
tp124
bS'pringles'
p125
tp126
Rp127
I5
I0
tp128
a(g127
I14
I0
tp129
a(g127
I8
I0
tp130
a(g127
I15
I0
tp131
a(g127
I1
I0
tp132
a(g127
I30
I0
tp133
a(g127
I29
I0
tp134
a(g127
I31
I0
tp135
a(g4
(g5
(S'S8'
p136
I0
I1
tp137
Rp138
(I3
S'|'
p139
NNNI8
I1
I0
tp140
bS'cylinder'
p141
tp142
Rp143
I8
I1
tp144
a(g4
(g5
(S'S4'
p145
I0
I1
tp146
Rp147
(I3
S'|'
p148
NNNI4
I1
I0
tp149
bS'long'
p150
tp151
Rp152
I8
I0
tp153
a(g4
(g5
(S'S5'
p154
I0
I1
tp155
Rp156
(I3
S'|'
p157
NNNI5
I1
I0
tp158
bS'brown'
p159
tp160
Rp161
I14
I0
tp162
a(g4
(g5
(S'S9'
p163
I0
I1
tp164
Rp165
(I3
S'|'
p166
NNNI9
I1
I0
tp167
bS'styrofoam'
p168
tp169
Rp170
I31
I0
tp171
a(g4
(g5
(S'S8'
p172
I0
I1
tp173
Rp174
(I3
S'|'
p175
NNNI8
I1
I0
tp176
bS'cylinder'
p177
tp178
Rp179
I8
I1
tp180
a(g4
(g5
(S'S4'
p181
I0
I1
tp182
Rp183
(I3
S'|'
p184
NNNI4
I1
I0
tp185
bS'bean'
p186
tp187
Rp188
I5
I0
tp189
a(g188
I14
I0
tp190
a(g188
I8
I0
tp191
a(g188
I15
I0
tp192
a(g188
I1
I0
tp193
a(g188
I30
I0
tp194
a(g188
I29
I0
tp195
a(g188
I31
I0
tp196
a(g4
(g5
(S'S8'
p197
I0
I1
tp198
Rp199
(I3
S'|'
p200
NNNI8
I1
I0
tp201
bS'cylinder'
p202
tp203
Rp204
I8
I1
tp205
a(g4
(g5
(S'S5'
p206
I0
I1
tp207
Rp208
(I3
S'|'
p209
NNNI5
I1
I0
tp210
bS'clear'
p211
tp212
Rp213
I5
I0
tp214
a(g213
I14
I0
tp215
a(g213
I8
I0
tp216
a(g213
I15
I0
tp217
a(g213
I1
I0
tp218
a(g213
I30
I0
tp219
a(g213
I29
I0
tp220
a(g213
I31
I0
tp221
a(g4
(g5
(S'S9'
p222
I0
I1
tp223
Rp224
(I3
S'|'
p225
NNNI9
I1
I0
tp226
bS'container'
p227
tp228
Rp229
I30
I1
tp230
a(g4
(g5
(S'S9'
p231
I0
I1
tp232
Rp233
(I3
S'|'
p234
NNNI9
I1
I0
tp235
bS'container'
p236
tp237
Rp238
I30
I1
tp239
a(g4
(g5
(S'S9'
p240
I0
I1
tp241
Rp242
(I3
S'|'
p243
NNNI9
I1
I0
tp244
bS'container'
p245
tp246
Rp247
I5
I0
tp248
a(g247
I14
I0
tp249
a(g247
I8
I0
tp250
a(g247
I15
I0
tp251
a(g247
I1
I0
tp252
a(g247
I30
I0
tp253
a(g247
I29
I0
tp254
a(g247
I31
I0
tp255
a(g4
(g5
(S'S8'
p256
I0
I1
tp257
Rp258
(I3
S'|'
p259
NNNI8
I1
I0
tp260
bS'cylinder'
p261
tp262
Rp263
I5
I0
tp264
a(g4
(g5
(S'S4'
p265
I0
I1
tp266
Rp267
(I3
S'|'
p268
NNNI4
I1
I0
tp269
bS'blue'
p270
tp271
Rp272
I29
I0
tp273
aa(lp274
(g91
g4
(g5
(S'S5'
p275
I0
I1
tp276
Rp277
(I3
S'|'
p278
NNNI5
I1
I0
tp279
bS'small'
p280
tp281
Rp282
I01
tp283
aa.