(lp0
(lp1
(dp2
S'action'
p3
cnumpy.core.multiarray
scalar
p4
(cnumpy
dtype
p5
(S'S4'
p6
I0
I1
tp7
Rp8
(I3
S'|'
p9
NNNI4
I1
I0
tp10
bS'walk'
p11
tp12
Rp13
sS'recipient'
p14
NsS'patient'
p15
NsS'goal'
p16
S'3514'
p17
sS'source'
p18
Nsa(dp19
g3
g4
(g5
(S'S5'
p20
I0
I1
tp21
Rp22
(I3
S'|'
p23
NNNI5
I1
I0
tp24
bS'bring'
p25
tp26
Rp27
sg14
g4
(g5
(S'S1'
p28
I0
I1
tp29
Rp30
(I3
S'|'
p31
NNNI1
I1
I0
tp32
bS's'
p33
tp34
Rp35
sg15
g4
(g5
(S'S7'
p36
I0
I1
tp37
Rp38
(I3
S'|'
p39
NNNI7
I1
I0
tp40
bS'oidx_11'
p41
tp42
Rp43
sg16
Nsg18
Nsa(dp44
g3
g4
(g5
(S'S4'
p45
I0
I1
tp46
Rp47
(I3
S'|'
p48
NNNI4
I1
I0
tp49
bS'walk'
p50
tp51
Rp52
sg14
Nsg15
Nsg16
g4
(g5
(S'S4'
p53
I0
I1
tp54
Rp55
(I3
S'|'
p56
NNNI4
I1
I0
tp57
bS'3432'
p58
tp59
Rp60
sg18
Nsaa(lp61
(dp62
S'all'
p63
(lp64
S'go to the lounge'
p65
asg15
(lp66
sg16
(lp67
S'go to the lounge'
p68
asg18
(lp69
sg3
(lp70
sg14
(lp71
sa(dp72
g63
(lp73
S'give dr sybil smalt the can'
p74
asg15
(lp75
S'deliver an empty peach can'
p76
aS'deliver an empty can'
p77
asg16
(lp78
sg18
(lp79
sg3
(lp80
sg14
(lp81
sa(dp82
g63
(lp83
S"take the medicine bottle from the office next to dr sybil smalt 's office to the pod next to walter ward 's office"
p84
asg15
(lp85
sg16
(lp86
S"go to the office next to dr sybil smalt 's office"
p87
asg18
(lp88
sg3
(lp89
sg14
(lp90
saa(lp91
(g4
(g5
(S'S6'
p92
I0
I1
tp93
Rp94
(I3
S'|'
p95
NNNI6
I1
I0
tp96
bS'coffee'
p97
tp98
Rp99
I5
I0
tp100
a(g99
I14
I0
tp101
a(g99
I8
I0
tp102
a(g99
I15
I0
tp103
a(g99
I1
I0
tp104
a(g99
I30
I0
tp105
a(g99
I29
I0
tp106
a(g99
I31
I0
tp107
a(g4
(g5
(S'S5'
p108
I0
I1
tp109
Rp110
(I3
S'|'
p111
NNNI5
I1
I0
tp112
bS'peach'
p113
tp114
Rp115
I5
I0
tp116
a(g115
I14
I0
tp117
a(g115
I8
I0
tp118
a(g115
I15
I0
tp119
a(g115
I1
I0
tp120
a(g115
I30
I0
tp121
a(g115
I29
I0
tp122
a(g115
I31
I0
tp123
a(g4
(g5
(S'S6'
p124
I0
I1
tp125
Rp126
(I3
S'|'
p127
NNNI6
I1
I0
tp128
bS'column'
p129
tp130
Rp131
I31
I0
tp132
a(g4
(g5
(S'S5'
p133
I0
I1
tp134
Rp135
(I3
S'|'
p136
NNNI5
I1
I0
tp137
bS'clear'
p138
tp139
Rp140
I5
I0
tp141
a(g140
I14
I0
tp142
a(g140
I8
I0
tp143
a(g140
I15
I0
tp144
a(g140
I1
I0
tp145
a(g140
I30
I0
tp146
a(g140
I29
I0
tp147
a(g140
I31
I0
tp148
a(g4
(g5
(S'S3'
p149
I0
I1
tp150
Rp151
(I3
S'|'
p152
NNNI3
I1
I0
tp153
bS'can'
p154
tp155
Rp156
I1
I1
tp157
a(g4
(g5
(S'S3'
p158
I0
I1
tp159
Rp160
(I3
S'|'
p161
NNNI3
I1
I0
tp162
bS'can'
p163
tp164
Rp165
I31
I0
tp166
a(g4
(g5
(S'S3'
p167
I0
I1
tp168
Rp169
(I3
S'|'
p170
NNNI3
I1
I0
tp171
bS'can'
p172
tp173
Rp174
I15
I1
tp175
a(g4
(g5
(S'S3'
p176
I0
I1
tp177
Rp178
(I3
S'|'
p179
NNNI3
I1
I0
tp180
bS'can'
p181
tp182
Rp183
I29
I0
tp184
a(g4
(g5
(S'S3'
p185
I0
I1
tp186
Rp187
(I3
S'|'
p188
NNNI3
I1
I0
tp189
bS'can'
p190
tp191
Rp192
I5
I1
tp193
a(g4
(g5
(S'S3'
p194
I0
I1
tp195
Rp196
(I3
S'|'
p197
NNNI3
I1
I0
tp198
bS'can'
p199
tp200
Rp201
I8
I1
tp202
a(g4
(g5
(S'S5'
p203
I0
I1
tp204
Rp205
(I3
S'|'
p206
NNNI5
I1
I0
tp207
bS'empty'
p208
tp209
Rp210
I8
I1
tp211
a(g4
(g5
(S'S8'
p212
I0
I1
tp213
Rp214
(I3
S'|'
p215
NNNI8
I1
I0
tp216
bS'cylinder'
p217
tp218
Rp219
I8
I1
tp220
a(g4
(g5
(S'S5'
p221
I0
I1
tp222
Rp223
(I3
S'|'
p224
NNNI5
I1
I0
tp225
bS'spice'
p226
tp227
Rp228
I5
I0
tp229
a(g228
I14
I0
tp230
a(g228
I8
I0
tp231
a(g228
I15
I0
tp232
a(g228
I1
I0
tp233
a(g228
I30
I0
tp234
a(g228
I29
I0
tp235
a(g228
I31
I0
tp236
a(g4
(g5
(S'S4'
p237
I0
I1
tp238
Rp239
(I3
S'|'
p240
NNNI4
I1
I0
tp241
bS'long'
p242
tp243
Rp244
I31
I0
tp245
a(g4
(g5
(S'S3'
p246
I0
I1
tp247
Rp248
(I3
S'|'
p249
NNNI3
I1
I0
tp250
bS'can'
p251
tp252
Rp253
I30
I0
tp254
aa(lp255
a.