(lp0
(lp1
(dp2
S'action'
p3
cnumpy.core.multiarray
scalar
p4
(cnumpy
dtype
p5
(S'S4'
p6
I0
I1
tp7
Rp8
(I3
S'|'
p9
NNNI4
I1
I0
tp10
bS'walk'
p11
tp12
Rp13
sS'recipient'
p14
NsS'patient'
p15
NsS'goal'
p16
S'3406'
p17
sS'source'
p18
Nsa(dp19
g3
g4
(g5
(S'S5'
p20
I0
I1
tp21
Rp22
(I3
S'|'
p23
NNNI5
I1
I0
tp24
bS'bring'
p25
tp26
Rp27
sg14
S'p'
p28
sg15
g4
(g5
(S'S7'
p29
I0
I1
tp30
Rp31
(I3
S'|'
p32
NNNI7
I1
I0
tp33
bS'oidx_11'
p34
tp35
Rp36
sg16
Nsg18
Nsaa(lp37
(dp38
S'all'
p39
(lp40
S'go to office r'
p41
asg15
(lp42
sg16
(lp43
S'go to r'
p44
asg18
(lp45
sg3
(lp46
sg14
(lp47
sa(dp48
g39
(lp49
S'give p the yellow can'
p50
asg15
(lp51
S'orange can'
p52
asg16
(lp53
sg18
(lp54
sg3
(lp55
sg14
(lp56
S'p'
p57
aS'p'
p58
aS'p'
p59
aS'p'
p60
aS'p'
p61
asaa(lp62
(g4
(g5
(S'S5'
p63
I0
I1
tp64
Rp65
(I3
S'|'
p66
NNNI5
I1
I0
tp67
bS'brown'
p68
tp69
Rp70
I30
I0
tp71
a(g4
(g5
(S'S5'
p72
I0
I1
tp73
Rp74
(I3
S'|'
p75
NNNI5
I1
I0
tp76
bS'empty'
p77
tp78
Rp79
I15
I1
tp80
a(g4
(g5
(S'S5'
p81
I0
I1
tp82
Rp83
(I3
S'|'
p84
NNNI5
I1
I0
tp85
bS'block'
p86
tp87
Rp88
I5
I1
tp89
a(g4
(g5
(S'S4'
p90
I0
I1
tp91
Rp92
(I3
S'|'
p93
NNNI4
I1
I0
tp94
bS'blue'
p95
tp96
Rp97
I29
I0
tp98
a(g4
(g5
(S'S5'
p99
I0
I1
tp100
Rp101
(I3
S'|'
p102
NNNI5
I1
I0
tp103
bS'white'
p104
tp105
Rp106
I14
I1
tp107
a(g4
(g5
(S'S3'
p108
I0
I1
tp109
Rp110
(I3
S'|'
p111
NNNI3
I1
I0
tp112
bS'can'
p113
tp114
Rp115
I29
I0
tp116
a(g4
(g5
(S'S3'
p117
I0
I1
tp118
Rp119
(I3
S'|'
p120
NNNI3
I1
I0
tp121
bS'can'
p122
tp123
Rp124
I1
I0
tp125
a(g4
(g5
(S'S3'
p126
I0
I1
tp127
Rp128
(I3
S'|'
p129
NNNI3
I1
I0
tp130
bS'can'
p131
tp132
Rp133
I5
I0
tp134
a(g4
(g5
(S'S3'
p135
I0
I1
tp136
Rp137
(I3
S'|'
p138
NNNI3
I1
I0
tp139
bS'can'
p140
tp141
Rp142
I8
I1
tp143
a(g4
(g5
(S'S6'
p144
I0
I1
tp145
Rp146
(I3
S'|'
p147
NNNI6
I1
I0
tp148
bS'yellow'
p149
tp150
Rp151
I5
I0
tp152
a(g151
I14
I0
tp153
a(g151
I8
I0
tp154
a(g151
I15
I0
tp155
a(g151
I1
I0
tp156
a(g151
I30
I0
tp157
a(g151
I29
I0
tp158
a(g151
I31
I0
tp159
aa(lp160
a.