(lp0
(lp1
(dp2
S'action'
p3
cnumpy.core.multiarray
scalar
p4
(cnumpy
dtype
p5
(S'S4'
p6
I0
I1
tp7
Rp8
(I3
S'|'
p9
NNNI4
I1
I0
tp10
bS'walk'
p11
tp12
Rp13
sS'recipient'
p14
NsS'patient'
p15
NsS'goal'
p16
S'3506'
p17
sS'source'
p18
Nsaa(lp19
(dp20
S'all'
p21
(lp22
S'go to printer'
p23
asg15
(lp24
sg16
(lp25
S'go to h'
p26
asg18
(lp27
sg3
(lp28
sg14
(lp29
saa(lp30
(g4
(g5
(S'S5'
p31
I0
I1
tp32
Rp33
(I3
S'|'
p34
NNNI5
I1
I0
tp35
bS'spice'
p36
tp37
Rp38
I5
I0
tp39
a(g38
I14
I0
tp40
a(g38
I8
I0
tp41
a(g38
I15
I0
tp42
a(g38
I1
I0
tp43
a(g38
I30
I0
tp44
a(g38
I29
I0
tp45
a(g38
I31
I0
tp46
a(g4
(g5
(S'S5'
p47
I0
I1
tp48
Rp49
(I3
S'|'
p50
NNNI5
I1
I0
tp51
bS'block'
p52
tp53
Rp54
I15
I1
tp55
a(g4
(g5
(S'S6'
p56
I0
I1
tp57
Rp58
(I3
S'|'
p59
NNNI6
I1
I0
tp60
bS'coffee'
p61
tp62
Rp63
I8
I1
tp64
a(g4
(g5
(S'S4'
p65
I0
I1
tp66
Rp67
(I3
S'|'
p68
NNNI4
I1
I0
tp69
bS'long'
p70
tp71
Rp72
I14
I0
tp73
a(g4
(g5
(S'S6'
p74
I0
I1
tp75
Rp76
(I3
S'|'
p77
NNNI6
I1
I0
tp78
bS'yellow'
p79
tp80
Rp81
I5
I1
tp82
aa(lp83
a.