(lp0
(lp1
(dp2
S'action'
p3
cnumpy.core.multiarray
scalar
p4
(cnumpy
dtype
p5
(S'S4'
p6
I0
I1
tp7
Rp8
(I3
S'|'
p9
NNNI4
I1
I0
tp10
bS'walk'
p11
tp12
Rp13
sS'recipient'
p14
NsS'patient'
p15
NsS'goal'
p16
S'3506'
p17
sS'source'
p18
Nsa(dp19
g3
g4
(g5
(S'S5'
p20
I0
I1
tp21
Rp22
(I3
S'|'
p23
NNNI5
I1
I0
tp24
bS'bring'
p25
tp26
Rp27
sg14
g4
(g5
(S'S1'
p28
I0
I1
tp29
Rp30
(I3
S'|'
p31
NNNI1
I1
I0
tp32
bS'p'
p33
tp34
Rp35
sg15
g4
(g5
(S'S7'
p36
I0
I1
tp37
Rp38
(I3
S'|'
p39
NNNI7
I1
I0
tp40
bS'oidx_28'
p41
tp42
Rp43
sg16
Nsg18
Nsaa(lp44
(dp45
S'all'
p46
(lp47
S"go to the printer located across from the peggy parker the intern's 's office"
p48
asg15
(lp49
sg16
(lp50
S"to the printer across from peggy 's office"
p51
aS'go to office p'
p52
aS"please go to the printer the printer is located across the hall from peggy parker 's office"
p53
aS'to the printer'
p54
asg18
(lp55
sg3
(lp56
sg14
(lp57
sa(dp58
g46
(lp59
S'please deliver the object'
p60
asg15
(lp61
S'the item located on the table'
p62
aS'the box on the table'
p63
aS'the box on the table'
p64
aS'the box on the table'
p65
aS'the styrofoam box'
p66
asg16
(lp67
sg18
(lp68
sg3
(lp69
sg14
(lp70
S'peggy parker'
p71
asaa(lp72
(g4
(g5
(S'S4'
p73
I0
I1
tp74
Rp75
(I3
S'|'
p76
NNNI4
I1
I0
tp77
bS'long'
p78
tp79
Rp80
I1
I0
tp81
a(g4
(g5
(S'S5'
p82
I0
I1
tp83
Rp84
(I3
S'|'
p85
NNNI5
I1
I0
tp86
bS'small'
p87
tp88
Rp89
I14
I0
tp90
a(g4
(g5
(S'S8'
p91
I0
I1
tp92
Rp93
(I3
S'|'
p94
NNNI8
I1
I0
tp95
bS'metallic'
p96
tp97
Rp98
I5
I0
tp99
a(g98
I14
I0
tp100
a(g98
I8
I0
tp101
a(g98
I15
I0
tp102
a(g98
I1
I0
tp103
a(g98
I30
I0
tp104
a(g98
I29
I0
tp105
a(g98
I31
I0
tp106
a(g4
(g5
(S'S6'
p107
I0
I1
tp108
Rp109
(I3
S'|'
p110
NNNI6
I1
I0
tp111
bS'yellow'
p112
tp113
Rp114
I5
I0
tp115
a(g114
I14
I0
tp116
a(g114
I8
I0
tp117
a(g114
I15
I0
tp118
a(g114
I1
I0
tp119
a(g114
I30
I0
tp120
a(g114
I29
I0
tp121
a(g114
I31
I0
tp122
a(g4
(g5
(S'S8'
p123
I0
I1
tp124
Rp125
(I3
S'|'
p126
NNNI8
I1
I0
tp127
bS'pringles'
p128
tp129
Rp130
I5
I0
tp131
a(g130
I14
I0
tp132
a(g130
I8
I0
tp133
a(g130
I15
I0
tp134
a(g130
I1
I0
tp135
a(g130
I30
I0
tp136
a(g130
I29
I0
tp137
a(g130
I31
I0
tp138
a(g4
(g5
(S'S9'
p139
I0
I1
tp140
Rp141
(I3
S'|'
p142
NNNI9
I1
I0
tp143
bS'container'
p144
tp145
Rp146
I8
I1
tp147
a(g4
(g5
(S'S9'
p148
I0
I1
tp149
Rp150
(I3
S'|'
p151
NNNI9
I1
I0
tp152
bS'container'
p153
tp154
Rp155
I31
I1
tp156
a(g4
(g5
(S'S9'
p157
I0
I1
tp158
Rp159
(I3
S'|'
p160
NNNI9
I1
I0
tp161
bS'container'
p162
tp163
Rp164
I29
I1
tp165
a(g4
(g5
(S'S9'
p166
I0
I1
tp167
Rp168
(I3
S'|'
p169
NNNI9
I1
I0
tp170
bS'container'
p171
tp172
Rp173
I5
I0
tp174
a(g173
I14
I0
tp175
a(g173
I8
I0
tp176
a(g173
I15
I0
tp177
a(g173
I1
I0
tp178
a(g173
I30
I0
tp179
a(g173
I29
I0
tp180
a(g173
I31
I0
tp181
a(g4
(g5
(S'S8'
p182
I0
I1
tp183
Rp184
(I3
S'|'
p185
NNNI8
I1
I0
tp186
bS'cylinder'
p187
tp188
Rp189
I5
I0
tp190
a(g189
I14
I0
tp191
a(g189
I8
I0
tp192
a(g189
I15
I0
tp193
a(g189
I1
I0
tp194
a(g189
I30
I0
tp195
a(g189
I29
I0
tp196
a(g189
I31
I0
tp197
aa(lp198
a.