(lp0
(lp1
(dp2
S'action'
p3
cnumpy.core.multiarray
scalar
p4
(cnumpy
dtype
p5
(S'S4'
p6
I0
I1
tp7
Rp8
(I3
S'|'
p9
NNNI4
I1
I0
tp10
bS'walk'
p11
tp12
Rp13
sS'recipient'
p14
NsS'patient'
p15
NsS'goal'
p16
S'3424'
p17
sS'source'
p18
Nsa(dp19
g3
g4
(g5
(S'S4'
p20
I0
I1
tp21
Rp22
(I3
S'|'
p23
NNNI4
I1
I0
tp24
bS'move'
p25
tp26
Rp27
sg14
Nsg15
S'oidx_6'
p28
sg16
S'3508'
p29
sg18
S'3502'
p30
sa(dp31
g3
g4
(g5
(S'S4'
p32
I0
I1
tp33
Rp34
(I3
S'|'
p35
NNNI4
I1
I0
tp36
bS'move'
p37
tp38
Rp39
sg14
Nsg15
S'oidx_13'
p40
sg16
S'3410'
p41
sg18
S'3504'
p42
saa(lp43
(dp44
S'all'
p45
(lp46
S'go to robert office'
p47
asg15
(lp48
sg16
(lp49
S'left'
p50
aS'straight'
p51
aS'north'
p52
aS'lab'
p53
asg18
(lp54
sg3
(lp55
sg14
(lp56
sa(dp57
g45
(lp58
S'open can'
p59
asg15
(lp60
S'to kitchen'
p61
aS'yes'
p62
aS'can'
p63
asg16
(lp64
sg18
(lp65
sg3
(lp66
sg14
(lp67
sa(dp68
g45
(lp69
S'to conference'
p70
asg15
(lp71
sg16
(lp72
S'yes'
p73
aS'to conference'
p74
asg18
(lp75
S'can'
p76
asg3
(lp77
sg14
(lp78
saa(lp79
(g4
(g5
(S'S3'
p80
I0
I1
tp81
Rp82
(I3
S'|'
p83
NNNI3
I1
I0
tp84
bS'can'
p85
tp86
Rp87
I29
I1
tp88
a(g4
(g5
(S'S5'
p89
I0
I1
tp90
Rp91
(I3
S'|'
p92
NNNI5
I1
I0
tp93
bS'brown'
p94
tp95
Rp96
I31
I0
tp97
a(g4
(g5
(S'S9'
p98
I0
I1
tp99
Rp100
(I3
S'|'
p101
NNNI9
I1
I0
tp102
bS'container'
p103
tp104
Rp105
I31
I1
tp106
a(g4
(g5
(S'S3'
p107
I0
I1
tp108
Rp109
(I3
S'|'
p110
NNNI3
I1
I0
tp111
bS'red'
p112
tp113
Rp114
I8
I0
tp115
a(g4
(g5
(S'S5'
p116
I0
I1
tp117
Rp118
(I3
S'|'
p119
NNNI5
I1
I0
tp120
bS'empty'
p121
tp122
Rp123
I5
I0
tp124
a(g123
I14
I0
tp125
a(g123
I8
I0
tp126
a(g123
I15
I0
tp127
a(g123
I1
I0
tp128
a(g123
I30
I0
tp129
a(g123
I29
I0
tp130
a(g123
I31
I0
tp131
a(g4
(g5
(S'S3'
p132
I0
I1
tp133
Rp134
(I3
S'|'
p135
NNNI3
I1
I0
tp136
bS'can'
p137
tp138
Rp139
I31
I1
tp140
a(g4
(g5
(S'S3'
p141
I0
I1
tp142
Rp143
(I3
S'|'
p144
NNNI3
I1
I0
tp145
bS'can'
p146
tp147
Rp148
I8
I1
tp149
a(g4
(g5
(S'S3'
p150
I0
I1
tp151
Rp152
(I3
S'|'
p153
NNNI3
I1
I0
tp154
bS'can'
p155
tp156
Rp157
I8
I1
tp158
a(g4
(g5
(S'S3'
p159
I0
I1
tp160
Rp161
(I3
S'|'
p162
NNNI3
I1
I0
tp163
bS'can'
p164
tp165
Rp166
I5
I1
tp167
a(g4
(g5
(S'S3'
p168
I0
I1
tp169
Rp170
(I3
S'|'
p171
NNNI3
I1
I0
tp172
bS'can'
p173
tp174
Rp175
I5
I0
tp176
a(g175
I14
I0
tp177
a(g175
I8
I0
tp178
a(g175
I15
I0
tp179
a(g175
I1
I0
tp180
a(g175
I30
I0
tp181
a(g175
I29
I0
tp182
a(g175
I31
I0
tp183
a(g4
(g5
(S'S3'
p184
I0
I1
tp185
Rp186
(I3
S'|'
p187
NNNI3
I1
I0
tp188
bS'red'
p189
tp190
Rp191
I29
I1
tp192
a(g4
(g5
(S'S8'
p193
I0
I1
tp194
Rp195
(I3
S'|'
p196
NNNI8
I1
I0
tp197
bS'cylinder'
p198
tp199
Rp200
I5
I1
tp201
a(g4
(g5
(S'S5'
p202
I0
I1
tp203
Rp204
(I3
S'|'
p205
NNNI5
I1
I0
tp206
bS'brown'
p207
tp208
Rp209
I5
I0
tp210
a(g209
I14
I0
tp211
a(g209
I8
I0
tp212
a(g209
I15
I0
tp213
a(g209
I1
I0
tp214
a(g209
I30
I0
tp215
a(g209
I29
I0
tp216
a(g209
I31
I0
tp217
a(g4
(g5
(S'S4'
p218
I0
I1
tp219
Rp220
(I3
S'|'
p221
NNNI4
I1
I0
tp222
bS'blue'
p223
tp224
Rp225
I14
I0
tp226
a(g4
(g5
(S'S4'
p227
I0
I1
tp228
Rp229
(I3
S'|'
p230
NNNI4
I1
I0
tp231
bS'blue'
p232
tp233
Rp234
I30
I0
tp235
aa(lp236
(S'open'
p237
S'empty'
p238
I01
tp239
aa.