(lp0
(lp1
(dp2
S'action'
p3
cnumpy.core.multiarray
scalar
p4
(cnumpy
dtype
p5
(S'S4'
p6
I0
I1
tp7
Rp8
(I3
S'|'
p9
NNNI4
I1
I0
tp10
bS'walk'
p11
tp12
Rp13
sS'recipient'
p14
NsS'patient'
p15
NsS'goal'
p16
S'3508'
p17
sS'source'
p18
Nsa(dp19
g3
g4
(g5
(S'S4'
p20
I0
I1
tp21
Rp22
(I3
S'|'
p23
NNNI4
I1
I0
tp24
bS'move'
p25
tp26
Rp27
sg14
Nsg15
S'oidx_25'
p28
sg16
g17
sg18
S'3418'
p29
sa(dp30
g3
g4
(g5
(S'S4'
p31
I0
I1
tp32
Rp33
(I3
S'|'
p34
NNNI4
I1
I0
tp35
bS'walk'
p36
tp37
Rp38
sg14
Nsg15
Nsg16
S'3502'
p39
sg18
Nsaa(lp40
(dp41
S'all'
p42
(lp43
S''
p44
asg15
(lp45
sg16
(lp46
S'david dave daniel'
p47
aS'yes'
p48
aS'david dave daniel'
p49
aS'person d'
p50
aS'office d'
p51
aS'office d'
p52
asg18
(lp53
sg3
(lp54
sg14
(lp55
sa(dp56
g42
(lp57
S'robert bob brown needs the can below'
p58
asg15
(lp59
S'office p'
p60
asg16
(lp61
S'to office d'
p62
asg18
(lp63
S'robert bob brown needs the can below'
p64
asg3
(lp65
sg14
(lp66
sa(dp67
g42
(lp68
S'pod'
p69
asg15
(lp70
sg16
(lp71
S'pod'
p72
aS'pod'
p73
aS'yes'
p74
aS'mallory mal maroon'
p75
asg18
(lp76
sg3
(lp77
sg14
(lp78
saa(lp79
(g4
(g5
(S'S6'
p80
I0
I1
tp81
Rp82
(I3
S'|'
p83
NNNI6
I1
I0
tp84
bS'coffee'
p85
tp86
Rp87
I5
I0
tp88
a(g87
I14
I0
tp89
a(g87
I8
I0
tp90
a(g87
I15
I0
tp91
a(g87
I1
I0
tp92
a(g87
I30
I0
tp93
a(g87
I29
I0
tp94
a(g87
I31
I0
tp95
a(g4
(g5
(S'S5'
p96
I0
I1
tp97
Rp98
(I3
S'|'
p99
NNNI5
I1
I0
tp100
bS'spice'
p101
tp102
Rp103
I14
I1
tp104
a(g4
(g5
(S'S9'
p105
I0
I1
tp106
Rp107
(I3
S'|'
p108
NNNI9
I1
I0
tp109
bS'styrofoam'
p110
tp111
Rp112
I30
I0
tp113
a(g4
(g5
(S'S8'
p114
I0
I1
tp115
Rp116
(I3
S'|'
p117
NNNI8
I1
I0
tp118
bS'metallic'
p119
tp120
Rp121
I8
I1
tp122
a(g4
(g5
(S'S6'
p123
I0
I1
tp124
Rp125
(I3
S'|'
p126
NNNI6
I1
I0
tp127
bS'column'
p128
tp129
Rp130
I14
I0
tp131
a(g4
(g5
(S'S4'
p132
I0
I1
tp133
Rp134
(I3
S'|'
p135
NNNI4
I1
I0
tp136
bS'long'
p137
tp138
Rp139
I14
I0
tp140
a(g4
(g5
(S'S4'
p141
I0
I1
tp142
Rp143
(I3
S'|'
p144
NNNI4
I1
I0
tp145
bS'long'
p146
tp147
Rp148
I1
I0
tp149
a(g4
(g5
(S'S4'
p150
I0
I1
tp151
Rp152
(I3
S'|'
p153
NNNI4
I1
I0
tp154
bS'long'
p155
tp156
Rp157
I31
I0
tp158
a(g4
(g5
(S'S5'
p159
I0
I1
tp160
Rp161
(I3
S'|'
p162
NNNI5
I1
I0
tp163
bS'peach'
p164
tp165
Rp166
I29
I1
tp167
a(g4
(g5
(S'S5'
p168
I0
I1
tp169
Rp170
(I3
S'|'
p171
NNNI5
I1
I0
tp172
bS'spice'
p173
tp174
Rp175
I30
I0
tp176
a(g4
(g5
(S'S6'
p177
I0
I1
tp178
Rp179
(I3
S'|'
p180
NNNI6
I1
I0
tp181
bS'yellow'
p182
tp183
Rp184
I5
I1
tp185
a(g4
(g5
(S'S9'
p186
I0
I1
tp187
Rp188
(I3
S'|'
p189
NNNI9
I1
I0
tp190
bS'container'
p191
tp192
Rp193
I31
I1
tp194
a(g4
(g5
(S'S4'
p195
I0
I1
tp196
Rp197
(I3
S'|'
p198
NNNI4
I1
I0
tp199
bS'blue'
p200
tp201
Rp202
I30
I0
tp203
a(g4
(g5
(S'S5'
p204
I0
I1
tp205
Rp206
(I3
S'|'
p207
NNNI5
I1
I0
tp208
bS'empty'
p209
tp210
Rp211
I8
I1
tp212
a(g4
(g5
(S'S9'
p213
I0
I1
tp214
Rp215
(I3
S'|'
p216
NNNI9
I1
I0
tp217
bS'container'
p218
tp219
Rp220
I29
I1
tp221
aa(lp222
a.