(lp0
(lp1
(dp2
S'action'
p3
cnumpy.core.multiarray
scalar
p4
(cnumpy
dtype
p5
(S'S4'
p6
I0
I1
tp7
Rp8
(I3
S'|'
p9
NNNI4
I1
I0
tp10
bS'walk'
p11
tp12
Rp13
sS'recipient'
p14
NsS'patient'
p15
NsS'goal'
p16
g4
(g5
(S'S4'
p17
I0
I1
tp18
Rp19
(I3
S'|'
p20
NNNI4
I1
I0
tp21
bS'3418'
p22
tp23
Rp24
sS'source'
p25
Nsa(dp26
g3
g4
(g5
(S'S5'
p27
I0
I1
tp28
Rp29
(I3
S'|'
p30
NNNI5
I1
I0
tp31
bS'bring'
p32
tp33
Rp34
sg14
g4
(g5
(S'S1'
p35
I0
I1
tp36
Rp37
(I3
S'|'
p38
NNNI1
I1
I0
tp39
bS'm'
p40
tp41
Rp42
sg15
S'oidx_22'
p43
sg16
Nsg25
Nsa(dp44
g3
g4
(g5
(S'S5'
p45
I0
I1
tp46
Rp47
(I3
S'|'
p48
NNNI5
I1
I0
tp49
bS'bring'
p50
tp51
Rp52
sg14
g4
(g5
(S'S1'
p53
I0
I1
tp54
Rp55
(I3
S'|'
p56
NNNI1
I1
I0
tp57
bS'b'
p58
tp59
Rp60
sg15
g4
(g5
(S'S7'
p61
I0
I1
tp62
Rp63
(I3
S'|'
p64
NNNI7
I1
I0
tp65
bS'oidx_26'
p66
tp67
Rp68
sg16
Nsg25
Nsaa(lp69
(dp70
S'all'
p71
(lp72
S'go to the office directly next to the conference room'
p73
asg15
(lp74
sg16
(lp75
S"to the office between a conference room and dave 's office"
p76
asg25
(lp77
sg3
(lp78
sg14
(lp79
sa(dp80
g71
(lp81
S'bring the plastic jar to mal'
p82
asg15
(lp83
S'a container'
p84
asg16
(lp85
sg25
(lp86
sg3
(lp87
sg14
(lp88
S'mal'
p89
aS'm'
p90
aS'mallory mal maroon'
p91
aS'mal'
p92
aS'mallory'
p93
asa(dp94
g71
(lp95
S'bring the can from the office of dr sybil smalt to the office of robert bob brown'
p96
asg15
(lp97
S'a can'
p98
aS'a can'
p99
aS'a soda can'
p100
asg16
(lp101
sg25
(lp102
sg3
(lp103
sg14
(lp104
S'bob'
p105
asaa(lp106
(g4
(g5
(S'S9'
p107
I0
I1
tp108
Rp109
(I3
S'|'
p110
NNNI9
I1
I0
tp111
bS'styrofoam'
p112
tp113
Rp114
I30
I0
tp115
a(g4
(g5
(S'S8'
p116
I0
I1
tp117
Rp118
(I3
S'|'
p119
NNNI8
I1
I0
tp120
bS'pringles'
p121
tp122
Rp123
I5
I0
tp124
a(g123
I14
I0
tp125
a(g123
I8
I0
tp126
a(g123
I15
I0
tp127
a(g123
I1
I0
tp128
a(g123
I30
I0
tp129
a(g123
I29
I0
tp130
a(g123
I31
I0
tp131
a(g4
(g5
(S'S3'
p132
I0
I1
tp133
Rp134
(I3
S'|'
p135
NNNI3
I1
I0
tp136
bS'can'
p137
tp138
Rp139
I5
I1
tp140
a(g4
(g5
(S'S9'
p141
I0
I1
tp142
Rp143
(I3
S'|'
p144
NNNI9
I1
I0
tp145
bS'rectangle'
p146
tp147
Rp148
I5
I0
tp149
a(g148
I14
I0
tp150
a(g148
I8
I0
tp151
a(g148
I15
I0
tp152
a(g148
I1
I0
tp153
a(g148
I30
I0
tp154
a(g148
I29
I0
tp155
a(g148
I31
I0
tp156
a(g4
(g5
(S'S5'
p157
I0
I1
tp158
Rp159
(I3
S'|'
p160
NNNI5
I1
I0
tp161
bS'small'
p162
tp163
Rp164
I5
I1
tp165
a(g164
I14
I1
tp166
a(g164
I8
I1
tp167
a(g164
I15
I1
tp168
a(g164
I1
I1
tp169
a(g164
I30
I1
tp170
a(g164
I29
I1
tp171
a(g164
I31
I1
tp172
a(g4
(g5
(S'S9'
p173
I0
I1
tp174
Rp175
(I3
S'|'
p176
NNNI9
I1
I0
tp177
bS'container'
p178
tp179
Rp180
I14
I1
tp181
a(g4
(g5
(S'S9'
p182
I0
I1
tp183
Rp184
(I3
S'|'
p185
NNNI9
I1
I0
tp186
bS'container'
p187
tp188
Rp189
I30
I1
tp190
a(g4
(g5
(S'S9'
p191
I0
I1
tp192
Rp193
(I3
S'|'
p194
NNNI9
I1
I0
tp195
bS'container'
p196
tp197
Rp198
I31
I1
tp199
a(g4
(g5
(S'S9'
p200
I0
I1
tp201
Rp202
(I3
S'|'
p203
NNNI9
I1
I0
tp204
bS'container'
p205
tp206
Rp207
I8
I1
tp208
a(g4
(g5
(S'S9'
p209
I0
I1
tp210
Rp211
(I3
S'|'
p212
NNNI9
I1
I0
tp213
bS'container'
p214
tp215
Rp216
I15
I1
tp217
a(g4
(g5
(S'S3'
p218
I0
I1
tp219
Rp220
(I3
S'|'
p221
NNNI3
I1
I0
tp222
bS'can'
p223
tp224
Rp225
I14
I0
tp226
a(g4
(g5
(S'S3'
p227
I0
I1
tp228
Rp229
(I3
S'|'
p230
NNNI3
I1
I0
tp231
bS'can'
p232
tp233
Rp234
I15
I1
tp235
a(g4
(g5
(S'S3'
p236
I0
I1
tp237
Rp238
(I3
S'|'
p239
NNNI3
I1
I0
tp240
bS'can'
p241
tp242
Rp243
I8
I1
tp244
a(g4
(g5
(S'S3'
p245
I0
I1
tp246
Rp247
(I3
S'|'
p248
NNNI3
I1
I0
tp249
bS'can'
p250
tp251
Rp252
I8
I1
tp253
a(g4
(g5
(S'S3'
p254
I0
I1
tp255
Rp256
(I3
S'|'
p257
NNNI3
I1
I0
tp258
bS'can'
p259
tp260
Rp261
I5
I1
tp262
aa(lp263
(S'jar'
p264
S'peaches'
p265
I00
tp266
a(g264
S'container'
p267
I01
tp268
a(S'soda'
p269
S'coffee'
p270
I00
tp271
a(g269
g4
(g5
(S'S3'
p272
I0
I1
tp273
Rp274
(I3
S'|'
p275
NNNI3
I1
I0
tp276
bS'red'
p277
tp278
Rp279
I00
tp280
a(g269
S'medicine'
p281
I00
tp282
aa.