(lp0
(lp1
(dp2
S'action'
p3
cnumpy.core.multiarray
scalar
p4
(cnumpy
dtype
p5
(S'S4'
p6
I0
I1
tp7
Rp8
(I3
S'|'
p9
NNNI4
I1
I0
tp10
bS'walk'
p11
tp12
Rp13
sS'recipient'
p14
NsS'patient'
p15
NsS'goal'
p16
g4
(g5
(S'S4'
p17
I0
I1
tp18
Rp19
(I3
S'|'
p20
NNNI4
I1
I0
tp21
bS'3508'
p22
tp23
Rp24
sS'source'
p25
Nsa(dp26
g3
g4
(g5
(S'S5'
p27
I0
I1
tp28
Rp29
(I3
S'|'
p30
NNNI5
I1
I0
tp31
bS'bring'
p32
tp33
Rp34
sg14
g4
(g5
(S'S1'
p35
I0
I1
tp36
Rp37
(I3
S'|'
p38
NNNI1
I1
I0
tp39
bS'w'
p40
tp41
Rp42
sg15
g4
(g5
(S'S7'
p43
I0
I1
tp44
Rp45
(I3
S'|'
p46
NNNI7
I1
I0
tp47
bS'oidx_26'
p48
tp49
Rp50
sg16
Nsg25
Nsaa(lp51
(dp52
S'all'
p53
(lp54
S"please go to peggy 's office and tell her i need a new coffee"
p55
asg15
(lp56
sg16
(lp57
S"peggy parker 's office"
p58
asg25
(lp59
sg3
(lp60
sg14
(lp61
sa(dp62
g53
(lp63
S'could you bring walter a drink'
p64
asg15
(lp65
S'drink'
p66
aS'a can of soda'
p67
aS'can'
p68
asg16
(lp69
sg25
(lp70
sg3
(lp71
sg14
(lp72
S'walter'
p73
asaa(lp74
(g4
(g5
(S'S5'
p75
I0
I1
tp76
Rp77
(I3
S'|'
p78
NNNI5
I1
I0
tp79
bS'white'
p80
tp81
Rp82
I5
I0
tp83
a(g82
I14
I0
tp84
a(g82
I8
I0
tp85
a(g82
I15
I0
tp86
a(g82
I1
I0
tp87
a(g82
I30
I0
tp88
a(g82
I29
I0
tp89
a(g82
I31
I0
tp90
a(g4
(g5
(S'S5'
p91
I0
I1
tp92
Rp93
(I3
S'|'
p94
NNNI5
I1
I0
tp95
bS'clear'
p96
tp97
Rp98
I5
I0
tp99
a(g98
I14
I0
tp100
a(g98
I8
I0
tp101
a(g98
I15
I0
tp102
a(g98
I1
I0
tp103
a(g98
I30
I0
tp104
a(g98
I29
I0
tp105
a(g98
I31
I0
tp106
a(g4
(g5
(S'S6'
p107
I0
I1
tp108
Rp109
(I3
S'|'
p110
NNNI6
I1
I0
tp111
bS'yellow'
p112
tp113
Rp114
I5
I0
tp115
a(g114
I14
I0
tp116
a(g114
I8
I0
tp117
a(g114
I15
I0
tp118
a(g114
I1
I0
tp119
a(g114
I30
I0
tp120
a(g114
I29
I0
tp121
a(g114
I31
I0
tp122
a(g4
(g5
(S'S9'
p123
I0
I1
tp124
Rp125
(I3
S'|'
p126
NNNI9
I1
I0
tp127
bS'styrofoam'
p128
tp129
Rp130
I30
I0
tp131
a(g4
(g5
(S'S4'
p132
I0
I1
tp133
Rp134
(I3
S'|'
p135
NNNI4
I1
I0
tp136
bS'blue'
p137
tp138
Rp139
I30
I0
tp140
a(g4
(g5
(S'S8'
p141
I0
I1
tp142
Rp143
(I3
S'|'
p144
NNNI8
I1
I0
tp145
bS'cylinder'
p146
tp147
Rp148
I5
I1
tp149
a(g4
(g5
(S'S9'
p150
I0
I1
tp151
Rp152
(I3
S'|'
p153
NNNI9
I1
I0
tp154
bS'container'
p155
tp156
Rp157
I29
I1
tp158
a(g4
(g5
(S'S9'
p159
I0
I1
tp160
Rp161
(I3
S'|'
p162
NNNI9
I1
I0
tp163
bS'styrofoam'
p164
tp165
Rp166
I31
I0
tp167
a(g4
(g5
(S'S8'
p168
I0
I1
tp169
Rp170
(I3
S'|'
p171
NNNI8
I1
I0
tp172
bS'metallic'
p173
tp174
Rp175
I5
I0
tp176
a(g175
I14
I0
tp177
a(g175
I8
I0
tp178
a(g175
I15
I0
tp179
a(g175
I1
I0
tp180
a(g175
I30
I0
tp181
a(g175
I29
I0
tp182
a(g175
I31
I0
tp183
a(g4
(g5
(S'S6'
p184
I0
I1
tp185
Rp186
(I3
S'|'
p187
NNNI6
I1
I0
tp188
bS'column'
p189
tp190
Rp191
I14
I0
tp192
aa(lp193
a.