(lp0
(lp1
(dp2
S'action'
p3
cnumpy.core.multiarray
scalar
p4
(cnumpy
dtype
p5
(S'S4'
p6
I0
I1
tp7
Rp8
(I3
S'|'
p9
NNNI4
I1
I0
tp10
bS'walk'
p11
tp12
Rp13
sS'recipient'
p14
NsS'patient'
p15
NsS'goal'
p16
S'3414b'
p17
sS'source'
p18
Nsa(dp19
g3
g4
(g5
(S'S5'
p20
I0
I1
tp21
Rp22
(I3
S'|'
p23
NNNI5
I1
I0
tp24
bS'bring'
p25
tp26
Rp27
sg14
S'w'
p28
sg15
g4
(g5
(S'S7'
p29
I0
I1
tp30
Rp31
(I3
S'|'
p32
NNNI7
I1
I0
tp33
bS'oidx_25'
p34
tp35
Rp36
sg16
Nsg18
Nsaa(lp37
(dp38
S'all'
p39
(lp40
S"go to the lab across from dr sybil smalt 's office"
p41
asg15
(lp42
sg16
(lp43
S"go to the lab across from dr sybil smalt 's office"
p44
aS'the lab'
p45
aS'go to the lab'
p46
asg18
(lp47
sg3
(lp48
sg14
(lp49
sa(dp50
g39
(lp51
S'take the bottle to richard rogue secretary'
p52
asg15
(lp53
S'the bottle'
p54
aS'the bottle'
p55
aS'the small bottle with a gray top'
p56
aS'nothing'
p57
asg16
(lp58
sg18
(lp59
sg3
(lp60
sg14
(lp61
saa(lp62
(g4
(g5
(S'S8'
p63
I0
I1
tp64
Rp65
(I3
S'|'
p66
NNNI8
I1
I0
tp67
bS'pringles'
p68
tp69
Rp70
I5
I0
tp71
a(g70
I14
I0
tp72
a(g70
I8
I0
tp73
a(g70
I15
I0
tp74
a(g70
I1
I0
tp75
a(g70
I30
I0
tp76
a(g70
I29
I0
tp77
a(g70
I31
I0
tp78
a(g4
(g5
(S'S5'
p79
I0
I1
tp80
Rp81
(I3
S'|'
p82
NNNI5
I1
I0
tp83
bS'spice'
p84
tp85
Rp86
I5
I0
tp87
a(g86
I14
I0
tp88
a(g86
I8
I0
tp89
a(g86
I15
I0
tp90
a(g86
I1
I0
tp91
a(g86
I30
I0
tp92
a(g86
I29
I0
tp93
a(g86
I31
I0
tp94
a(g4
(g5
(S'S9'
p95
I0
I1
tp96
Rp97
(I3
S'|'
p98
NNNI9
I1
I0
tp99
bS'rectangle'
p100
tp101
Rp102
I5
I0
tp103
a(g102
I14
I0
tp104
a(g102
I8
I0
tp105
a(g102
I15
I0
tp106
a(g102
I1
I0
tp107
a(g102
I30
I0
tp108
a(g102
I29
I0
tp109
a(g102
I31
I0
tp110
a(g4
(g5
(S'S5'
p111
I0
I1
tp112
Rp113
(I3
S'|'
p114
NNNI5
I1
I0
tp115
bS'small'
p116
tp117
Rp118
I5
I1
tp119
a(g118
I14
I1
tp120
a(g118
I8
I1
tp121
a(g118
I15
I1
tp122
a(g118
I1
I1
tp123
a(g118
I30
I1
tp124
a(g118
I29
I1
tp125
a(g118
I31
I1
tp126
a(g4
(g5
(S'S6'
p127
I0
I1
tp128
Rp129
(I3
S'|'
p130
NNNI6
I1
I0
tp131
bS'coffee'
p132
tp133
Rp134
I5
I0
tp135
a(g134
I14
I0
tp136
a(g134
I8
I0
tp137
a(g134
I15
I0
tp138
a(g134
I1
I0
tp139
a(g134
I30
I0
tp140
a(g134
I29
I0
tp141
a(g134
I31
I0
tp142
a(g4
(g5
(S'S9'
p143
I0
I1
tp144
Rp145
(I3
S'|'
p146
NNNI9
I1
I0
tp147
bS'container'
p148
tp149
Rp150
I29
I1
tp151
a(g4
(g5
(S'S9'
p152
I0
I1
tp153
Rp154
(I3
S'|'
p155
NNNI9
I1
I0
tp156
bS'container'
p157
tp158
Rp159
I31
I1
tp160
a(g4
(g5
(S'S9'
p161
I0
I1
tp162
Rp163
(I3
S'|'
p164
NNNI9
I1
I0
tp165
bS'container'
p166
tp167
Rp168
I14
I1
tp169
a(g4
(g5
(S'S9'
p170
I0
I1
tp171
Rp172
(I3
S'|'
p173
NNNI9
I1
I0
tp174
bS'container'
p175
tp176
Rp177
I8
I1
tp178
a(g4
(g5
(S'S9'
p179
I0
I1
tp180
Rp181
(I3
S'|'
p182
NNNI9
I1
I0
tp183
bS'container'
p184
tp185
Rp186
I5
I0
tp187
aa(lp188
(S'gray'
p189
S'is'
p190
I00
tp191
a(g189
S'white'
p192
I00
tp193
a(g189
S'blue'
p194
I00
tp195
aa.