(lp0
(lp1
(dp2
S'action'
p3
cnumpy.core.multiarray
scalar
p4
(cnumpy
dtype
p5
(S'S4'
p6
I0
I1
tp7
Rp8
(I3
S'|'
p9
NNNI4
I1
I0
tp10
bS'walk'
p11
tp12
Rp13
sS'recipient'
p14
NsS'patient'
p15
NsS'goal'
p16
S'3420'
p17
sS'source'
p18
Nsa(dp19
g3
g4
(g5
(S'S4'
p20
I0
I1
tp21
Rp22
(I3
S'|'
p23
NNNI4
I1
I0
tp24
bS'move'
p25
tp26
Rp27
sg14
Nsg15
g4
(g5
(S'S7'
p28
I0
I1
tp29
Rp30
(I3
S'|'
p31
NNNI7
I1
I0
tp32
bS'oidx_26'
p33
tp34
Rp35
sg16
S'3508'
p36
sg18
g4
(g5
(S'S4'
p37
I0
I1
tp38
Rp39
(I3
S'|'
p40
NNNI4
I1
I0
tp41
bS'3402'
p42
tp43
Rp44
sa(dp45
g3
g4
(g5
(S'S5'
p46
I0
I1
tp47
Rp48
(I3
S'|'
p49
NNNI5
I1
I0
tp50
bS'bring'
p51
tp52
Rp53
sg14
S'p'
p54
sg15
g4
(g5
(S'S7'
p55
I0
I1
tp56
Rp57
(I3
S'|'
p58
NNNI7
I1
I0
tp59
bS'oidx_11'
p60
tp61
Rp62
sg16
Nsg18
Nsaa(lp63
(dp64
S'all'
p65
(lp66
S"get dave and bringim to peggy 's offic"
p67
asg15
(lp68
sg16
(lp69
S'daves office'
p70
aS"to dave 's office"
p71
asg18
(lp72
sg3
(lp73
sg14
(lp74
sa(dp75
g65
(lp76
S'please take the coffe to dr heidi hughes office'
p77
asg15
(lp78
S'the coffee'
p79
aS'coffee'
p80
asg16
(lp81
sg18
(lp82
sg3
(lp83
sg14
(lp84
sa(dp85
g65
(lp86
S'take the empty can from walter wards office to the conference room'
p87
asg15
(lp88
S'find an empty can'
p89
aS'find an empty can'
p90
asg16
(lp91
sg18
(lp92
sg3
(lp93
sg14
(lp94
S'deliver to conference'
p95
aS'conference'
p96
aS'conference'
p97
aS'deliver to conference'
p98
aS'to the conference room'
p99
aS'conference'
p100
aS'conference'
p101
aS'deliver the can to conference'
p102
aS'take the empty can from walter wards office to conference'
p103
asaa(lp104
(g4
(g5
(S'S6'
p105
I0
I1
tp106
Rp107
(I3
S'|'
p108
NNNI6
I1
I0
tp109
bS'coffee'
p110
tp111
Rp112
I14
I1
tp113
a(g4
(g5
(S'S6'
p114
I0
I1
tp115
Rp116
(I3
S'|'
p117
NNNI6
I1
I0
tp118
bS'coffee'
p119
tp120
Rp121
I15
I0
tp122
a(g4
(g5
(S'S4'
p123
I0
I1
tp124
Rp125
(I3
S'|'
p126
NNNI4
I1
I0
tp127
bS'bean'
p128
tp129
Rp130
I8
I1
tp131
a(g4
(g5
(S'S9'
p132
I0
I1
tp133
Rp134
(I3
S'|'
p135
NNNI9
I1
I0
tp136
bS'container'
p137
tp138
Rp139
I31
I1
tp140
a(g4
(g5
(S'S4'
p141
I0
I1
tp142
Rp143
(I3
S'|'
p144
NNNI4
I1
I0
tp145
bS'long'
p146
tp147
Rp148
I31
I0
tp149
a(g4
(g5
(S'S5'
p150
I0
I1
tp151
Rp152
(I3
S'|'
p153
NNNI5
I1
I0
tp154
bS'empty'
p155
tp156
Rp157
I8
I1
tp158
a(g4
(g5
(S'S5'
p159
I0
I1
tp160
Rp161
(I3
S'|'
p162
NNNI5
I1
I0
tp163
bS'tower'
p164
tp165
Rp166
I5
I0
tp167
a(g166
I14
I0
tp168
a(g166
I8
I0
tp169
a(g166
I15
I0
tp170
a(g166
I1
I0
tp171
a(g166
I30
I0
tp172
a(g166
I29
I0
tp173
a(g166
I31
I0
tp174
a(g4
(g5
(S'S8'
p175
I0
I1
tp176
Rp177
(I3
S'|'
p178
NNNI8
I1
I0
tp179
bS'cylinder'
p180
tp181
Rp182
I8
I1
tp183
a(g4
(g5
(S'S3'
p184
I0
I1
tp185
Rp186
(I3
S'|'
p187
NNNI3
I1
I0
tp188
bS'can'
p189
tp190
Rp191
I31
I0
tp192
a(g4
(g5
(S'S5'
p193
I0
I1
tp194
Rp195
(I3
S'|'
p196
NNNI5
I1
I0
tp197
bS'white'
p198
tp199
Rp200
I5
I0
tp201
a(g200
I14
I0
tp202
a(g200
I8
I0
tp203
a(g200
I15
I0
tp204
a(g200
I1
I0
tp205
a(g200
I30
I0
tp206
a(g200
I29
I0
tp207
a(g200
I31
I0
tp208
a(g4
(g5
(S'S5'
p209
I0
I1
tp210
Rp211
(I3
S'|'
p212
NNNI5
I1
I0
tp213
bS'clear'
p214
tp215
Rp216
I5
I0
tp217
a(g216
I14
I0
tp218
a(g216
I8
I0
tp219
a(g216
I15
I0
tp220
a(g216
I1
I0
tp221
a(g216
I30
I0
tp222
a(g216
I29
I0
tp223
a(g216
I31
I0
tp224
a(g4
(g5
(S'S5'
p225
I0
I1
tp226
Rp227
(I3
S'|'
p228
NNNI5
I1
I0
tp229
bS'peach'
p230
tp231
Rp232
I5
I0
tp233
a(g232
I14
I0
tp234
a(g232
I8
I0
tp235
a(g232
I15
I0
tp236
a(g232
I1
I0
tp237
a(g232
I30
I0
tp238
a(g232
I29
I0
tp239
a(g232
I31
I0
tp240
a(g4
(g5
(S'S9'
p241
I0
I1
tp242
Rp243
(I3
S'|'
p244
NNNI9
I1
I0
tp245
bS'rectangle'
p246
tp247
Rp248
I5
I0
tp249
a(g248
I14
I0
tp250
a(g248
I8
I0
tp251
a(g248
I15
I0
tp252
a(g248
I1
I0
tp253
a(g248
I30
I0
tp254
a(g248
I29
I0
tp255
a(g248
I31
I0
tp256
a(g4
(g5
(S'S5'
p257
I0
I1
tp258
Rp259
(I3
S'|'
p260
NNNI5
I1
I0
tp261
bS'block'
p262
tp263
Rp264
I5
I0
tp265
a(g264
I14
I0
tp266
a(g264
I8
I0
tp267
a(g264
I15
I0
tp268
a(g264
I1
I0
tp269
a(g264
I30
I0
tp270
a(g264
I29
I0
tp271
a(g264
I31
I0
tp272
a(g4
(g5
(S'S6'
p273
I0
I1
tp274
Rp275
(I3
S'|'
p276
NNNI6
I1
I0
tp277
bS'coffee'
p278
tp279
Rp280
I31
I0
tp281
aa(lp282
a.