(lp0
(lp1
(dp2
S'action'
p3
cnumpy.core.multiarray
scalar
p4
(cnumpy
dtype
p5
(S'S4'
p6
I0
I1
tp7
Rp8
(I3
S'|'
p9
NNNI4
I1
I0
tp10
bS'walk'
p11
tp12
Rp13
sS'recipient'
p14
NsS'patient'
p15
NsS'goal'
p16
g4
(g5
(S'S4'
p17
I0
I1
tp18
Rp19
(I3
S'|'
p20
NNNI4
I1
I0
tp21
bS'3420'
p22
tp23
Rp24
sS'source'
p25
Nsa(dp26
g3
g4
(g5
(S'S5'
p27
I0
I1
tp28
Rp29
(I3
S'|'
p30
NNNI5
I1
I0
tp31
bS'bring'
p32
tp33
Rp34
sg14
g4
(g5
(S'S1'
p35
I0
I1
tp36
Rp37
(I3
S'|'
p38
NNNI1
I1
I0
tp39
bS'd'
p40
tp41
Rp42
sg15
g4
(g5
(S'S7'
p43
I0
I1
tp44
Rp45
(I3
S'|'
p46
NNNI7
I1
I0
tp47
bS'oidx_11'
p48
tp49
Rp50
sg16
Nsg25
Nsa(dp51
g3
g4
(g5
(S'S4'
p52
I0
I1
tp53
Rp54
(I3
S'|'
p55
NNNI4
I1
I0
tp56
bS'move'
p57
tp58
Rp59
sg14
Nsg15
S'oidx_11'
p60
sg16
g4
(g5
(S'S4'
p61
I0
I1
tp62
Rp63
(I3
S'|'
p64
NNNI4
I1
I0
tp65
bS'3504'
p66
tp67
Rp68
sg25
S'3432'
p69
saa(lp70
(dp71
S'all'
p72
(lp73
S"go to the office that is between the conference room and david daniel 's office"
p74
asg15
(lp75
sg16
(lp76
S"go to the office that is between the conference room and david daniel 's office"
p77
aS"go to the office to the left of david daniel 's office"
p78
aS"go to david daniel 's office"
p79
asg25
(lp80
sg3
(lp81
sg14
(lp82
sa(dp83
g72
(lp84
S'pick up the can and take it to the office that belongs to david dave daniel the office is labeled d on the map'
p85
asg15
(lp86
S'find the can'
p87
aS'the other can'
p88
aS'find a can with a yellow label'
p89
asg16
(lp90
sg25
(lp91
sg3
(lp92
sg14
(lp93
S'david dave daniel'
p94
aS''
p95
aS'dave daniel'
p96
aS'david dave daniel'
p97
asa(dp98
g72
(lp99
S'deliver the can from the lab that is to the right of the building and take it to the office to the right of mallory mal maroonnnnn'
p100
asg15
(lp101
S'move the can'
p102
asg16
(lp103
S'no'
p104
aS'no'
p105
aS'no'
p106
aS'to the pod'
p107
aS'pod'
p108
aS'to pod'
p109
asg25
(lp110
S'yes'
p111
asg3
(lp112
sg14
(lp113
saa(lp114
(g4
(g5
(S'S4'
p115
I0
I1
tp116
Rp117
(I3
S'|'
p118
NNNI4
I1
I0
tp119
bS'long'
p120
tp121
Rp122
I31
I0
tp123
a(g4
(g5
(S'S5'
p124
I0
I1
tp125
Rp126
(I3
S'|'
p127
NNNI5
I1
I0
tp128
bS'small'
p129
tp130
Rp131
I5
I0
tp132
a(g4
(g5
(S'S8'
p133
I0
I1
tp134
Rp135
(I3
S'|'
p136
NNNI8
I1
I0
tp137
bS'metallic'
p138
tp139
Rp140
I8
I1
tp141
a(g4
(g5
(S'S6'
p142
I0
I1
tp143
Rp144
(I3
S'|'
p145
NNNI6
I1
I0
tp146
bS'column'
p147
tp148
Rp149
I14
I0
tp150
a(g4
(g5
(S'S3'
p151
I0
I1
tp152
Rp153
(I3
S'|'
p154
NNNI3
I1
I0
tp155
bS'can'
p156
tp157
Rp158
I30
I1
tp159
a(g4
(g5
(S'S3'
p160
I0
I1
tp161
Rp162
(I3
S'|'
p163
NNNI3
I1
I0
tp164
bS'can'
p165
tp166
Rp167
I5
I0
tp168
a(g167
I14
I0
tp169
a(g167
I8
I0
tp170
a(g167
I15
I0
tp171
a(g167
I1
I0
tp172
a(g167
I30
I0
tp173
a(g167
I29
I0
tp174
a(g167
I31
I0
tp175
a(g4
(g5
(S'S3'
p176
I0
I1
tp177
Rp178
(I3
S'|'
p179
NNNI3
I1
I0
tp180
bS'red'
p181
tp182
Rp183
I8
I0
tp184
a(g4
(g5
(S'S4'
p185
I0
I1
tp186
Rp187
(I3
S'|'
p188
NNNI4
I1
I0
tp189
bS'long'
p190
tp191
Rp192
I1
I0
tp193
a(g4
(g5
(S'S4'
p194
I0
I1
tp195
Rp196
(I3
S'|'
p197
NNNI4
I1
I0
tp198
bS'long'
p199
tp200
Rp201
I8
I0
tp202
a(g4
(g5
(S'S3'
p203
I0
I1
tp204
Rp205
(I3
S'|'
p206
NNNI3
I1
I0
tp207
bS'red'
p208
tp209
Rp210
I30
I1
tp211
a(g4
(g5
(S'S5'
p212
I0
I1
tp213
Rp214
(I3
S'|'
p215
NNNI5
I1
I0
tp216
bS'block'
p217
tp218
Rp219
I5
I0
tp220
a(g219
I14
I0
tp221
a(g219
I8
I0
tp222
a(g219
I15
I0
tp223
a(g219
I1
I0
tp224
a(g219
I30
I0
tp225
a(g219
I29
I0
tp226
a(g219
I31
I0
tp227
a(g4
(g5
(S'S8'
p228
I0
I1
tp229
Rp230
(I3
S'|'
p231
NNNI8
I1
I0
tp232
bS'cylinder'
p233
tp234
Rp235
I1
I1
tp236
a(g4
(g5
(S'S9'
p237
I0
I1
tp238
Rp239
(I3
S'|'
p240
NNNI9
I1
I0
tp241
bS'container'
p242
tp243
Rp244
I1
I1
tp245
a(g4
(g5
(S'S8'
p246
I0
I1
tp247
Rp248
(I3
S'|'
p249
NNNI8
I1
I0
tp250
bS'cylinder'
p251
tp252
Rp253
I1
I1
tp254
a(g4
(g5
(S'S8'
p255
I0
I1
tp256
Rp257
(I3
S'|'
p258
NNNI8
I1
I0
tp259
bS'metallic'
p260
tp261
Rp262
I31
I1
tp263
aa(lp264
(S'label'
p265
S'container'
p266
I00
tp267
a(g265
S'd'
p268
I00
tp269
aa.