(lp0
(lp1
(dp2
S'action'
p3
cnumpy.core.multiarray
scalar
p4
(cnumpy
dtype
p5
(S'S4'
p6
I0
I1
tp7
Rp8
(I3
S'|'
p9
NNNI4
I1
I0
tp10
bS'walk'
p11
tp12
Rp13
sS'recipient'
p14
NsS'patient'
p15
NsS'goal'
p16
S'3420'
p17
sS'source'
p18
Nsa(dp19
g3
g4
(g5
(S'S4'
p20
I0
I1
tp21
Rp22
(I3
S'|'
p23
NNNI4
I1
I0
tp24
bS'move'
p25
tp26
Rp27
sg14
Nsg15
S'oidx_25'
p28
sg16
g4
(g5
(S'S4'
p29
I0
I1
tp30
Rp31
(I3
S'|'
p32
NNNI4
I1
I0
tp33
bS'3402'
p34
tp35
Rp36
sg18
g4
(g5
(S'S4'
p37
I0
I1
tp38
Rp39
(I3
S'|'
p40
NNNI4
I1
I0
tp41
bS'3402'
p42
tp43
Rp44
sa(dp45
g3
g4
(g5
(S'S4'
p46
I0
I1
tp47
Rp48
(I3
S'|'
p49
NNNI4
I1
I0
tp50
bS'move'
p51
tp52
Rp53
sg14
Nsg15
g4
(g5
(S'S7'
p54
I0
I1
tp55
Rp56
(I3
S'|'
p57
NNNI7
I1
I0
tp58
bS'oidx_28'
p59
tp60
Rp61
sg16
g4
(g5
(S'S4'
p62
I0
I1
tp63
Rp64
(I3
S'|'
p65
NNNI4
I1
I0
tp66
bS'3502'
p67
tp68
Rp69
sg18
g4
(g5
(S'S4'
p70
I0
I1
tp71
Rp72
(I3
S'|'
p73
NNNI4
I1
I0
tp74
bS'3508'
p75
tp76
Rp77
saa(lp78
(dp79
S'all'
p80
(lp81
S'you need to go to office d'
p82
asg15
(lp83
sg16
(lp84
S'go to david dave daniel office'
p85
aS'david daniel office'
p86
asg18
(lp87
sg3
(lp88
sg14
(lp89
sa(dp90
g80
(lp91
S'go to dr heidi hughes'
p92
asg15
(lp93
sg16
(lp94
S'dr heidi hughes office'
p95
asg18
(lp96
S'dr heidi hughes'
p97
aS'move to dr heidi hughes office'
p98
asg3
(lp99
sg14
(lp100
sa(dp101
g80
(lp102
S'move item to another office'
p103
asg15
(lp104
S'metallic'
p105
aS''
p106
aS'metallic'
p107
asg16
(lp108
S'mallory mal maroon office'
p109
asg18
(lp110
S'peggy parker intern office'
p111
asg3
(lp112
sg14
(lp113
saa(lp114
(g4
(g5
(S'S3'
p115
I0
I1
tp116
Rp117
(I3
S'|'
p118
NNNI3
I1
I0
tp119
bS'red'
p120
tp121
Rp122
I8
I0
tp123
a(g4
(g5
(S'S3'
p124
I0
I1
tp125
Rp126
(I3
S'|'
p127
NNNI3
I1
I0
tp128
bS'can'
p129
tp130
Rp131
I31
I0
tp132
a(g4
(g5
(S'S4'
p133
I0
I1
tp134
Rp135
(I3
S'|'
p136
NNNI4
I1
I0
tp137
bS'blue'
p138
tp139
Rp140
I30
I0
tp141
a(g4
(g5
(S'S8'
p142
I0
I1
tp143
Rp144
(I3
S'|'
p145
NNNI8
I1
I0
tp146
bS'pringles'
p147
tp148
Rp149
I5
I0
tp150
a(g149
I14
I0
tp151
a(g149
I8
I0
tp152
a(g149
I15
I0
tp153
a(g149
I1
I0
tp154
a(g149
I30
I0
tp155
a(g149
I29
I0
tp156
a(g149
I31
I0
tp157
a(g4
(g5
(S'S4'
p158
I0
I1
tp159
Rp160
(I3
S'|'
p161
NNNI4
I1
I0
tp162
bS'blue'
p163
tp164
Rp165
I15
I1
tp166
a(g4
(g5
(S'S4'
p167
I0
I1
tp168
Rp169
(I3
S'|'
p170
NNNI4
I1
I0
tp171
bS'bean'
p172
tp173
Rp174
I5
I0
tp175
a(g174
I14
I0
tp176
a(g174
I8
I0
tp177
a(g174
I15
I0
tp178
a(g174
I1
I0
tp179
a(g174
I30
I0
tp180
a(g174
I29
I0
tp181
a(g174
I31
I0
tp182
a(g4
(g5
(S'S5'
p183
I0
I1
tp184
Rp185
(I3
S'|'
p186
NNNI5
I1
I0
tp187
bS'white'
p188
tp189
Rp190
I29
I1
tp191
a(g4
(g5
(S'S4'
p192
I0
I1
tp193
Rp194
(I3
S'|'
p195
NNNI4
I1
I0
tp196
bS'blue'
p197
tp198
Rp199
I1
I1
tp200
a(g4
(g5
(S'S9'
p201
I0
I1
tp202
Rp203
(I3
S'|'
p204
NNNI9
I1
I0
tp205
bS'styrofoam'
p206
tp207
Rp208
I31
I1
tp209
a(g4
(g5
(S'S8'
p210
I0
I1
tp211
Rp212
(I3
S'|'
p213
NNNI8
I1
I0
tp214
bS'cylinder'
p215
tp216
Rp217
I8
I1
tp218
a(g4
(g5
(S'S8'
p219
I0
I1
tp220
Rp221
(I3
S'|'
p222
NNNI8
I1
I0
tp223
bS'metallic'
p224
tp225
Rp226
I1
I1
tp227
a(g4
(g5
(S'S8'
p228
I0
I1
tp229
Rp230
(I3
S'|'
p231
NNNI8
I1
I0
tp232
bS'cylinder'
p233
tp234
Rp235
I1
I1
tp236
a(g4
(g5
(S'S8'
p237
I0
I1
tp238
Rp239
(I3
S'|'
p240
NNNI8
I1
I0
tp241
bS'metallic'
p242
tp243
Rp244
I15
I1
tp245
a(g4
(g5
(S'S8'
p246
I0
I1
tp247
Rp248
(I3
S'|'
p249
NNNI8
I1
I0
tp250
bS'metallic'
p251
tp252
Rp253
I5
I0
tp254
a(g4
(g5
(S'S8'
p255
I0
I1
tp256
Rp257
(I3
S'|'
p258
NNNI8
I1
I0
tp259
bS'metallic'
p260
tp261
Rp262
I29
I0
tp263
aa(lp264
a.