(lp0
(lp1
(dp2
S'action'
p3
cnumpy.core.multiarray
scalar
p4
(cnumpy
dtype
p5
(S'S4'
p6
I0
I1
tp7
Rp8
(I3
S'|'
p9
NNNI4
I1
I0
tp10
bS'walk'
p11
tp12
Rp13
sS'recipient'
p14
NsS'patient'
p15
NsS'goal'
p16
g4
(g5
(S'S4'
p17
I0
I1
tp18
Rp19
(I3
S'|'
p20
NNNI4
I1
I0
tp21
bS'3402'
p22
tp23
Rp24
sS'source'
p25
Nsaa(lp26
(dp27
S'all'
p28
(lp29
S'go to h office'
p30
asg15
(lp31
sg16
(lp32
S'go to h heidi hughes office'
p33
asg25
(lp34
sg3
(lp35
sg14
(lp36
saa(lp37
(g4
(g5
(S'S4'
p38
I0
I1
tp39
Rp40
(I3
S'|'
p41
NNNI4
I1
I0
tp42
bS'long'
p43
tp44
Rp45
I14
I0
tp46
a(g4
(g5
(S'S9'
p47
I0
I1
tp48
Rp49
(I3
S'|'
p50
NNNI9
I1
I0
tp51
bS'rectangle'
p52
tp53
Rp54
I5
I0
tp55
a(g54
I14
I0
tp56
a(g54
I8
I0
tp57
a(g54
I15
I0
tp58
a(g54
I1
I0
tp59
a(g54
I30
I0
tp60
a(g54
I29
I0
tp61
a(g54
I31
I0
tp62
a(g4
(g5
(S'S6'
p63
I0
I1
tp64
Rp65
(I3
S'|'
p66
NNNI6
I1
I0
tp67
bS'column'
p68
tp69
Rp70
I31
I0
tp71
a(g4
(g5
(S'S5'
p72
I0
I1
tp73
Rp74
(I3
S'|'
p75
NNNI5
I1
I0
tp76
bS'brown'
p77
tp78
Rp79
I5
I0
tp80
a(g4
(g5
(S'S8'
p81
I0
I1
tp82
Rp83
(I3
S'|'
p84
NNNI8
I1
I0
tp85
bS'cylinder'
p86
tp87
Rp88
I15
I1
tp89
aa(lp90
a.