(lp0
(lp1
(dp2
S'action'
p3
cnumpy.core.multiarray
scalar
p4
(cnumpy
dtype
p5
(S'S4'
p6
I0
I1
tp7
Rp8
(I3
S'|'
p9
NNNI4
I1
I0
tp10
bS'walk'
p11
tp12
Rp13
sS'recipient'
p14
NsS'patient'
p15
NsS'goal'
p16
S'3424'
p17
sS'source'
p18
Nsaa(lp19
(dp20
S'all'
p21
(lp22
S'navigate to lounge'
p23
asg15
(lp24
sg16
(lp25
S'lounge'
p26
aS'other lounge'
p27
aS'go shoot your self'
p28
aS'b'
p29
aS'go b'
p30
asg18
(lp31
sg3
(lp32
sg14
(lp33
saa(lp34
(g4
(g5
(S'S9'
p35
I0
I1
tp36
Rp37
(I3
S'|'
p38
NNNI9
I1
I0
tp39
bS'styrofoam'
p40
tp41
Rp42
I31
I0
tp43
a(g4
(g5
(S'S5'
p44
I0
I1
tp45
Rp46
(I3
S'|'
p47
NNNI5
I1
I0
tp48
bS'block'
p49
tp50
Rp51
I5
I0
tp52
a(g51
I14
I0
tp53
a(g51
I8
I0
tp54
a(g51
I15
I0
tp55
a(g51
I1
I0
tp56
a(g51
I30
I0
tp57
a(g51
I29
I0
tp58
a(g51
I31
I0
tp59
a(g4
(g5
(S'S6'
p60
I0
I1
tp61
Rp62
(I3
S'|'
p63
NNNI6
I1
I0
tp64
bS'coffee'
p65
tp66
Rp67
I30
I1
tp68
a(g4
(g5
(S'S9'
p69
I0
I1
tp70
Rp71
(I3
S'|'
p72
NNNI9
I1
I0
tp73
bS'container'
p74
tp75
Rp76
I31
I1
tp77
a(g4
(g5
(S'S6'
p78
I0
I1
tp79
Rp80
(I3
S'|'
p81
NNNI6
I1
I0
tp82
bS'coffee'
p83
tp84
Rp85
I1
I0
tp86
aa(lp87
a.