(lp0
(lp1
(dp2
S'action'
p3
cnumpy.core.multiarray
scalar
p4
(cnumpy
dtype
p5
(S'S4'
p6
I0
I1
tp7
Rp8
(I3
S'|'
p9
NNNI4
I1
I0
tp10
bS'walk'
p11
tp12
Rp13
sS'recipient'
p14
NsS'patient'
p15
NsS'goal'
p16
g4
(g5
(S'S4'
p17
I0
I1
tp18
Rp19
(I3
S'|'
p20
NNNI4
I1
I0
tp21
bS'3518'
p22
tp23
Rp24
sS'source'
p25
Nsa(dp26
g3
g4
(g5
(S'S5'
p27
I0
I1
tp28
Rp29
(I3
S'|'
p30
NNNI5
I1
I0
tp31
bS'bring'
p32
tp33
Rp34
sg14
g4
(g5
(S'S1'
p35
I0
I1
tp36
Rp37
(I3
S'|'
p38
NNNI1
I1
I0
tp39
bS'b'
p40
tp41
Rp42
sg15
g4
(g5
(S'S7'
p43
I0
I1
tp44
Rp45
(I3
S'|'
p46
NNNI7
I1
I0
tp47
bS'oidx_12'
p48
tp49
Rp50
sg16
Nsg25
Nsa(dp51
g3
g4
(g5
(S'S4'
p52
I0
I1
tp53
Rp54
(I3
S'|'
p55
NNNI4
I1
I0
tp56
bS'walk'
p57
tp58
Rp59
sg14
Nsg15
Nsg16
S'3414'
p60
sg25
Nsaa(lp61
(dp62
S'all'
p63
(lp64
S'go to the pod'
p65
asg15
(lp66
sg16
(lp67
S'go to pod'
p68
aS'go to the pod'
p69
asg25
(lp70
sg3
(lp71
sg14
(lp72
sa(dp73
g63
(lp74
S'bring the red can to robert brown'
p75
asg15
(lp76
S'deliver the red can to robert brown'
p77
aS'deliver the red can'
p78
asg16
(lp79
sg25
(lp80
sg3
(lp81
sg14
(lp82
S'deliver to robert brown'
p83
asa(dp84
g63
(lp85
S'go to lab and get bottle'
p86
asg15
(lp87
sg16
(lp88
S'go to the small lab'
p89
aS'go to the small lab'
p90
aS'go to the lab'
p91
aS'go to the lab by walter ward'
p92
aS'go to the lab by walter ward'
p93
asg25
(lp94
sg3
(lp95
sg14
(lp96
saa(lp97
(g4
(g5
(S'S6'
p98
I0
I1
tp99
Rp100
(I3
S'|'
p101
NNNI6
I1
I0
tp102
bS'yellow'
p103
tp104
Rp105
I5
I1
tp106
a(g4
(g5
(S'S4'
p107
I0
I1
tp108
Rp109
(I3
S'|'
p110
NNNI4
I1
I0
tp111
bS'long'
p112
tp113
Rp114
I8
I0
tp115
a(g4
(g5
(S'S5'
p116
I0
I1
tp117
Rp118
(I3
S'|'
p119
NNNI5
I1
I0
tp120
bS'block'
p121
tp122
Rp123
I5
I0
tp124
a(g123
I14
I0
tp125
a(g123
I8
I0
tp126
a(g123
I15
I0
tp127
a(g123
I1
I0
tp128
a(g123
I30
I0
tp129
a(g123
I29
I0
tp130
a(g123
I31
I0
tp131
a(g4
(g5
(S'S6'
p132
I0
I1
tp133
Rp134
(I3
S'|'
p135
NNNI6
I1
I0
tp136
bS'yellow'
p137
tp138
Rp139
I15
I0
tp140
a(g4
(g5
(S'S5'
p141
I0
I1
tp142
Rp143
(I3
S'|'
p144
NNNI5
I1
I0
tp145
bS'clear'
p146
tp147
Rp148
I5
I0
tp149
a(g148
I14
I0
tp150
a(g148
I8
I0
tp151
a(g148
I15
I0
tp152
a(g148
I1
I0
tp153
a(g148
I30
I0
tp154
a(g148
I29
I0
tp155
a(g148
I31
I0
tp156
a(g4
(g5
(S'S3'
p157
I0
I1
tp158
Rp159
(I3
S'|'
p160
NNNI3
I1
I0
tp161
bS'red'
p162
tp163
Rp164
I31
I0
tp165
a(g4
(g5
(S'S3'
p166
I0
I1
tp167
Rp168
(I3
S'|'
p169
NNNI3
I1
I0
tp170
bS'can'
p171
tp172
Rp173
I30
I1
tp174
a(g4
(g5
(S'S3'
p175
I0
I1
tp176
Rp177
(I3
S'|'
p178
NNNI3
I1
I0
tp179
bS'can'
p180
tp181
Rp182
I29
I1
tp183
a(g4
(g5
(S'S3'
p184
I0
I1
tp185
Rp186
(I3
S'|'
p187
NNNI3
I1
I0
tp188
bS'red'
p189
tp190
Rp191
I30
I1
tp192
a(g4
(g5
(S'S3'
p193
I0
I1
tp194
Rp195
(I3
S'|'
p196
NNNI3
I1
I0
tp197
bS'red'
p198
tp199
Rp200
I5
I0
tp201
a(g4
(g5
(S'S6'
p202
I0
I1
tp203
Rp204
(I3
S'|'
p205
NNNI6
I1
I0
tp206
bS'column'
p207
tp208
Rp209
I30
I1
tp210
a(g4
(g5
(S'S5'
p211
I0
I1
tp212
Rp213
(I3
S'|'
p214
NNNI5
I1
I0
tp215
bS'brown'
p216
tp217
Rp218
I30
I0
tp219
a(g4
(g5
(S'S6'
p220
I0
I1
tp221
Rp222
(I3
S'|'
p223
NNNI6
I1
I0
tp224
bS'yellow'
p225
tp226
Rp227
I1
I0
tp228
a(g4
(g5
(S'S4'
p229
I0
I1
tp230
Rp231
(I3
S'|'
p232
NNNI4
I1
I0
tp233
bS'long'
p234
tp235
Rp236
I31
I0
tp237
a(g4
(g5
(S'S5'
p238
I0
I1
tp239
Rp240
(I3
S'|'
p241
NNNI5
I1
I0
tp242
bS'brown'
p243
tp244
Rp245
I31
I1
tp246
aa(lp247
a.