(lp0
(lp1
(dp2
S'action'
p3
cnumpy.core.multiarray
scalar
p4
(cnumpy
dtype
p5
(S'S4'
p6
I0
I1
tp7
Rp8
(I3
S'|'
p9
NNNI4
I1
I0
tp10
bS'walk'
p11
tp12
Rp13
sS'recipient'
p14
NsS'patient'
p15
NsS'goal'
p16
g4
(g5
(S'S4'
p17
I0
I1
tp18
Rp19
(I3
S'|'
p20
NNNI4
I1
I0
tp21
bS'3506'
p22
tp23
Rp24
sS'source'
p25
Nsa(dp26
g3
g4
(g5
(S'S5'
p27
I0
I1
tp28
Rp29
(I3
S'|'
p30
NNNI5
I1
I0
tp31
bS'bring'
p32
tp33
Rp34
sg14
g4
(g5
(S'S1'
p35
I0
I1
tp36
Rp37
(I3
S'|'
p38
NNNI1
I1
I0
tp39
bS'b'
p40
tp41
Rp42
sg15
g4
(g5
(S'S7'
p43
I0
I1
tp44
Rp45
(I3
S'|'
p46
NNNI7
I1
I0
tp47
bS'oidx_13'
p48
tp49
Rp50
sg16
Nsg25
Nsaa(lp51
(dp52
S'all'
p53
(lp54
S'go to the printer'
p55
asg15
(lp56
sg16
(lp57
sg25
(lp58
sg3
(lp59
sg14
(lp60
sa(dp61
g53
(lp62
S'bring the pringles can to bob'
p63
asg15
(lp64
S'the pringles can'
p65
aS'the can of chips'
p66
aS'the blue cylinder'
p67
asg16
(lp68
sg25
(lp69
sg3
(lp70
sg14
(lp71
S'bob'
p72
asaa(lp73
(g4
(g5
(S'S4'
p74
I0
I1
tp75
Rp76
(I3
S'|'
p77
NNNI4
I1
I0
tp78
bS'long'
p79
tp80
Rp81
I14
I0
tp82
a(g4
(g5
(S'S3'
p83
I0
I1
tp84
Rp85
(I3
S'|'
p86
NNNI3
I1
I0
tp87
bS'can'
p88
tp89
Rp90
I5
I1
tp91
a(g4
(g5
(S'S8'
p92
I0
I1
tp93
Rp94
(I3
S'|'
p95
NNNI8
I1
I0
tp96
bS'metallic'
p97
tp98
Rp99
I8
I1
tp100
a(g4
(g5
(S'S9'
p101
I0
I1
tp102
Rp103
(I3
S'|'
p104
NNNI9
I1
I0
tp105
bS'container'
p106
tp107
Rp108
I29
I1
tp109
a(g4
(g5
(S'S8'
p110
I0
I1
tp111
Rp112
(I3
S'|'
p113
NNNI8
I1
I0
tp114
bS'pringles'
p115
tp116
Rp117
I5
I0
tp118
a(g117
I14
I0
tp119
a(g117
I8
I0
tp120
a(g117
I15
I0
tp121
a(g117
I1
I0
tp122
a(g117
I30
I0
tp123
a(g117
I29
I0
tp124
a(g117
I31
I0
tp125
a(g4
(g5
(S'S3'
p126
I0
I1
tp127
Rp128
(I3
S'|'
p129
NNNI3
I1
I0
tp130
bS'can'
p131
tp132
Rp133
I29
I0
tp134
a(g4
(g5
(S'S3'
p135
I0
I1
tp136
Rp137
(I3
S'|'
p138
NNNI3
I1
I0
tp139
bS'can'
p140
tp141
Rp142
I15
I1
tp143
a(g4
(g5
(S'S3'
p144
I0
I1
tp145
Rp146
(I3
S'|'
p147
NNNI3
I1
I0
tp148
bS'can'
p149
tp150
Rp151
I1
I1
tp152
a(g4
(g5
(S'S3'
p153
I0
I1
tp154
Rp155
(I3
S'|'
p156
NNNI3
I1
I0
tp157
bS'can'
p158
tp159
Rp160
I8
I1
tp161
a(g4
(g5
(S'S3'
p162
I0
I1
tp163
Rp164
(I3
S'|'
p165
NNNI3
I1
I0
tp166
bS'can'
p167
tp168
Rp169
I14
I0
tp170
aa(lp171
a.