(lp0
(lp1
(dp2
S'action'
p3
cnumpy.core.multiarray
scalar
p4
(cnumpy
dtype
p5
(S'S4'
p6
I0
I1
tp7
Rp8
(I3
S'|'
p9
NNNI4
I1
I0
tp10
bS'move'
p11
tp12
Rp13
sS'recipient'
p14
NsS'patient'
p15
S'oidx_26'
p16
sS'goal'
p17
S'3414b'
p18
sS'source'
p19
S'3510'
p20
sa(dp21
g3
g4
(g5
(S'S4'
p22
I0
I1
tp23
Rp24
(I3
S'|'
p25
NNNI4
I1
I0
tp26
bS'walk'
p27
tp28
Rp29
sg14
Nsg15
Nsg17
S'3514'
p30
sg19
Nsaa(lp31
(dp32
S'all'
p33
(lp34
S'dave'
p35
asg15
(lp36
S'lab'
p37
aS'it will ok'
p38
asg17
(lp39
S'office'
p40
asg19
(lp41
S'lab'
p42
asg3
(lp43
sg14
(lp44
sa(dp45
g33
(lp46
S'mal'
p47
asg15
(lp48
sg17
(lp49
S'dr nancy nagel'
p50
aS'lab'
p51
aS'richard rogue'
p52
aS'nancy'
p53
aS'shop'
p54
aS'lab'
p55
aS'yes'
p56
asg19
(lp57
sg3
(lp58
sg14
(lp59
saa(lp60
(g4
(g5
(S'S5'
p61
I0
I1
tp62
Rp63
(I3
S'|'
p64
NNNI5
I1
I0
tp65
bS'spice'
p66
tp67
Rp68
I30
I1
tp69
a(g4
(g5
(S'S3'
p70
I0
I1
tp71
Rp72
(I3
S'|'
p73
NNNI3
I1
I0
tp74
bS'can'
p75
tp76
Rp77
I1
I1
tp78
a(g4
(g5
(S'S5'
p79
I0
I1
tp80
Rp81
(I3
S'|'
p82
NNNI5
I1
I0
tp83
bS'block'
p84
tp85
Rp86
I8
I1
tp87
a(g4
(g5
(S'S8'
p88
I0
I1
tp89
Rp90
(I3
S'|'
p91
NNNI8
I1
I0
tp92
bS'cylinder'
p93
tp94
Rp95
I29
I1
tp96
a(g4
(g5
(S'S9'
p97
I0
I1
tp98
Rp99
(I3
S'|'
p100
NNNI9
I1
I0
tp101
bS'container'
p102
tp103
Rp104
I31
I1
tp105
a(g4
(g5
(S'S4'
p106
I0
I1
tp107
Rp108
(I3
S'|'
p109
NNNI4
I1
I0
tp110
bS'long'
p111
tp112
Rp113
I31
I1
tp114
a(g4
(g5
(S'S8'
p115
I0
I1
tp116
Rp117
(I3
S'|'
p118
NNNI8
I1
I0
tp119
bS'pringles'
p120
tp121
Rp122
I5
I1
tp123
a(g4
(g5
(S'S3'
p124
I0
I1
tp125
Rp126
(I3
S'|'
p127
NNNI3
I1
I0
tp128
bS'can'
p129
tp130
Rp131
I15
I1
tp132
a(g4
(g5
(S'S3'
p133
I0
I1
tp134
Rp135
(I3
S'|'
p136
NNNI3
I1
I0
tp137
bS'can'
p138
tp139
Rp140
I14
I1
tp141
a(g4
(g5
(S'S5'
p142
I0
I1
tp143
Rp144
(I3
S'|'
p145
NNNI5
I1
I0
tp146
bS'block'
p147
tp148
Rp149
I31
I0
tp150
aa(lp151
(S'rogue'
p152
S'your'
p153
I01
tp154
aa.