(lp0
(lp1
(dp2
S'action'
p3
cnumpy.core.multiarray
scalar
p4
(cnumpy
dtype
p5
(S'S4'
p6
I0
I1
tp7
Rp8
(I3
S'|'
p9
NNNI4
I1
I0
tp10
bS'walk'
p11
tp12
Rp13
sS'recipient'
p14
NsS'patient'
p15
NsS'goal'
p16
S'3432'
p17
sS'source'
p18
Nsa(dp19
g3
g4
(g5
(S'S4'
p20
I0
I1
tp21
Rp22
(I3
S'|'
p23
NNNI4
I1
I0
tp24
bS'walk'
p25
tp26
Rp27
sg14
Nsg15
Nsg16
S'3516'
p28
sg18
Nsaa(lp29
(dp30
S'all'
p31
(lp32
S'go to h office'
p33
asg15
(lp34
sg16
(lp35
S's office'
p36
asg18
(lp37
sg3
(lp38
sg14
(lp39
sa(dp40
g31
(lp41
S'take can to person h'
p42
asg15
(lp43
sg16
(lp44
S'h office'
p45
asg18
(lp46
sg3
(lp47
sg14
(lp48
saa(lp49
(g4
(g5
(S'S9'
p50
I0
I1
tp51
Rp52
(I3
S'|'
p53
NNNI9
I1
I0
tp54
bS'container'
p55
tp56
Rp57
I8
I1
tp58
a(g4
(g5
(S'S3'
p59
I0
I1
tp60
Rp61
(I3
S'|'
p62
NNNI3
I1
I0
tp63
bS'can'
p64
tp65
Rp66
I14
I0
tp67
a(g4
(g5
(S'S3'
p68
I0
I1
tp69
Rp70
(I3
S'|'
p71
NNNI3
I1
I0
tp72
bS'can'
p73
tp74
Rp75
I15
I0
tp76
a(g4
(g5
(S'S6'
p77
I0
I1
tp78
Rp79
(I3
S'|'
p80
NNNI6
I1
I0
tp81
bS'yellow'
p82
tp83
Rp84
I5
I0
tp85
a(g84
I14
I0
tp86
a(g84
I8
I0
tp87
a(g84
I15
I0
tp88
a(g84
I1
I0
tp89
a(g84
I30
I0
tp90
a(g84
I29
I0
tp91
a(g84
I31
I0
tp92
a(g4
(g5
(S'S8'
p93
I0
I1
tp94
Rp95
(I3
S'|'
p96
NNNI8
I1
I0
tp97
bS'cylinder'
p98
tp99
Rp100
I5
I1
tp101
a(g4
(g5
(S'S5'
p102
I0
I1
tp103
Rp104
(I3
S'|'
p105
NNNI5
I1
I0
tp106
bS'tower'
p107
tp108
Rp109
I5
I0
tp110
a(g109
I14
I0
tp111
a(g109
I8
I0
tp112
a(g109
I15
I0
tp113
a(g109
I1
I0
tp114
a(g109
I30
I0
tp115
a(g109
I29
I0
tp116
a(g109
I31
I0
tp117
a(g4
(g5
(S'S9'
p118
I0
I1
tp119
Rp120
(I3
S'|'
p121
NNNI9
I1
I0
tp122
bS'container'
p123
tp124
Rp125
I8
I1
tp126
a(g4
(g5
(S'S4'
p127
I0
I1
tp128
Rp129
(I3
S'|'
p130
NNNI4
I1
I0
tp131
bS'long'
p132
tp133
Rp134
I8
I0
tp135
a(g4
(g5
(S'S5'
p136
I0
I1
tp137
Rp138
(I3
S'|'
p139
NNNI5
I1
I0
tp140
bS'brown'
p141
tp142
Rp143
I14
I0
tp144
a(g4
(g5
(S'S5'
p145
I0
I1
tp146
Rp147
(I3
S'|'
p148
NNNI5
I1
I0
tp149
bS'white'
p150
tp151
Rp152
I5
I0
tp153
a(g152
I14
I0
tp154
a(g152
I8
I0
tp155
a(g152
I15
I0
tp156
a(g152
I1
I0
tp157
a(g152
I30
I0
tp158
a(g152
I29
I0
tp159
a(g152
I31
I0
tp160
aa(lp161
(S'person'
p162
S'can'
p163
I00
tp164
aa.