(lp0
(lp1
(dp2
S'action'
p3
cnumpy.core.multiarray
scalar
p4
(cnumpy
dtype
p5
(S'S4'
p6
I0
I1
tp7
Rp8
(I3
S'|'
p9
NNNI4
I1
I0
tp10
bS'walk'
p11
tp12
Rp13
sS'recipient'
p14
NsS'patient'
p15
NsS'goal'
p16
g4
(g5
(S'S5'
p17
I0
I1
tp18
Rp19
(I3
S'|'
p20
NNNI5
I1
I0
tp21
bS'3414b'
p22
tp23
Rp24
sS'source'
p25
Nsa(dp26
g3
g4
(g5
(S'S4'
p27
I0
I1
tp28
Rp29
(I3
S'|'
p30
NNNI4
I1
I0
tp31
bS'walk'
p32
tp33
Rp34
sg14
Nsg15
Nsg16
g4
(g5
(S'S4'
p35
I0
I1
tp36
Rp37
(I3
S'|'
p38
NNNI4
I1
I0
tp39
bS'3508'
p40
tp41
Rp42
sg25
Nsa(dp43
g3
g4
(g5
(S'S4'
p44
I0
I1
tp45
Rp46
(I3
S'|'
p47
NNNI4
I1
I0
tp48
bS'walk'
p49
tp50
Rp51
sg14
Nsg15
Nsg16
g4
(g5
(S'S4'
p52
I0
I1
tp53
Rp54
(I3
S'|'
p55
NNNI4
I1
I0
tp56
bS'3510'
p57
tp58
Rp59
sg25
Nsaa(lp60
(dp61
S'all'
p62
(lp63
S'go to the lab in front of dr sybil smalts office count and how many people are in the room'
p64
asg15
(lp65
sg16
(lp66
S'the lab adjacent to dr sybil smalts office'
p67
asg25
(lp68
sg3
(lp69
sg14
(lp70
sa(dp71
g62
(lp72
S'take the can of blue pringles to peggy parker'
p73
asg15
(lp74
sg16
(lp75
S'to find peggy parker'
p76
aS'deliver the pringles to peggy parker intern'
p77
aS'find peggy parker intern'
p78
aS"peggy parker 's office"
p79
aS'peggy parker office'
p80
asg25
(lp81
sg3
(lp82
sg14
(lp83
sa(dp84
g62
(lp85
S"go to the lab to pick up a cylindrical object with a red top and mostly white base then take the object to robert brown 's office and leave it there"
p86
asg15
(lp87
sg16
(lp88
S"go to bob 's office"
p89
asg25
(lp90
sg3
(lp91
sg14
(lp92
saa(lp93
(g4
(g5
(S'S4'
p94
I0
I1
tp95
Rp96
(I3
S'|'
p97
NNNI4
I1
I0
tp98
bS'long'
p99
tp100
Rp101
I14
I0
tp102
a(g4
(g5
(S'S5'
p103
I0
I1
tp104
Rp105
(I3
S'|'
p106
NNNI5
I1
I0
tp107
bS'small'
p108
tp109
Rp110
I14
I0
tp111
a(g4
(g5
(S'S3'
p112
I0
I1
tp113
Rp114
(I3
S'|'
p115
NNNI3
I1
I0
tp116
bS'red'
p117
tp118
Rp119
I31
I0
tp120
a(g4
(g5
(S'S6'
p121
I0
I1
tp122
Rp123
(I3
S'|'
p124
NNNI6
I1
I0
tp125
bS'column'
p126
tp127
Rp128
I30
I0
tp129
a(g4
(g5
(S'S3'
p130
I0
I1
tp131
Rp132
(I3
S'|'
p133
NNNI3
I1
I0
tp134
bS'can'
p135
tp136
Rp137
I14
I0
tp138
a(g4
(g5
(S'S8'
p139
I0
I1
tp140
Rp141
(I3
S'|'
p142
NNNI8
I1
I0
tp143
bS'cylinder'
p144
tp145
Rp146
I5
I1
tp147
a(g4
(g5
(S'S3'
p148
I0
I1
tp149
Rp150
(I3
S'|'
p151
NNNI3
I1
I0
tp152
bS'can'
p153
tp154
Rp155
I15
I1
tp156
a(g4
(g5
(S'S5'
p157
I0
I1
tp158
Rp159
(I3
S'|'
p160
NNNI5
I1
I0
tp161
bS'clear'
p162
tp163
Rp164
I5
I0
tp165
a(g164
I14
I0
tp166
a(g164
I8
I0
tp167
a(g164
I15
I0
tp168
a(g164
I1
I0
tp169
a(g164
I30
I0
tp170
a(g164
I29
I0
tp171
a(g164
I31
I0
tp172
a(g4
(g5
(S'S8'
p173
I0
I1
tp174
Rp175
(I3
S'|'
p176
NNNI8
I1
I0
tp177
bS'cylinder'
p178
tp179
Rp180
I8
I1
tp181
a(g4
(g5
(S'S5'
p182
I0
I1
tp183
Rp184
(I3
S'|'
p185
NNNI5
I1
I0
tp186
bS'spice'
p187
tp188
Rp189
I5
I0
tp190
a(g189
I14
I0
tp191
a(g189
I8
I0
tp192
a(g189
I15
I0
tp193
a(g189
I1
I0
tp194
a(g189
I30
I0
tp195
a(g189
I29
I0
tp196
a(g189
I31
I0
tp197
a(g4
(g5
(S'S9'
p198
I0
I1
tp199
Rp200
(I3
S'|'
p201
NNNI9
I1
I0
tp202
bS'styrofoam'
p203
tp204
Rp205
I31
I1
tp206
a(g4
(g5
(S'S8'
p207
I0
I1
tp208
Rp209
(I3
S'|'
p210
NNNI8
I1
I0
tp211
bS'pringles'
p212
tp213
Rp214
I5
I0
tp215
a(g214
I14
I0
tp216
a(g214
I8
I0
tp217
a(g214
I15
I0
tp218
a(g214
I1
I0
tp219
a(g214
I30
I0
tp220
a(g214
I29
I0
tp221
a(g214
I31
I0
tp222
a(g4
(g5
(S'S9'
p223
I0
I1
tp224
Rp225
(I3
S'|'
p226
NNNI9
I1
I0
tp227
bS'styrofoam'
p228
tp229
Rp230
I14
I0
tp231
a(g4
(g5
(S'S9'
p232
I0
I1
tp233
Rp234
(I3
S'|'
p235
NNNI9
I1
I0
tp236
bS'container'
p237
tp238
Rp239
I29
I1
tp240
a(g4
(g5
(S'S3'
p241
I0
I1
tp242
Rp243
(I3
S'|'
p244
NNNI3
I1
I0
tp245
bS'can'
p246
tp247
Rp248
I30
I0
tp249
aa(lp250
a.