(lp0
(lp1
(dp2
S'action'
p3
cnumpy.core.multiarray
scalar
p4
(cnumpy
dtype
p5
(S'S4'
p6
I0
I1
tp7
Rp8
(I3
S'|'
p9
NNNI4
I1
I0
tp10
bS'walk'
p11
tp12
Rp13
sS'recipient'
p14
NsS'patient'
p15
NsS'goal'
p16
S'3430'
p17
sS'source'
p18
Nsaa(lp19
(dp20
S'all'
p21
(lp22
S"go to dr sybil smalt 's office in office s"
p23
asg15
(lp24
sg16
(lp25
S'office s'
p26
aS"dr sybil smalt 's office"
p27
asg18
(lp28
sg3
(lp29
sg14
(lp30
saa(lp31
(g4
(g5
(S'S9'
p32
I0
I1
tp33
Rp34
(I3
S'|'
p35
NNNI9
I1
I0
tp36
bS'container'
p37
tp38
Rp39
I5
I1
tp40
a(g4
(g5
(S'S6'
p41
I0
I1
tp42
Rp43
(I3
S'|'
p44
NNNI6
I1
I0
tp45
bS'column'
p46
tp47
Rp48
I14
I0
tp49
a(g4
(g5
(S'S5'
p50
I0
I1
tp51
Rp52
(I3
S'|'
p53
NNNI5
I1
I0
tp54
bS'peach'
p55
tp56
Rp57
I5
I0
tp58
a(g57
I14
I0
tp59
a(g57
I8
I0
tp60
a(g57
I15
I0
tp61
a(g57
I1
I0
tp62
a(g57
I30
I0
tp63
a(g57
I29
I0
tp64
a(g57
I31
I0
tp65
a(g4
(g5
(S'S5'
p66
I0
I1
tp67
Rp68
(I3
S'|'
p69
NNNI5
I1
I0
tp70
bS'clear'
p71
tp72
Rp73
I5
I0
tp74
a(g73
I14
I0
tp75
a(g73
I8
I0
tp76
a(g73
I15
I0
tp77
a(g73
I1
I0
tp78
a(g73
I30
I0
tp79
a(g73
I29
I0
tp80
a(g73
I31
I0
tp81
a(g4
(g5
(S'S8'
p82
I0
I1
tp83
Rp84
(I3
S'|'
p85
NNNI8
I1
I0
tp86
bS'cylinder'
p87
tp88
Rp89
I5
I1
tp90
aa(lp91
a.