(lp0
(lp1
(dp2
S'action'
p3
cnumpy.core.multiarray
scalar
p4
(cnumpy
dtype
p5
(S'S4'
p6
I0
I1
tp7
Rp8
(I3
S'|'
p9
NNNI4
I1
I0
tp10
bS'walk'
p11
tp12
Rp13
sS'recipient'
p14
NsS'patient'
p15
NsS'goal'
p16
g4
(g5
(S'S4'
p17
I0
I1
tp18
Rp19
(I3
S'|'
p20
NNNI4
I1
I0
tp21
bS'3520'
p22
tp23
Rp24
sS'source'
p25
Nsaa(lp26
(dp27
S'all'
p28
(lp29
S'go to the kitchen'
p30
asg15
(lp31
sg16
(lp32
sg25
(lp33
sg3
(lp34
sg14
(lp35
saa(lp36
(g4
(g5
(S'S4'
p37
I0
I1
tp38
Rp39
(I3
S'|'
p40
NNNI4
I1
I0
tp41
bS'blue'
p42
tp43
Rp44
I15
I0
tp45
a(g4
(g5
(S'S4'
p46
I0
I1
tp47
Rp48
(I3
S'|'
p49
NNNI4
I1
I0
tp50
bS'bean'
p51
tp52
Rp53
I8
I1
tp54
a(g4
(g5
(S'S4'
p55
I0
I1
tp56
Rp57
(I3
S'|'
p58
NNNI4
I1
I0
tp59
bS'bean'
p60
tp61
Rp62
I31
I0
tp63
a(g4
(g5
(S'S5'
p64
I0
I1
tp65
Rp66
(I3
S'|'
p67
NNNI5
I1
I0
tp68
bS'block'
p69
tp70
Rp71
I5
I0
tp72
a(g71
I14
I0
tp73
a(g71
I8
I0
tp74
a(g71
I15
I0
tp75
a(g71
I1
I0
tp76
a(g71
I30
I0
tp77
a(g71
I29
I0
tp78
a(g71
I31
I0
tp79
a(g4
(g5
(S'S4'
p80
I0
I1
tp81
Rp82
(I3
S'|'
p83
NNNI4
I1
I0
tp84
bS'bean'
p85
tp86
Rp87
I30
I0
tp88
aa(lp89
a.