(lp0
(lp1
(dp2
S'action'
p3
cnumpy.core.multiarray
scalar
p4
(cnumpy
dtype
p5
(S'S5'
p6
I0
I1
tp7
Rp8
(I3
S'|'
p9
NNNI5
I1
I0
tp10
bS'bring'
p11
tp12
Rp13
sS'recipient'
p14
S'h'
p15
sS'patient'
p16
S'oidx_22'
p17
sS'goal'
p18
NsS'source'
p19
Nsa(dp20
g3
g4
(g5
(S'S5'
p21
I0
I1
tp22
Rp23
(I3
S'|'
p24
NNNI5
I1
I0
tp25
bS'bring'
p26
tp27
Rp28
sg14
g15
sg16
g4
(g5
(S'S7'
p29
I0
I1
tp30
Rp31
(I3
S'|'
p32
NNNI7
I1
I0
tp33
bS'oidx_11'
p34
tp35
Rp36
sg18
Nsg19
Nsa(dp37
g3
g4
(g5
(S'S4'
p38
I0
I1
tp39
Rp40
(I3
S'|'
p41
NNNI4
I1
I0
tp42
bS'walk'
p43
tp44
Rp45
sg14
Nsg16
Nsg18
g4
(g5
(S'S4'
p46
I0
I1
tp47
Rp48
(I3
S'|'
p49
NNNI4
I1
I0
tp50
bS'3502'
p51
tp52
Rp53
sg19
Nsaa(lp54
(dp55
S'all'
p56
(lp57
S"go to the office next to dr sybil smalt 's office do not go to the lab"
p58
asg16
(lp59
S'find the room where x marks the spot'
p60
aS'yes'
p61
aS'yes'
p62
asg18
(lp63
sg19
(lp64
sg3
(lp65
sg14
(lp66
sa(dp67
g56
(lp68
S'deliver can to dr heidi hughes'
p69
asg16
(lp70
S'can of peaches'
p71
aS'can of fruit'
p72
aS'can'
p73
asg18
(lp74
sg19
(lp75
sg3
(lp76
sg14
(lp77
S'person h'
p78
asa(dp79
g56
(lp80
S'get the can from office of person m and deliver it to office h'
p81
asg16
(lp82
sg18
(lp83
S'office'
p84
aS'office m'
p85
aS'go to office of mallory mal maroon and get can'
p86
aS'go to office of mallory mal maroon and get can'
p87
aS'go to office of mallory mal maroon'
p88
aS'move an item from office of mallory mal maroon'
p89
aS'move an item'
p90
aS'office of mallory'
p91
asg19
(lp92
sg3
(lp93
sg14
(lp94
saa(lp95
(g4
(g5
(S'S5'
p96
I0
I1
tp97
Rp98
(I3
S'|'
p99
NNNI5
I1
I0
tp100
bS'spice'
p101
tp102
Rp103
I14
I1
tp104
a(g4
(g5
(S'S5'
p105
I0
I1
tp106
Rp107
(I3
S'|'
p108
NNNI5
I1
I0
tp109
bS'small'
p110
tp111
Rp112
I5
I0
tp113
a(g4
(g5
(S'S5'
p114
I0
I1
tp115
Rp116
(I3
S'|'
p117
NNNI5
I1
I0
tp118
bS'clear'
p119
tp120
Rp121
I5
I0
tp122
a(g121
I14
I0
tp123
a(g121
I8
I0
tp124
a(g121
I15
I0
tp125
a(g121
I1
I0
tp126
a(g121
I30
I0
tp127
a(g121
I29
I0
tp128
a(g121
I31
I0
tp129
a(g4
(g5
(S'S5'
p130
I0
I1
tp131
Rp132
(I3
S'|'
p133
NNNI5
I1
I0
tp134
bS'spice'
p135
tp136
Rp137
I15
I0
tp138
a(g4
(g5
(S'S6'
p139
I0
I1
tp140
Rp141
(I3
S'|'
p142
NNNI6
I1
I0
tp143
bS'column'
p144
tp145
Rp146
I31
I0
tp147
a(g4
(g5
(S'S3'
p148
I0
I1
tp149
Rp150
(I3
S'|'
p151
NNNI3
I1
I0
tp152
bS'can'
p153
tp154
Rp155
I1
I0
tp156
a(g4
(g5
(S'S3'
p157
I0
I1
tp158
Rp159
(I3
S'|'
p160
NNNI3
I1
I0
tp161
bS'can'
p162
tp163
Rp164
I5
I1
tp165
a(g4
(g5
(S'S3'
p166
I0
I1
tp167
Rp168
(I3
S'|'
p169
NNNI3
I1
I0
tp170
bS'can'
p171
tp172
Rp173
I30
I0
tp174
a(g4
(g5
(S'S3'
p175
I0
I1
tp176
Rp177
(I3
S'|'
p178
NNNI3
I1
I0
tp179
bS'can'
p180
tp181
Rp182
I15
I1
tp183
a(g4
(g5
(S'S3'
p184
I0
I1
tp185
Rp186
(I3
S'|'
p187
NNNI3
I1
I0
tp188
bS'can'
p189
tp190
Rp191
I31
I0
tp192
a(g4
(g5
(S'S3'
p193
I0
I1
tp194
Rp195
(I3
S'|'
p196
NNNI3
I1
I0
tp197
bS'can'
p198
tp199
Rp200
I29
I0
tp201
a(g4
(g5
(S'S3'
p202
I0
I1
tp203
Rp204
(I3
S'|'
p205
NNNI3
I1
I0
tp206
bS'can'
p207
tp208
Rp209
I8
I1
tp210
a(g4
(g5
(S'S4'
p211
I0
I1
tp212
Rp213
(I3
S'|'
p214
NNNI4
I1
I0
tp215
bS'blue'
p216
tp217
Rp218
I5
I1
tp219
a(g218
I14
I1
tp220
a(g218
I8
I1
tp221
a(g218
I15
I1
tp222
a(g218
I1
I1
tp223
a(g218
I30
I1
tp224
a(g218
I29
I1
tp225
a(g218
I31
I1
tp226
a(g4
(g5
(S'S5'
p227
I0
I1
tp228
Rp229
(I3
S'|'
p230
NNNI5
I1
I0
tp231
bS'small'
p232
tp233
Rp234
I14
I1
tp235
a(g4
(g5
(S'S3'
p236
I0
I1
tp237
Rp238
(I3
S'|'
p239
NNNI3
I1
I0
tp240
bS'red'
p241
tp242
Rp243
I8
I0
tp244
aa(lp245
a.