(lp0
(lp1
(dp2
S'action'
p3
cnumpy.core.multiarray
scalar
p4
(cnumpy
dtype
p5
(S'S4'
p6
I0
I1
tp7
Rp8
(I3
S'|'
p9
NNNI4
I1
I0
tp10
bS'walk'
p11
tp12
Rp13
sS'recipient'
p14
NsS'patient'
p15
NsS'goal'
p16
S'3436'
p17
sS'source'
p18
Nsa(dp19
g3
g4
(g5
(S'S4'
p20
I0
I1
tp21
Rp22
(I3
S'|'
p23
NNNI4
I1
I0
tp24
bS'move'
p25
tp26
Rp27
sg14
Nsg15
S'oidx_22'
p28
sg16
g4
(g5
(S'S4'
p29
I0
I1
tp30
Rp31
(I3
S'|'
p32
NNNI4
I1
I0
tp33
bS'3436'
p34
tp35
Rp36
sg18
S'3414b'
p37
sa(dp38
g3
g4
(g5
(S'S4'
p39
I0
I1
tp40
Rp41
(I3
S'|'
p42
NNNI4
I1
I0
tp43
bS'move'
p44
tp45
Rp46
sg14
Nsg15
S'oidx_25'
p47
sg16
S'3402'
p48
sg18
S'3520'
p49
saa(lp50
(dp51
S'all'
p52
(lp53
S'go to office b which is between office p and office r'
p54
asg15
(lp55
sg16
(lp56
S'go to location b which is between office p and office r'
p57
aS'go to the lab'
p58
asg18
(lp59
sg3
(lp60
sg14
(lp61
sa(dp62
g52
(lp63
S'bring can to r'
p64
asg15
(lp65
sg16
(lp66
S'to the lab'
p67
aS'to the lab'
p68
asg18
(lp69
S'to r'
p70
asg3
(lp71
sg14
(lp72
sa(dp73
g52
(lp74
S'move can from lab'
p75
asg15
(lp76
sg16
(lp77
S'yes'
p78
asg18
(lp79
S'yes'
p80
aS'office'
p81
asg3
(lp82
sg14
(lp83
saa(lp84
(g4
(g5
(S'S6'
p85
I0
I1
tp86
Rp87
(I3
S'|'
p88
NNNI6
I1
I0
tp89
bS'column'
p90
tp91
Rp92
I31
I0
tp93
a(g4
(g5
(S'S6'
p94
I0
I1
tp95
Rp96
(I3
S'|'
p97
NNNI6
I1
I0
tp98
bS'column'
p99
tp100
Rp101
I30
I0
tp102
a(g4
(g5
(S'S9'
p103
I0
I1
tp104
Rp105
(I3
S'|'
p106
NNNI9
I1
I0
tp107
bS'container'
p108
tp109
Rp110
I31
I1
tp111
a(g4
(g5
(S'S4'
p112
I0
I1
tp113
Rp114
(I3
S'|'
p115
NNNI4
I1
I0
tp116
bS'bean'
p117
tp118
Rp119
I31
I1
tp120
a(g4
(g5
(S'S8'
p121
I0
I1
tp122
Rp123
(I3
S'|'
p124
NNNI8
I1
I0
tp125
bS'metallic'
p126
tp127
Rp128
I5
I0
tp129
a(g128
I14
I0
tp130
a(g128
I8
I0
tp131
a(g128
I15
I0
tp132
a(g128
I1
I0
tp133
a(g128
I30
I0
tp134
a(g128
I29
I0
tp135
a(g128
I31
I0
tp136
a(g4
(g5
(S'S3'
p137
I0
I1
tp138
Rp139
(I3
S'|'
p140
NNNI3
I1
I0
tp141
bS'can'
p142
tp143
Rp144
I31
I0
tp145
a(g4
(g5
(S'S3'
p146
I0
I1
tp147
Rp148
(I3
S'|'
p149
NNNI3
I1
I0
tp150
bS'can'
p151
tp152
Rp153
I5
I1
tp154
a(g4
(g5
(S'S3'
p155
I0
I1
tp156
Rp157
(I3
S'|'
p158
NNNI3
I1
I0
tp159
bS'can'
p160
tp161
Rp162
I1
I1
tp163
a(g4
(g5
(S'S3'
p164
I0
I1
tp165
Rp166
(I3
S'|'
p167
NNNI3
I1
I0
tp168
bS'can'
p169
tp170
Rp171
I8
I1
tp172
a(g4
(g5
(S'S3'
p173
I0
I1
tp174
Rp175
(I3
S'|'
p176
NNNI3
I1
I0
tp177
bS'can'
p178
tp179
Rp180
I14
I0
tp181
a(g4
(g5
(S'S3'
p182
I0
I1
tp183
Rp184
(I3
S'|'
p185
NNNI3
I1
I0
tp186
bS'can'
p187
tp188
Rp189
I30
I0
tp190
a(g4
(g5
(S'S3'
p191
I0
I1
tp192
Rp193
(I3
S'|'
p194
NNNI3
I1
I0
tp195
bS'can'
p196
tp197
Rp198
I15
I1
tp199
a(g4
(g5
(S'S3'
p200
I0
I1
tp201
Rp202
(I3
S'|'
p203
NNNI3
I1
I0
tp204
bS'can'
p205
tp206
Rp207
I29
I0
tp208
a(g4
(g5
(S'S4'
p209
I0
I1
tp210
Rp211
(I3
S'|'
p212
NNNI4
I1
I0
tp213
bS'long'
p214
tp215
Rp216
I31
I0
tp217
a(g4
(g5
(S'S9'
p218
I0
I1
tp219
Rp220
(I3
S'|'
p221
NNNI9
I1
I0
tp222
bS'container'
p223
tp224
Rp225
I31
I1
tp226
aa(lp227
a.