(lp0
(lp1
(dp2
S'action'
p3
cnumpy.core.multiarray
scalar
p4
(cnumpy
dtype
p5
(S'S4'
p6
I0
I1
tp7
Rp8
(I3
S'|'
p9
NNNI4
I1
I0
tp10
bS'walk'
p11
tp12
Rp13
sS'recipient'
p14
NsS'patient'
p15
NsS'goal'
p16
S'3518'
p17
sS'source'
p18
Nsa(dp19
g3
g4
(g5
(S'S4'
p20
I0
I1
tp21
Rp22
(I3
S'|'
p23
NNNI4
I1
I0
tp24
bS'walk'
p25
tp26
Rp27
sg14
Nsg15
Nsg16
g4
(g5
(S'S4'
p28
I0
I1
tp29
Rp30
(I3
S'|'
p31
NNNI4
I1
I0
tp32
bS'3510'
p33
tp34
Rp35
sg18
Nsa(dp36
g3
g4
(g5
(S'S4'
p37
I0
I1
tp38
Rp39
(I3
S'|'
p40
NNNI4
I1
I0
tp41
bS'move'
p42
tp43
Rp44
sg14
Nsg15
S'oidx_12'
p45
sg16
S'3414'
p46
sg18
S'3502'
p47
saa(lp48
(dp49
S'all'
p50
(lp51
S'move to the pod'
p52
asg15
(lp53
sg16
(lp54
S'to the pod'
p55
asg18
(lp56
sg3
(lp57
sg14
(lp58
sa(dp59
g50
(lp60
S'leave the object'
p61
asg15
(lp62
sg16
(lp63
S'go to the hall'
p64
aS'go to b'
p65
asg18
(lp66
sg3
(lp67
sg14
(lp68
sa(dp69
g50
(lp70
S'take the object to the office'
p71
asg15
(lp72
S'container'
p73
aS'all'
p74
asg16
(lp75
S'to the office'
p76
asg18
(lp77
sg3
(lp78
sg14
(lp79
saa(lp80
(g4
(g5
(S'S9'
p81
I0
I1
tp82
Rp83
(I3
S'|'
p84
NNNI9
I1
I0
tp85
bS'styrofoam'
p86
tp87
Rp88
I31
I0
tp89
a(g4
(g5
(S'S9'
p90
I0
I1
tp91
Rp92
(I3
S'|'
p93
NNNI9
I1
I0
tp94
bS'rectangle'
p95
tp96
Rp97
I5
I0
tp98
a(g97
I14
I0
tp99
a(g97
I8
I0
tp100
a(g97
I15
I0
tp101
a(g97
I1
I0
tp102
a(g97
I30
I0
tp103
a(g97
I29
I0
tp104
a(g97
I31
I0
tp105
a(g4
(g5
(S'S5'
p106
I0
I1
tp107
Rp108
(I3
S'|'
p109
NNNI5
I1
I0
tp110
bS'tower'
p111
tp112
Rp113
I5
I0
tp114
a(g113
I14
I0
tp115
a(g113
I8
I0
tp116
a(g113
I15
I0
tp117
a(g113
I1
I0
tp118
a(g113
I30
I0
tp119
a(g113
I29
I0
tp120
a(g113
I31
I0
tp121
a(g4
(g5
(S'S5'
p122
I0
I1
tp123
Rp124
(I3
S'|'
p125
NNNI5
I1
I0
tp126
bS'white'
p127
tp128
Rp129
I5
I0
tp130
a(g129
I14
I0
tp131
a(g129
I8
I0
tp132
a(g129
I15
I0
tp133
a(g129
I1
I0
tp134
a(g129
I30
I0
tp135
a(g129
I29
I0
tp136
a(g129
I31
I0
tp137
a(g4
(g5
(S'S5'
p138
I0
I1
tp139
Rp140
(I3
S'|'
p141
NNNI5
I1
I0
tp142
bS'clear'
p143
tp144
Rp145
I5
I0
tp146
a(g145
I14
I0
tp147
a(g145
I8
I0
tp148
a(g145
I15
I0
tp149
a(g145
I1
I0
tp150
a(g145
I30
I0
tp151
a(g145
I29
I0
tp152
a(g145
I31
I0
tp153
a(g4
(g5
(S'S5'
p154
I0
I1
tp155
Rp156
(I3
S'|'
p157
NNNI5
I1
I0
tp158
bS'small'
p159
tp160
Rp161
I14
I0
tp162
a(g4
(g5
(S'S5'
p163
I0
I1
tp164
Rp165
(I3
S'|'
p166
NNNI5
I1
I0
tp167
bS'spice'
p168
tp169
Rp170
I30
I1
tp171
a(g4
(g5
(S'S9'
p172
I0
I1
tp173
Rp174
(I3
S'|'
p175
NNNI9
I1
I0
tp176
bS'container'
p177
tp178
Rp179
I8
I1
tp180
a(g4
(g5
(S'S9'
p181
I0
I1
tp182
Rp183
(I3
S'|'
p184
NNNI9
I1
I0
tp185
bS'container'
p186
tp187
Rp188
I29
I1
tp189
a(g4
(g5
(S'S9'
p190
I0
I1
tp191
Rp192
(I3
S'|'
p193
NNNI9
I1
I0
tp194
bS'container'
p195
tp196
Rp197
I31
I1
tp198
a(g4
(g5
(S'S9'
p199
I0
I1
tp200
Rp201
(I3
S'|'
p202
NNNI9
I1
I0
tp203
bS'container'
p204
tp205
Rp206
I8
I1
tp207
a(g4
(g5
(S'S9'
p208
I0
I1
tp209
Rp210
(I3
S'|'
p211
NNNI9
I1
I0
tp212
bS'container'
p213
tp214
Rp215
I31
I1
tp216
a(g4
(g5
(S'S9'
p217
I0
I1
tp218
Rp219
(I3
S'|'
p220
NNNI9
I1
I0
tp221
bS'container'
p222
tp223
Rp224
I29
I1
tp225
a(g4
(g5
(S'S9'
p226
I0
I1
tp227
Rp228
(I3
S'|'
p229
NNNI9
I1
I0
tp230
bS'container'
p231
tp232
Rp233
I5
I0
tp234
a(g233
I14
I0
tp235
a(g233
I8
I0
tp236
a(g233
I15
I0
tp237
a(g233
I1
I0
tp238
a(g233
I30
I0
tp239
a(g233
I29
I0
tp240
a(g233
I31
I0
tp241
a(g4
(g5
(S'S5'
p242
I0
I1
tp243
Rp244
(I3
S'|'
p245
NNNI5
I1
I0
tp246
bS'peach'
p247
tp248
Rp249
I5
I0
tp250
a(g249
I14
I0
tp251
a(g249
I8
I0
tp252
a(g249
I15
I0
tp253
a(g249
I1
I0
tp254
a(g249
I30
I0
tp255
a(g249
I29
I0
tp256
a(g249
I31
I0
tp257
aa(lp258
(S'b'
p259
S'body'
p260
I01
tp261
aa.