(lp0
(lp1
(dp2
S'action'
p3
cnumpy.core.multiarray
scalar
p4
(cnumpy
dtype
p5
(S'S4'
p6
I0
I1
tp7
Rp8
(I3
S'|'
p9
NNNI4
I1
I0
tp10
bS'walk'
p11
tp12
Rp13
sS'recipient'
p14
NsS'patient'
p15
NsS'goal'
p16
S'3432'
p17
sS'source'
p18
Nsa(dp19
g3
g4
(g5
(S'S5'
p20
I0
I1
tp21
Rp22
(I3
S'|'
p23
NNNI5
I1
I0
tp24
bS'bring'
p25
tp26
Rp27
sg14
S's'
p28
sg15
S'oidx_26'
p29
sg16
Nsg18
Nsa(dp30
g3
g4
(g5
(S'S4'
p31
I0
I1
tp32
Rp33
(I3
S'|'
p34
NNNI4
I1
I0
tp35
bS'walk'
p36
tp37
Rp38
sg14
Nsg15
Nsg16
g4
(g5
(S'S4'
p39
I0
I1
tp40
Rp41
(I3
S'|'
p42
NNNI4
I1
I0
tp43
bS'3414'
p44
tp45
Rp46
sg18
Nsaa(lp47
(dp48
S'all'
p49
(lp50
S'walk to the iffice'
p51
asg15
(lp52
sg16
(lp53
S'the office'
p54
asg18
(lp55
sg3
(lp56
sg14
(lp57
sa(dp58
g49
(lp59
S'give the soda can to person s'
p60
asg15
(lp61
S'deliver the soda can to person s'
p62
aS'a drink can'
p63
asg16
(lp64
sg18
(lp65
sg3
(lp66
sg14
(lp67
S'person s'
p68
aS's'
p69
aS'person s'
p70
aS's'
p71
aS's'
p72
aS'person s'
p73
aS's'
p74
aS's'
p75
asa(dp76
g49
(lp77
S'deliver chip can from lab to add office'
p78
asg15
(lp79
sg16
(lp80
S'lab'
p81
aS'go to the lab and get the chips to take to d office'
p82
aS'the lab'
p83
aS'get the chips out of the lab and deliver the chips to the office if'
p84
aS'the lab'
p85
aS'go to the lab'
p86
aS'go to the lab where the chips are'
p87
aS'go to the lab near the kitchen'
p88
aS'the lab next to the kitchen'
p89
asg18
(lp90
sg3
(lp91
sg14
(lp92
saa(lp93
(g4
(g5
(S'S3'
p94
I0
I1
tp95
Rp96
(I3
S'|'
p97
NNNI3
I1
I0
tp98
bS'can'
p99
tp100
Rp101
I29
I0
tp102
a(g4
(g5
(S'S5'
p103
I0
I1
tp104
Rp105
(I3
S'|'
p106
NNNI5
I1
I0
tp107
bS'small'
p108
tp109
Rp110
I29
I0
tp111
a(g4
(g5
(S'S4'
p112
I0
I1
tp113
Rp114
(I3
S'|'
p115
NNNI4
I1
I0
tp116
bS'blue'
p117
tp118
Rp119
I8
I0
tp120
a(g4
(g5
(S'S3'
p121
I0
I1
tp122
Rp123
(I3
S'|'
p124
NNNI3
I1
I0
tp125
bS'can'
p126
tp127
Rp128
I5
I1
tp129
a(g4
(g5
(S'S4'
p130
I0
I1
tp131
Rp132
(I3
S'|'
p133
NNNI4
I1
I0
tp134
bS'blue'
p135
tp136
Rp137
I30
I0
tp138
a(g4
(g5
(S'S5'
p139
I0
I1
tp140
Rp141
(I3
S'|'
p142
NNNI5
I1
I0
tp143
bS'spice'
p144
tp145
Rp146
I5
I0
tp147
a(g146
I14
I0
tp148
a(g146
I8
I0
tp149
a(g146
I15
I0
tp150
a(g146
I1
I0
tp151
a(g146
I30
I0
tp152
a(g146
I29
I0
tp153
a(g146
I31
I0
tp154
a(g4
(g5
(S'S6'
p155
I0
I1
tp156
Rp157
(I3
S'|'
p158
NNNI6
I1
I0
tp159
bS'column'
p160
tp161
Rp162
I31
I0
tp163
a(g4
(g5
(S'S3'
p164
I0
I1
tp165
Rp166
(I3
S'|'
p167
NNNI3
I1
I0
tp168
bS'can'
p169
tp170
Rp171
I1
I1
tp172
a(g4
(g5
(S'S9'
p173
I0
I1
tp174
Rp175
(I3
S'|'
p176
NNNI9
I1
I0
tp177
bS'container'
p178
tp179
Rp180
I29
I1
tp181
a(g4
(g5
(S'S6'
p182
I0
I1
tp183
Rp184
(I3
S'|'
p185
NNNI6
I1
I0
tp186
bS'column'
p187
tp188
Rp189
I30
I0
tp190
a(g4
(g5
(S'S8'
p191
I0
I1
tp192
Rp193
(I3
S'|'
p194
NNNI8
I1
I0
tp195
bS'metallic'
p196
tp197
Rp198
I5
I0
tp199
a(g198
I14
I0
tp200
a(g198
I8
I0
tp201
a(g198
I15
I0
tp202
a(g198
I1
I0
tp203
a(g198
I30
I0
tp204
a(g198
I29
I0
tp205
a(g198
I31
I0
tp206
a(g4
(g5
(S'S3'
p207
I0
I1
tp208
Rp209
(I3
S'|'
p210
NNNI3
I1
I0
tp211
bS'can'
p212
tp213
Rp214
I15
I1
tp215
a(g4
(g5
(S'S5'
p216
I0
I1
tp217
Rp218
(I3
S'|'
p219
NNNI5
I1
I0
tp220
bS'small'
p221
tp222
Rp223
I1
I1
tp224
a(g4
(g5
(S'S5'
p225
I0
I1
tp226
Rp227
(I3
S'|'
p228
NNNI5
I1
I0
tp229
bS'block'
p230
tp231
Rp232
I5
I0
tp233
a(g232
I14
I0
tp234
a(g232
I8
I0
tp235
a(g232
I15
I0
tp236
a(g232
I1
I0
tp237
a(g232
I30
I0
tp238
a(g232
I29
I0
tp239
a(g232
I31
I0
tp240
a(g4
(g5
(S'S5'
p241
I0
I1
tp242
Rp243
(I3
S'|'
p244
NNNI5
I1
I0
tp245
bS'small'
p246
tp247
Rp248
I29
I0
tp249
aa(lp250
a.