(lp0
(lp1
(dp2
S'action'
p3
cnumpy.core.multiarray
scalar
p4
(cnumpy
dtype
p5
(S'S4'
p6
I0
I1
tp7
Rp8
(I3
S'|'
p9
NNNI4
I1
I0
tp10
bS'walk'
p11
tp12
Rp13
sS'recipient'
p14
NsS'patient'
p15
NsS'goal'
p16
S'3420'
p17
sS'source'
p18
Nsaa(lp19
(dp20
S'all'
p21
(lp22
S"you need to go to the office in between the conference room and dave daniel 's office"
p23
asg15
(lp24
sg16
(lp25
S"the office located between the conference room and dave daniel 's office"
p26
aS'to the office in the middle of the conference room and the office that belongs to dave daniel'
p27
aS'the office next to the office owned by dave danel'
p28
aS'go to the office across from the lab'
p29
aS"next to david daniel 's office"
p30
asg18
(lp31
sg3
(lp32
sg14
(lp33
saa(lp34
(g4
(g5
(S'S3'
p35
I0
I1
tp36
Rp37
(I3
S'|'
p38
NNNI3
I1
I0
tp39
bS'can'
p40
tp41
Rp42
I29
I0
tp43
a(g4
(g5
(S'S9'
p44
I0
I1
tp45
Rp46
(I3
S'|'
p47
NNNI9
I1
I0
tp48
bS'styrofoam'
p49
tp50
Rp51
I30
I0
tp52
a(g4
(g5
(S'S5'
p53
I0
I1
tp54
Rp55
(I3
S'|'
p56
NNNI5
I1
I0
tp57
bS'clear'
p58
tp59
Rp60
I5
I0
tp61
a(g60
I14
I0
tp62
a(g60
I8
I0
tp63
a(g60
I15
I0
tp64
a(g60
I1
I0
tp65
a(g60
I30
I0
tp66
a(g60
I29
I0
tp67
a(g60
I31
I0
tp68
a(g4
(g5
(S'S5'
p69
I0
I1
tp70
Rp71
(I3
S'|'
p72
NNNI5
I1
I0
tp73
bS'brown'
p74
tp75
Rp76
I8
I0
tp77
a(g4
(g5
(S'S3'
p78
I0
I1
tp79
Rp80
(I3
S'|'
p81
NNNI3
I1
I0
tp82
bS'can'
p83
tp84
Rp85
I14
I0
tp86
aa(lp87
a.