(lp0
(lp1
(dp2
S'action'
p3
cnumpy.core.multiarray
scalar
p4
(cnumpy
dtype
p5
(S'S4'
p6
I0
I1
tp7
Rp8
(I3
S'|'
p9
NNNI4
I1
I0
tp10
bS'walk'
p11
tp12
Rp13
sS'recipient'
p14
NsS'patient'
p15
NsS'goal'
p16
S'3518'
p17
sS'source'
p18
Nsa(dp19
g3
g4
(g5
(S'S4'
p20
I0
I1
tp21
Rp22
(I3
S'|'
p23
NNNI4
I1
I0
tp24
bS'move'
p25
tp26
Rp27
sg14
Nsg15
S'oidx_6'
p28
sg16
S'3502'
p29
sg18
S'3414b'
p30
sa(dp31
g3
g4
(g5
(S'S5'
p32
I0
I1
tp33
Rp34
(I3
S'|'
p35
NNNI5
I1
I0
tp36
bS'bring'
p37
tp38
Rp39
sg14
S'd'
p40
sg15
g4
(g5
(S'S7'
p41
I0
I1
tp42
Rp43
(I3
S'|'
p44
NNNI7
I1
I0
tp45
bS'oidx_11'
p46
tp47
Rp48
sg16
Nsg18
Nsaa(lp49
(dp50
S'all'
p51
(lp52
S'go to the pod'
p53
asg15
(lp54
sg16
(lp55
S'go to the pod'
p56
aS'go to pod'
p57
asg18
(lp58
sg3
(lp59
sg14
(lp60
sa(dp61
g51
(lp62
S'bring the block to mal maroon'
p63
asg15
(lp64
S'move the silver block'
p65
aS'move the silver block'
p66
asg16
(lp67
S"mal maroon 's offics"
p68
aS'move to office m'
p69
asg18
(lp70
S'find the silver block'
p71
aS'find the silver block'
p72
aS'move the silver block'
p73
aS'move from silver block from the office'
p74
asg3
(lp75
sg14
(lp76
sa(dp77
g51
(lp78
S'go to the office next to david daniel'
p79
asg15
(lp80
S'find the silver block'
p81
aS'deliver the silver column'
p82
aS'find the silver collumn'
p83
asg16
(lp84
sg18
(lp85
sg3
(lp86
sg14
(lp87
S'deliver to the pod'
p88
asaa(lp89
(g4
(g5
(S'S5'
p90
I0
I1
tp91
Rp92
(I3
S'|'
p93
NNNI5
I1
I0
tp94
bS'small'
p95
tp96
Rp97
I5
I1
tp98
a(g97
I14
I1
tp99
a(g97
I8
I1
tp100
a(g97
I15
I1
tp101
a(g97
I1
I1
tp102
a(g97
I30
I1
tp103
a(g97
I29
I1
tp104
a(g97
I31
I1
tp105
a(g4
(g5
(S'S4'
p106
I0
I1
tp107
Rp108
(I3
S'|'
p109
NNNI4
I1
I0
tp110
bS'blue'
p111
tp112
Rp113
I30
I0
tp114
a(g4
(g5
(S'S9'
p115
I0
I1
tp116
Rp117
(I3
S'|'
p118
NNNI9
I1
I0
tp119
bS'styrofoam'
p120
tp121
Rp122
I14
I0
tp123
a(g4
(g5
(S'S9'
p124
I0
I1
tp125
Rp126
(I3
S'|'
p127
NNNI9
I1
I0
tp128
bS'container'
p129
tp130
Rp131
I8
I1
tp132
a(g4
(g5
(S'S5'
p133
I0
I1
tp134
Rp135
(I3
S'|'
p136
NNNI5
I1
I0
tp137
bS'tower'
p138
tp139
Rp140
I5
I0
tp141
a(g140
I14
I0
tp142
a(g140
I8
I0
tp143
a(g140
I15
I0
tp144
a(g140
I1
I0
tp145
a(g140
I30
I0
tp146
a(g140
I29
I0
tp147
a(g140
I31
I0
tp148
a(g4
(g5
(S'S5'
p149
I0
I1
tp150
Rp151
(I3
S'|'
p152
NNNI5
I1
I0
tp153
bS'block'
p154
tp155
Rp156
I5
I0
tp157
a(g156
I14
I0
tp158
a(g156
I8
I0
tp159
a(g156
I15
I0
tp160
a(g156
I1
I0
tp161
a(g156
I30
I0
tp162
a(g156
I29
I0
tp163
a(g156
I31
I0
tp164
a(g4
(g5
(S'S5'
p165
I0
I1
tp166
Rp167
(I3
S'|'
p168
NNNI5
I1
I0
tp169
bS'brown'
p170
tp171
Rp172
I30
I0
tp173
a(g4
(g5
(S'S8'
p174
I0
I1
tp175
Rp176
(I3
S'|'
p177
NNNI8
I1
I0
tp178
bS'pringles'
p179
tp180
Rp181
I5
I0
tp182
a(g181
I14
I0
tp183
a(g181
I8
I0
tp184
a(g181
I15
I0
tp185
a(g181
I1
I0
tp186
a(g181
I30
I0
tp187
a(g181
I29
I0
tp188
a(g181
I31
I0
tp189
a(g4
(g5
(S'S6'
p190
I0
I1
tp191
Rp192
(I3
S'|'
p193
NNNI6
I1
I0
tp194
bS'column'
p195
tp196
Rp197
I30
I0
tp198
a(g4
(g5
(S'S4'
p199
I0
I1
tp200
Rp201
(I3
S'|'
p202
NNNI4
I1
I0
tp203
bS'blue'
p204
tp205
Rp206
I5
I0
tp207
a(g4
(g5
(S'S4'
p208
I0
I1
tp209
Rp210
(I3
S'|'
p211
NNNI4
I1
I0
tp212
bS'blue'
p213
tp214
Rp215
I14
I0
tp216
a(g4
(g5
(S'S6'
p217
I0
I1
tp218
Rp219
(I3
S'|'
p220
NNNI6
I1
I0
tp221
bS'coffee'
p222
tp223
Rp224
I5
I0
tp225
a(g224
I14
I0
tp226
a(g224
I8
I0
tp227
a(g224
I15
I0
tp228
a(g224
I1
I0
tp229
a(g224
I30
I0
tp230
a(g224
I29
I0
tp231
a(g224
I31
I0
tp232
a(g4
(g5
(S'S5'
p233
I0
I1
tp234
Rp235
(I3
S'|'
p236
NNNI5
I1
I0
tp237
bS'spice'
p238
tp239
Rp240
I5
I0
tp241
a(g240
I14
I0
tp242
a(g240
I8
I0
tp243
a(g240
I15
I0
tp244
a(g240
I1
I0
tp245
a(g240
I30
I0
tp246
a(g240
I29
I0
tp247
a(g240
I31
I0
tp248
a(g4
(g5
(S'S8'
p249
I0
I1
tp250
Rp251
(I3
S'|'
p252
NNNI8
I1
I0
tp253
bS'cylinder'
p254
tp255
Rp256
I8
I1
tp257
a(g4
(g5
(S'S4'
p258
I0
I1
tp259
Rp260
(I3
S'|'
p261
NNNI4
I1
I0
tp262
bS'blue'
p263
tp264
Rp265
I15
I0
tp266
aa(lp267
(S'silver'
p268
S'blue'
p269
I01
tp270
aa.