(lp0
(lp1
(dp2
S'action'
p3
cnumpy.core.multiarray
scalar
p4
(cnumpy
dtype
p5
(S'S4'
p6
I0
I1
tp7
Rp8
(I3
S'|'
p9
NNNI4
I1
I0
tp10
bS'walk'
p11
tp12
Rp13
sS'recipient'
p14
NsS'patient'
p15
NsS'goal'
p16
S'3414a'
p17
sS'source'
p18
Nsaa(lp19
(dp20
S'all'
p21
(lp22
S'go to the lab closest to the printer'
p23
asg15
(lp24
sg16
(lp25
S'to the lab next to the printer'
p26
aS'the lab next to the printetr'
p27
asg18
(lp28
sg3
(lp29
sg14
(lp30
saa(lp31
(g4
(g5
(S'S5'
p32
I0
I1
tp33
Rp34
(I3
S'|'
p35
NNNI5
I1
I0
tp36
bS'brown'
p37
tp38
Rp39
I8
I0
tp40
a(g4
(g5
(S'S4'
p41
I0
I1
tp42
Rp43
(I3
S'|'
p44
NNNI4
I1
I0
tp45
bS'blue'
p46
tp47
Rp48
I8
I0
tp49
a(g4
(g5
(S'S4'
p50
I0
I1
tp51
Rp52
(I3
S'|'
p53
NNNI4
I1
I0
tp54
bS'blue'
p55
tp56
Rp57
I8
I0
tp58
a(g4
(g5
(S'S4'
p59
I0
I1
tp60
Rp61
(I3
S'|'
p62
NNNI4
I1
I0
tp63
bS'long'
p64
tp65
Rp66
I14
I0
tp67
a(g4
(g5
(S'S5'
p68
I0
I1
tp69
Rp70
(I3
S'|'
p71
NNNI5
I1
I0
tp72
bS'white'
p73
tp74
Rp75
I14
I1
tp76
aa(lp77
a.