(lp0
(lp1
(dp2
S'action'
p3
cnumpy.core.multiarray
scalar
p4
(cnumpy
dtype
p5
(S'S4'
p6
I0
I1
tp7
Rp8
(I3
S'|'
p9
NNNI4
I1
I0
tp10
bS'walk'
p11
tp12
Rp13
sS'recipient'
p14
NsS'patient'
p15
NsS'goal'
p16
S'3432'
p17
sS'source'
p18
Nsa(dp19
g3
g4
(g5
(S'S5'
p20
I0
I1
tp21
Rp22
(I3
S'|'
p23
NNNI5
I1
I0
tp24
bS'bring'
p25
tp26
Rp27
sg14
g4
(g5
(S'S1'
p28
I0
I1
tp29
Rp30
(I3
S'|'
p31
NNNI1
I1
I0
tp32
bS'w'
p33
tp34
Rp35
sg15
S'oidx_26'
p36
sg16
Nsg18
Nsa(dp37
g3
g4
(g5
(S'S4'
p38
I0
I1
tp39
Rp40
(I3
S'|'
p41
NNNI4
I1
I0
tp42
bS'move'
p43
tp44
Rp45
sg14
Nsg15
S'oidx_22'
p46
sg16
S'3518'
p47
sg18
S'3414b'
p48
saa(lp49
(dp50
S'all'
p51
(lp52
S'go to office'
p53
asg15
(lp54
sg16
(lp55
S'office w'
p56
aS'office'
p57
asg18
(lp58
sg3
(lp59
sg14
(lp60
sa(dp61
g51
(lp62
S'bring container to walter'
p63
asg15
(lp64
S'can'
p65
asg16
(lp66
sg18
(lp67
sg3
(lp68
sg14
(lp69
sa(dp70
g51
(lp71
S'yes'
p72
asg15
(lp73
S'yes'
p74
asg16
(lp75
S'lab'
p76
asg18
(lp77
S'yes'
p78
asg3
(lp79
sg14
(lp80
saa(lp81
(g4
(g5
(S'S5'
p82
I0
I1
tp83
Rp84
(I3
S'|'
p85
NNNI5
I1
I0
tp86
bS'brown'
p87
tp88
Rp89
I5
I1
tp90
a(g89
I14
I1
tp91
a(g89
I8
I1
tp92
a(g89
I15
I1
tp93
a(g89
I1
I1
tp94
a(g89
I30
I1
tp95
a(g89
I29
I1
tp96
a(g89
I31
I1
tp97
a(g4
(g5
(S'S8'
p98
I0
I1
tp99
Rp100
(I3
S'|'
p101
NNNI8
I1
I0
tp102
bS'cylinder'
p103
tp104
Rp105
I5
I0
tp106
a(g105
I14
I0
tp107
a(g105
I8
I0
tp108
a(g105
I15
I0
tp109
a(g105
I1
I0
tp110
a(g105
I30
I0
tp111
a(g105
I29
I0
tp112
a(g105
I31
I0
tp113
a(g4
(g5
(S'S5'
p114
I0
I1
tp115
Rp116
(I3
S'|'
p117
NNNI5
I1
I0
tp118
bS'block'
p119
tp120
Rp121
I5
I0
tp122
a(g121
I14
I0
tp123
a(g121
I8
I0
tp124
a(g121
I15
I0
tp125
a(g121
I1
I0
tp126
a(g121
I30
I0
tp127
a(g121
I29
I0
tp128
a(g121
I31
I0
tp129
a(g4
(g5
(S'S9'
p130
I0
I1
tp131
Rp132
(I3
S'|'
p133
NNNI9
I1
I0
tp134
bS'styrofoam'
p135
tp136
Rp137
I30
I1
tp138
a(g4
(g5
(S'S9'
p139
I0
I1
tp140
Rp141
(I3
S'|'
p142
NNNI9
I1
I0
tp143
bS'container'
p144
tp145
Rp146
I8
I1
tp147
a(g4
(g5
(S'S9'
p148
I0
I1
tp149
Rp150
(I3
S'|'
p151
NNNI9
I1
I0
tp152
bS'container'
p153
tp154
Rp155
I8
I1
tp156
a(g4
(g5
(S'S9'
p157
I0
I1
tp158
Rp159
(I3
S'|'
p160
NNNI9
I1
I0
tp161
bS'container'
p162
tp163
Rp164
I15
I1
tp165
a(g4
(g5
(S'S9'
p166
I0
I1
tp167
Rp168
(I3
S'|'
p169
NNNI9
I1
I0
tp170
bS'container'
p171
tp172
Rp173
I5
I0
tp174
a(g173
I14
I0
tp175
a(g173
I8
I0
tp176
a(g173
I15
I0
tp177
a(g173
I1
I0
tp178
a(g173
I30
I0
tp179
a(g173
I29
I0
tp180
a(g173
I31
I0
tp181
a(g4
(g5
(S'S4'
p182
I0
I1
tp183
Rp184
(I3
S'|'
p185
NNNI4
I1
I0
tp186
bS'long'
p187
tp188
Rp189
I31
I1
tp190
a(g4
(g5
(S'S5'
p191
I0
I1
tp192
Rp193
(I3
S'|'
p194
NNNI5
I1
I0
tp195
bS'white'
p196
tp197
Rp198
I31
I1
tp199
a(g4
(g5
(S'S5'
p200
I0
I1
tp201
Rp202
(I3
S'|'
p203
NNNI5
I1
I0
tp204
bS'small'
p205
tp206
Rp207
I5
I1
tp208
a(g207
I14
I1
tp209
a(g207
I8
I1
tp210
a(g207
I15
I1
tp211
a(g207
I1
I1
tp212
a(g207
I30
I1
tp213
a(g207
I29
I1
tp214
a(g207
I31
I1
tp215
a(g4
(g5
(S'S6'
p216
I0
I1
tp217
Rp218
(I3
S'|'
p219
NNNI6
I1
I0
tp220
bS'column'
p221
tp222
Rp223
I30
I1
tp224
a(g4
(g5
(S'S3'
p225
I0
I1
tp226
Rp227
(I3
S'|'
p228
NNNI3
I1
I0
tp229
bS'red'
p230
tp231
Rp232
I5
I1
tp233
a(g232
I14
I1
tp234
a(g232
I8
I1
tp235
a(g232
I15
I1
tp236
a(g232
I1
I1
tp237
a(g232
I30
I1
tp238
a(g232
I29
I1
tp239
a(g232
I31
I1
tp240
a(g4
(g5
(S'S6'
p241
I0
I1
tp242
Rp243
(I3
S'|'
p244
NNNI6
I1
I0
tp245
bS'yellow'
p246
tp247
Rp248
I30
I1
tp249
a(g4
(g5
(S'S8'
p250
I0
I1
tp251
Rp252
(I3
S'|'
p253
NNNI8
I1
I0
tp254
bS'pringles'
p255
tp256
Rp257
I30
I1
tp258
aa(lp259
a.