(lp0
(lp1
(dp2
S'action'
p3
cnumpy.core.multiarray
scalar
p4
(cnumpy
dtype
p5
(S'S4'
p6
I0
I1
tp7
Rp8
(I3
S'|'
p9
NNNI4
I1
I0
tp10
bS'walk'
p11
tp12
Rp13
sS'recipient'
p14
NsS'patient'
p15
NsS'goal'
p16
S'3406'
p17
sS'source'
p18
Nsaa(lp19
(dp20
S'all'
p21
(lp22
S'yes'
p23
asg15
(lp24
sg16
(lp25
S'college'
p26
aS'library'
p27
aS'home'
p28
aS'offfice'
p29
asg18
(lp30
sg3
(lp31
sg14
(lp32
saa(lp33
(g4
(g5
(S'S5'
p34
I0
I1
tp35
Rp36
(I3
S'|'
p37
NNNI5
I1
I0
tp38
bS'small'
p39
tp40
Rp41
I5
I1
tp42
a(g41
I14
I1
tp43
a(g41
I8
I1
tp44
a(g41
I15
I1
tp45
a(g41
I1
I1
tp46
a(g41
I30
I1
tp47
a(g41
I29
I1
tp48
a(g41
I31
I1
tp49
a(g4
(g5
(S'S9'
p50
I0
I1
tp51
Rp52
(I3
S'|'
p53
NNNI9
I1
I0
tp54
bS'styrofoam'
p55
tp56
Rp57
I30
I0
tp58
a(g4
(g5
(S'S5'
p59
I0
I1
tp60
Rp61
(I3
S'|'
p62
NNNI5
I1
I0
tp63
bS'brown'
p64
tp65
Rp66
I5
I1
tp67
a(g66
I14
I1
tp68
a(g66
I8
I1
tp69
a(g66
I15
I1
tp70
a(g66
I1
I1
tp71
a(g66
I30
I1
tp72
a(g66
I29
I1
tp73
a(g66
I31
I1
tp74
a(g4
(g5
(S'S4'
p75
I0
I1
tp76
Rp77
(I3
S'|'
p78
NNNI4
I1
I0
tp79
bS'blue'
p80
tp81
Rp82
I5
I1
tp83
a(g82
I14
I1
tp84
a(g82
I8
I1
tp85
a(g82
I15
I1
tp86
a(g82
I1
I1
tp87
a(g82
I30
I1
tp88
a(g82
I29
I1
tp89
a(g82
I31
I1
tp90
a(g4
(g5
(S'S9'
p91
I0
I1
tp92
Rp93
(I3
S'|'
p94
NNNI9
I1
I0
tp95
bS'rectangle'
p96
tp97
Rp98
I5
I0
tp99
a(g98
I14
I0
tp100
a(g98
I8
I0
tp101
a(g98
I15
I0
tp102
a(g98
I1
I0
tp103
a(g98
I30
I0
tp104
a(g98
I29
I0
tp105
a(g98
I31
I0
tp106
aa(lp107
a.