(lp0
(lp1
(dp2
S'action'
p3
cnumpy.core.multiarray
scalar
p4
(cnumpy
dtype
p5
(S'S5'
p6
I0
I1
tp7
Rp8
(I3
S'|'
p9
NNNI5
I1
I0
tp10
bS'bring'
p11
tp12
Rp13
sS'recipient'
p14
S'r'
p15
sS'patient'
p16
S'oidx_25'
p17
sS'goal'
p18
NsS'source'
p19
Nsaa(lp20
(dp21
S'all'
p22
(lp23
S"go down the hallway towards the lab make sure you are facing the lab room but don' 's leave the hallway then walk towards the pod room then turn and walk down the hall and stop at the first office walk into the office and walk around the person there name richard rogue secretary now you are at the x"
p24
asg16
(lp25
S'yourself'
p26
asg18
(lp27
sg19
(lp28
sg3
(lp29
sg14
(lp30
S'to richard rogue secretary'
p31
aS'r'
p32
aS'r'
p33
asaa(lp34
(g4
(g5
(S'S5'
p35
I0
I1
tp36
Rp37
(I3
S'|'
p38
NNNI5
I1
I0
tp39
bS'peach'
p40
tp41
Rp42
I29
I1
tp43
a(g4
(g5
(S'S9'
p44
I0
I1
tp45
Rp46
(I3
S'|'
p47
NNNI9
I1
I0
tp48
bS'container'
p49
tp50
Rp51
I14
I1
tp52
a(g4
(g5
(S'S4'
p53
I0
I1
tp54
Rp55
(I3
S'|'
p56
NNNI4
I1
I0
tp57
bS'long'
p58
tp59
Rp60
I1
I0
tp61
a(g4
(g5
(S'S8'
p62
I0
I1
tp63
Rp64
(I3
S'|'
p65
NNNI8
I1
I0
tp66
bS'pringles'
p67
tp68
Rp69
I5
I0
tp70
a(g69
I14
I0
tp71
a(g69
I8
I0
tp72
a(g69
I15
I0
tp73
a(g69
I1
I0
tp74
a(g69
I30
I0
tp75
a(g69
I29
I0
tp76
a(g69
I31
I0
tp77
a(g4
(g5
(S'S5'
p78
I0
I1
tp79
Rp80
(I3
S'|'
p81
NNNI5
I1
I0
tp82
bS'brown'
p83
tp84
Rp85
I30
I0
tp86
aa(lp87
a.