(lp0
(lp1
(dp2
S'action'
p3
cnumpy.core.multiarray
scalar
p4
(cnumpy
dtype
p5
(S'S4'
p6
I0
I1
tp7
Rp8
(I3
S'|'
p9
NNNI4
I1
I0
tp10
bS'walk'
p11
tp12
Rp13
sS'recipient'
p14
NsS'patient'
p15
NsS'goal'
p16
S'3432'
p17
sS'source'
p18
Nsaa(lp19
(dp20
S'all'
p21
(lp22
S'go to office'
p23
asg15
(lp24
sg16
(lp25
S'office'
p26
asg18
(lp27
sg3
(lp28
sg14
(lp29
saa(lp30
(g4
(g5
(S'S9'
p31
I0
I1
tp32
Rp33
(I3
S'|'
p34
NNNI9
I1
I0
tp35
bS'rectangle'
p36
tp37
Rp38
I5
I0
tp39
a(g38
I14
I0
tp40
a(g38
I8
I0
tp41
a(g38
I15
I0
tp42
a(g38
I1
I0
tp43
a(g38
I30
I0
tp44
a(g38
I29
I0
tp45
a(g38
I31
I0
tp46
a(g4
(g5
(S'S9'
p47
I0
I1
tp48
Rp49
(I3
S'|'
p50
NNNI9
I1
I0
tp51
bS'container'
p52
tp53
Rp54
I31
I1
tp55
a(g4
(g5
(S'S5'
p56
I0
I1
tp57
Rp58
(I3
S'|'
p59
NNNI5
I1
I0
tp60
bS'tower'
p61
tp62
Rp63
I5
I0
tp64
a(g63
I14
I0
tp65
a(g63
I8
I0
tp66
a(g63
I15
I0
tp67
a(g63
I1
I0
tp68
a(g63
I30
I0
tp69
a(g63
I29
I0
tp70
a(g63
I31
I0
tp71
a(g4
(g5
(S'S6'
p72
I0
I1
tp73
Rp74
(I3
S'|'
p75
NNNI6
I1
I0
tp76
bS'coffee'
p77
tp78
Rp79
I8
I1
tp80
a(g4
(g5
(S'S5'
p81
I0
I1
tp82
Rp83
(I3
S'|'
p84
NNNI5
I1
I0
tp85
bS'peach'
p86
tp87
Rp88
I8
I1
tp89
aa(lp90
a.