(lp0
(lp1
(dp2
S'action'
p3
cnumpy.core.multiarray
scalar
p4
(cnumpy
dtype
p5
(S'S4'
p6
I0
I1
tp7
Rp8
(I3
S'|'
p9
NNNI4
I1
I0
tp10
bS'walk'
p11
tp12
Rp13
sS'recipient'
p14
NsS'patient'
p15
NsS'goal'
p16
g4
(g5
(S'S4'
p17
I0
I1
tp18
Rp19
(I3
S'|'
p20
NNNI4
I1
I0
tp21
bS'3516'
p22
tp23
Rp24
sS'source'
p25
Nsa(dp26
g3
g4
(g5
(S'S5'
p27
I0
I1
tp28
Rp29
(I3
S'|'
p30
NNNI5
I1
I0
tp31
bS'bring'
p32
tp33
Rp34
sg14
S'd'
p35
sg15
g4
(g5
(S'S7'
p36
I0
I1
tp37
Rp38
(I3
S'|'
p39
NNNI7
I1
I0
tp40
bS'oidx_13'
p41
tp42
Rp43
sg16
Nsg25
Nsa(dp44
g3
g4
(g5
(S'S5'
p45
I0
I1
tp46
Rp47
(I3
S'|'
p48
NNNI5
I1
I0
tp49
bS'bring'
p50
tp51
Rp52
sg14
S'm'
p53
sg15
g4
(g5
(S'S7'
p54
I0
I1
tp55
Rp56
(I3
S'|'
p57
NNNI7
I1
I0
tp58
bS'oidx_22'
p59
tp60
Rp61
sg16
Nsg25
Nsaa(lp62
(dp63
S'all'
p64
(lp65
S'go to conference room'
p66
asg15
(lp67
sg16
(lp68
S'conference'
p69
aS'conference'
p70
aS'conference'
p71
aS'conference room'
p72
aS'yes'
p73
asg25
(lp74
sg3
(lp75
sg14
(lp76
sa(dp77
g64
(lp78
S'deliver'
p79
asg15
(lp80
S'blue object'
p81
aS'blue object'
p82
asg16
(lp83
sg25
(lp84
sg3
(lp85
sg14
(lp86
S'p'
p87
aS'blue object'
p88
aS'p'
p89
asa(dp90
g64
(lp91
S'deliver'
p92
asg15
(lp93
S'white object'
p94
asg16
(lp95
sg25
(lp96
sg3
(lp97
sg14
(lp98
S'pod'
p99
asaa(lp100
(g4
(g5
(S'S5'
p101
I0
I1
tp102
Rp103
(I3
S'|'
p104
NNNI5
I1
I0
tp105
bS'small'
p106
tp107
Rp108
I1
I0
tp109
a(g4
(g5
(S'S4'
p110
I0
I1
tp111
Rp112
(I3
S'|'
p113
NNNI4
I1
I0
tp114
bS'long'
p115
tp116
Rp117
I14
I0
tp118
a(g4
(g5
(S'S6'
p119
I0
I1
tp120
Rp121
(I3
S'|'
p122
NNNI6
I1
I0
tp123
bS'yellow'
p124
tp125
Rp126
I5
I1
tp127
a(g4
(g5
(S'S6'
p128
I0
I1
tp129
Rp130
(I3
S'|'
p131
NNNI6
I1
I0
tp132
bS'coffee'
p133
tp134
Rp135
I31
I1
tp136
a(g4
(g5
(S'S5'
p137
I0
I1
tp138
Rp139
(I3
S'|'
p140
NNNI5
I1
I0
tp141
bS'spice'
p142
tp143
Rp144
I30
I1
tp145
a(g4
(g5
(S'S4'
p146
I0
I1
tp147
Rp148
(I3
S'|'
p149
NNNI4
I1
I0
tp150
bS'blue'
p151
tp152
Rp153
I29
I0
tp154
a(g4
(g5
(S'S6'
p155
I0
I1
tp156
Rp157
(I3
S'|'
p158
NNNI6
I1
I0
tp159
bS'yellow'
p160
tp161
Rp162
I1
I0
tp163
a(g4
(g5
(S'S3'
p164
I0
I1
tp165
Rp166
(I3
S'|'
p167
NNNI3
I1
I0
tp168
bS'can'
p169
tp170
Rp171
I15
I0
tp172
a(g4
(g5
(S'S4'
p173
I0
I1
tp174
Rp175
(I3
S'|'
p176
NNNI4
I1
I0
tp177
bS'long'
p178
tp179
Rp180
I1
I0
tp181
a(g4
(g5
(S'S6'
p182
I0
I1
tp183
Rp184
(I3
S'|'
p185
NNNI6
I1
I0
tp186
bS'yellow'
p187
tp188
Rp189
I15
I0
tp190
a(g4
(g5
(S'S3'
p191
I0
I1
tp192
Rp193
(I3
S'|'
p194
NNNI3
I1
I0
tp195
bS'can'
p196
tp197
Rp198
I30
I1
tp199
a(g4
(g5
(S'S4'
p200
I0
I1
tp201
Rp202
(I3
S'|'
p203
NNNI4
I1
I0
tp204
bS'blue'
p205
tp206
Rp207
I1
I0
tp208
a(g4
(g5
(S'S5'
p209
I0
I1
tp210
Rp211
(I3
S'|'
p212
NNNI5
I1
I0
tp213
bS'spice'
p214
tp215
Rp216
I15
I1
tp217
a(g4
(g5
(S'S5'
p218
I0
I1
tp219
Rp220
(I3
S'|'
p221
NNNI5
I1
I0
tp222
bS'clear'
p223
tp224
Rp225
I8
I1
tp226
a(g4
(g5
(S'S6'
p227
I0
I1
tp228
Rp229
(I3
S'|'
p230
NNNI6
I1
I0
tp231
bS'yellow'
p232
tp233
Rp234
I8
I0
tp235
aa(lp236
a.