(lp0
(lp1
(dp2
S'action'
p3
cnumpy.core.multiarray
scalar
p4
(cnumpy
dtype
p5
(S'S4'
p6
I0
I1
tp7
Rp8
(I3
S'|'
p9
NNNI4
I1
I0
tp10
bS'move'
p11
tp12
Rp13
sS'recipient'
p14
NsS'patient'
p15
S'oidx_13'
p16
sS'goal'
p17
S'3506'
p18
sS'source'
p19
S'3414'
p20
saa(lp21
(dp22
S'all'
p23
(lp24
S'what do you want to do'
p25
asg15
(lp26
S'printer to the lab'
p27
asg17
(lp28
sg19
(lp29
S'kitchen'
p30
aS'kitchen'
p31
asg3
(lp32
sg14
(lp33
saa(lp34
(g4
(g5
(S'S3'
p35
I0
I1
tp36
Rp37
(I3
S'|'
p38
NNNI3
I1
I0
tp39
bS'can'
p40
tp41
Rp42
I5
I0
tp43
a(g4
(g5
(S'S9'
p44
I0
I1
tp45
Rp46
(I3
S'|'
p47
NNNI9
I1
I0
tp48
bS'container'
p49
tp50
Rp51
I5
I0
tp52
a(g51
I14
I0
tp53
a(g51
I8
I0
tp54
a(g51
I15
I0
tp55
a(g51
I1
I0
tp56
a(g51
I30
I0
tp57
a(g51
I29
I0
tp58
a(g51
I31
I0
tp59
a(g4
(g5
(S'S3'
p60
I0
I1
tp61
Rp62
(I3
S'|'
p63
NNNI3
I1
I0
tp64
bS'can'
p65
tp66
Rp67
I30
I0
tp68
a(g4
(g5
(S'S6'
p69
I0
I1
tp70
Rp71
(I3
S'|'
p72
NNNI6
I1
I0
tp73
bS'yellow'
p74
tp75
Rp76
I5
I0
tp77
a(g76
I14
I0
tp78
a(g76
I8
I0
tp79
a(g76
I15
I0
tp80
a(g76
I1
I0
tp81
a(g76
I30
I0
tp82
a(g76
I29
I0
tp83
a(g76
I31
I0
tp84
a(g4
(g5
(S'S3'
p85
I0
I1
tp86
Rp87
(I3
S'|'
p88
NNNI3
I1
I0
tp89
bS'can'
p90
tp91
Rp92
I31
I0
tp93
aa(lp94
(S'do'
p95
S'can'
p96
I01
tp97
a(S'want'
p98
g96
I01
tp99
aa.