(lp0
(lp1
(dp2
S'action'
p3
cnumpy.core.multiarray
scalar
p4
(cnumpy
dtype
p5
(S'S4'
p6
I0
I1
tp7
Rp8
(I3
S'|'
p9
NNNI4
I1
I0
tp10
bS'walk'
p11
tp12
Rp13
sS'recipient'
p14
NsS'patient'
p15
NsS'goal'
p16
S'3510'
p17
sS'source'
p18
Nsaa(lp19
(dp20
S'all'
p21
(lp22
S'hai'
p23
asg15
(lp24
sg16
(lp25
S'office d'
p26
asg18
(lp27
sg3
(lp28
sg14
(lp29
saa(lp30
(g4
(g5
(S'S5'
p31
I0
I1
tp32
Rp33
(I3
S'|'
p34
NNNI5
I1
I0
tp35
bS'tower'
p36
tp37
Rp38
I15
I1
tp39
a(g4
(g5
(S'S6'
p40
I0
I1
tp41
Rp42
(I3
S'|'
p43
NNNI6
I1
I0
tp44
bS'coffee'
p45
tp46
Rp47
I1
I1
tp48
a(g4
(g5
(S'S3'
p49
I0
I1
tp50
Rp51
(I3
S'|'
p52
NNNI3
I1
I0
tp53
bS'red'
p54
tp55
Rp56
I1
I0
tp57
a(g4
(g5
(S'S8'
p58
I0
I1
tp59
Rp60
(I3
S'|'
p61
NNNI8
I1
I0
tp62
bS'cylinder'
p63
tp64
Rp65
I1
I1
tp66
a(g4
(g5
(S'S4'
p67
I0
I1
tp68
Rp69
(I3
S'|'
p70
NNNI4
I1
I0
tp71
bS'blue'
p72
tp73
Rp74
I1
I0
tp75
aa(lp76
a.