(lp0
(lp1
(dp2
S'action'
p3
cnumpy.core.multiarray
scalar
p4
(cnumpy
dtype
p5
(S'S5'
p6
I0
I1
tp7
Rp8
(I3
S'|'
p9
NNNI5
I1
I0
tp10
bS'bring'
p11
tp12
Rp13
sS'recipient'
p14
S'n'
p15
sS'patient'
p16
S'oidx_13'
p17
sS'goal'
p18
NsS'source'
p19
Nsa(dp20
g3
g4
(g5
(S'S5'
p21
I0
I1
tp22
Rp23
(I3
S'|'
p24
NNNI5
I1
I0
tp25
bS'bring'
p26
tp27
Rp28
sg14
g4
(g5
(S'S1'
p29
I0
I1
tp30
Rp31
(I3
S'|'
p32
NNNI1
I1
I0
tp33
bS'h'
p34
tp35
Rp36
sg16
g4
(g5
(S'S7'
p37
I0
I1
tp38
Rp39
(I3
S'|'
p40
NNNI7
I1
I0
tp41
bS'oidx_12'
p42
tp43
Rp44
sg18
Nsg19
Nsa(dp45
g3
g4
(g5
(S'S4'
p46
I0
I1
tp47
Rp48
(I3
S'|'
p49
NNNI4
I1
I0
tp50
bS'move'
p51
tp52
Rp53
sg14
Nsg16
g17
sg18
g4
(g5
(S'S4'
p54
I0
I1
tp55
Rp56
(I3
S'|'
p57
NNNI4
I1
I0
tp58
bS'3514'
p59
tp60
Rp61
sg19
S'3514'
p62
saa(lp63
(dp64
S'all'
p65
(lp66
S'move'
p67
asg16
(lp68
S'nothing go to the conference room'
p69
aS'nothing'
p70
asg18
(lp71
sg19
(lp72
sg3
(lp73
sg14
(lp74
S''
p75
asa(dp76
g65
(lp77
S'deliver the red can to h'
p78
asg16
(lp79
S'a red can'
p80
aS'red wipes'
p81
aS'a red lid'
p82
asg18
(lp83
sg19
(lp84
sg3
(lp85
sg14
(lp86
S'dr heidi hughes'
p87
asa(dp88
g65
(lp89
S'take the red lid to the lounge'
p90
asg16
(lp91
S'a clear container with a red lid'
p92
aS'a clear container'
p93
asg18
(lp94
S'to the lounge'
p95
asg19
(lp96
S'not that item'
p97
aS'yes'
p98
aS'lounge'
p99
aS'lounge'
p100
aS'clear container'
p101
asg3
(lp102
sg14
(lp103
saa(lp104
(g4
(g5
(S'S3'
p105
I0
I1
tp106
Rp107
(I3
S'|'
p108
NNNI3
I1
I0
tp109
bS'can'
p110
tp111
Rp112
I8
I1
tp113
a(g4
(g5
(S'S9'
p114
I0
I1
tp115
Rp116
(I3
S'|'
p117
NNNI9
I1
I0
tp118
bS'container'
p119
tp120
Rp121
I5
I0
tp122
a(g121
I14
I0
tp123
a(g121
I8
I0
tp124
a(g121
I15
I0
tp125
a(g121
I1
I0
tp126
a(g121
I30
I0
tp127
a(g121
I29
I0
tp128
a(g121
I31
I0
tp129
a(g4
(g5
(S'S9'
p130
I0
I1
tp131
Rp132
(I3
S'|'
p133
NNNI9
I1
I0
tp134
bS'styrofoam'
p135
tp136
Rp137
I14
I0
tp138
a(g4
(g5
(S'S3'
p139
I0
I1
tp140
Rp141
(I3
S'|'
p142
NNNI3
I1
I0
tp143
bS'red'
p144
tp145
Rp146
I1
I0
tp147
a(g4
(g5
(S'S5'
p148
I0
I1
tp149
Rp150
(I3
S'|'
p151
NNNI5
I1
I0
tp152
bS'tower'
p153
tp154
Rp155
I5
I0
tp156
a(g155
I14
I0
tp157
a(g155
I8
I0
tp158
a(g155
I15
I0
tp159
a(g155
I1
I0
tp160
a(g155
I30
I0
tp161
a(g155
I29
I0
tp162
a(g155
I31
I0
tp163
a(g4
(g5
(S'S3'
p164
I0
I1
tp165
Rp166
(I3
S'|'
p167
NNNI3
I1
I0
tp168
bS'can'
p169
tp170
Rp171
I15
I0
tp172
a(g4
(g5
(S'S3'
p173
I0
I1
tp174
Rp175
(I3
S'|'
p176
NNNI3
I1
I0
tp177
bS'can'
p178
tp179
Rp180
I29
I0
tp181
a(g4
(g5
(S'S3'
p182
I0
I1
tp183
Rp184
(I3
S'|'
p185
NNNI3
I1
I0
tp186
bS'can'
p187
tp188
Rp189
I1
I0
tp190
a(g4
(g5
(S'S3'
p191
I0
I1
tp192
Rp193
(I3
S'|'
p194
NNNI3
I1
I0
tp195
bS'red'
p196
tp197
Rp198
I30
I1
tp199
a(g4
(g5
(S'S3'
p200
I0
I1
tp201
Rp202
(I3
S'|'
p203
NNNI3
I1
I0
tp204
bS'can'
p205
tp206
Rp207
I31
I0
tp208
a(g4
(g5
(S'S3'
p209
I0
I1
tp210
Rp211
(I3
S'|'
p212
NNNI3
I1
I0
tp213
bS'red'
p214
tp215
Rp216
I31
I0
tp217
a(g4
(g5
(S'S3'
p218
I0
I1
tp219
Rp220
(I3
S'|'
p221
NNNI3
I1
I0
tp222
bS'red'
p223
tp224
Rp225
I30
I1
tp226
a(g4
(g5
(S'S3'
p227
I0
I1
tp228
Rp229
(I3
S'|'
p230
NNNI3
I1
I0
tp231
bS'red'
p232
tp233
Rp234
I14
I0
tp235
a(g4
(g5
(S'S3'
p236
I0
I1
tp237
Rp238
(I3
S'|'
p239
NNNI3
I1
I0
tp240
bS'red'
p241
tp242
Rp243
I29
I1
tp244
a(g4
(g5
(S'S3'
p245
I0
I1
tp246
Rp247
(I3
S'|'
p248
NNNI3
I1
I0
tp249
bS'red'
p250
tp251
Rp252
I8
I0
tp253
aa(lp254
(S'wipes'
p255
S'd'
p256
I00
tp257
aa.