(lp0
(lp1
(dp2
S'action'
p3
cnumpy.core.multiarray
scalar
p4
(cnumpy
dtype
p5
(S'S4'
p6
I0
I1
tp7
Rp8
(I3
S'|'
p9
NNNI4
I1
I0
tp10
bS'walk'
p11
tp12
Rp13
sS'recipient'
p14
NsS'patient'
p15
NsS'goal'
p16
S'3512'
p17
sS'source'
p18
Nsa(dp19
g3
g4
(g5
(S'S5'
p20
I0
I1
tp21
Rp22
(I3
S'|'
p23
NNNI5
I1
I0
tp24
bS'bring'
p25
tp26
Rp27
sg14
S'w'
p28
sg15
S'oidx_12'
p29
sg16
Nsg18
Nsa(dp30
g3
g4
(g5
(S'S4'
p31
I0
I1
tp32
Rp33
(I3
S'|'
p34
NNNI4
I1
I0
tp35
bS'move'
p36
tp37
Rp38
sg14
Nsg15
S'oidx_28'
p39
sg16
S'3510'
p40
sg18
S'3414b'
p41
saa(lp42
(dp43
S'all'
p44
(lp45
S'move'
p46
asg15
(lp47
sg16
(lp48
S'white'
p49
aS'office'
p50
aS'office'
p51
asg18
(lp52
sg3
(lp53
sg14
(lp54
sa(dp55
g44
(lp56
S'deliver'
p57
asg15
(lp58
S'm'
p59
asg16
(lp60
sg18
(lp61
sg3
(lp62
sg14
(lp63
S'column'
p64
aS'm'
p65
asa(dp66
g44
(lp67
S'move'
p68
asg15
(lp69
S'yes'
p70
asg16
(lp71
sg18
(lp72
S'column'
p73
aS'yes'
p74
asg3
(lp75
sg14
(lp76
saa(lp77
(g4
(g5
(S'S5'
p78
I0
I1
tp79
Rp80
(I3
S'|'
p81
NNNI5
I1
I0
tp82
bS'white'
p83
tp84
Rp85
I14
I1
tp86
a(g4
(g5
(S'S5'
p87
I0
I1
tp88
Rp89
(I3
S'|'
p90
NNNI5
I1
I0
tp91
bS'white'
p92
tp93
Rp94
I1
I1
tp95
a(g4
(g5
(S'S5'
p96
I0
I1
tp97
Rp98
(I3
S'|'
p99
NNNI5
I1
I0
tp100
bS'white'
p101
tp102
Rp103
I31
I0
tp104
a(g4
(g5
(S'S5'
p105
I0
I1
tp106
Rp107
(I3
S'|'
p108
NNNI5
I1
I0
tp109
bS'white'
p110
tp111
Rp112
I5
I0
tp113
a(g4
(g5
(S'S5'
p114
I0
I1
tp115
Rp116
(I3
S'|'
p117
NNNI5
I1
I0
tp118
bS'white'
p119
tp120
Rp121
I15
I1
tp122
a(g4
(g5
(S'S6'
p123
I0
I1
tp124
Rp125
(I3
S'|'
p126
NNNI6
I1
I0
tp127
bS'column'
p128
tp129
Rp130
I30
I1
tp131
a(g4
(g5
(S'S6'
p132
I0
I1
tp133
Rp134
(I3
S'|'
p135
NNNI6
I1
I0
tp136
bS'column'
p137
tp138
Rp139
I1
I1
tp140
a(g4
(g5
(S'S3'
p141
I0
I1
tp142
Rp143
(I3
S'|'
p144
NNNI3
I1
I0
tp145
bS'can'
p146
tp147
Rp148
I29
I1
tp149
a(g4
(g5
(S'S6'
p150
I0
I1
tp151
Rp152
(I3
S'|'
p153
NNNI6
I1
I0
tp154
bS'column'
p155
tp156
Rp157
I31
I1
tp158
a(g4
(g5
(S'S5'
p159
I0
I1
tp160
Rp161
(I3
S'|'
p162
NNNI5
I1
I0
tp163
bS'brown'
p164
tp165
Rp166
I30
I0
tp167
a(g4
(g5
(S'S6'
p168
I0
I1
tp169
Rp170
(I3
S'|'
p171
NNNI6
I1
I0
tp172
bS'column'
p173
tp174
Rp175
I29
I0
tp176
a(g4
(g5
(S'S6'
p177
I0
I1
tp178
Rp179
(I3
S'|'
p180
NNNI6
I1
I0
tp181
bS'column'
p182
tp183
Rp184
I15
I0
tp185
a(g4
(g5
(S'S6'
p186
I0
I1
tp187
Rp188
(I3
S'|'
p189
NNNI6
I1
I0
tp190
bS'column'
p191
tp192
Rp193
I14
I0
tp194
a(g4
(g5
(S'S6'
p195
I0
I1
tp196
Rp197
(I3
S'|'
p198
NNNI6
I1
I0
tp199
bS'column'
p200
tp201
Rp202
I8
I0
tp203
a(g4
(g5
(S'S6'
p204
I0
I1
tp205
Rp206
(I3
S'|'
p207
NNNI6
I1
I0
tp208
bS'column'
p209
tp210
Rp211
I5
I0
tp212
aa(lp213
(g59
S'body'
p214
I00
tp215
a(g59
S'food'
p216
I00
tp217
aa.