(lp0
(lp1
(dp2
S'action'
p3
cnumpy.core.multiarray
scalar
p4
(cnumpy
dtype
p5
(S'S4'
p6
I0
I1
tp7
Rp8
(I3
S'|'
p9
NNNI4
I1
I0
tp10
bS'walk'
p11
tp12
Rp13
sS'recipient'
p14
NsS'patient'
p15
NsS'goal'
p16
S'3416'
p17
sS'source'
p18
Nsa(dp19
g3
g4
(g5
(S'S5'
p20
I0
I1
tp21
Rp22
(I3
S'|'
p23
NNNI5
I1
I0
tp24
bS'bring'
p25
tp26
Rp27
sg14
S'd'
p28
sg15
S'oidx_26'
p29
sg16
Nsg18
Nsaa(lp30
(dp31
S'all'
p32
(lp33
S'yes'
p34
asg15
(lp35
sg16
(lp36
S'no'
p37
aS'home'
p38
aS'office'
p39
aS'school'
p40
aS'college'
p41
asg18
(lp42
sg3
(lp43
sg14
(lp44
sa(dp45
g32
(lp46
S'yes'
p47
asg15
(lp48
S'container'
p49
asg16
(lp50
sg18
(lp51
sg3
(lp52
sg14
(lp53
S'me'
p54
asaa(lp55
(g4
(g5
(S'S8'
p56
I0
I1
tp57
Rp58
(I3
S'|'
p59
NNNI8
I1
I0
tp60
bS'pringles'
p61
tp62
Rp63
I5
I0
tp64
a(g63
I14
I0
tp65
a(g63
I8
I0
tp66
a(g63
I15
I0
tp67
a(g63
I1
I0
tp68
a(g63
I30
I0
tp69
a(g63
I29
I0
tp70
a(g63
I31
I0
tp71
a(g4
(g5
(S'S5'
p72
I0
I1
tp73
Rp74
(I3
S'|'
p75
NNNI5
I1
I0
tp76
bS'peach'
p77
tp78
Rp79
I5
I0
tp80
a(g79
I14
I0
tp81
a(g79
I8
I0
tp82
a(g79
I15
I0
tp83
a(g79
I1
I0
tp84
a(g79
I30
I0
tp85
a(g79
I29
I0
tp86
a(g79
I31
I0
tp87
a(g4
(g5
(S'S4'
p88
I0
I1
tp89
Rp90
(I3
S'|'
p91
NNNI4
I1
I0
tp92
bS'long'
p93
tp94
Rp95
I31
I0
tp96
a(g4
(g5
(S'S9'
p97
I0
I1
tp98
Rp99
(I3
S'|'
p100
NNNI9
I1
I0
tp101
bS'styrofoam'
p102
tp103
Rp104
I31
I0
tp105
a(g4
(g5
(S'S4'
p106
I0
I1
tp107
Rp108
(I3
S'|'
p109
NNNI4
I1
I0
tp110
bS'blue'
p111
tp112
Rp113
I5
I1
tp114
a(g113
I14
I1
tp115
a(g113
I8
I1
tp116
a(g113
I15
I1
tp117
a(g113
I1
I1
tp118
a(g113
I30
I1
tp119
a(g113
I29
I1
tp120
a(g113
I31
I1
tp121
a(g4
(g5
(S'S9'
p122
I0
I1
tp123
Rp124
(I3
S'|'
p125
NNNI9
I1
I0
tp126
bS'rectangle'
p127
tp128
Rp129
I5
I0
tp130
a(g129
I14
I0
tp131
a(g129
I8
I0
tp132
a(g129
I15
I0
tp133
a(g129
I1
I0
tp134
a(g129
I30
I0
tp135
a(g129
I29
I0
tp136
a(g129
I31
I0
tp137
a(g4
(g5
(S'S9'
p138
I0
I1
tp139
Rp140
(I3
S'|'
p141
NNNI9
I1
I0
tp142
bS'container'
p143
tp144
Rp145
I5
I0
tp146
a(g145
I14
I0
tp147
a(g145
I8
I0
tp148
a(g145
I15
I0
tp149
a(g145
I1
I0
tp150
a(g145
I30
I0
tp151
a(g145
I29
I0
tp152
a(g145
I31
I0
tp153
a(g4
(g5
(S'S5'
p154
I0
I1
tp155
Rp156
(I3
S'|'
p157
NNNI5
I1
I0
tp158
bS'brown'
p159
tp160
Rp161
I5
I1
tp162
a(g161
I14
I1
tp163
a(g161
I8
I1
tp164
a(g161
I15
I1
tp165
a(g161
I1
I1
tp166
a(g161
I30
I1
tp167
a(g161
I29
I1
tp168
a(g161
I31
I1
tp169
a(g4
(g5
(S'S5'
p170
I0
I1
tp171
Rp172
(I3
S'|'
p173
NNNI5
I1
I0
tp174
bS'small'
p175
tp176
Rp177
I5
I1
tp178
a(g177
I14
I1
tp179
a(g177
I8
I1
tp180
a(g177
I15
I1
tp181
a(g177
I1
I1
tp182
a(g177
I30
I1
tp183
a(g177
I29
I1
tp184
a(g177
I31
I1
tp185
a(g4
(g5
(S'S5'
p186
I0
I1
tp187
Rp188
(I3
S'|'
p189
NNNI5
I1
I0
tp190
bS'white'
p191
tp192
Rp193
I5
I0
tp194
a(g193
I14
I0
tp195
a(g193
I8
I0
tp196
a(g193
I15
I0
tp197
a(g193
I1
I0
tp198
a(g193
I30
I0
tp199
a(g193
I29
I0
tp200
a(g193
I31
I0
tp201
aa(lp202
a.