(lp0
(lp1
(dp2
S'action'
p3
cnumpy.core.multiarray
scalar
p4
(cnumpy
dtype
p5
(S'S4'
p6
I0
I1
tp7
Rp8
(I3
S'|'
p9
NNNI4
I1
I0
tp10
bS'walk'
p11
tp12
Rp13
sS'recipient'
p14
NsS'patient'
p15
NsS'goal'
p16
g4
(g5
(S'S4'
p17
I0
I1
tp18
Rp19
(I3
S'|'
p20
NNNI4
I1
I0
tp21
bS'3430'
p22
tp23
Rp24
sS'source'
p25
Nsa(dp26
g3
g4
(g5
(S'S4'
p27
I0
I1
tp28
Rp29
(I3
S'|'
p30
NNNI4
I1
I0
tp31
bS'walk'
p32
tp33
Rp34
sg14
Nsg15
Nsg16
g4
(g5
(S'S4'
p35
I0
I1
tp36
Rp37
(I3
S'|'
p38
NNNI4
I1
I0
tp39
bS'3508'
p40
tp41
Rp42
sg25
Nsa(dp43
g3
g4
(g5
(S'S4'
p44
I0
I1
tp45
Rp46
(I3
S'|'
p47
NNNI4
I1
I0
tp48
bS'move'
p49
tp50
Rp51
sg14
Nsg15
S'oidx_22'
p52
sg16
S'3408'
p53
sg25
S'3418'
p54
saa(lp55
(dp56
S'all'
p57
(lp58
S"go to dr sybil smalt 's office"
p59
asg15
(lp60
sg16
(lp61
sg25
(lp62
sg3
(lp63
sg14
(lp64
sa(dp65
g57
(lp66
S'bring this object to peggy parker intern'
p67
asg15
(lp68
sg16
(lp69
S'bring the block to peggy parker intern'
p70
aS'pick up the box off of the table and take it to peggy parker'
p71
aS'peggy parker'
p72
aS"go to peggy parker 's office"
p73
asg25
(lp74
sg3
(lp75
sg14
(lp76
sa(dp77
g57
(lp78
S'take the jar of nuts from the pod to office n'
p79
asg15
(lp80
S'the container'
p81
asg16
(lp82
sg25
(lp83
S'remove the container from the pod to office n'
p84
aS'remove it from the pod to office n'
p85
asg3
(lp86
sg14
(lp87
saa(lp88
(g4
(g5
(S'S6'
p89
I0
I1
tp90
Rp91
(I3
S'|'
p92
NNNI6
I1
I0
tp93
bS'column'
p94
tp95
Rp96
I14
I0
tp97
a(g4
(g5
(S'S5'
p98
I0
I1
tp99
Rp100
(I3
S'|'
p101
NNNI5
I1
I0
tp102
bS'brown'
p103
tp104
Rp105
I30
I0
tp106
a(g4
(g5
(S'S5'
p107
I0
I1
tp108
Rp109
(I3
S'|'
p110
NNNI5
I1
I0
tp111
bS'block'
p112
tp113
Rp114
I5
I0
tp115
a(g114
I14
I0
tp116
a(g114
I8
I0
tp117
a(g114
I15
I0
tp118
a(g114
I1
I0
tp119
a(g114
I30
I0
tp120
a(g114
I29
I0
tp121
a(g114
I31
I0
tp122
a(g4
(g5
(S'S6'
p123
I0
I1
tp124
Rp125
(I3
S'|'
p126
NNNI6
I1
I0
tp127
bS'column'
p128
tp129
Rp130
I30
I0
tp131
a(g4
(g5
(S'S5'
p132
I0
I1
tp133
Rp134
(I3
S'|'
p135
NNNI5
I1
I0
tp136
bS'brown'
p137
tp138
Rp139
I31
I1
tp140
a(g4
(g5
(S'S5'
p141
I0
I1
tp142
Rp143
(I3
S'|'
p144
NNNI5
I1
I0
tp145
bS'spice'
p146
tp147
Rp148
I5
I0
tp149
a(g148
I14
I0
tp150
a(g148
I8
I0
tp151
a(g148
I15
I0
tp152
a(g148
I1
I0
tp153
a(g148
I30
I0
tp154
a(g148
I29
I0
tp155
a(g148
I31
I0
tp156
a(g4
(g5
(S'S3'
p157
I0
I1
tp158
Rp159
(I3
S'|'
p160
NNNI3
I1
I0
tp161
bS'can'
p162
tp163
Rp164
I30
I0
tp165
a(g4
(g5
(S'S5'
p166
I0
I1
tp167
Rp168
(I3
S'|'
p169
NNNI5
I1
I0
tp170
bS'peach'
p171
tp172
Rp173
I5
I0
tp174
a(g173
I14
I0
tp175
a(g173
I8
I0
tp176
a(g173
I15
I0
tp177
a(g173
I1
I0
tp178
a(g173
I30
I0
tp179
a(g173
I29
I0
tp180
a(g173
I31
I0
tp181
a(g4
(g5
(S'S9'
p182
I0
I1
tp183
Rp184
(I3
S'|'
p185
NNNI9
I1
I0
tp186
bS'container'
p187
tp188
Rp189
I29
I1
tp190
a(g4
(g5
(S'S3'
p191
I0
I1
tp192
Rp193
(I3
S'|'
p194
NNNI3
I1
I0
tp195
bS'can'
p196
tp197
Rp198
I29
I0
tp199
a(g4
(g5
(S'S9'
p200
I0
I1
tp201
Rp202
(I3
S'|'
p203
NNNI9
I1
I0
tp204
bS'container'
p205
tp206
Rp207
I30
I1
tp208
a(g4
(g5
(S'S9'
p209
I0
I1
tp210
Rp211
(I3
S'|'
p212
NNNI9
I1
I0
tp213
bS'container'
p214
tp215
Rp216
I8
I1
tp217
a(g4
(g5
(S'S9'
p218
I0
I1
tp219
Rp220
(I3
S'|'
p221
NNNI9
I1
I0
tp222
bS'container'
p223
tp224
Rp225
I29
I1
tp226
a(g4
(g5
(S'S9'
p227
I0
I1
tp228
Rp229
(I3
S'|'
p230
NNNI9
I1
I0
tp231
bS'container'
p232
tp233
Rp234
I31
I1
tp235
a(g4
(g5
(S'S9'
p236
I0
I1
tp237
Rp238
(I3
S'|'
p239
NNNI9
I1
I0
tp240
bS'container'
p241
tp242
Rp243
I1
I1
tp244
aa(lp245
(S'jar'
p246
S'peaches'
p247
I00
tp248
a(g246
S'container'
p249
I01
tp250
aa.