(lp0
(lp1
(dp2
S'action'
p3
cnumpy.core.multiarray
scalar
p4
(cnumpy
dtype
p5
(S'S4'
p6
I0
I1
tp7
Rp8
(I3
S'|'
p9
NNNI4
I1
I0
tp10
bS'walk'
p11
tp12
Rp13
sS'recipient'
p14
NsS'patient'
p15
NsS'goal'
p16
g4
(g5
(S'S4'
p17
I0
I1
tp18
Rp19
(I3
S'|'
p20
NNNI4
I1
I0
tp21
bS'3512'
p22
tp23
Rp24
sS'source'
p25
Nsaa(lp26
(dp27
S'all'
p28
(lp29
S'got to the office of richard rogue'
p30
asg15
(lp31
sg16
(lp32
S'go into the office located adjacent to the lounge'
p33
aS'go into the office adjacent to the lounge'
p34
aS'go to the office next to the lounge'
p35
aS'go one room left of the lounge'
p36
asg25
(lp37
sg3
(lp38
sg14
(lp39
saa(lp40
(g4
(g5
(S'S8'
p41
I0
I1
tp42
Rp43
(I3
S'|'
p44
NNNI8
I1
I0
tp45
bS'cylinder'
p46
tp47
Rp48
I8
I1
tp49
a(g4
(g5
(S'S8'
p50
I0
I1
tp51
Rp52
(I3
S'|'
p53
NNNI8
I1
I0
tp54
bS'cylinder'
p55
tp56
Rp57
I15
I1
tp58
a(g4
(g5
(S'S5'
p59
I0
I1
tp60
Rp61
(I3
S'|'
p62
NNNI5
I1
I0
tp63
bS'white'
p64
tp65
Rp66
I5
I0
tp67
a(g66
I14
I0
tp68
a(g66
I8
I0
tp69
a(g66
I15
I0
tp70
a(g66
I1
I0
tp71
a(g66
I30
I0
tp72
a(g66
I29
I0
tp73
a(g66
I31
I0
tp74
a(g4
(g5
(S'S4'
p75
I0
I1
tp76
Rp77
(I3
S'|'
p78
NNNI4
I1
I0
tp79
bS'long'
p80
tp81
Rp82
I8
I0
tp83
a(g4
(g5
(S'S5'
p84
I0
I1
tp85
Rp86
(I3
S'|'
p87
NNNI5
I1
I0
tp88
bS'clear'
p89
tp90
Rp91
I5
I0
tp92
a(g91
I14
I0
tp93
a(g91
I8
I0
tp94
a(g91
I15
I0
tp95
a(g91
I1
I0
tp96
a(g91
I30
I0
tp97
a(g91
I29
I0
tp98
a(g91
I31
I0
tp99
aa(lp100
a.