(lp0
(lp1
(dp2
S'action'
p3
cnumpy.core.multiarray
scalar
p4
(cnumpy
dtype
p5
(S'S4'
p6
I0
I1
tp7
Rp8
(I3
S'|'
p9
NNNI4
I1
I0
tp10
bS'walk'
p11
tp12
Rp13
sS'recipient'
p14
NsS'patient'
p15
NsS'goal'
p16
g4
(g5
(S'S4'
p17
I0
I1
tp18
Rp19
(I3
S'|'
p20
NNNI4
I1
I0
tp21
bS'3432'
p22
tp23
Rp24
sS'source'
p25
Nsa(dp26
g3
g4
(g5
(S'S5'
p27
I0
I1
tp28
Rp29
(I3
S'|'
p30
NNNI5
I1
I0
tp31
bS'bring'
p32
tp33
Rp34
sg14
g4
(g5
(S'S1'
p35
I0
I1
tp36
Rp37
(I3
S'|'
p38
NNNI1
I1
I0
tp39
bS'w'
p40
tp41
Rp42
sg15
g4
(g5
(S'S7'
p43
I0
I1
tp44
Rp45
(I3
S'|'
p46
NNNI7
I1
I0
tp47
bS'oidx_22'
p48
tp49
Rp50
sg16
Nsg25
Nsaa(lp51
(dp52
S'all'
p53
(lp54
S'go to the office with nobody in it'
p55
asg15
(lp56
sg16
(lp57
S'to the office by the lab'
p58
aS'go to the office that is left of the lab'
p59
aS'go to the office'
p60
aS'go to the right top corner office'
p61
asg25
(lp62
sg3
(lp63
sg14
(lp64
sa(dp65
g53
(lp66
S'bring the plastic jar with the coffee beans in it to w'
p67
asg15
(lp68
S'the container with the red lid'
p69
aS'the beans'
p70
aS'the jar with the red lid'
p71
aS'the brown coffee beans'
p72
asg16
(lp73
sg25
(lp74
sg3
(lp75
sg14
(lp76
S'to w'
p77
aS'w'
p78
asaa(lp79
(g4
(g5
(S'S4'
p80
I0
I1
tp81
Rp82
(I3
S'|'
p83
NNNI4
I1
I0
tp84
bS'bean'
p85
tp86
Rp87
I5
I0
tp88
a(g87
I14
I0
tp89
a(g87
I8
I0
tp90
a(g87
I15
I0
tp91
a(g87
I1
I0
tp92
a(g87
I30
I0
tp93
a(g87
I29
I0
tp94
a(g87
I31
I0
tp95
a(g4
(g5
(S'S9'
p96
I0
I1
tp97
Rp98
(I3
S'|'
p99
NNNI9
I1
I0
tp100
bS'container'
p101
tp102
Rp103
I14
I1
tp104
a(g4
(g5
(S'S5'
p105
I0
I1
tp106
Rp107
(I3
S'|'
p108
NNNI5
I1
I0
tp109
bS'small'
p110
tp111
Rp112
I5
I0
tp113
a(g4
(g5
(S'S4'
p114
I0
I1
tp115
Rp116
(I3
S'|'
p117
NNNI4
I1
I0
tp118
bS'long'
p119
tp120
Rp121
I14
I0
tp122
a(g4
(g5
(S'S3'
p123
I0
I1
tp124
Rp125
(I3
S'|'
p126
NNNI3
I1
I0
tp127
bS'can'
p128
tp129
Rp130
I29
I0
tp131
a(g4
(g5
(S'S9'
p132
I0
I1
tp133
Rp134
(I3
S'|'
p135
NNNI9
I1
I0
tp136
bS'container'
p137
tp138
Rp139
I1
I0
tp140
a(g4
(g5
(S'S9'
p141
I0
I1
tp142
Rp143
(I3
S'|'
p144
NNNI9
I1
I0
tp145
bS'container'
p146
tp147
Rp148
I14
I1
tp149
a(g4
(g5
(S'S9'
p150
I0
I1
tp151
Rp152
(I3
S'|'
p153
NNNI9
I1
I0
tp154
bS'container'
p155
tp156
Rp157
I30
I1
tp158
a(g4
(g5
(S'S9'
p159
I0
I1
tp160
Rp161
(I3
S'|'
p162
NNNI9
I1
I0
tp163
bS'container'
p164
tp165
Rp166
I31
I1
tp167
a(g4
(g5
(S'S3'
p168
I0
I1
tp169
Rp170
(I3
S'|'
p171
NNNI3
I1
I0
tp172
bS'red'
p173
tp174
Rp175
I31
I0
tp176
aa(lp177
(S'plastic'
p178
S'is'
p179
I00
tp180
a(g178
S'container'
p181
I00
tp182
a(g178
S'metallic'
p183
I00
tp184
aa.