(lp0
(lp1
(dp2
S'action'
p3
cnumpy.core.multiarray
scalar
p4
(cnumpy
dtype
p5
(S'S4'
p6
I0
I1
tp7
Rp8
(I3
S'|'
p9
NNNI4
I1
I0
tp10
bS'walk'
p11
tp12
Rp13
sS'recipient'
p14
NsS'patient'
p15
NsS'goal'
p16
g4
(g5
(S'S4'
p17
I0
I1
tp18
Rp19
(I3
S'|'
p20
NNNI4
I1
I0
tp21
bS'3520'
p22
tp23
Rp24
sS'source'
p25
Nsa(dp26
g3
g4
(g5
(S'S4'
p27
I0
I1
tp28
Rp29
(I3
S'|'
p30
NNNI4
I1
I0
tp31
bS'walk'
p32
tp33
Rp34
sg14
Nsg15
Nsg16
g4
(g5
(S'S4'
p35
I0
I1
tp36
Rp37
(I3
S'|'
p38
NNNI4
I1
I0
tp39
bS'3520'
p40
tp41
Rp42
sg25
Nsa(dp43
g3
g4
(g5
(S'S4'
p44
I0
I1
tp45
Rp46
(I3
S'|'
p47
NNNI4
I1
I0
tp48
bS'walk'
p49
tp50
Rp51
sg14
Nsg15
Nsg16
g4
(g5
(S'S4'
p52
I0
I1
tp53
Rp54
(I3
S'|'
p55
NNNI4
I1
I0
tp56
bS'3520'
p57
tp58
Rp59
sg25
Nsaa(lp60
(dp61
S'all'
p62
(lp63
S'you go to kitchen'
p64
asg15
(lp65
sg16
(lp66
sg25
(lp67
sg3
(lp68
sg14
(lp69
sa(dp70
g62
(lp71
S'you take this bottle'
p72
asg15
(lp73
sg16
(lp74
S'you go to the person p near'
p75
aS'you go to right side'
p76
aS'right'
p77
aS'you go to kitchen'
p78
asg25
(lp79
sg3
(lp80
sg14
(lp81
sa(dp82
g62
(lp83
S'you go to the kitchen'
p84
asg15
(lp85
sg16
(lp86
S'you go the kitchen'
p87
asg25
(lp88
sg3
(lp89
sg14
(lp90
saa(lp91
(g4
(g5
(S'S6'
p92
I0
I1
tp93
Rp94
(I3
S'|'
p95
NNNI6
I1
I0
tp96
bS'column'
p97
tp98
Rp99
I31
I1
tp100
a(g4
(g5
(S'S6'
p101
I0
I1
tp102
Rp103
(I3
S'|'
p104
NNNI6
I1
I0
tp105
bS'yellow'
p106
tp107
Rp108
I5
I0
tp109
a(g108
I14
I0
tp110
a(g108
I8
I0
tp111
a(g108
I15
I0
tp112
a(g108
I1
I0
tp113
a(g108
I30
I0
tp114
a(g108
I29
I0
tp115
a(g108
I31
I0
tp116
a(g4
(g5
(S'S4'
p117
I0
I1
tp118
Rp119
(I3
S'|'
p120
NNNI4
I1
I0
tp121
bS'long'
p122
tp123
Rp124
I31
I1
tp125
a(g4
(g5
(S'S5'
p126
I0
I1
tp127
Rp128
(I3
S'|'
p129
NNNI5
I1
I0
tp130
bS'tower'
p131
tp132
Rp133
I5
I0
tp134
a(g133
I14
I0
tp135
a(g133
I8
I0
tp136
a(g133
I15
I0
tp137
a(g133
I1
I0
tp138
a(g133
I30
I0
tp139
a(g133
I29
I0
tp140
a(g133
I31
I0
tp141
a(g4
(g5
(S'S6'
p142
I0
I1
tp143
Rp144
(I3
S'|'
p145
NNNI6
I1
I0
tp146
bS'coffee'
p147
tp148
Rp149
I5
I0
tp150
a(g149
I14
I0
tp151
a(g149
I8
I0
tp152
a(g149
I15
I0
tp153
a(g149
I1
I0
tp154
a(g149
I30
I0
tp155
a(g149
I29
I0
tp156
a(g149
I31
I0
tp157
a(g4
(g5
(S'S8'
p158
I0
I1
tp159
Rp160
(I3
S'|'
p161
NNNI8
I1
I0
tp162
bS'cylinder'
p163
tp164
Rp165
I5
I0
tp166
a(g165
I14
I0
tp167
a(g165
I8
I0
tp168
a(g165
I15
I0
tp169
a(g165
I1
I0
tp170
a(g165
I30
I0
tp171
a(g165
I29
I0
tp172
a(g165
I31
I0
tp173
a(g4
(g5
(S'S4'
p174
I0
I1
tp175
Rp176
(I3
S'|'
p177
NNNI4
I1
I0
tp178
bS'bean'
p179
tp180
Rp181
I31
I1
tp182
a(g4
(g5
(S'S3'
p183
I0
I1
tp184
Rp185
(I3
S'|'
p186
NNNI3
I1
I0
tp187
bS'can'
p188
tp189
Rp190
I29
I1
tp191
a(g4
(g5
(S'S4'
p192
I0
I1
tp193
Rp194
(I3
S'|'
p195
NNNI4
I1
I0
tp196
bS'long'
p197
tp198
Rp199
I29
I1
tp200
a(g4
(g5
(S'S3'
p201
I0
I1
tp202
Rp203
(I3
S'|'
p204
NNNI3
I1
I0
tp205
bS'red'
p206
tp207
Rp208
I5
I1
tp209
a(g208
I14
I1
tp210
a(g208
I8
I1
tp211
a(g208
I15
I1
tp212
a(g208
I1
I1
tp213
a(g208
I30
I1
tp214
a(g208
I29
I1
tp215
a(g208
I31
I1
tp216
a(g4
(g5
(S'S5'
p217
I0
I1
tp218
Rp219
(I3
S'|'
p220
NNNI5
I1
I0
tp221
bS'white'
p222
tp223
Rp224
I5
I0
tp225
a(g224
I14
I0
tp226
a(g224
I8
I0
tp227
a(g224
I15
I0
tp228
a(g224
I1
I0
tp229
a(g224
I30
I0
tp230
a(g224
I29
I0
tp231
a(g224
I31
I0
tp232
a(g4
(g5
(S'S5'
p233
I0
I1
tp234
Rp235
(I3
S'|'
p236
NNNI5
I1
I0
tp237
bS'block'
p238
tp239
Rp240
I5
I0
tp241
a(g240
I14
I0
tp242
a(g240
I8
I0
tp243
a(g240
I15
I0
tp244
a(g240
I1
I0
tp245
a(g240
I30
I0
tp246
a(g240
I29
I0
tp247
a(g240
I31
I0
tp248
a(g4
(g5
(S'S9'
p249
I0
I1
tp250
Rp251
(I3
S'|'
p252
NNNI9
I1
I0
tp253
bS'styrofoam'
p254
tp255
Rp256
I30
I1
tp257
a(g4
(g5
(S'S5'
p258
I0
I1
tp259
Rp260
(I3
S'|'
p261
NNNI5
I1
I0
tp262
bS'spice'
p263
tp264
Rp265
I5
I0
tp266
a(g265
I14
I0
tp267
a(g265
I8
I0
tp268
a(g265
I15
I0
tp269
a(g265
I1
I0
tp270
a(g265
I30
I0
tp271
a(g265
I29
I0
tp272
a(g265
I31
I0
tp273
a(g4
(g5
(S'S6'
p274
I0
I1
tp275
Rp276
(I3
S'|'
p277
NNNI6
I1
I0
tp278
bS'column'
p279
tp280
Rp281
I14
I1
tp282
aa(lp283
(S'person'
p284
S'can'
p285
I01
tp286
a(S'p'
p287
S'body'
p288
I01
tp289
aa.