(lp0
(lp1
(dp2
S'action'
p3
cnumpy.core.multiarray
scalar
p4
(cnumpy
dtype
p5
(S'S4'
p6
I0
I1
tp7
Rp8
(I3
S'|'
p9
NNNI4
I1
I0
tp10
bS'walk'
p11
tp12
Rp13
sS'recipient'
p14
NsS'patient'
p15
NsS'goal'
p16
g4
(g5
(S'S4'
p17
I0
I1
tp18
Rp19
(I3
S'|'
p20
NNNI4
I1
I0
tp21
bS'3502'
p22
tp23
Rp24
sS'source'
p25
Nsa(dp26
g3
g4
(g5
(S'S5'
p27
I0
I1
tp28
Rp29
(I3
S'|'
p30
NNNI5
I1
I0
tp31
bS'bring'
p32
tp33
Rp34
sg14
g4
(g5
(S'S1'
p35
I0
I1
tp36
Rp37
(I3
S'|'
p38
NNNI1
I1
I0
tp39
bS'm'
p40
tp41
Rp42
sg15
g4
(g5
(S'S7'
p43
I0
I1
tp44
Rp45
(I3
S'|'
p46
NNNI7
I1
I0
tp47
bS'oidx_12'
p48
tp49
Rp50
sg16
Nsg25
Nsa(dp51
g3
g4
(g5
(S'S4'
p52
I0
I1
tp53
Rp54
(I3
S'|'
p55
NNNI4
I1
I0
tp56
bS'move'
p57
tp58
Rp59
sg14
Nsg15
g4
(g5
(S'S7'
p60
I0
I1
tp61
Rp62
(I3
S'|'
p63
NNNI7
I1
I0
tp64
bS'oidx_25'
p65
tp66
Rp67
sg16
S'3506'
p68
sg25
g4
(g5
(S'S4'
p69
I0
I1
tp70
Rp71
(I3
S'|'
p72
NNNI4
I1
I0
tp73
bS'3404'
p74
tp75
Rp76
saa(lp77
(dp78
S'all'
p79
(lp80
S"go to mallory 's office"
p81
asg15
(lp82
sg16
(lp83
sg25
(lp84
sg3
(lp85
sg14
(lp86
sa(dp87
g79
(lp88
S'give white cylinder to mallory'
p89
asg15
(lp90
S'white tub'
p91
aS'white cylinder'
p92
aS'white container'
p93
asg16
(lp94
sg25
(lp95
sg3
(lp96
sg14
(lp97
S'mallory'
p98
asa(dp99
g79
(lp100
S"move spices from nancy 's office to the printer"
p101
asg15
(lp102
S'spices'
p103
aS'spice jar'
p104
aS'little container'
p105
aS'small container'
p106
asg16
(lp107
S'printer'
p108
aS'printer'
p109
aS'printer'
p110
aS''
p111
aS'printer'
p112
aS'middle printer'
p113
aS'middle printer'
p114
aS'printer by the lab'
p115
asg25
(lp116
S"nancy 's office"
p117
aS"nancy 's office"
p118
aS"nancy 's office"
p119
asg3
(lp120
sg14
(lp121
saa(lp122
(g4
(g5
(S'S4'
p123
I0
I1
tp124
Rp125
(I3
S'|'
p126
NNNI4
I1
I0
tp127
bS'blue'
p128
tp129
Rp130
I30
I0
tp131
a(g4
(g5
(S'S4'
p132
I0
I1
tp133
Rp134
(I3
S'|'
p135
NNNI4
I1
I0
tp136
bS'long'
p137
tp138
Rp139
I1
I0
tp140
a(g4
(g5
(S'S6'
p141
I0
I1
tp142
Rp143
(I3
S'|'
p144
NNNI6
I1
I0
tp145
bS'column'
p146
tp147
Rp148
I31
I0
tp149
a(g4
(g5
(S'S5'
p150
I0
I1
tp151
Rp152
(I3
S'|'
p153
NNNI5
I1
I0
tp154
bS'small'
p155
tp156
Rp157
I30
I0
tp158
a(g4
(g5
(S'S3'
p159
I0
I1
tp160
Rp161
(I3
S'|'
p162
NNNI3
I1
I0
tp163
bS'can'
p164
tp165
Rp166
I8
I1
tp167
a(g4
(g5
(S'S8'
p168
I0
I1
tp169
Rp170
(I3
S'|'
p171
NNNI8
I1
I0
tp172
bS'cylinder'
p173
tp174
Rp175
I5
I1
tp176
a(g4
(g5
(S'S8'
p177
I0
I1
tp178
Rp179
(I3
S'|'
p180
NNNI8
I1
I0
tp181
bS'cylinder'
p182
tp183
Rp184
I5
I1
tp185
a(g4
(g5
(S'S8'
p186
I0
I1
tp187
Rp188
(I3
S'|'
p189
NNNI8
I1
I0
tp190
bS'cylinder'
p191
tp192
Rp193
I30
I1
tp194
a(g4
(g5
(S'S8'
p195
I0
I1
tp196
Rp197
(I3
S'|'
p198
NNNI8
I1
I0
tp199
bS'cylinder'
p200
tp201
Rp202
I29
I0
tp203
a(g4
(g5
(S'S8'
p204
I0
I1
tp205
Rp206
(I3
S'|'
p207
NNNI8
I1
I0
tp208
bS'cylinder'
p209
tp210
Rp211
I15
I1
tp212
a(g4
(g5
(S'S9'
p213
I0
I1
tp214
Rp215
(I3
S'|'
p216
NNNI9
I1
I0
tp217
bS'rectangle'
p218
tp219
Rp220
I5
I0
tp221
a(g220
I14
I0
tp222
a(g220
I8
I0
tp223
a(g220
I15
I0
tp224
a(g220
I1
I0
tp225
a(g220
I30
I0
tp226
a(g220
I29
I0
tp227
a(g220
I31
I0
tp228
a(g4
(g5
(S'S5'
p229
I0
I1
tp230
Rp231
(I3
S'|'
p232
NNNI5
I1
I0
tp233
bS'empty'
p234
tp235
Rp236
I8
I1
tp237
a(g4
(g5
(S'S9'
p238
I0
I1
tp239
Rp240
(I3
S'|'
p241
NNNI9
I1
I0
tp242
bS'container'
p243
tp244
Rp245
I29
I1
tp246
a(g4
(g5
(S'S5'
p247
I0
I1
tp248
Rp249
(I3
S'|'
p250
NNNI5
I1
I0
tp251
bS'tower'
p252
tp253
Rp254
I5
I1
tp255
a(g4
(g5
(S'S5'
p256
I0
I1
tp257
Rp258
(I3
S'|'
p259
NNNI5
I1
I0
tp260
bS'small'
p261
tp262
Rp263
I14
I1
tp264
aa(lp265
(S'little'
p266
S'your'
p267
I00
tp268
aa.