(lp0
(lp1
(dp2
S'action'
p3
cnumpy.core.multiarray
scalar
p4
(cnumpy
dtype
p5
(S'S4'
p6
I0
I1
tp7
Rp8
(I3
S'|'
p9
NNNI4
I1
I0
tp10
bS'move'
p11
tp12
Rp13
sS'recipient'
p14
NsS'patient'
p15
S'oidx_28'
p16
sS'goal'
p17
S'3430'
p18
sS'source'
p19
S'3410'
p20
sa(dp21
g3
g4
(g5
(S'S4'
p22
I0
I1
tp23
Rp24
(I3
S'|'
p25
NNNI4
I1
I0
tp26
bS'move'
p27
tp28
Rp29
sg14
Nsg15
S'oidx_25'
p30
sg17
S'3508'
p31
sg19
S'3516'
p32
sa(dp33
g3
g4
(g5
(S'S4'
p34
I0
I1
tp35
Rp36
(I3
S'|'
p37
NNNI4
I1
I0
tp38
bS'move'
p39
tp40
Rp41
sg14
Nsg15
S'oidx_13'
p42
sg17
g32
sg19
S'3424'
p43
saa(lp44
(dp45
S'all'
p46
(lp47
S'check whether walter is there at his desk'
p48
asg15
(lp49
sg17
(lp50
S'm'
p51
aS'lab'
p52
asg19
(lp53
S'move file from office s to office w'
p54
asg3
(lp55
sg14
(lp56
sa(dp57
g46
(lp58
S'get the box of chips'
p59
asg15
(lp60
S'file'
p61
asg17
(lp62
S'lab'
p63
aS'lounge'
p64
aS'lounge'
p65
asg19
(lp66
sg3
(lp67
sg14
(lp68
sa(dp69
g46
(lp70
S'move object from pod in the pink map to pod in the green map'
p71
asg15
(lp72
S'can'
p73
aS'pod'
p74
asg17
(lp75
S'pod'
p76
asg19
(lp77
S'pod'
p78
asg3
(lp79
sg14
(lp80
saa(lp81
(g4
(g5
(S'S5'
p82
I0
I1
tp83
Rp84
(I3
S'|'
p85
NNNI5
I1
I0
tp86
bS'clear'
p87
tp88
Rp89
I5
I0
tp90
a(g89
I14
I0
tp91
a(g89
I8
I0
tp92
a(g89
I15
I0
tp93
a(g89
I1
I0
tp94
a(g89
I30
I0
tp95
a(g89
I29
I0
tp96
a(g89
I31
I0
tp97
a(g4
(g5
(S'S5'
p98
I0
I1
tp99
Rp100
(I3
S'|'
p101
NNNI5
I1
I0
tp102
bS'small'
p103
tp104
Rp105
I30
I0
tp106
a(g4
(g5
(S'S6'
p107
I0
I1
tp108
Rp109
(I3
S'|'
p110
NNNI6
I1
I0
tp111
bS'coffee'
p112
tp113
Rp114
I30
I1
tp115
a(g4
(g5
(S'S3'
p116
I0
I1
tp117
Rp118
(I3
S'|'
p119
NNNI3
I1
I0
tp120
bS'red'
p121
tp122
Rp123
I8
I0
tp124
a(g4
(g5
(S'S6'
p125
I0
I1
tp126
Rp127
(I3
S'|'
p128
NNNI6
I1
I0
tp129
bS'yellow'
p130
tp131
Rp132
I29
I1
tp133
a(g4
(g5
(S'S9'
p134
I0
I1
tp135
Rp136
(I3
S'|'
p137
NNNI9
I1
I0
tp138
bS'container'
p139
tp140
Rp141
I8
I1
tp142
a(g4
(g5
(S'S9'
p143
I0
I1
tp144
Rp145
(I3
S'|'
p146
NNNI9
I1
I0
tp147
bS'container'
p148
tp149
Rp150
I5
I0
tp151
a(g150
I14
I0
tp152
a(g150
I8
I0
tp153
a(g150
I15
I0
tp154
a(g150
I1
I0
tp155
a(g150
I30
I0
tp156
a(g150
I29
I0
tp157
a(g150
I31
I0
tp158
a(g4
(g5
(S'S9'
p159
I0
I1
tp160
Rp161
(I3
S'|'
p162
NNNI9
I1
I0
tp163
bS'styrofoam'
p164
tp165
Rp166
I31
I0
tp167
a(g4
(g5
(S'S4'
p168
I0
I1
tp169
Rp170
(I3
S'|'
p171
NNNI4
I1
I0
tp172
bS'blue'
p173
tp174
Rp175
I8
I0
tp176
a(g4
(g5
(S'S5'
p177
I0
I1
tp178
Rp179
(I3
S'|'
p180
NNNI5
I1
I0
tp181
bS'small'
p182
tp183
Rp184
I14
I1
tp185
a(g4
(g5
(S'S6'
p186
I0
I1
tp187
Rp188
(I3
S'|'
p189
NNNI6
I1
I0
tp190
bS'yellow'
p191
tp192
Rp193
I31
I1
tp194
a(g4
(g5
(S'S3'
p195
I0
I1
tp196
Rp197
(I3
S'|'
p198
NNNI3
I1
I0
tp199
bS'can'
p200
tp201
Rp202
I5
I1
tp203
a(g4
(g5
(S'S3'
p204
I0
I1
tp205
Rp206
(I3
S'|'
p207
NNNI3
I1
I0
tp208
bS'red'
p209
tp210
Rp211
I1
I1
tp212
a(g4
(g5
(S'S4'
p213
I0
I1
tp214
Rp215
(I3
S'|'
p216
NNNI4
I1
I0
tp217
bS'bean'
p218
tp219
Rp220
I5
I0
tp221
a(g220
I14
I0
tp222
a(g220
I8
I0
tp223
a(g220
I15
I0
tp224
a(g220
I1
I0
tp225
a(g220
I30
I0
tp226
a(g220
I29
I0
tp227
a(g220
I31
I0
tp228
a(g4
(g5
(S'S6'
p229
I0
I1
tp230
Rp231
(I3
S'|'
p232
NNNI6
I1
I0
tp233
bS'column'
p234
tp235
Rp236
I14
I0
tp237
aa(lp238
(g51
S'body'
p239
I00
tp240
a(g51
S'food'
p241
I00
tp242
a(S'box'
p243
g4
(g5
(S'S6'
p244
I0
I1
tp245
Rp246
(I3
S'|'
p247
NNNI6
I1
I0
tp248
bS'object'
p249
tp250
Rp251
I01
tp252
a(S'pink'
p253
S'yellow'
p254
I00
tp255
a(g253
S'blue'
p256
I01
tp257
a(S'map'
p258
g256
I00
tp259
a(S'green'
p260
g254
I01
tp261
aa.