(lp0
(lp1
(dp2
S'action'
p3
cnumpy.core.multiarray
scalar
p4
(cnumpy
dtype
p5
(S'S5'
p6
I0
I1
tp7
Rp8
(I3
S'|'
p9
NNNI5
I1
I0
tp10
bS'bring'
p11
tp12
Rp13
sS'recipient'
p14
S'b'
p15
sS'patient'
p16
S'oidx_22'
p17
sS'goal'
p18
NsS'source'
p19
Nsa(dp20
g3
g4
(g5
(S'S4'
p21
I0
I1
tp22
Rp23
(I3
S'|'
p24
NNNI4
I1
I0
tp25
bS'walk'
p26
tp27
Rp28
sg14
Nsg16
Nsg18
S'3404'
p29
sg19
Nsaa(lp30
(dp31
S'all'
p32
(lp33
S'hi'
p34
asg16
(lp35
S'yes'
p36
aS'yes'
p37
asg18
(lp38
sg19
(lp39
sg3
(lp40
sg14
(lp41
sa(dp42
g32
(lp43
S'move the chass'
p44
asg16
(lp45
sg18
(lp46
S'delivery'
p47
aS'ok'
p48
aS'deliver'
p49
aS'yes'
p50
aS'deliver'
p51
aS'to deliver a product'
p52
aS'yes'
p53
aS'deliver'
p54
aS''
p55
aS'yes'
p56
ag55
asg19
(lp57
sg3
(lp58
sg14
(lp59
saa(lp60
(g4
(g5
(S'S9'
p61
I0
I1
tp62
Rp63
(I3
S'|'
p64
NNNI9
I1
I0
tp65
bS'container'
p66
tp67
Rp68
I1
I1
tp69
a(g4
(g5
(S'S9'
p70
I0
I1
tp71
Rp72
(I3
S'|'
p73
NNNI9
I1
I0
tp74
bS'container'
p75
tp76
Rp77
I15
I1
tp78
a(g4
(g5
(S'S9'
p79
I0
I1
tp80
Rp81
(I3
S'|'
p82
NNNI9
I1
I0
tp83
bS'container'
p84
tp85
Rp86
I31
I1
tp87
a(g4
(g5
(S'S9'
p88
I0
I1
tp89
Rp90
(I3
S'|'
p91
NNNI9
I1
I0
tp92
bS'container'
p93
tp94
Rp95
I31
I1
tp96
a(g4
(g5
(S'S9'
p97
I0
I1
tp98
Rp99
(I3
S'|'
p100
NNNI9
I1
I0
tp101
bS'container'
p102
tp103
Rp104
I30
I1
tp105
a(g4
(g5
(S'S9'
p106
I0
I1
tp107
Rp108
(I3
S'|'
p109
NNNI9
I1
I0
tp110
bS'container'
p111
tp112
Rp113
I8
I1
tp114
a(g4
(g5
(S'S9'
p115
I0
I1
tp116
Rp117
(I3
S'|'
p118
NNNI9
I1
I0
tp119
bS'container'
p120
tp121
Rp122
I14
I1
tp123
a(g4
(g5
(S'S9'
p124
I0
I1
tp125
Rp126
(I3
S'|'
p127
NNNI9
I1
I0
tp128
bS'container'
p129
tp130
Rp131
I5
I1
tp132
a(g4
(g5
(S'S9'
p133
I0
I1
tp134
Rp135
(I3
S'|'
p136
NNNI9
I1
I0
tp137
bS'container'
p138
tp139
Rp140
I29
I1
tp141
a(g4
(g5
(S'S5'
p142
I0
I1
tp143
Rp144
(I3
S'|'
p145
NNNI5
I1
I0
tp146
bS'tower'
p147
tp148
Rp149
I15
I1
tp150
aa(lp151
(g34
S'body'
p152
I01
tp153
a(g47
S'container'
p154
I01
tp155
a(g48
g152
I01
tp156
a(S'product'
p157
g154
I00
tp158
a(g157
S'canister'
p159
I00
tp160
aa.