(lp0
(lp1
(dp2
S'action'
p3
cnumpy.core.multiarray
scalar
p4
(cnumpy
dtype
p5
(S'S4'
p6
I0
I1
tp7
Rp8
(I3
S'|'
p9
NNNI4
I1
I0
tp10
bS'walk'
p11
tp12
Rp13
sS'recipient'
p14
NsS'patient'
p15
NsS'goal'
p16
S'3514'
p17
sS'source'
p18
Nsa(dp19
g3
g4
(g5
(S'S4'
p20
I0
I1
tp21
Rp22
(I3
S'|'
p23
NNNI4
I1
I0
tp24
bS'move'
p25
tp26
Rp27
sg14
Nsg15
g4
(g5
(S'S7'
p28
I0
I1
tp29
Rp30
(I3
S'|'
p31
NNNI7
I1
I0
tp32
bS'oidx_22'
p33
tp34
Rp35
sg16
S'3422'
p36
sg18
g17
saa(lp37
(dp38
S'all'
p39
(lp40
S'move to lounge'
p41
asg15
(lp42
sg16
(lp43
S'go to lounge'
p44
asg18
(lp45
sg3
(lp46
sg14
(lp47
sa(dp48
g39
(lp49
S'take object'
p50
asg15
(lp51
S'move to cylinder'
p52
aS'its object'
p53
asg16
(lp54
S'green color map'
p55
asg18
(lp56
sg3
(lp57
sg14
(lp58
saa(lp59
(g4
(g5
(S'S4'
p60
I0
I1
tp61
Rp62
(I3
S'|'
p63
NNNI4
I1
I0
tp64
bS'long'
p65
tp66
Rp67
I14
I0
tp68
a(g4
(g5
(S'S4'
p69
I0
I1
tp70
Rp71
(I3
S'|'
p72
NNNI4
I1
I0
tp73
bS'bean'
p74
tp75
Rp76
I5
I0
tp77
a(g76
I14
I0
tp78
a(g76
I8
I0
tp79
a(g76
I15
I0
tp80
a(g76
I1
I0
tp81
a(g76
I30
I0
tp82
a(g76
I29
I0
tp83
a(g76
I31
I0
tp84
a(g4
(g5
(S'S8'
p85
I0
I1
tp86
Rp87
(I3
S'|'
p88
NNNI8
I1
I0
tp89
bS'cylinder'
p90
tp91
Rp92
I5
I0
tp93
a(g92
I14
I0
tp94
a(g92
I8
I0
tp95
a(g92
I15
I0
tp96
a(g92
I1
I0
tp97
a(g92
I30
I0
tp98
a(g92
I29
I0
tp99
a(g92
I31
I0
tp100
a(g4
(g5
(S'S6'
p101
I0
I1
tp102
Rp103
(I3
S'|'
p104
NNNI6
I1
I0
tp105
bS'coffee'
p106
tp107
Rp108
I5
I0
tp109
a(g108
I14
I0
tp110
a(g108
I8
I0
tp111
a(g108
I15
I0
tp112
a(g108
I1
I0
tp113
a(g108
I30
I0
tp114
a(g108
I29
I0
tp115
a(g108
I31
I0
tp116
a(g4
(g5
(S'S6'
p117
I0
I1
tp118
Rp119
(I3
S'|'
p120
NNNI6
I1
I0
tp121
bS'column'
p122
tp123
Rp124
I31
I1
tp125
a(g4
(g5
(S'S9'
p126
I0
I1
tp127
Rp128
(I3
S'|'
p129
NNNI9
I1
I0
tp130
bS'container'
p131
tp132
Rp133
I5
I0
tp134
a(g133
I14
I0
tp135
a(g133
I8
I0
tp136
a(g133
I15
I0
tp137
a(g133
I1
I0
tp138
a(g133
I30
I0
tp139
a(g133
I29
I0
tp140
a(g133
I31
I0
tp141
a(g4
(g5
(S'S3'
p142
I0
I1
tp143
Rp144
(I3
S'|'
p145
NNNI3
I1
I0
tp146
bS'can'
p147
tp148
Rp149
I29
I1
tp150
a(g4
(g5
(S'S6'
p151
I0
I1
tp152
Rp153
(I3
S'|'
p154
NNNI6
I1
I0
tp155
bS'column'
p156
tp157
Rp158
I15
I0
tp159
a(g4
(g5
(S'S5'
p160
I0
I1
tp161
Rp162
(I3
S'|'
p163
NNNI5
I1
I0
tp164
bS'brown'
p165
tp166
Rp167
I5
I1
tp168
a(g167
I14
I1
tp169
a(g167
I8
I1
tp170
a(g167
I15
I1
tp171
a(g167
I1
I1
tp172
a(g167
I30
I1
tp173
a(g167
I29
I1
tp174
a(g167
I31
I1
tp175
a(g4
(g5
(S'S4'
p176
I0
I1
tp177
Rp178
(I3
S'|'
p179
NNNI4
I1
I0
tp180
bS'long'
p181
tp182
Rp183
I1
I1
tp184
aa(lp185
(S'green'
p186
S'yellow'
p187
I00
tp188
a(g186
S'blue'
p189
I00
tp190
a(g186
S'color'
p191
I01
tp192
a(S'map'
p193
g189
I00
tp194
aa.