(lp0
(lp1
(dp2
S'action'
p3
cnumpy.core.multiarray
scalar
p4
(cnumpy
dtype
p5
(S'S5'
p6
I0
I1
tp7
Rp8
(I3
S'|'
p9
NNNI5
I1
I0
tp10
bS'bring'
p11
tp12
Rp13
sS'recipient'
p14
g4
(g5
(S'S1'
p15
I0
I1
tp16
Rp17
(I3
S'|'
p18
NNNI1
I1
I0
tp19
bS'n'
p20
tp21
Rp22
sS'patient'
p23
S'oidx_11'
p24
sS'goal'
p25
NsS'source'
p26
Nsa(dp27
g3
g4
(g5
(S'S4'
p28
I0
I1
tp29
Rp30
(I3
S'|'
p31
NNNI4
I1
I0
tp32
bS'walk'
p33
tp34
Rp35
sg14
Nsg23
Nsg25
g4
(g5
(S'S4'
p36
I0
I1
tp37
Rp38
(I3
S'|'
p39
NNNI4
I1
I0
tp40
bS'3404'
p41
tp42
Rp43
sg26
Nsaa(lp44
(dp45
S'all'
p46
(lp47
S'go to nancy'
p48
asg23
(lp49
S'a copy of an email'
p50
aS'a tin can'
p51
asg25
(lp52
sg26
(lp53
sg3
(lp54
sg14
(lp55
sa(dp56
g46
(lp57
S'take the long blue cylinder to nancy'
p58
asg23
(lp59
sg25
(lp60
S'nancy'
p61
aS'go to nancy'
p62
aS"go to nancy 's office"
p63
asg26
(lp64
sg3
(lp65
sg14
(lp66
saa(lp67
(g4
(g5
(S'S5'
p68
I0
I1
tp69
Rp70
(I3
S'|'
p71
NNNI5
I1
I0
tp72
bS'brown'
p73
tp74
Rp75
I5
I1
tp76
a(g75
I14
I1
tp77
a(g75
I8
I1
tp78
a(g75
I15
I1
tp79
a(g75
I1
I1
tp80
a(g75
I30
I1
tp81
a(g75
I29
I1
tp82
a(g75
I31
I1
tp83
a(g4
(g5
(S'S3'
p84
I0
I1
tp85
Rp86
(I3
S'|'
p87
NNNI3
I1
I0
tp88
bS'can'
p89
tp90
Rp91
I15
I1
tp92
a(g4
(g5
(S'S4'
p93
I0
I1
tp94
Rp95
(I3
S'|'
p96
NNNI4
I1
I0
tp97
bS'long'
p98
tp99
Rp100
I8
I0
tp101
a(g4
(g5
(S'S3'
p102
I0
I1
tp103
Rp104
(I3
S'|'
p105
NNNI3
I1
I0
tp106
bS'can'
p107
tp108
Rp109
I30
I0
tp110
a(g4
(g5
(S'S6'
p111
I0
I1
tp112
Rp113
(I3
S'|'
p114
NNNI6
I1
I0
tp115
bS'column'
p116
tp117
Rp118
I14
I0
tp119
a(g4
(g5
(S'S8'
p120
I0
I1
tp121
Rp122
(I3
S'|'
p123
NNNI8
I1
I0
tp124
bS'metallic'
p125
tp126
Rp127
I8
I1
tp128
a(g4
(g5
(S'S5'
p129
I0
I1
tp130
Rp131
(I3
S'|'
p132
NNNI5
I1
I0
tp133
bS'tower'
p134
tp135
Rp136
I5
I0
tp137
a(g136
I14
I0
tp138
a(g136
I8
I0
tp139
a(g136
I15
I0
tp140
a(g136
I1
I0
tp141
a(g136
I30
I0
tp142
a(g136
I29
I0
tp143
a(g136
I31
I0
tp144
a(g4
(g5
(S'S4'
p145
I0
I1
tp146
Rp147
(I3
S'|'
p148
NNNI4
I1
I0
tp149
bS'blue'
p150
tp151
Rp152
I8
I0
tp153
a(g4
(g5
(S'S9'
p154
I0
I1
tp155
Rp156
(I3
S'|'
p157
NNNI9
I1
I0
tp158
bS'styrofoam'
p159
tp160
Rp161
I30
I0
tp162
a(g4
(g5
(S'S4'
p163
I0
I1
tp164
Rp165
(I3
S'|'
p166
NNNI4
I1
I0
tp167
bS'blue'
p168
tp169
Rp170
I14
I0
tp171
aa(lp172
(S'tin'
p173
S'bean'
p174
I00
tp175
a(g173
S'container'
p176
I00
tp177
a(g173
S'metallic'
p178
I01
tp179
aa.