(lp0
(lp1
(dp2
S'action'
p3
cnumpy.core.multiarray
scalar
p4
(cnumpy
dtype
p5
(S'S4'
p6
I0
I1
tp7
Rp8
(I3
S'|'
p9
NNNI4
I1
I0
tp10
bS'walk'
p11
tp12
Rp13
sS'recipient'
p14
NsS'patient'
p15
NsS'goal'
p16
g4
(g5
(S'S4'
p17
I0
I1
tp18
Rp19
(I3
S'|'
p20
NNNI4
I1
I0
tp21
bS'3510'
p22
tp23
Rp24
sS'source'
p25
Nsa(dp26
g3
g4
(g5
(S'S4'
p27
I0
I1
tp28
Rp29
(I3
S'|'
p30
NNNI4
I1
I0
tp31
bS'walk'
p32
tp33
Rp34
sg14
Nsg15
Nsg16
g4
(g5
(S'S4'
p35
I0
I1
tp36
Rp37
(I3
S'|'
p38
NNNI4
I1
I0
tp39
bS'3402'
p40
tp41
Rp42
sg25
Nsa(dp43
g3
g4
(g5
(S'S4'
p44
I0
I1
tp45
Rp46
(I3
S'|'
p47
NNNI4
I1
I0
tp48
bS'move'
p49
tp50
Rp51
sg14
Nsg15
g4
(g5
(S'S7'
p52
I0
I1
tp53
Rp54
(I3
S'|'
p55
NNNI7
I1
I0
tp56
bS'oidx_13'
p57
tp58
Rp59
sg16
S'3414a'
p60
sg25
g4
(g5
(S'S4'
p61
I0
I1
tp62
Rp63
(I3
S'|'
p64
NNNI4
I1
I0
tp65
bS'3402'
p66
tp67
Rp68
saa(lp69
(dp70
S'all'
p71
(lp72
S'go to the office between richard rogue and peggy parker'
p73
asg15
(lp74
sg16
(lp75
S"bob brown 's office"
p76
asg25
(lp77
sg3
(lp78
sg14
(lp79
sa(dp80
g71
(lp81
S'take this to dr heidi hughes'
p82
asg15
(lp83
sg16
(lp84
S"dr heidi hughes 's office"
p85
asg25
(lp86
sg3
(lp87
sg14
(lp88
sa(dp89
g71
(lp90
S'take the pringles can to the lab across from bob browns office'
p91
asg15
(lp92
S"pringle 's can"
p93
aS'pringles'
p94
aS'pringles can'
p95
aS'pringles'
p96
asg16
(lp97
S"take the prengle 's can from dr heidi hughes 's office and move it to the lab across from robert brown 's office"
p98
aS"move something from heidi hughes 's office to the lab across from robert brown 's office"
p99
aS'move something from heidi hughes office to the lab'
p100
asg25
(lp101
S"take the pringle 's can to bob brown 's offi e"
p102
aS'move it from heidi hughes office'
p103
aS'heidi hughes office'
p104
aS'heidi hughes office'
p105
asg3
(lp106
sg14
(lp107
saa(lp108
(g4
(g5
(S'S5'
p109
I0
I1
tp110
Rp111
(I3
S'|'
p112
NNNI5
I1
I0
tp113
bS'clear'
p114
tp115
Rp116
I5
I0
tp117
a(g116
I14
I0
tp118
a(g116
I8
I0
tp119
a(g116
I15
I0
tp120
a(g116
I1
I0
tp121
a(g116
I30
I0
tp122
a(g116
I29
I0
tp123
a(g116
I31
I0
tp124
a(g4
(g5
(S'S5'
p125
I0
I1
tp126
Rp127
(I3
S'|'
p128
NNNI5
I1
I0
tp129
bS'tower'
p130
tp131
Rp132
I5
I0
tp133
a(g132
I14
I0
tp134
a(g132
I8
I0
tp135
a(g132
I15
I0
tp136
a(g132
I1
I0
tp137
a(g132
I30
I0
tp138
a(g132
I29
I0
tp139
a(g132
I31
I0
tp140
a(g4
(g5
(S'S4'
p141
I0
I1
tp142
Rp143
(I3
S'|'
p144
NNNI4
I1
I0
tp145
bS'long'
p146
tp147
Rp148
I31
I0
tp149
a(g4
(g5
(S'S5'
p150
I0
I1
tp151
Rp152
(I3
S'|'
p153
NNNI5
I1
I0
tp154
bS'empty'
p155
tp156
Rp157
I8
I1
tp158
a(g4
(g5
(S'S4'
p159
I0
I1
tp160
Rp161
(I3
S'|'
p162
NNNI4
I1
I0
tp163
bS'blue'
p164
tp165
Rp166
I30
I0
tp167
a(g4
(g5
(S'S3'
p168
I0
I1
tp169
Rp170
(I3
S'|'
p171
NNNI3
I1
I0
tp172
bS'red'
p173
tp174
Rp175
I8
I0
tp176
a(g4
(g5
(S'S5'
p177
I0
I1
tp178
Rp179
(I3
S'|'
p180
NNNI5
I1
I0
tp181
bS'small'
p182
tp183
Rp184
I5
I1
tp185
a(g184
I14
I1
tp186
a(g184
I8
I1
tp187
a(g184
I15
I1
tp188
a(g184
I1
I1
tp189
a(g184
I30
I1
tp190
a(g184
I29
I1
tp191
a(g184
I31
I1
tp192
a(g4
(g5
(S'S8'
p193
I0
I1
tp194
Rp195
(I3
S'|'
p196
NNNI8
I1
I0
tp197
bS'pringles'
p198
tp199
Rp200
I5
I0
tp201
a(g200
I14
I0
tp202
a(g200
I8
I0
tp203
a(g200
I15
I0
tp204
a(g200
I1
I0
tp205
a(g200
I30
I0
tp206
a(g200
I29
I0
tp207
a(g200
I31
I0
tp208
a(g4
(g5
(S'S6'
p209
I0
I1
tp210
Rp211
(I3
S'|'
p212
NNNI6
I1
I0
tp213
bS'column'
p214
tp215
Rp216
I31
I0
tp217
a(g4
(g5
(S'S6'
p218
I0
I1
tp219
Rp220
(I3
S'|'
p221
NNNI6
I1
I0
tp222
bS'coffee'
p223
tp224
Rp225
I30
I1
tp226
a(g4
(g5
(S'S3'
p227
I0
I1
tp228
Rp229
(I3
S'|'
p230
NNNI3
I1
I0
tp231
bS'can'
p232
tp233
Rp234
I29
I0
tp235
a(g4
(g5
(S'S3'
p236
I0
I1
tp237
Rp238
(I3
S'|'
p239
NNNI3
I1
I0
tp240
bS'red'
p241
tp242
Rp243
I1
I1
tp244
a(g4
(g5
(S'S5'
p245
I0
I1
tp246
Rp247
(I3
S'|'
p248
NNNI5
I1
I0
tp249
bS'brown'
p250
tp251
Rp252
I8
I0
tp253
a(g4
(g5
(S'S5'
p254
I0
I1
tp255
Rp256
(I3
S'|'
p257
NNNI5
I1
I0
tp258
bS'spice'
p259
tp260
Rp261
I5
I0
tp262
a(g261
I14
I0
tp263
a(g261
I8
I0
tp264
a(g261
I15
I0
tp265
a(g261
I1
I0
tp266
a(g261
I30
I0
tp267
a(g261
I29
I0
tp268
a(g261
I31
I0
tp269
a(g4
(g5
(S'S5'
p270
I0
I1
tp271
Rp272
(I3
S'|'
p273
NNNI5
I1
I0
tp274
bS'block'
p275
tp276
Rp277
I5
I0
tp278
a(g277
I14
I0
tp279
a(g277
I8
I0
tp280
a(g277
I15
I0
tp281
a(g277
I1
I0
tp282
a(g277
I30
I0
tp283
a(g277
I29
I0
tp284
a(g277
I31
I0
tp285
aa(lp286
a.