(lp0
(lp1
(dp2
S'action'
p3
cnumpy.core.multiarray
scalar
p4
(cnumpy
dtype
p5
(S'S4'
p6
I0
I1
tp7
Rp8
(I3
S'|'
p9
NNNI4
I1
I0
tp10
bS'move'
p11
tp12
Rp13
sS'recipient'
p14
NsS'patient'
p15
S'oidx_26'
p16
sS'goal'
p17
S'3422'
p18
sS'source'
p19
g4
(g5
(S'S4'
p20
I0
I1
tp21
Rp22
(I3
S'|'
p23
NNNI4
I1
I0
tp24
bS'3520'
p25
tp26
Rp27
saa(lp28
(dp29
S'all'
p30
(lp31
S'get me tea from kitchen'
p32
asg15
(lp33
S'metallic'
p34
asg17
(lp35
S'to w'
p36
aS'move to office'
p37
aS'move it vertically'
p38
aS'vertically upwards'
p39
aS'vertically upwards'
p40
aS'you can move it everywhere until i say stop'
p41
asg19
(lp42
sg3
(lp43
sg14
(lp44
saa(lp45
(g4
(g5
(S'S5'
p46
I0
I1
tp47
Rp48
(I3
S'|'
p49
NNNI5
I1
I0
tp50
bS'white'
p51
tp52
Rp53
I30
I1
tp54
a(g4
(g5
(S'S8'
p55
I0
I1
tp56
Rp57
(I3
S'|'
p58
NNNI8
I1
I0
tp59
bS'metallic'
p60
tp61
Rp62
I8
I1
tp63
a(g4
(g5
(S'S8'
p64
I0
I1
tp65
Rp66
(I3
S'|'
p67
NNNI8
I1
I0
tp68
bS'metallic'
p69
tp70
Rp71
I31
I0
tp72
a(g4
(g5
(S'S9'
p73
I0
I1
tp74
Rp75
(I3
S'|'
p76
NNNI9
I1
I0
tp77
bS'container'
p78
tp79
Rp80
I31
I1
tp81
a(g4
(g5
(S'S3'
p82
I0
I1
tp83
Rp84
(I3
S'|'
p85
NNNI3
I1
I0
tp86
bS'can'
p87
tp88
Rp89
I15
I0
tp90
aa(lp91
a.