(lp0
(lp1
(dp2
S'action'
p3
cnumpy.core.multiarray
scalar
p4
(cnumpy
dtype
p5
(S'S5'
p6
I0
I1
tp7
Rp8
(I3
S'|'
p9
NNNI5
I1
I0
tp10
bS'bring'
p11
tp12
Rp13
sS'recipient'
p14
S'w'
p15
sS'patient'
p16
S'oidx_13'
p17
sS'goal'
p18
NsS'source'
p19
Nsa(dp20
g3
g4
(g5
(S'S5'
p21
I0
I1
tp22
Rp23
(I3
S'|'
p24
NNNI5
I1
I0
tp25
bS'bring'
p26
tp27
Rp28
sg14
S'd'
p29
sg16
S'oidx_12'
p30
sg18
Nsg19
Nsa(dp31
g3
g4
(g5
(S'S4'
p32
I0
I1
tp33
Rp34
(I3
S'|'
p35
NNNI4
I1
I0
tp36
bS'walk'
p37
tp38
Rp39
sg14
Nsg16
Nsg18
S'3404'
p40
sg19
Nsaa(lp41
(dp42
S'all'
p43
(lp44
S'yes'
p45
asg16
(lp46
S'yes'
p47
aS'yes'
p48
aS'yes'
p49
asg18
(lp50
sg19
(lp51
sg3
(lp52
sg14
(lp53
sa(dp54
g43
(lp55
S'yes'
p56
asg16
(lp57
S'yes'
p58
asg18
(lp59
sg19
(lp60
sg3
(lp61
sg14
(lp62
S'yes'
p63
asa(dp64
g43
(lp65
S'yes'
p66
asg16
(lp67
sg18
(lp68
S'yes'
p69
aS'yes'
p70
aS'yes'
p71
asg19
(lp72
sg3
(lp73
sg14
(lp74
saa(lp75
(g4
(g5
(S'S8'
p76
I0
I1
tp77
Rp78
(I3
S'|'
p79
NNNI8
I1
I0
tp80
bS'cylinder'
p81
tp82
Rp83
I14
I1
tp84
a(g4
(g5
(S'S4'
p85
I0
I1
tp86
Rp87
(I3
S'|'
p88
NNNI4
I1
I0
tp89
bS'blue'
p90
tp91
Rp92
I29
I0
tp93
a(g4
(g5
(S'S9'
p94
I0
I1
tp95
Rp96
(I3
S'|'
p97
NNNI9
I1
I0
tp98
bS'container'
p99
tp100
Rp101
I14
I1
tp102
a(g4
(g5
(S'S6'
p103
I0
I1
tp104
Rp105
(I3
S'|'
p106
NNNI6
I1
I0
tp107
bS'yellow'
p108
tp109
Rp110
I14
I1
tp111
a(g4
(g5
(S'S4'
p112
I0
I1
tp113
Rp114
(I3
S'|'
p115
NNNI4
I1
I0
tp116
bS'long'
p117
tp118
Rp119
I14
I1
tp120
a(g4
(g5
(S'S5'
p121
I0
I1
tp122
Rp123
(I3
S'|'
p124
NNNI5
I1
I0
tp125
bS'brown'
p126
tp127
Rp128
I15
I0
tp129
a(g4
(g5
(S'S4'
p130
I0
I1
tp131
Rp132
(I3
S'|'
p133
NNNI4
I1
I0
tp134
bS'blue'
p135
tp136
Rp137
I30
I1
tp138
a(g4
(g5
(S'S4'
p139
I0
I1
tp140
Rp141
(I3
S'|'
p142
NNNI4
I1
I0
tp143
bS'long'
p144
tp145
Rp146
I8
I0
tp147
a(g4
(g5
(S'S6'
p148
I0
I1
tp149
Rp150
(I3
S'|'
p151
NNNI6
I1
I0
tp152
bS'yellow'
p153
tp154
Rp155
I31
I1
tp156
a(g4
(g5
(S'S4'
p157
I0
I1
tp158
Rp159
(I3
S'|'
p160
NNNI4
I1
I0
tp161
bS'blue'
p162
tp163
Rp164
I1
I1
tp165
a(g4
(g5
(S'S5'
p166
I0
I1
tp167
Rp168
(I3
S'|'
p169
NNNI5
I1
I0
tp170
bS'white'
p171
tp172
Rp173
I30
I1
tp174
a(g4
(g5
(S'S3'
p175
I0
I1
tp176
Rp177
(I3
S'|'
p178
NNNI3
I1
I0
tp179
bS'can'
p180
tp181
Rp182
I15
I1
tp183
a(g4
(g5
(S'S3'
p184
I0
I1
tp185
Rp186
(I3
S'|'
p187
NNNI3
I1
I0
tp188
bS'can'
p189
tp190
Rp191
I31
I1
tp192
a(g4
(g5
(S'S9'
p193
I0
I1
tp194
Rp195
(I3
S'|'
p196
NNNI9
I1
I0
tp197
bS'container'
p198
tp199
Rp200
I8
I1
tp201
a(g4
(g5
(S'S5'
p202
I0
I1
tp203
Rp204
(I3
S'|'
p205
NNNI5
I1
I0
tp206
bS'block'
p207
tp208
Rp209
I30
I1
tp210
aa(lp211
a.