(lp0
(lp1
(dp2
S'action'
p3
cnumpy.core.multiarray
scalar
p4
(cnumpy
dtype
p5
(S'S4'
p6
I0
I1
tp7
Rp8
(I3
S'|'
p9
NNNI4
I1
I0
tp10
bS'walk'
p11
tp12
Rp13
sS'recipient'
p14
NsS'patient'
p15
NsS'goal'
p16
g4
(g5
(S'S4'
p17
I0
I1
tp18
Rp19
(I3
S'|'
p20
NNNI4
I1
I0
tp21
bS'3520'
p22
tp23
Rp24
sS'source'
p25
Nsa(dp26
g3
g4
(g5
(S'S5'
p27
I0
I1
tp28
Rp29
(I3
S'|'
p30
NNNI5
I1
I0
tp31
bS'bring'
p32
tp33
Rp34
sg14
g4
(g5
(S'S1'
p35
I0
I1
tp36
Rp37
(I3
S'|'
p38
NNNI1
I1
I0
tp39
bS'b'
p40
tp41
Rp42
sg15
S'oidx_12'
p43
sg16
Nsg25
Nsa(dp44
g3
g4
(g5
(S'S4'
p45
I0
I1
tp46
Rp47
(I3
S'|'
p48
NNNI4
I1
I0
tp49
bS'walk'
p50
tp51
Rp52
sg14
Nsg15
Nsg16
g4
(g5
(S'S4'
p53
I0
I1
tp54
Rp55
(I3
S'|'
p56
NNNI4
I1
I0
tp57
bS'3520'
p58
tp59
Rp60
sg25
Nsaa(lp61
(dp62
S'all'
p63
(lp64
S'take some things'
p65
asg15
(lp66
sg16
(lp67
S'kitchen'
p68
aS'kitchen'
p69
aS'to the kitchen'
p70
asg25
(lp71
sg3
(lp72
sg14
(lp73
sa(dp74
g63
(lp75
S'robert needs can'
p76
asg15
(lp77
S'can'
p78
asg16
(lp79
sg25
(lp80
sg3
(lp81
sg14
(lp82
sa(dp83
g63
(lp84
S'go to kitchen'
p85
asg15
(lp86
sg16
(lp87
sg25
(lp88
sg3
(lp89
sg14
(lp90
saa(lp91
(g4
(g5
(S'S8'
p92
I0
I1
tp93
Rp94
(I3
S'|'
p95
NNNI8
I1
I0
tp96
bS'pringles'
p97
tp98
Rp99
I5
I0
tp100
a(g99
I14
I0
tp101
a(g99
I8
I0
tp102
a(g99
I15
I0
tp103
a(g99
I1
I0
tp104
a(g99
I30
I0
tp105
a(g99
I29
I0
tp106
a(g99
I31
I0
tp107
a(g4
(g5
(S'S5'
p108
I0
I1
tp109
Rp110
(I3
S'|'
p111
NNNI5
I1
I0
tp112
bS'small'
p113
tp114
Rp115
I5
I0
tp116
a(g4
(g5
(S'S3'
p117
I0
I1
tp118
Rp119
(I3
S'|'
p120
NNNI3
I1
I0
tp121
bS'red'
p122
tp123
Rp124
I14
I0
tp125
a(g4
(g5
(S'S5'
p126
I0
I1
tp127
Rp128
(I3
S'|'
p129
NNNI5
I1
I0
tp130
bS'block'
p131
tp132
Rp133
I29
I1
tp134
a(g4
(g5
(S'S9'
p135
I0
I1
tp136
Rp137
(I3
S'|'
p138
NNNI9
I1
I0
tp139
bS'rectangle'
p140
tp141
Rp142
I5
I0
tp143
a(g142
I14
I0
tp144
a(g142
I8
I0
tp145
a(g142
I15
I0
tp146
a(g142
I1
I0
tp147
a(g142
I30
I0
tp148
a(g142
I29
I0
tp149
a(g142
I31
I0
tp150
a(g4
(g5
(S'S3'
p151
I0
I1
tp152
Rp153
(I3
S'|'
p154
NNNI3
I1
I0
tp155
bS'can'
p156
tp157
Rp158
I29
I0
tp159
a(g4
(g5
(S'S3'
p160
I0
I1
tp161
Rp162
(I3
S'|'
p163
NNNI3
I1
I0
tp164
bS'can'
p165
tp166
Rp167
I15
I0
tp168
a(g4
(g5
(S'S3'
p169
I0
I1
tp170
Rp171
(I3
S'|'
p172
NNNI3
I1
I0
tp173
bS'can'
p174
tp175
Rp176
I30
I0
tp177
a(g4
(g5
(S'S3'
p178
I0
I1
tp179
Rp180
(I3
S'|'
p181
NNNI3
I1
I0
tp182
bS'can'
p183
tp184
Rp185
I1
I0
tp186
a(g4
(g5
(S'S3'
p187
I0
I1
tp188
Rp189
(I3
S'|'
p190
NNNI3
I1
I0
tp191
bS'can'
p192
tp193
Rp194
I8
I0
tp195
a(g4
(g5
(S'S3'
p196
I0
I1
tp197
Rp198
(I3
S'|'
p199
NNNI3
I1
I0
tp200
bS'red'
p201
tp202
Rp203
I5
I0
tp204
a(g203
I14
I0
tp205
a(g203
I8
I0
tp206
a(g203
I15
I0
tp207
a(g203
I1
I0
tp208
a(g203
I30
I0
tp209
a(g203
I29
I0
tp210
a(g203
I31
I0
tp211
a(g4
(g5
(S'S8'
p212
I0
I1
tp213
Rp214
(I3
S'|'
p215
NNNI8
I1
I0
tp216
bS'metallic'
p217
tp218
Rp219
I5
I0
tp220
a(g219
I14
I0
tp221
a(g219
I8
I0
tp222
a(g219
I15
I0
tp223
a(g219
I1
I0
tp224
a(g219
I30
I0
tp225
a(g219
I29
I0
tp226
a(g219
I31
I0
tp227
a(g4
(g5
(S'S6'
p228
I0
I1
tp229
Rp230
(I3
S'|'
p231
NNNI6
I1
I0
tp232
bS'column'
p233
tp234
Rp235
I31
I1
tp236
a(g4
(g5
(S'S9'
p237
I0
I1
tp238
Rp239
(I3
S'|'
p240
NNNI9
I1
I0
tp241
bS'container'
p242
tp243
Rp244
I5
I1
tp245
a(g4
(g5
(S'S5'
p246
I0
I1
tp247
Rp248
(I3
S'|'
p249
NNNI5
I1
I0
tp250
bS'block'
p251
tp252
Rp253
I15
I1
tp254
aa(lp255
a.