(lp0
(lp1
(dp2
S'action'
p3
cnumpy.core.multiarray
scalar
p4
(cnumpy
dtype
p5
(S'S4'
p6
I0
I1
tp7
Rp8
(I3
S'|'
p9
NNNI4
I1
I0
tp10
bS'move'
p11
tp12
Rp13
sS'recipient'
p14
NsS'patient'
p15
S'oidx_13'
p16
sS'goal'
p17
S'3508'
p18
sS'source'
p19
S'3414b'
p20
sa(dp21
g3
g4
(g5
(S'S5'
p22
I0
I1
tp23
Rp24
(I3
S'|'
p25
NNNI5
I1
I0
tp26
bS'bring'
p27
tp28
Rp29
sg14
S'r'
p30
sg15
S'oidx_22'
p31
sg17
Nsg19
Nsa(dp32
g3
g4
(g5
(S'S4'
p33
I0
I1
tp34
Rp35
(I3
S'|'
p36
NNNI4
I1
I0
tp37
bS'move'
p38
tp39
Rp40
sg14
Nsg15
g16
sg17
S'3402'
p41
sg19
g20
saa(lp42
(dp43
S'all'
p44
(lp45
S'yes'
p46
asg15
(lp47
sg17
(lp48
S'me'
p49
asg19
(lp50
S'me'
p51
aS'yes'
p52
asg3
(lp53
sg14
(lp54
sa(dp55
g44
(lp56
S'yes'
p57
asg15
(lp58
S'container'
p59
aS'container'
p60
asg17
(lp61
sg19
(lp62
sg3
(lp63
sg14
(lp64
sa(dp65
g44
(lp66
S'yes'
p67
asg15
(lp68
sg17
(lp69
S'me'
p70
aS'me'
p71
asg19
(lp72
S'yes'
p73
asg3
(lp74
sg14
(lp75
saa(lp76
(g4
(g5
(S'S5'
p77
I0
I1
tp78
Rp79
(I3
S'|'
p80
NNNI5
I1
I0
tp81
bS'empty'
p82
tp83
Rp84
I5
I0
tp85
a(g84
I14
I0
tp86
a(g84
I8
I0
tp87
a(g84
I15
I0
tp88
a(g84
I1
I0
tp89
a(g84
I30
I0
tp90
a(g84
I29
I0
tp91
a(g84
I31
I0
tp92
a(g4
(g5
(S'S9'
p93
I0
I1
tp94
Rp95
(I3
S'|'
p96
NNNI9
I1
I0
tp97
bS'container'
p98
tp99
Rp100
I5
I0
tp101
a(g100
I14
I0
tp102
a(g100
I8
I0
tp103
a(g100
I15
I0
tp104
a(g100
I1
I0
tp105
a(g100
I30
I0
tp106
a(g100
I29
I0
tp107
a(g100
I31
I0
tp108
a(g4
(g5
(S'S5'
p109
I0
I1
tp110
Rp111
(I3
S'|'
p112
NNNI5
I1
I0
tp113
bS'block'
p114
tp115
Rp116
I5
I0
tp117
a(g116
I14
I0
tp118
a(g116
I8
I0
tp119
a(g116
I15
I0
tp120
a(g116
I1
I0
tp121
a(g116
I30
I0
tp122
a(g116
I29
I0
tp123
a(g116
I31
I0
tp124
a(g4
(g5
(S'S5'
p125
I0
I1
tp126
Rp127
(I3
S'|'
p128
NNNI5
I1
I0
tp129
bS'clear'
p130
tp131
Rp132
I5
I0
tp133
a(g132
I14
I0
tp134
a(g132
I8
I0
tp135
a(g132
I15
I0
tp136
a(g132
I1
I0
tp137
a(g132
I30
I0
tp138
a(g132
I29
I0
tp139
a(g132
I31
I0
tp140
a(g4
(g5
(S'S5'
p141
I0
I1
tp142
Rp143
(I3
S'|'
p144
NNNI5
I1
I0
tp145
bS'tower'
p146
tp147
Rp148
I5
I0
tp149
a(g148
I14
I0
tp150
a(g148
I8
I0
tp151
a(g148
I15
I0
tp152
a(g148
I1
I0
tp153
a(g148
I30
I0
tp154
a(g148
I29
I0
tp155
a(g148
I31
I0
tp156
a(g4
(g5
(S'S5'
p157
I0
I1
tp158
Rp159
(I3
S'|'
p160
NNNI5
I1
I0
tp161
bS'small'
p162
tp163
Rp164
I5
I1
tp165
a(g164
I14
I1
tp166
a(g164
I8
I1
tp167
a(g164
I15
I1
tp168
a(g164
I1
I1
tp169
a(g164
I30
I1
tp170
a(g164
I29
I1
tp171
a(g164
I31
I1
tp172
a(g4
(g5
(S'S8'
p173
I0
I1
tp174
Rp175
(I3
S'|'
p176
NNNI8
I1
I0
tp177
bS'pringles'
p178
tp179
Rp180
I5
I0
tp181
a(g180
I14
I0
tp182
a(g180
I8
I0
tp183
a(g180
I15
I0
tp184
a(g180
I1
I0
tp185
a(g180
I30
I0
tp186
a(g180
I29
I0
tp187
a(g180
I31
I0
tp188
a(g4
(g5
(S'S8'
p189
I0
I1
tp190
Rp191
(I3
S'|'
p192
NNNI8
I1
I0
tp193
bS'cylinder'
p194
tp195
Rp196
I5
I0
tp197
a(g196
I14
I0
tp198
a(g196
I8
I0
tp199
a(g196
I15
I0
tp200
a(g196
I1
I0
tp201
a(g196
I30
I0
tp202
a(g196
I29
I0
tp203
a(g196
I31
I0
tp204
a(g4
(g5
(S'S4'
p205
I0
I1
tp206
Rp207
(I3
S'|'
p208
NNNI4
I1
I0
tp209
bS'bean'
p210
tp211
Rp212
I5
I0
tp213
a(g212
I14
I0
tp214
a(g212
I8
I0
tp215
a(g212
I15
I0
tp216
a(g212
I1
I0
tp217
a(g212
I30
I0
tp218
a(g212
I29
I0
tp219
a(g212
I31
I0
tp220
a(g4
(g5
(S'S5'
p221
I0
I1
tp222
Rp223
(I3
S'|'
p224
NNNI5
I1
I0
tp225
bS'peach'
p226
tp227
Rp228
I5
I0
tp229
a(g228
I14
I0
tp230
a(g228
I8
I0
tp231
a(g228
I15
I0
tp232
a(g228
I1
I0
tp233
a(g228
I30
I0
tp234
a(g228
I29
I0
tp235
a(g228
I31
I0
tp236
a(g4
(g5
(S'S4'
p237
I0
I1
tp238
Rp239
(I3
S'|'
p240
NNNI4
I1
I0
tp241
bS'long'
p242
tp243
Rp244
I14
I0
tp245
a(g4
(g5
(S'S6'
p246
I0
I1
tp247
Rp248
(I3
S'|'
p249
NNNI6
I1
I0
tp250
bS'column'
p251
tp252
Rp253
I14
I0
tp254
a(g4
(g5
(S'S6'
p255
I0
I1
tp256
Rp257
(I3
S'|'
p258
NNNI6
I1
I0
tp259
bS'column'
p260
tp261
Rp262
I30
I0
tp263
a(g4
(g5
(S'S3'
p264
I0
I1
tp265
Rp266
(I3
S'|'
p267
NNNI3
I1
I0
tp268
bS'can'
p269
tp270
Rp271
I29
I1
tp272
a(g4
(g5
(S'S9'
p273
I0
I1
tp274
Rp275
(I3
S'|'
p276
NNNI9
I1
I0
tp277
bS'rectangle'
p278
tp279
Rp280
I5
I0
tp281
a(g280
I14
I0
tp282
a(g280
I8
I0
tp283
a(g280
I15
I0
tp284
a(g280
I1
I0
tp285
a(g280
I30
I0
tp286
a(g280
I29
I0
tp287
a(g280
I31
I0
tp288
aa(lp289
a.