(lp0
(lp1
(dp2
S'action'
p3
cnumpy.core.multiarray
scalar
p4
(cnumpy
dtype
p5
(S'S4'
p6
I0
I1
tp7
Rp8
(I3
S'|'
p9
NNNI4
I1
I0
tp10
bS'walk'
p11
tp12
Rp13
sS'recipient'
p14
NsS'patient'
p15
NsS'goal'
p16
g4
(g5
(S'S4'
p17
I0
I1
tp18
Rp19
(I3
S'|'
p20
NNNI4
I1
I0
tp21
bS'3514'
p22
tp23
Rp24
sS'source'
p25
Nsa(dp26
g3
g4
(g5
(S'S5'
p27
I0
I1
tp28
Rp29
(I3
S'|'
p30
NNNI5
I1
I0
tp31
bS'bring'
p32
tp33
Rp34
sg14
g4
(g5
(S'S1'
p35
I0
I1
tp36
Rp37
(I3
S'|'
p38
NNNI1
I1
I0
tp39
bS'm'
p40
tp41
Rp42
sg15
g4
(g5
(S'S7'
p43
I0
I1
tp44
Rp45
(I3
S'|'
p46
NNNI7
I1
I0
tp47
bS'oidx_26'
p48
tp49
Rp50
sg16
Nsg25
Nsa(dp51
g3
g4
(g5
(S'S4'
p52
I0
I1
tp53
Rp54
(I3
S'|'
p55
NNNI4
I1
I0
tp56
bS'move'
p57
tp58
Rp59
sg14
Nsg15
g4
(g5
(S'S7'
p60
I0
I1
tp61
Rp62
(I3
S'|'
p63
NNNI7
I1
I0
tp64
bS'oidx_12'
p65
tp66
Rp67
sg16
g4
(g5
(S'S4'
p68
I0
I1
tp69
Rp70
(I3
S'|'
p71
NNNI4
I1
I0
tp72
bS'3508'
p73
tp74
Rp75
sg25
g4
(g5
(S'S4'
p76
I0
I1
tp77
Rp78
(I3
S'|'
p79
NNNI4
I1
I0
tp80
bS'3432'
p81
tp82
Rp83
saa(lp84
(dp85
S'all'
p86
(lp87
S'go to the lounge by the kitche'
p88
asg15
(lp89
sg16
(lp90
S'to the lounge by the kitchen'
p91
asg25
(lp92
sg3
(lp93
sg14
(lp94
sa(dp95
g86
(lp96
S'give the red can to mallory maroon'
p97
asg15
(lp98
S'the red can'
p99
aS'the red pop can'
p100
asg16
(lp101
sg25
(lp102
sg3
(lp103
sg14
(lp104
sa(dp105
g86
(lp106
S"take the container from the office by the biggest lab to peggy parker 's office"
p107
asg15
(lp108
S'the white container'
p109
aS'the wipe continer with red lid'
p110
aS'the white container with red'
p111
asg16
(lp112
S'to the office of peggy parker'
p113
asg25
(lp114
S'from the office by the biggest lab'
p115
aS'from the office by the biggest lab'
p116
aS'from the office by the longest lab'
p117
asg3
(lp118
sg14
(lp119
saa(lp120
(g4
(g5
(S'S6'
p121
I0
I1
tp122
Rp123
(I3
S'|'
p124
NNNI6
I1
I0
tp125
bS'yellow'
p126
tp127
Rp128
I31
I1
tp129
a(g4
(g5
(S'S6'
p130
I0
I1
tp131
Rp132
(I3
S'|'
p133
NNNI6
I1
I0
tp134
bS'column'
p135
tp136
Rp137
I14
I0
tp138
a(g4
(g5
(S'S8'
p139
I0
I1
tp140
Rp141
(I3
S'|'
p142
NNNI8
I1
I0
tp143
bS'metallic'
p144
tp145
Rp146
I8
I1
tp147
a(g4
(g5
(S'S5'
p148
I0
I1
tp149
Rp150
(I3
S'|'
p151
NNNI5
I1
I0
tp152
bS'spice'
p153
tp154
Rp155
I5
I0
tp156
a(g155
I14
I0
tp157
a(g155
I8
I0
tp158
a(g155
I15
I0
tp159
a(g155
I1
I0
tp160
a(g155
I30
I0
tp161
a(g155
I29
I0
tp162
a(g155
I31
I0
tp163
a(g4
(g5
(S'S9'
p164
I0
I1
tp165
Rp166
(I3
S'|'
p167
NNNI9
I1
I0
tp168
bS'styrofoam'
p169
tp170
Rp171
I31
I1
tp172
a(g4
(g5
(S'S3'
p173
I0
I1
tp174
Rp175
(I3
S'|'
p176
NNNI3
I1
I0
tp177
bS'can'
p178
tp179
Rp180
I5
I1
tp181
a(g4
(g5
(S'S3'
p182
I0
I1
tp183
Rp184
(I3
S'|'
p185
NNNI3
I1
I0
tp186
bS'can'
p187
tp188
Rp189
I31
I0
tp190
a(g4
(g5
(S'S3'
p191
I0
I1
tp192
Rp193
(I3
S'|'
p194
NNNI3
I1
I0
tp195
bS'can'
p196
tp197
Rp198
I15
I1
tp199
a(g4
(g5
(S'S3'
p200
I0
I1
tp201
Rp202
(I3
S'|'
p203
NNNI3
I1
I0
tp204
bS'can'
p205
tp206
Rp207
I1
I1
tp208
a(g4
(g5
(S'S3'
p209
I0
I1
tp210
Rp211
(I3
S'|'
p212
NNNI3
I1
I0
tp213
bS'can'
p214
tp215
Rp216
I29
I0
tp217
a(g4
(g5
(S'S6'
p218
I0
I1
tp219
Rp220
(I3
S'|'
p221
NNNI6
I1
I0
tp222
bS'yellow'
p223
tp224
Rp225
I15
I0
tp226
a(g4
(g5
(S'S4'
p227
I0
I1
tp228
Rp229
(I3
S'|'
p230
NNNI4
I1
I0
tp231
bS'bean'
p232
tp233
Rp234
I8
I1
tp235
a(g4
(g5
(S'S6'
p236
I0
I1
tp237
Rp238
(I3
S'|'
p239
NNNI6
I1
I0
tp240
bS'column'
p241
tp242
Rp243
I30
I0
tp244
a(g4
(g5
(S'S4'
p245
I0
I1
tp246
Rp247
(I3
S'|'
p248
NNNI4
I1
I0
tp249
bS'long'
p250
tp251
Rp252
I31
I0
tp253
a(g4
(g5
(S'S4'
p254
I0
I1
tp255
Rp256
(I3
S'|'
p257
NNNI4
I1
I0
tp258
bS'long'
p259
tp260
Rp261
I14
I0
tp262
aa(lp263
(S'longest'
p264
S'long'
p265
I01
tp266
aa.