(lp0
(lp1
(dp2
S'action'
p3
cnumpy.core.multiarray
scalar
p4
(cnumpy
dtype
p5
(S'S4'
p6
I0
I1
tp7
Rp8
(I3
S'|'
p9
NNNI4
I1
I0
tp10
bS'move'
p11
tp12
Rp13
sS'recipient'
p14
NsS'patient'
p15
S'oidx_6'
p16
sS'goal'
p17
S'3506'
p18
sS'source'
p19
S'3414a'
p20
sa(dp21
g3
g4
(g5
(S'S5'
p22
I0
I1
tp23
Rp24
(I3
S'|'
p25
NNNI5
I1
I0
tp26
bS'bring'
p27
tp28
Rp29
sg14
g4
(g5
(S'S1'
p30
I0
I1
tp31
Rp32
(I3
S'|'
p33
NNNI1
I1
I0
tp34
bS'h'
p35
tp36
Rp37
sg15
S'oidx_25'
p38
sg17
Nsg19
Nsaa(lp39
(dp40
S'all'
p41
(lp42
S'move to p'
p43
asg15
(lp44
sg17
(lp45
S'x mark'
p46
asg19
(lp47
S'to mal'
p48
aS'yes'
p49
asg3
(lp50
sg14
(lp51
sa(dp52
g41
(lp53
S'dr heidi hughes wants the can'
p54
asg15
(lp55
S'container'
p56
asg17
(lp57
sg19
(lp58
sg3
(lp59
sg14
(lp60
saa(lp61
(g4
(g5
(S'S5'
p62
I0
I1
tp63
Rp64
(I3
S'|'
p65
NNNI5
I1
I0
tp66
bS'peach'
p67
tp68
Rp69
I1
I1
tp70
a(g4
(g5
(S'S4'
p71
I0
I1
tp72
Rp73
(I3
S'|'
p74
NNNI4
I1
I0
tp75
bS'long'
p76
tp77
Rp78
I14
I0
tp79
a(g4
(g5
(S'S9'
p80
I0
I1
tp81
Rp82
(I3
S'|'
p83
NNNI9
I1
I0
tp84
bS'container'
p85
tp86
Rp87
I8
I1
tp88
a(g4
(g5
(S'S9'
p89
I0
I1
tp90
Rp91
(I3
S'|'
p92
NNNI9
I1
I0
tp93
bS'container'
p94
tp95
Rp96
I29
I1
tp97
a(g4
(g5
(S'S4'
p98
I0
I1
tp99
Rp100
(I3
S'|'
p101
NNNI4
I1
I0
tp102
bS'bean'
p103
tp104
Rp105
I5
I1
tp106
a(g4
(g5
(S'S3'
p107
I0
I1
tp108
Rp109
(I3
S'|'
p110
NNNI3
I1
I0
tp111
bS'can'
p112
tp113
Rp114
I29
I1
tp115
a(g4
(g5
(S'S3'
p116
I0
I1
tp117
Rp118
(I3
S'|'
p119
NNNI3
I1
I0
tp120
bS'can'
p121
tp122
Rp123
I8
I1
tp124
a(g4
(g5
(S'S3'
p125
I0
I1
tp126
Rp127
(I3
S'|'
p128
NNNI3
I1
I0
tp129
bS'can'
p130
tp131
Rp132
I8
I1
tp133
a(g4
(g5
(S'S3'
p134
I0
I1
tp135
Rp136
(I3
S'|'
p137
NNNI3
I1
I0
tp138
bS'can'
p139
tp140
Rp141
I8
I1
tp142
a(g4
(g5
(S'S3'
p143
I0
I1
tp144
Rp145
(I3
S'|'
p146
NNNI3
I1
I0
tp147
bS'can'
p148
tp149
Rp150
I29
I1
tp151
aa(lp152
(S'p'
p153
S'body'
p154
I01
tp155
a(S'wants'
p156
S'can'
p157
I01
tp158
aa.