(lp0
(lp1
(dp2
S'action'
p3
cnumpy.core.multiarray
scalar
p4
(cnumpy
dtype
p5
(S'S4'
p6
I0
I1
tp7
Rp8
(I3
S'|'
p9
NNNI4
I1
I0
tp10
bS'move'
p11
tp12
Rp13
sS'recipient'
p14
NsS'patient'
p15
S'oidx_13'
p16
sS'goal'
p17
S'3512'
p18
sS'source'
p19
g18
sa(dp20
g3
g4
(g5
(S'S4'
p21
I0
I1
tp22
Rp23
(I3
S'|'
p24
NNNI4
I1
I0
tp25
bS'move'
p26
tp27
Rp28
sg14
Nsg15
S'oidx_26'
p29
sg17
S'3414a'
p30
sg19
S'3422'
p31
sa(dp32
g3
g4
(g5
(S'S4'
p33
I0
I1
tp34
Rp35
(I3
S'|'
p36
NNNI4
I1
I0
tp37
bS'walk'
p38
tp39
Rp40
sg14
Nsg15
Nsg17
g31
sg19
Nsaa(lp41
(dp42
S'all'
p43
(lp44
S'lap'
p45
asg15
(lp46
S'office'
p47
aS'office'
p48
asg17
(lp49
sg19
(lp50
sg3
(lp51
sg14
(lp52
sa(dp53
g43
(lp54
S'office'
p55
asg15
(lp56
S'yes'
p57
asg17
(lp58
sg19
(lp59
S'yes'
p60
aS'yes'
p61
asg3
(lp62
sg14
(lp63
sa(dp64
g43
(lp65
S'yes'
p66
asg15
(lp67
sg17
(lp68
S'yes'
p69
aS'yes'
p70
aS'office'
p71
aS'yes'
p72
aS'office'
p73
aS'yes'
p74
aS'yes'
p75
aS'yes'
p76
asg19
(lp77
sg3
(lp78
sg14
(lp79
saa(lp80
(g4
(g5
(S'S6'
p81
I0
I1
tp82
Rp83
(I3
S'|'
p84
NNNI6
I1
I0
tp85
bS'yellow'
p86
tp87
Rp88
I31
I1
tp89
a(g4
(g5
(S'S6'
p90
I0
I1
tp91
Rp92
(I3
S'|'
p93
NNNI6
I1
I0
tp94
bS'yellow'
p95
tp96
Rp97
I8
I1
tp98
a(g4
(g5
(S'S6'
p99
I0
I1
tp100
Rp101
(I3
S'|'
p102
NNNI6
I1
I0
tp103
bS'yellow'
p104
tp105
Rp106
I29
I1
tp107
a(g4
(g5
(S'S6'
p108
I0
I1
tp109
Rp110
(I3
S'|'
p111
NNNI6
I1
I0
tp112
bS'yellow'
p113
tp114
Rp115
I14
I1
tp116
a(g4
(g5
(S'S6'
p117
I0
I1
tp118
Rp119
(I3
S'|'
p120
NNNI6
I1
I0
tp121
bS'yellow'
p122
tp123
Rp124
I1
I1
tp125
a(g4
(g5
(S'S4'
p126
I0
I1
tp127
Rp128
(I3
S'|'
p129
NNNI4
I1
I0
tp130
bS'long'
p131
tp132
Rp133
I31
I1
tp134
a(g4
(g5
(S'S5'
p135
I0
I1
tp136
Rp137
(I3
S'|'
p138
NNNI5
I1
I0
tp139
bS'tower'
p140
tp141
Rp142
I30
I1
tp143
a(g4
(g5
(S'S5'
p144
I0
I1
tp145
Rp146
(I3
S'|'
p147
NNNI5
I1
I0
tp148
bS'empty'
p149
tp150
Rp151
I30
I1
tp152
a(g4
(g5
(S'S6'
p153
I0
I1
tp154
Rp155
(I3
S'|'
p156
NNNI6
I1
I0
tp157
bS'column'
p158
tp159
Rp160
I30
I1
tp161
a(g4
(g5
(S'S5'
p162
I0
I1
tp163
Rp164
(I3
S'|'
p165
NNNI5
I1
I0
tp166
bS'clear'
p167
tp168
Rp169
I30
I1
tp170
a(g4
(g5
(S'S5'
p171
I0
I1
tp172
Rp173
(I3
S'|'
p174
NNNI5
I1
I0
tp175
bS'white'
p176
tp177
Rp178
I14
I1
tp179
a(g4
(g5
(S'S6'
p180
I0
I1
tp181
Rp182
(I3
S'|'
p183
NNNI6
I1
I0
tp184
bS'column'
p185
tp186
Rp187
I15
I1
tp188
a(g4
(g5
(S'S5'
p189
I0
I1
tp190
Rp191
(I3
S'|'
p192
NNNI5
I1
I0
tp193
bS'clear'
p194
tp195
Rp196
I14
I1
tp197
a(g4
(g5
(S'S5'
p198
I0
I1
tp199
Rp200
(I3
S'|'
p201
NNNI5
I1
I0
tp202
bS'tower'
p203
tp204
Rp205
I1
I1
tp206
a(g4
(g5
(S'S9'
p207
I0
I1
tp208
Rp209
(I3
S'|'
p210
NNNI9
I1
I0
tp211
bS'styrofoam'
p212
tp213
Rp214
I30
I1
tp215
aa(lp216
(g45
S'yellow'
p217
I01
tp218
aa.