(lp0
(lp1
(dp2
S'action'
p3
cnumpy.core.multiarray
scalar
p4
(cnumpy
dtype
p5
(S'S4'
p6
I0
I1
tp7
Rp8
(I3
S'|'
p9
NNNI4
I1
I0
tp10
bS'walk'
p11
tp12
Rp13
sS'recipient'
p14
NsS'patient'
p15
NsS'goal'
p16
S'3404'
p17
sS'source'
p18
Nsa(dp19
g3
g4
(g5
(S'S4'
p20
I0
I1
tp21
Rp22
(I3
S'|'
p23
NNNI4
I1
I0
tp24
bS'walk'
p25
tp26
Rp27
sg14
Nsg15
Nsg16
S'3432'
p28
sg18
Nsa(dp29
g3
g4
(g5
(S'S4'
p30
I0
I1
tp31
Rp32
(I3
S'|'
p33
NNNI4
I1
I0
tp34
bS'walk'
p35
tp36
Rp37
sg14
Nsg15
Nsg16
g28
sg18
Nsaa(lp38
(dp39
S'all'
p40
(lp41
S'go to office s'
p42
asg15
(lp43
sg16
(lp44
S'go to office s'
p45
asg18
(lp46
sg3
(lp47
sg14
(lp48
sa(dp49
g40
(lp50
S'go to the object'
p51
asg15
(lp52
sg16
(lp53
S'go to object'
p54
aS'no dont go'
p55
aS'no'
p56
aS'go to object s'
p57
asg18
(lp58
sg3
(lp59
sg14
(lp60
sa(dp61
g40
(lp62
S'go to office w'
p63
asg15
(lp64
sg16
(lp65
S'go to office w'
p66
aS'go to office w'
p67
asg18
(lp68
sg3
(lp69
sg14
(lp70
saa(lp71
(g4
(g5
(S'S8'
p72
I0
I1
tp73
Rp74
(I3
S'|'
p75
NNNI8
I1
I0
tp76
bS'metallic'
p77
tp78
Rp79
I5
I0
tp80
a(g79
I14
I0
tp81
a(g79
I8
I0
tp82
a(g79
I15
I0
tp83
a(g79
I1
I0
tp84
a(g79
I30
I0
tp85
a(g79
I29
I0
tp86
a(g79
I31
I0
tp87
a(g4
(g5
(S'S9'
p88
I0
I1
tp89
Rp90
(I3
S'|'
p91
NNNI9
I1
I0
tp92
bS'container'
p93
tp94
Rp95
I8
I1
tp96
a(g4
(g5
(S'S4'
p97
I0
I1
tp98
Rp99
(I3
S'|'
p100
NNNI4
I1
I0
tp101
bS'long'
p102
tp103
Rp104
I14
I1
tp105
a(g4
(g5
(S'S5'
p106
I0
I1
tp107
Rp108
(I3
S'|'
p109
NNNI5
I1
I0
tp110
bS'brown'
p111
tp112
Rp113
I31
I0
tp114
a(g4
(g5
(S'S3'
p115
I0
I1
tp116
Rp117
(I3
S'|'
p118
NNNI3
I1
I0
tp119
bS'can'
p120
tp121
Rp122
I15
I0
tp123
a(g4
(g5
(S'S9'
p124
I0
I1
tp125
Rp126
(I3
S'|'
p127
NNNI9
I1
I0
tp128
bS'container'
p129
tp130
Rp131
I1
I1
tp132
a(g4
(g5
(S'S9'
p133
I0
I1
tp134
Rp135
(I3
S'|'
p136
NNNI9
I1
I0
tp137
bS'container'
p138
tp139
Rp140
I29
I1
tp141
a(g4
(g5
(S'S9'
p142
I0
I1
tp143
Rp144
(I3
S'|'
p145
NNNI9
I1
I0
tp146
bS'container'
p147
tp148
Rp149
I31
I1
tp150
a(g4
(g5
(S'S9'
p151
I0
I1
tp152
Rp153
(I3
S'|'
p154
NNNI9
I1
I0
tp155
bS'container'
p156
tp157
Rp158
I14
I0
tp159
a(g4
(g5
(S'S9'
p160
I0
I1
tp161
Rp162
(I3
S'|'
p163
NNNI9
I1
I0
tp164
bS'container'
p165
tp166
Rp167
I30
I0
tp168
a(g4
(g5
(S'S4'
p169
I0
I1
tp170
Rp171
(I3
S'|'
p172
NNNI4
I1
I0
tp173
bS'dont'
p174
tp175
Rp176
I5
I0
tp177
a(g176
I14
I0
tp178
a(g176
I8
I0
tp179
a(g176
I15
I0
tp180
a(g176
I1
I0
tp181
a(g176
I30
I0
tp182
a(g176
I29
I0
tp183
a(g176
I31
I0
tp184
a(g4
(g5
(S'S8'
p185
I0
I1
tp186
Rp187
(I3
S'|'
p188
NNNI8
I1
I0
tp189
bS'pringles'
p190
tp191
Rp192
I5
I0
tp193
a(g192
I14
I0
tp194
a(g192
I8
I0
tp195
a(g192
I15
I0
tp196
a(g192
I1
I0
tp197
a(g192
I30
I0
tp198
a(g192
I29
I0
tp199
a(g192
I31
I0
tp200
a(g4
(g5
(S'S6'
p201
I0
I1
tp202
Rp203
(I3
S'|'
p204
NNNI6
I1
I0
tp205
bS'yellow'
p206
tp207
Rp208
I5
I1
tp209
a(g4
(g5
(S'S5'
p210
I0
I1
tp211
Rp212
(I3
S'|'
p213
NNNI5
I1
I0
tp214
bS'small'
p215
tp216
Rp217
I31
I0
tp218
a(g4
(g5
(S'S6'
p219
I0
I1
tp220
Rp221
(I3
S'|'
p222
NNNI6
I1
I0
tp223
bS'column'
p224
tp225
Rp226
I31
I0
tp227
aa(lp228
(S'dont'
p229
S'body'
p230
I00
tp231
a(g229
S'can'
p232
I00
tp233
aa.