(lp0
(lp1
(dp2
S'action'
p3
cnumpy.core.multiarray
scalar
p4
(cnumpy
dtype
p5
(S'S4'
p6
I0
I1
tp7
Rp8
(I3
S'|'
p9
NNNI4
I1
I0
tp10
bS'move'
p11
tp12
Rp13
sS'recipient'
p14
NsS'patient'
p15
S'oidx_22'
p16
sS'goal'
p17
S'3414b'
p18
sS'source'
p19
S'3414a'
p20
sa(dp21
g3
g4
(g5
(S'S4'
p22
I0
I1
tp23
Rp24
(I3
S'|'
p25
NNNI4
I1
I0
tp26
bS'move'
p27
tp28
Rp29
sg14
Nsg15
S'oidx_26'
p30
sg17
S'3406'
p31
sg19
S'3430'
p32
sa(dp33
g3
g4
(g5
(S'S4'
p34
I0
I1
tp35
Rp36
(I3
S'|'
p37
NNNI4
I1
I0
tp38
bS'walk'
p39
tp40
Rp41
sg14
Nsg15
Nsg17
S'3436'
p42
sg19
Nsaa(lp43
(dp44
S'all'
p45
(lp46
S'yes'
p47
asg15
(lp48
sg17
(lp49
sg19
(lp50
S'yes'
p51
aS'go to lab'
p52
aS'yes'
p53
asg3
(lp54
sg14
(lp55
sa(dp56
g45
(lp57
S'yes'
p58
asg15
(lp59
S'lab'
p60
asg17
(lp61
S'yes'
p62
asg19
(lp63
S'm'
p64
asg3
(lp65
sg14
(lp66
sa(dp67
g45
(lp68
S'yes'
p69
asg15
(lp70
sg17
(lp71
S'yes'
p72
aS'go top lab'
p73
asg19
(lp74
sg3
(lp75
sg14
(lp76
saa(lp77
(g4
(g5
(S'S5'
p78
I0
I1
tp79
Rp80
(I3
S'|'
p81
NNNI5
I1
I0
tp82
bS'peach'
p83
tp84
Rp85
I14
I1
tp86
a(g4
(g5
(S'S6'
p87
I0
I1
tp88
Rp89
(I3
S'|'
p90
NNNI6
I1
I0
tp91
bS'yellow'
p92
tp93
Rp94
I5
I1
tp95
a(g4
(g5
(S'S9'
p96
I0
I1
tp97
Rp98
(I3
S'|'
p99
NNNI9
I1
I0
tp100
bS'styrofoam'
p101
tp102
Rp103
I31
I1
tp104
a(g4
(g5
(S'S4'
p105
I0
I1
tp106
Rp107
(I3
S'|'
p108
NNNI4
I1
I0
tp109
bS'blue'
p110
tp111
Rp112
I5
I0
tp113
a(g4
(g5
(S'S4'
p114
I0
I1
tp115
Rp116
(I3
S'|'
p117
NNNI4
I1
I0
tp118
bS'bean'
p119
tp120
Rp121
I30
I1
tp122
a(g4
(g5
(S'S3'
p123
I0
I1
tp124
Rp125
(I3
S'|'
p126
NNNI3
I1
I0
tp127
bS'red'
p128
tp129
Rp130
I1
I0
tp131
a(g4
(g5
(S'S6'
p132
I0
I1
tp133
Rp134
(I3
S'|'
p135
NNNI6
I1
I0
tp136
bS'column'
p137
tp138
Rp139
I30
I1
tp140
a(g4
(g5
(S'S8'
p141
I0
I1
tp142
Rp143
(I3
S'|'
p144
NNNI8
I1
I0
tp145
bS'cylinder'
p146
tp147
Rp148
I8
I1
tp149
a(g4
(g5
(S'S9'
p150
I0
I1
tp151
Rp152
(I3
S'|'
p153
NNNI9
I1
I0
tp154
bS'container'
p155
tp156
Rp157
I31
I1
tp158
a(g4
(g5
(S'S6'
p159
I0
I1
tp160
Rp161
(I3
S'|'
p162
NNNI6
I1
I0
tp163
bS'column'
p164
tp165
Rp166
I1
I1
tp167
a(g4
(g5
(S'S5'
p168
I0
I1
tp169
Rp170
(I3
S'|'
p171
NNNI5
I1
I0
tp172
bS'peach'
p173
tp174
Rp175
I15
I1
tp176
a(g4
(g5
(S'S9'
p177
I0
I1
tp178
Rp179
(I3
S'|'
p180
NNNI9
I1
I0
tp181
bS'container'
p182
tp183
Rp184
I30
I1
tp185
a(g4
(g5
(S'S4'
p186
I0
I1
tp187
Rp188
(I3
S'|'
p189
NNNI4
I1
I0
tp190
bS'bean'
p191
tp192
Rp193
I5
I1
tp194
a(g4
(g5
(S'S4'
p195
I0
I1
tp196
Rp197
(I3
S'|'
p198
NNNI4
I1
I0
tp199
bS'blue'
p200
tp201
Rp202
I29
I1
tp203
a(g4
(g5
(S'S5'
p204
I0
I1
tp205
Rp206
(I3
S'|'
p207
NNNI5
I1
I0
tp208
bS'brown'
p209
tp210
Rp211
I29
I0
tp212
aa(lp213
(g64
S'body'
p214
I00
tp215
a(g64
S'food'
p216
I01
tp217
aa.