(lp0
(lp1
(dp2
S'action'
p3
cnumpy.core.multiarray
scalar
p4
(cnumpy
dtype
p5
(S'S5'
p6
I0
I1
tp7
Rp8
(I3
S'|'
p9
NNNI5
I1
I0
tp10
bS'bring'
p11
tp12
Rp13
sS'recipient'
p14
S'b'
p15
sS'patient'
p16
S'oidx_13'
p17
sS'goal'
p18
NsS'source'
p19
Nsaa(lp20
(dp21
S'all'
p22
(lp23
S'hai'
p24
asg16
(lp25
S'yes'
p26
aS'no'
p27
aS'yes'
p28
asg18
(lp29
sg19
(lp30
sg3
(lp31
sg14
(lp32
saa(lp33
(g4
(g5
(S'S4'
p34
I0
I1
tp35
Rp36
(I3
S'|'
p37
NNNI4
I1
I0
tp38
bS'long'
p39
tp40
Rp41
I1
I1
tp42
a(g4
(g5
(S'S5'
p43
I0
I1
tp44
Rp45
(I3
S'|'
p46
NNNI5
I1
I0
tp47
bS'small'
p48
tp49
Rp50
I31
I0
tp51
a(g4
(g5
(S'S5'
p52
I0
I1
tp53
Rp54
(I3
S'|'
p55
NNNI5
I1
I0
tp56
bS'white'
p57
tp58
Rp59
I14
I1
tp60
a(g4
(g5
(S'S5'
p61
I0
I1
tp62
Rp63
(I3
S'|'
p64
NNNI5
I1
I0
tp65
bS'tower'
p66
tp67
Rp68
I31
I1
tp69
a(g4
(g5
(S'S8'
p70
I0
I1
tp71
Rp72
(I3
S'|'
p73
NNNI8
I1
I0
tp74
bS'cylinder'
p75
tp76
Rp77
I1
I1
tp78
aa(lp79
a.