(lp0
(lp1
(dp2
S'action'
p3
cnumpy.core.multiarray
scalar
p4
(cnumpy
dtype
p5
(S'S5'
p6
I0
I1
tp7
Rp8
(I3
S'|'
p9
NNNI5
I1
I0
tp10
bS'bring'
p11
tp12
Rp13
sS'recipient'
p14
S's'
p15
sS'patient'
p16
S'oidx_13'
p17
sS'goal'
p18
NsS'source'
p19
Nsaa(lp20
(dp21
S'all'
p22
(lp23
S'go to h and collect the file and give it to s'
p24
asg16
(lp25
S'file'
p26
asg18
(lp27
sg19
(lp28
sg3
(lp29
sg14
(lp30
S's'
p31
aS's'
p32
aS's'
p33
aS's'
p34
aS's'
p35
aS's'
p36
aS'dr sybil smalt'
p37
aS's'
p38
aS'no'
p39
asaa(lp40
(g4
(g5
(S'S5'
p41
I0
I1
tp42
Rp43
(I3
S'|'
p44
NNNI5
I1
I0
tp45
bS'tower'
p46
tp47
Rp48
I5
I1
tp49
a(g4
(g5
(S'S5'
p50
I0
I1
tp51
Rp52
(I3
S'|'
p53
NNNI5
I1
I0
tp54
bS'block'
p55
tp56
Rp57
I5
I1
tp58
a(g4
(g5
(S'S5'
p59
I0
I1
tp60
Rp61
(I3
S'|'
p62
NNNI5
I1
I0
tp63
bS'clear'
p64
tp65
Rp66
I5
I0
tp67
a(g66
I14
I0
tp68
a(g66
I8
I0
tp69
a(g66
I15
I0
tp70
a(g66
I1
I0
tp71
a(g66
I30
I0
tp72
a(g66
I29
I0
tp73
a(g66
I31
I0
tp74
a(g4
(g5
(S'S6'
p75
I0
I1
tp76
Rp77
(I3
S'|'
p78
NNNI6
I1
I0
tp79
bS'coffee'
p80
tp81
Rp82
I5
I0
tp83
a(g82
I14
I0
tp84
a(g82
I8
I0
tp85
a(g82
I15
I0
tp86
a(g82
I1
I0
tp87
a(g82
I30
I0
tp88
a(g82
I29
I0
tp89
a(g82
I31
I0
tp90
a(g4
(g5
(S'S9'
p91
I0
I1
tp92
Rp93
(I3
S'|'
p94
NNNI9
I1
I0
tp95
bS'container'
p96
tp97
Rp98
I8
I1
tp99
aa(lp100
a.