(lp0
(lp1
(dp2
S'action'
p3
cnumpy.core.multiarray
scalar
p4
(cnumpy
dtype
p5
(S'S4'
p6
I0
I1
tp7
Rp8
(I3
S'|'
p9
NNNI4
I1
I0
tp10
bS'walk'
p11
tp12
Rp13
sS'recipient'
p14
NsS'patient'
p15
NsS'goal'
p16
g4
(g5
(S'S4'
p17
I0
I1
tp18
Rp19
(I3
S'|'
p20
NNNI4
I1
I0
tp21
bS'3420'
p22
tp23
Rp24
sS'source'
p25
Nsa(dp26
g3
g4
(g5
(S'S5'
p27
I0
I1
tp28
Rp29
(I3
S'|'
p30
NNNI5
I1
I0
tp31
bS'bring'
p32
tp33
Rp34
sg14
g4
(g5
(S'S1'
p35
I0
I1
tp36
Rp37
(I3
S'|'
p38
NNNI1
I1
I0
tp39
bS'n'
p40
tp41
Rp42
sg15
g4
(g5
(S'S7'
p43
I0
I1
tp44
Rp45
(I3
S'|'
p46
NNNI7
I1
I0
tp47
bS'oidx_12'
p48
tp49
Rp50
sg16
Nsg25
Nsa(dp51
g3
g4
(g5
(S'S4'
p52
I0
I1
tp53
Rp54
(I3
S'|'
p55
NNNI4
I1
I0
tp56
bS'move'
p57
tp58
Rp59
sg14
Nsg15
g4
(g5
(S'S7'
p60
I0
I1
tp61
Rp62
(I3
S'|'
p63
NNNI7
I1
I0
tp64
bS'oidx_26'
p65
tp66
Rp67
sg16
g4
(g5
(S'S5'
p68
I0
I1
tp69
Rp70
(I3
S'|'
p71
NNNI5
I1
I0
tp72
bS'3414b'
p73
tp74
Rp75
sg25
g4
(g5
(S'S4'
p76
I0
I1
tp77
Rp78
(I3
S'|'
p79
NNNI4
I1
I0
tp80
bS'3512'
p81
tp82
Rp83
saa(lp84
(dp85
S'all'
p86
(lp87
S"go to dave 's office"
p88
asg15
(lp89
sg16
(lp90
S"go to dave 's office"
p91
asg25
(lp92
sg3
(lp93
sg14
(lp94
sa(dp95
g86
(lp96
S'bring the container of wipes to nancy'
p97
asg15
(lp98
S'bring the container of wipes to nancy'
p99
aS'a container of wipes'
p100
asg16
(lp101
sg25
(lp102
sg3
(lp103
sg14
(lp104
S'nancy'
p105
asa(dp106
g86
(lp107
S"take the coke in richard 's office to the lab"
p108
asg15
(lp109
S"the coke in richard 's office"
p110
aS"the coke in richard 's office"
p111
aS'the coke'
p112
aS'a coke'
p113
aS'a can of coke'
p114
aS'the can of coke'
p115
aS'a red can of coke'
p116
asg16
(lp117
S'the lab'
p118
aS'the lab furthest to the right'
p119
asg25
(lp120
S"take the coke in richard 's office to the lab"
p121
aS"richard 's office"
p122
asg3
(lp123
sg14
(lp124
saa(lp125
(g4
(g5
(S'S6'
p126
I0
I1
tp127
Rp128
(I3
S'|'
p129
NNNI6
I1
I0
tp130
bS'column'
p131
tp132
Rp133
I31
I0
tp134
a(g4
(g5
(S'S4'
p135
I0
I1
tp136
Rp137
(I3
S'|'
p138
NNNI4
I1
I0
tp139
bS'long'
p140
tp141
Rp142
I31
I0
tp143
a(g4
(g5
(S'S9'
p144
I0
I1
tp145
Rp146
(I3
S'|'
p147
NNNI9
I1
I0
tp148
bS'rectangle'
p149
tp150
Rp151
I5
I0
tp152
a(g151
I14
I0
tp153
a(g151
I8
I0
tp154
a(g151
I15
I0
tp155
a(g151
I1
I0
tp156
a(g151
I30
I0
tp157
a(g151
I29
I0
tp158
a(g151
I31
I0
tp159
a(g4
(g5
(S'S5'
p160
I0
I1
tp161
Rp162
(I3
S'|'
p163
NNNI5
I1
I0
tp164
bS'brown'
p165
tp166
Rp167
I14
I0
tp168
a(g4
(g5
(S'S5'
p169
I0
I1
tp170
Rp171
(I3
S'|'
p172
NNNI5
I1
I0
tp173
bS'tower'
p174
tp175
Rp176
I5
I1
tp177
a(g4
(g5
(S'S9'
p178
I0
I1
tp179
Rp180
(I3
S'|'
p181
NNNI9
I1
I0
tp182
bS'container'
p183
tp184
Rp185
I31
I1
tp186
a(g4
(g5
(S'S9'
p187
I0
I1
tp188
Rp189
(I3
S'|'
p190
NNNI9
I1
I0
tp191
bS'container'
p192
tp193
Rp194
I31
I1
tp195
a(g4
(g5
(S'S9'
p196
I0
I1
tp197
Rp198
(I3
S'|'
p199
NNNI9
I1
I0
tp200
bS'container'
p201
tp202
Rp203
I31
I1
tp204
a(g4
(g5
(S'S9'
p205
I0
I1
tp206
Rp207
(I3
S'|'
p208
NNNI9
I1
I0
tp209
bS'container'
p210
tp211
Rp212
I29
I1
tp213
a(g4
(g5
(S'S9'
p214
I0
I1
tp215
Rp216
(I3
S'|'
p217
NNNI9
I1
I0
tp218
bS'container'
p219
tp220
Rp221
I29
I1
tp222
a(g4
(g5
(S'S5'
p223
I0
I1
tp224
Rp225
(I3
S'|'
p226
NNNI5
I1
I0
tp227
bS'block'
p228
tp229
Rp230
I5
I0
tp231
a(g230
I14
I0
tp232
a(g230
I8
I0
tp233
a(g230
I15
I0
tp234
a(g230
I1
I0
tp235
a(g230
I30
I0
tp236
a(g230
I29
I0
tp237
a(g230
I31
I0
tp238
a(g4
(g5
(S'S5'
p239
I0
I1
tp240
Rp241
(I3
S'|'
p242
NNNI5
I1
I0
tp243
bS'brown'
p244
tp245
Rp246
I5
I0
tp247
a(g246
I14
I0
tp248
a(g246
I8
I0
tp249
a(g246
I15
I0
tp250
a(g246
I1
I0
tp251
a(g246
I30
I0
tp252
a(g246
I29
I0
tp253
a(g246
I31
I0
tp254
a(g4
(g5
(S'S4'
p255
I0
I1
tp256
Rp257
(I3
S'|'
p258
NNNI4
I1
I0
tp259
bS'bean'
p260
tp261
Rp262
I5
I0
tp263
a(g262
I14
I0
tp264
a(g262
I8
I0
tp265
a(g262
I15
I0
tp266
a(g262
I1
I0
tp267
a(g262
I30
I0
tp268
a(g262
I29
I0
tp269
a(g262
I31
I0
tp270
a(g4
(g5
(S'S9'
p271
I0
I1
tp272
Rp273
(I3
S'|'
p274
NNNI9
I1
I0
tp275
bS'container'
p276
tp277
Rp278
I29
I1
tp279
a(g4
(g5
(S'S8'
p280
I0
I1
tp281
Rp282
(I3
S'|'
p283
NNNI8
I1
I0
tp284
bS'cylinder'
p285
tp286
Rp287
I8
I1
tp288
aa(lp289
a.