(lp0
(lp1
(dp2
S'action'
p3
cnumpy.core.multiarray
scalar
p4
(cnumpy
dtype
p5
(S'S5'
p6
I0
I1
tp7
Rp8
(I3
S'|'
p9
NNNI5
I1
I0
tp10
bS'bring'
p11
tp12
Rp13
sS'recipient'
p14
S'p'
p15
sS'patient'
p16
S'oidx_28'
p17
sS'goal'
p18
NsS'source'
p19
Nsa(dp20
g3
g4
(g5
(S'S4'
p21
I0
I1
tp22
Rp23
(I3
S'|'
p24
NNNI4
I1
I0
tp25
bS'move'
p26
tp27
Rp28
sg14
Nsg16
S'oidx_13'
p29
sg18
S'3414a'
p30
sg19
S'3506'
p31
saa(lp32
(dp33
S'all'
p34
(lp35
S'yes'
p36
asg16
(lp37
S'yes'
p38
asg18
(lp39
sg19
(lp40
sg3
(lp41
sg14
(lp42
S'e p'
p43
asa(dp44
g34
(lp45
S'yes'
p46
asg16
(lp47
S'go to lab'
p48
aS'yes'
p49
asg18
(lp50
sg19
(lp51
S'no'
p52
aS'office p'
p53
asg3
(lp54
sg14
(lp55
saa(lp56
(g4
(g5
(S'S5'
p57
I0
I1
tp58
Rp59
(I3
S'|'
p60
NNNI5
I1
I0
tp61
bS'tower'
p62
tp63
Rp64
I5
I1
tp65
a(g4
(g5
(S'S8'
p66
I0
I1
tp67
Rp68
(I3
S'|'
p69
NNNI8
I1
I0
tp70
bS'pringles'
p71
tp72
Rp73
I1
I1
tp74
a(g4
(g5
(S'S6'
p75
I0
I1
tp76
Rp77
(I3
S'|'
p78
NNNI6
I1
I0
tp79
bS'yellow'
p80
tp81
Rp82
I15
I1
tp83
a(g4
(g5
(S'S5'
p84
I0
I1
tp85
Rp86
(I3
S'|'
p87
NNNI5
I1
I0
tp88
bS'clear'
p89
tp90
Rp91
I5
I1
tp92
a(g4
(g5
(S'S3'
p93
I0
I1
tp94
Rp95
(I3
S'|'
p96
NNNI3
I1
I0
tp97
bS'red'
p98
tp99
Rp100
I15
I0
tp101
a(g4
(g5
(S'S6'
p102
I0
I1
tp103
Rp104
(I3
S'|'
p105
NNNI6
I1
I0
tp106
bS'column'
p107
tp108
Rp109
I31
I1
tp110
a(g4
(g5
(S'S9'
p111
I0
I1
tp112
Rp113
(I3
S'|'
p114
NNNI9
I1
I0
tp115
bS'container'
p116
tp117
Rp118
I15
I1
tp119
a(g4
(g5
(S'S5'
p120
I0
I1
tp121
Rp122
(I3
S'|'
p123
NNNI5
I1
I0
tp124
bS'clear'
p125
tp126
Rp127
I15
I1
tp128
a(g4
(g5
(S'S5'
p129
I0
I1
tp130
Rp131
(I3
S'|'
p132
NNNI5
I1
I0
tp133
bS'small'
p134
tp135
Rp136
I5
I0
tp137
a(g4
(g5
(S'S9'
p138
I0
I1
tp139
Rp140
(I3
S'|'
p141
NNNI9
I1
I0
tp142
bS'rectangle'
p143
tp144
Rp145
I30
I1
tp146
aa(lp147
(S'e'
p148
S'food'
p149
I01
tp150
a(S'p'
p151
S'body'
p152
I01
tp153
aa.