(lp0
(lp1
(dp2
S'action'
p3
cnumpy.core.multiarray
scalar
p4
(cnumpy
dtype
p5
(S'S4'
p6
I0
I1
tp7
Rp8
(I3
S'|'
p9
NNNI4
I1
I0
tp10
bS'move'
p11
tp12
Rp13
sS'recipient'
p14
NsS'patient'
p15
S'oidx_28'
p16
sS'goal'
p17
S'3518'
p18
sS'source'
p19
S'3430'
p20
sa(dp21
g3
g4
(g5
(S'S4'
p22
I0
I1
tp23
Rp24
(I3
S'|'
p25
NNNI4
I1
I0
tp26
bS'walk'
p27
tp28
Rp29
sg14
Nsg15
Nsg17
S'3422'
p30
sg19
Nsaa(lp31
(dp32
S'all'
p33
(lp34
S'lap'
p35
asg15
(lp36
S'yes'
p37
aS'yes'
p38
asg17
(lp39
sg19
(lp40
S'yes'
p41
asg3
(lp42
sg14
(lp43
sa(dp44
g33
(lp45
S'yes'
p46
asg15
(lp47
sg17
(lp48
S'yes'
p49
aS'yes'
p50
aS'yes'
p51
aS'yes'
p52
aS'yes'
p53
aS'yes'
p54
aS'yes'
p55
aS'office'
p56
aS'lap'
p57
asg19
(lp58
sg3
(lp59
sg14
(lp60
saa(lp61
(g4
(g5
(S'S6'
p62
I0
I1
tp63
Rp64
(I3
S'|'
p65
NNNI6
I1
I0
tp66
bS'yellow'
p67
tp68
Rp69
I29
I1
tp70
a(g4
(g5
(S'S6'
p71
I0
I1
tp72
Rp73
(I3
S'|'
p74
NNNI6
I1
I0
tp75
bS'yellow'
p76
tp77
Rp78
I31
I1
tp79
a(g4
(g5
(S'S6'
p80
I0
I1
tp81
Rp82
(I3
S'|'
p83
NNNI6
I1
I0
tp84
bS'yellow'
p85
tp86
Rp87
I15
I1
tp88
a(g4
(g5
(S'S6'
p89
I0
I1
tp90
Rp91
(I3
S'|'
p92
NNNI6
I1
I0
tp93
bS'yellow'
p94
tp95
Rp96
I30
I1
tp97
a(g4
(g5
(S'S6'
p98
I0
I1
tp99
Rp100
(I3
S'|'
p101
NNNI6
I1
I0
tp102
bS'yellow'
p103
tp104
Rp105
I5
I1
tp106
a(g4
(g5
(S'S8'
p107
I0
I1
tp108
Rp109
(I3
S'|'
p110
NNNI8
I1
I0
tp111
bS'cylinder'
p112
tp113
Rp114
I1
I1
tp115
a(g4
(g5
(S'S9'
p116
I0
I1
tp117
Rp118
(I3
S'|'
p119
NNNI9
I1
I0
tp120
bS'rectangle'
p121
tp122
Rp123
I1
I1
tp124
a(g4
(g5
(S'S5'
p125
I0
I1
tp126
Rp127
(I3
S'|'
p128
NNNI5
I1
I0
tp129
bS'block'
p130
tp131
Rp132
I1
I1
tp133
a(g4
(g5
(S'S4'
p134
I0
I1
tp135
Rp136
(I3
S'|'
p137
NNNI4
I1
I0
tp138
bS'bean'
p139
tp140
Rp141
I1
I1
tp142
a(g4
(g5
(S'S9'
p143
I0
I1
tp144
Rp145
(I3
S'|'
p146
NNNI9
I1
I0
tp147
bS'styrofoam'
p148
tp149
Rp150
I14
I1
tp151
aa(lp152
(g35
S'yellow'
p153
I01
tp154
aa.