(lp0
(lp1
(dp2
S'action'
p3
cnumpy.core.multiarray
scalar
p4
(cnumpy
dtype
p5
(S'S4'
p6
I0
I1
tp7
Rp8
(I3
S'|'
p9
NNNI4
I1
I0
tp10
bS'move'
p11
tp12
Rp13
sS'recipient'
p14
NsS'patient'
p15
S'oidx_22'
p16
sS'goal'
p17
S'3502'
p18
sS'source'
p19
S'3410'
p20
sa(dp21
g3
g4
(g5
(S'S5'
p22
I0
I1
tp23
Rp24
(I3
S'|'
p25
NNNI5
I1
I0
tp26
bS'bring'
p27
tp28
Rp29
sg14
S'd'
p30
sg15
S'oidx_25'
p31
sg17
Nsg19
Nsa(dp32
g3
g4
(g5
(S'S4'
p33
I0
I1
tp34
Rp35
(I3
S'|'
p36
NNNI4
I1
I0
tp37
bS'walk'
p38
tp39
Rp40
sg14
Nsg15
Nsg17
S'3418'
p41
sg19
Nsaa(lp42
(dp43
S'all'
p44
(lp45
S'hi'
p46
asg15
(lp47
S'yes'
p48
aS'office'
p49
aS'yes'
p50
aS'yes'
p51
asg17
(lp52
sg19
(lp53
sg3
(lp54
sg14
(lp55
sa(dp56
g44
(lp57
S''
p58
asg15
(lp59
S'yes'
p60
asg17
(lp61
sg19
(lp62
sg3
(lp63
sg14
(lp64
S'yes'
p65
asa(dp66
g44
(lp67
S'yes'
p68
asg15
(lp69
sg17
(lp70
S'yes'
p71
aS'no'
p72
aS'yes'
p73
aS'yes'
p74
aS'no'
p75
aS'thank you'
p76
aS'yes'
p77
aS'yes'
p78
aS'yes'
p79
aS'yes'
p80
aS'yes'
p81
aS'yes'
p82
aS'yes'
p83
aS'yes'
p84
aS'yes'
p85
asg19
(lp86
sg3
(lp87
sg14
(lp88
saa(lp89
(g4
(g5
(S'S9'
p90
I0
I1
tp91
Rp92
(I3
S'|'
p93
NNNI9
I1
I0
tp94
bS'container'
p95
tp96
Rp97
I5
I0
tp98
a(g97
I14
I0
tp99
a(g97
I8
I0
tp100
a(g97
I15
I0
tp101
a(g97
I1
I0
tp102
a(g97
I30
I0
tp103
a(g97
I29
I0
tp104
a(g97
I31
I0
tp105
a(g4
(g5
(S'S4'
p106
I0
I1
tp107
Rp108
(I3
S'|'
p109
NNNI4
I1
I0
tp110
bS'long'
p111
tp112
Rp113
I14
I1
tp114
a(g4
(g5
(S'S5'
p115
I0
I1
tp116
Rp117
(I3
S'|'
p118
NNNI5
I1
I0
tp119
bS'peach'
p120
tp121
Rp122
I31
I1
tp123
a(g4
(g5
(S'S3'
p124
I0
I1
tp125
Rp126
(I3
S'|'
p127
NNNI3
I1
I0
tp128
bS'can'
p129
tp130
Rp131
I1
I1
tp132
a(g4
(g5
(S'S5'
p133
I0
I1
tp134
Rp135
(I3
S'|'
p136
NNNI5
I1
I0
tp137
bS'small'
p138
tp139
Rp140
I30
I0
tp141
a(g4
(g5
(S'S5'
p142
I0
I1
tp143
Rp144
(I3
S'|'
p145
NNNI5
I1
I0
tp146
bS'small'
p147
tp148
Rp149
I31
I1
tp150
a(g4
(g5
(S'S4'
p151
I0
I1
tp152
Rp153
(I3
S'|'
p154
NNNI4
I1
I0
tp155
bS'blue'
p156
tp157
Rp158
I1
I0
tp159
a(g4
(g5
(S'S4'
p160
I0
I1
tp161
Rp162
(I3
S'|'
p163
NNNI4
I1
I0
tp164
bS'long'
p165
tp166
Rp167
I8
I1
tp168
a(g4
(g5
(S'S6'
p169
I0
I1
tp170
Rp171
(I3
S'|'
p172
NNNI6
I1
I0
tp173
bS'yellow'
p174
tp175
Rp176
I1
I1
tp177
a(g4
(g5
(S'S5'
p178
I0
I1
tp179
Rp180
(I3
S'|'
p181
NNNI5
I1
I0
tp182
bS'peach'
p183
tp184
Rp185
I15
I1
tp186
a(g4
(g5
(S'S9'
p187
I0
I1
tp188
Rp189
(I3
S'|'
p190
NNNI9
I1
I0
tp191
bS'rectangle'
p192
tp193
Rp194
I15
I1
tp195
a(g4
(g5
(S'S9'
p196
I0
I1
tp197
Rp198
(I3
S'|'
p199
NNNI9
I1
I0
tp200
bS'rectangle'
p201
tp202
Rp203
I29
I1
tp204
a(g4
(g5
(S'S9'
p205
I0
I1
tp206
Rp207
(I3
S'|'
p208
NNNI9
I1
I0
tp209
bS'rectangle'
p210
tp211
Rp212
I1
I0
tp213
a(g4
(g5
(S'S9'
p214
I0
I1
tp215
Rp216
(I3
S'|'
p217
NNNI9
I1
I0
tp218
bS'rectangle'
p219
tp220
Rp221
I5
I1
tp222
a(g4
(g5
(S'S5'
p223
I0
I1
tp224
Rp225
(I3
S'|'
p226
NNNI5
I1
I0
tp227
bS'spice'
p228
tp229
Rp230
I29
I1
tp231
aa(lp232
(g46
S'body'
p233
I01
tp234
aa.