(lp0
(lp1
(dp2
S'action'
p3
cnumpy.core.multiarray
scalar
p4
(cnumpy
dtype
p5
(S'S4'
p6
I0
I1
tp7
Rp8
(I3
S'|'
p9
NNNI4
I1
I0
tp10
bS'move'
p11
tp12
Rp13
sS'recipient'
p14
NsS'patient'
p15
S'oidx_12'
p16
sS'goal'
p17
S'3424'
p18
sS'source'
p19
S'3406'
p20
sa(dp21
g3
g4
(g5
(S'S4'
p22
I0
I1
tp23
Rp24
(I3
S'|'
p25
NNNI4
I1
I0
tp26
bS'move'
p27
tp28
Rp29
sg14
Nsg15
S'oidx_6'
p30
sg17
S'3422'
p31
sg19
S'3414b'
p32
saa(lp33
(dp34
S'all'
p35
(lp36
S'yes'
p37
asg15
(lp38
S'yes'
p39
asg17
(lp40
sg19
(lp41
S'yes'
p42
aS'yes'
p43
asg3
(lp44
sg14
(lp45
sa(dp46
g35
(lp47
S'yes'
p48
asg15
(lp49
S'go office p'
p50
asg17
(lp51
sg19
(lp52
S'office w'
p53
aS'yes'
p54
asg3
(lp55
sg14
(lp56
saa(lp57
(g4
(g5
(S'S3'
p58
I0
I1
tp59
Rp60
(I3
S'|'
p61
NNNI3
I1
I0
tp62
bS'can'
p63
tp64
Rp65
I31
I1
tp66
a(g4
(g5
(S'S4'
p67
I0
I1
tp68
Rp69
(I3
S'|'
p70
NNNI4
I1
I0
tp71
bS'blue'
p72
tp73
Rp74
I5
I0
tp75
a(g4
(g5
(S'S6'
p76
I0
I1
tp77
Rp78
(I3
S'|'
p79
NNNI6
I1
I0
tp80
bS'yellow'
p81
tp82
Rp83
I5
I1
tp84
a(g4
(g5
(S'S8'
p85
I0
I1
tp86
Rp87
(I3
S'|'
p88
NNNI8
I1
I0
tp89
bS'cylinder'
p90
tp91
Rp92
I29
I1
tp93
a(g4
(g5
(S'S5'
p94
I0
I1
tp95
Rp96
(I3
S'|'
p97
NNNI5
I1
I0
tp98
bS'empty'
p99
tp100
Rp101
I8
I1
tp102
a(g4
(g5
(S'S5'
p103
I0
I1
tp104
Rp105
(I3
S'|'
p106
NNNI5
I1
I0
tp107
bS'block'
p108
tp109
Rp110
I29
I1
tp111
a(g4
(g5
(S'S8'
p112
I0
I1
tp113
Rp114
(I3
S'|'
p115
NNNI8
I1
I0
tp116
bS'pringles'
p117
tp118
Rp119
I1
I1
tp120
a(g4
(g5
(S'S5'
p121
I0
I1
tp122
Rp123
(I3
S'|'
p124
NNNI5
I1
I0
tp125
bS'block'
p126
tp127
Rp128
I31
I1
tp129
a(g4
(g5
(S'S9'
p130
I0
I1
tp131
Rp132
(I3
S'|'
p133
NNNI9
I1
I0
tp134
bS'styrofoam'
p135
tp136
Rp137
I14
I1
tp138
a(g4
(g5
(S'S6'
p139
I0
I1
tp140
Rp141
(I3
S'|'
p142
NNNI6
I1
I0
tp143
bS'column'
p144
tp145
Rp146
I14
I1
tp147
aa(lp148
(S'p'
p149
S'body'
p150
I01
tp151
aa.