(lp0
(lp1
(dp2
S'action'
p3
cnumpy.core.multiarray
scalar
p4
(cnumpy
dtype
p5
(S'S4'
p6
I0
I1
tp7
Rp8
(I3
S'|'
p9
NNNI4
I1
I0
tp10
bS'move'
p11
tp12
Rp13
sS'recipient'
p14
NsS'patient'
p15
S'oidx_6'
p16
sS'goal'
p17
S'3404'
p18
sS'source'
p19
S'3422'
p20
sa(dp21
g3
g4
(g5
(S'S4'
p22
I0
I1
tp23
Rp24
(I3
S'|'
p25
NNNI4
I1
I0
tp26
bS'move'
p27
tp28
Rp29
sg14
Nsg15
S'oidx_25'
p30
sg17
S'3502'
p31
sg19
S'3406'
p32
sa(dp33
g3
g4
(g5
(S'S4'
p34
I0
I1
tp35
Rp36
(I3
S'|'
p37
NNNI4
I1
I0
tp38
bS'move'
p39
tp40
Rp41
sg14
Nsg15
S'oidx_28'
p42
sg17
S'3516'
p43
sg19
S'3414b'
p44
saa(lp45
(dp46
S'all'
p47
(lp48
S'office'
p49
asg15
(lp50
S'yes'
p51
asg17
(lp52
S'yes'
p53
asg19
(lp54
S'yes'
p55
asg3
(lp56
sg14
(lp57
sa(dp58
g47
(lp59
S'yes'
p60
asg15
(lp61
sg17
(lp62
S'yes'
p63
asg19
(lp64
S'office'
p65
aS'yes'
p66
asg3
(lp67
sg14
(lp68
sa(dp69
g47
(lp70
S'office'
p71
asg15
(lp72
sg17
(lp73
S'yes'
p74
aS'yes'
p75
asg19
(lp76
S'yes'
p77
asg3
(lp78
sg14
(lp79
saa(lp80
(g4
(g5
(S'S8'
p81
I0
I1
tp82
Rp83
(I3
S'|'
p84
NNNI8
I1
I0
tp85
bS'pringles'
p86
tp87
Rp88
I1
I1
tp89
a(g4
(g5
(S'S5'
p90
I0
I1
tp91
Rp92
(I3
S'|'
p93
NNNI5
I1
I0
tp94
bS'block'
p95
tp96
Rp97
I8
I1
tp98
a(g4
(g5
(S'S5'
p99
I0
I1
tp100
Rp101
(I3
S'|'
p102
NNNI5
I1
I0
tp103
bS'small'
p104
tp105
Rp106
I5
I0
tp107
a(g4
(g5
(S'S4'
p108
I0
I1
tp109
Rp110
(I3
S'|'
p111
NNNI4
I1
I0
tp112
bS'blue'
p113
tp114
Rp115
I14
I0
tp116
a(g4
(g5
(S'S6'
p117
I0
I1
tp118
Rp119
(I3
S'|'
p120
NNNI6
I1
I0
tp121
bS'column'
p122
tp123
Rp124
I30
I1
tp125
a(g4
(g5
(S'S5'
p126
I0
I1
tp127
Rp128
(I3
S'|'
p129
NNNI5
I1
I0
tp130
bS'white'
p131
tp132
Rp133
I29
I1
tp134
a(g4
(g5
(S'S4'
p135
I0
I1
tp136
Rp137
(I3
S'|'
p138
NNNI4
I1
I0
tp139
bS'long'
p140
tp141
Rp142
I31
I1
tp143
a(g4
(g5
(S'S8'
p144
I0
I1
tp145
Rp146
(I3
S'|'
p147
NNNI8
I1
I0
tp148
bS'pringles'
p149
tp150
Rp151
I5
I1
tp152
a(g4
(g5
(S'S5'
p153
I0
I1
tp154
Rp155
(I3
S'|'
p156
NNNI5
I1
I0
tp157
bS'block'
p158
tp159
Rp160
I14
I1
tp161
a(g4
(g5
(S'S5'
p162
I0
I1
tp163
Rp164
(I3
S'|'
p165
NNNI5
I1
I0
tp166
bS'tower'
p167
tp168
Rp169
I8
I1
tp170
a(g4
(g5
(S'S5'
p171
I0
I1
tp172
Rp173
(I3
S'|'
p174
NNNI5
I1
I0
tp175
bS'peach'
p176
tp177
Rp178
I30
I1
tp179
a(g4
(g5
(S'S3'
p180
I0
I1
tp181
Rp182
(I3
S'|'
p183
NNNI3
I1
I0
tp184
bS'red'
p185
tp186
Rp187
I30
I0
tp188
a(g4
(g5
(S'S5'
p189
I0
I1
tp190
Rp191
(I3
S'|'
p192
NNNI5
I1
I0
tp193
bS'empty'
p194
tp195
Rp196
I14
I1
tp197
a(g4
(g5
(S'S6'
p198
I0
I1
tp199
Rp200
(I3
S'|'
p201
NNNI6
I1
I0
tp202
bS'coffee'
p203
tp204
Rp205
I14
I1
tp206
a(g4
(g5
(S'S3'
p207
I0
I1
tp208
Rp209
(I3
S'|'
p210
NNNI3
I1
I0
tp211
bS'can'
p212
tp213
Rp214
I29
I1
tp215
aa(lp216
a.