(lp0
(lp1
(dp2
S'action'
p3
cnumpy.core.multiarray
scalar
p4
(cnumpy
dtype
p5
(S'S5'
p6
I0
I1
tp7
Rp8
(I3
S'|'
p9
NNNI5
I1
I0
tp10
bS'bring'
p11
tp12
Rp13
sS'recipient'
p14
S'n'
p15
sS'patient'
p16
S'oidx_28'
p17
sS'goal'
p18
NsS'source'
p19
Nsa(dp20
g3
g4
(g5
(S'S4'
p21
I0
I1
tp22
Rp23
(I3
S'|'
p24
NNNI4
I1
I0
tp25
bS'move'
p26
tp27
Rp28
sg14
Nsg16
S'oidx_22'
p29
sg18
S'3516'
p30
sg19
S'3520'
p31
sa(dp32
g3
g4
(g5
(S'S4'
p33
I0
I1
tp34
Rp35
(I3
S'|'
p36
NNNI4
I1
I0
tp37
bS'walk'
p38
tp39
Rp40
sg14
Nsg16
Nsg18
S'3512'
p41
sg19
Nsaa(lp42
(dp43
S'all'
p44
(lp45
S'yes'
p46
asg16
(lp47
S'yes'
p48
aS'no'
p49
asg18
(lp50
sg19
(lp51
sg3
(lp52
sg14
(lp53
sa(dp54
g44
(lp55
S'no'
p56
asg16
(lp57
sg18
(lp58
S'yes'
p59
aS'yes'
p60
asg19
(lp61
S'yes'
p62
asg3
(lp63
sg14
(lp64
sa(dp65
g44
(lp66
S'yes'
p67
asg16
(lp68
sg18
(lp69
S'yes'
p70
aS'yes'
p71
aS'yes'
p72
aS'yes'
p73
aS'office'
p74
aS'lab'
p75
asg19
(lp76
sg3
(lp77
sg14
(lp78
saa(lp79
(g4
(g5
(S'S6'
p80
I0
I1
tp81
Rp82
(I3
S'|'
p83
NNNI6
I1
I0
tp84
bS'column'
p85
tp86
Rp87
I31
I1
tp88
a(g4
(g5
(S'S5'
p89
I0
I1
tp90
Rp91
(I3
S'|'
p92
NNNI5
I1
I0
tp93
bS'brown'
p94
tp95
Rp96
I31
I0
tp97
a(g4
(g5
(S'S5'
p98
I0
I1
tp99
Rp100
(I3
S'|'
p101
NNNI5
I1
I0
tp102
bS'white'
p103
tp104
Rp105
I31
I1
tp106
a(g4
(g5
(S'S8'
p107
I0
I1
tp108
Rp109
(I3
S'|'
p110
NNNI8
I1
I0
tp111
bS'metallic'
p112
tp113
Rp114
I31
I1
tp115
a(g4
(g5
(S'S6'
p116
I0
I1
tp117
Rp118
(I3
S'|'
p119
NNNI6
I1
I0
tp120
bS'yellow'
p121
tp122
Rp123
I30
I1
tp124
a(g4
(g5
(S'S8'
p125
I0
I1
tp126
Rp127
(I3
S'|'
p128
NNNI8
I1
I0
tp129
bS'cylinder'
p130
tp131
Rp132
I5
I1
tp133
a(g4
(g5
(S'S5'
p134
I0
I1
tp135
Rp136
(I3
S'|'
p137
NNNI5
I1
I0
tp138
bS'block'
p139
tp140
Rp141
I5
I1
tp142
a(g4
(g5
(S'S9'
p143
I0
I1
tp144
Rp145
(I3
S'|'
p146
NNNI9
I1
I0
tp147
bS'styrofoam'
p148
tp149
Rp150
I30
I1
tp151
a(g4
(g5
(S'S5'
p152
I0
I1
tp153
Rp154
(I3
S'|'
p155
NNNI5
I1
I0
tp156
bS'clear'
p157
tp158
Rp159
I5
I1
tp160
a(g4
(g5
(S'S3'
p161
I0
I1
tp162
Rp163
(I3
S'|'
p164
NNNI3
I1
I0
tp165
bS'can'
p166
tp167
Rp168
I1
I1
tp169
a(g4
(g5
(S'S3'
p170
I0
I1
tp171
Rp172
(I3
S'|'
p173
NNNI3
I1
I0
tp174
bS'red'
p175
tp176
Rp177
I31
I0
tp178
a(g4
(g5
(S'S6'
p179
I0
I1
tp180
Rp181
(I3
S'|'
p182
NNNI6
I1
I0
tp183
bS'column'
p184
tp185
Rp186
I1
I1
tp187
a(g4
(g5
(S'S3'
p188
I0
I1
tp189
Rp190
(I3
S'|'
p191
NNNI3
I1
I0
tp192
bS'red'
p193
tp194
Rp195
I31
I1
tp196
a(g4
(g5
(S'S8'
p197
I0
I1
tp198
Rp199
(I3
S'|'
p200
NNNI8
I1
I0
tp201
bS'metallic'
p202
tp203
Rp204
I1
I1
tp205
a(g4
(g5
(S'S4'
p206
I0
I1
tp207
Rp208
(I3
S'|'
p209
NNNI4
I1
I0
tp210
bS'long'
p211
tp212
Rp213
I14
I1
tp214
aa(lp215
a.