(lp0
(lp1
(dp2
S'action'
p3
cnumpy.core.multiarray
scalar
p4
(cnumpy
dtype
p5
(S'S5'
p6
I0
I1
tp7
Rp8
(I3
S'|'
p9
NNNI5
I1
I0
tp10
bS'bring'
p11
tp12
Rp13
sS'recipient'
p14
S'w'
p15
sS'patient'
p16
S'oidx_11'
p17
sS'goal'
p18
NsS'source'
p19
Nsa(dp20
g3
g4
(g5
(S'S4'
p21
I0
I1
tp22
Rp23
(I3
S'|'
p24
NNNI4
I1
I0
tp25
bS'walk'
p26
tp27
Rp28
sg14
Nsg16
Nsg18
S'3402'
p29
sg19
Nsa(dp30
g3
g4
(g5
(S'S5'
p31
I0
I1
tp32
Rp33
(I3
S'|'
p34
NNNI5
I1
I0
tp35
bS'bring'
p36
tp37
Rp38
sg14
S'p'
p39
sg16
S'oidx_13'
p40
sg18
Nsg19
Nsaa(lp41
(dp42
S'all'
p43
(lp44
S'yes'
p45
asg16
(lp46
S'yes'
p47
aS'yhes'
p48
asg18
(lp49
sg19
(lp50
sg3
(lp51
sg14
(lp52
sa(dp53
g43
(lp54
S'yes'
p55
asg16
(lp56
sg18
(lp57
S'yes'
p58
aS'yes'
p59
aS'yes'
p60
aS'yes'
p61
aS'yes'
p62
aS'yes'
p63
asg19
(lp64
sg3
(lp65
sg14
(lp66
sa(dp67
g43
(lp68
S'yes'
p69
asg16
(lp70
S'yes'
p71
asg18
(lp72
sg19
(lp73
sg3
(lp74
sg14
(lp75
S'yes'
p76
asaa(lp77
(g4
(g5
(S'S4'
p78
I0
I1
tp79
Rp80
(I3
S'|'
p81
NNNI4
I1
I0
tp82
bS'long'
p83
tp84
Rp85
I8
I1
tp86
a(g4
(g5
(S'S5'
p87
I0
I1
tp88
Rp89
(I3
S'|'
p90
NNNI5
I1
I0
tp91
bS'peach'
p92
tp93
Rp94
I14
I1
tp95
a(g4
(g5
(S'S9'
p96
I0
I1
tp97
Rp98
(I3
S'|'
p99
NNNI9
I1
I0
tp100
bS'rectangle'
p101
tp102
Rp103
I14
I1
tp104
a(g4
(g5
(S'S4'
p105
I0
I1
tp106
Rp107
(I3
S'|'
p108
NNNI4
I1
I0
tp109
bS'long'
p110
tp111
Rp112
I31
I1
tp113
a(g4
(g5
(S'S3'
p114
I0
I1
tp115
Rp116
(I3
S'|'
p117
NNNI3
I1
I0
tp118
bS'red'
p119
tp120
Rp121
I14
I0
tp122
a(g4
(g5
(S'S8'
p123
I0
I1
tp124
Rp125
(I3
S'|'
p126
NNNI8
I1
I0
tp127
bS'metallic'
p128
tp129
Rp130
I5
I0
tp131
a(g130
I14
I0
tp132
a(g130
I8
I0
tp133
a(g130
I15
I0
tp134
a(g130
I1
I0
tp135
a(g130
I30
I0
tp136
a(g130
I29
I0
tp137
a(g130
I31
I0
tp138
a(g4
(g5
(S'S5'
p139
I0
I1
tp140
Rp141
(I3
S'|'
p142
NNNI5
I1
I0
tp143
bS'clear'
p144
tp145
Rp146
I30
I1
tp147
a(g4
(g5
(S'S8'
p148
I0
I1
tp149
Rp150
(I3
S'|'
p151
NNNI8
I1
I0
tp152
bS'pringles'
p153
tp154
Rp155
I15
I1
tp156
a(g4
(g5
(S'S5'
p157
I0
I1
tp158
Rp159
(I3
S'|'
p160
NNNI5
I1
I0
tp161
bS'clear'
p162
tp163
Rp164
I14
I1
tp165
a(g4
(g5
(S'S4'
p166
I0
I1
tp167
Rp168
(I3
S'|'
p169
NNNI4
I1
I0
tp170
bS'long'
p171
tp172
Rp173
I15
I1
tp174
a(g4
(g5
(S'S5'
p175
I0
I1
tp176
Rp177
(I3
S'|'
p178
NNNI5
I1
I0
tp179
bS'peach'
p180
tp181
Rp182
I30
I1
tp183
a(g4
(g5
(S'S4'
p184
I0
I1
tp185
Rp186
(I3
S'|'
p187
NNNI4
I1
I0
tp188
bS'blue'
p189
tp190
Rp191
I14
I0
tp192
a(g4
(g5
(S'S9'
p193
I0
I1
tp194
Rp195
(I3
S'|'
p196
NNNI9
I1
I0
tp197
bS'rectangle'
p198
tp199
Rp200
I15
I1
tp201
a(g4
(g5
(S'S3'
p202
I0
I1
tp203
Rp204
(I3
S'|'
p205
NNNI3
I1
I0
tp206
bS'can'
p207
tp208
Rp209
I29
I1
tp210
a(g4
(g5
(S'S6'
p211
I0
I1
tp212
Rp213
(I3
S'|'
p214
NNNI6
I1
I0
tp215
bS'yellow'
p216
tp217
Rp218
I14
I1
tp219
aa(lp220
a.