(lp0
(lp1
(dp2
S'action'
p3
cnumpy.core.multiarray
scalar
p4
(cnumpy
dtype
p5
(S'S5'
p6
I0
I1
tp7
Rp8
(I3
S'|'
p9
NNNI5
I1
I0
tp10
bS'bring'
p11
tp12
Rp13
sS'recipient'
p14
S'n'
p15
sS'patient'
p16
S'oidx_12'
p17
sS'goal'
p18
NsS'source'
p19
Nsa(dp20
g3
g4
(g5
(S'S5'
p21
I0
I1
tp22
Rp23
(I3
S'|'
p24
NNNI5
I1
I0
tp25
bS'bring'
p26
tp27
Rp28
sg14
g4
(g5
(S'S1'
p29
I0
I1
tp30
Rp31
(I3
S'|'
p32
NNNI1
I1
I0
tp33
bS'b'
p34
tp35
Rp36
sg16
g4
(g5
(S'S7'
p37
I0
I1
tp38
Rp39
(I3
S'|'
p40
NNNI7
I1
I0
tp41
bS'oidx_22'
p42
tp43
Rp44
sg18
Nsg19
Nsaa(lp45
(dp46
S'all'
p47
(lp48
S'what will come in the place of conference'
p49
asg16
(lp50
S'owner of the conference hall'
p51
aS'conference'
p52
aS'yes'
p53
asg18
(lp54
sg19
(lp55
sg3
(lp56
sg14
(lp57
sa(dp58
g47
(lp59
S'deliver the bottle to robert bob brown'
p60
asg16
(lp61
S'the object'
p62
aS'the object'
p63
asg18
(lp64
sg19
(lp65
sg3
(lp66
sg14
(lp67
saa(lp68
(g4
(g5
(S'S5'
p69
I0
I1
tp70
Rp71
(I3
S'|'
p72
NNNI5
I1
I0
tp73
bS'white'
p74
tp75
Rp76
I5
I0
tp77
a(g76
I14
I0
tp78
a(g76
I8
I0
tp79
a(g76
I15
I0
tp80
a(g76
I1
I0
tp81
a(g76
I30
I0
tp82
a(g76
I29
I0
tp83
a(g76
I31
I0
tp84
a(g4
(g5
(S'S9'
p85
I0
I1
tp86
Rp87
(I3
S'|'
p88
NNNI9
I1
I0
tp89
bS'styrofoam'
p90
tp91
Rp92
I31
I1
tp93
a(g4
(g5
(S'S3'
p94
I0
I1
tp95
Rp96
(I3
S'|'
p97
NNNI3
I1
I0
tp98
bS'red'
p99
tp100
Rp101
I5
I1
tp102
a(g101
I14
I1
tp103
a(g101
I8
I1
tp104
a(g101
I15
I1
tp105
a(g101
I1
I1
tp106
a(g101
I30
I1
tp107
a(g101
I29
I1
tp108
a(g101
I31
I1
tp109
a(g4
(g5
(S'S5'
p110
I0
I1
tp111
Rp112
(I3
S'|'
p113
NNNI5
I1
I0
tp114
bS'clear'
p115
tp116
Rp117
I8
I1
tp118
a(g4
(g5
(S'S6'
p119
I0
I1
tp120
Rp121
(I3
S'|'
p122
NNNI6
I1
I0
tp123
bS'column'
p124
tp125
Rp126
I30
I1
tp127
a(g4
(g5
(S'S9'
p128
I0
I1
tp129
Rp130
(I3
S'|'
p131
NNNI9
I1
I0
tp132
bS'container'
p133
tp134
Rp135
I5
I1
tp136
a(g4
(g5
(S'S9'
p137
I0
I1
tp138
Rp139
(I3
S'|'
p140
NNNI9
I1
I0
tp141
bS'container'
p142
tp143
Rp144
I8
I1
tp145
a(g4
(g5
(S'S9'
p146
I0
I1
tp147
Rp148
(I3
S'|'
p149
NNNI9
I1
I0
tp150
bS'container'
p151
tp152
Rp153
I29
I1
tp154
a(g4
(g5
(S'S9'
p155
I0
I1
tp156
Rp157
(I3
S'|'
p158
NNNI9
I1
I0
tp159
bS'container'
p160
tp161
Rp162
I31
I1
tp163
a(g4
(g5
(S'S9'
p164
I0
I1
tp165
Rp166
(I3
S'|'
p167
NNNI9
I1
I0
tp168
bS'container'
p169
tp170
Rp171
I14
I1
tp172
aa(lp173
a.