(lp0
(lp1
(dp2
S'action'
p3
cnumpy.core.multiarray
scalar
p4
(cnumpy
dtype
p5
(S'S5'
p6
I0
I1
tp7
Rp8
(I3
S'|'
p9
NNNI5
I1
I0
tp10
bS'bring'
p11
tp12
Rp13
sS'recipient'
p14
S'p'
p15
sS'patient'
p16
S'oidx_12'
p17
sS'goal'
p18
NsS'source'
p19
Nsa(dp20
g3
g4
(g5
(S'S4'
p21
I0
I1
tp22
Rp23
(I3
S'|'
p24
NNNI4
I1
I0
tp25
bS'walk'
p26
tp27
Rp28
sg14
Nsg16
Nsg18
S'3518'
p29
sg19
Nsa(dp30
g3
g4
(g5
(S'S5'
p31
I0
I1
tp32
Rp33
(I3
S'|'
p34
NNNI5
I1
I0
tp35
bS'bring'
p36
tp37
Rp38
sg14
S'm'
p39
sg16
S'oidx_26'
p40
sg18
Nsg19
Nsaa(lp41
(dp42
S'all'
p43
(lp44
S'go anywhere'
p45
asg16
(lp46
S'yes'
p47
asg18
(lp48
sg19
(lp49
sg3
(lp50
sg14
(lp51
S'yes'
p52
asa(dp53
g43
(lp54
S'go'
p55
asg16
(lp56
sg18
(lp57
S'go o'
p58
aS'go office'
p59
aS'office'
p60
aS'b'
p61
asg19
(lp62
sg3
(lp63
sg14
(lp64
sa(dp65
g43
(lp66
S'p'
p67
asg16
(lp68
S'yes'
p69
aS'yes'
p70
asg18
(lp71
sg19
(lp72
sg3
(lp73
sg14
(lp74
saa(lp75
(g4
(g5
(S'S3'
p76
I0
I1
tp77
Rp78
(I3
S'|'
p79
NNNI3
I1
I0
tp80
bS'can'
p81
tp82
Rp83
I8
I1
tp84
a(g4
(g5
(S'S3'
p85
I0
I1
tp86
Rp87
(I3
S'|'
p88
NNNI3
I1
I0
tp89
bS'can'
p90
tp91
Rp92
I30
I1
tp93
a(g4
(g5
(S'S3'
p94
I0
I1
tp95
Rp96
(I3
S'|'
p97
NNNI3
I1
I0
tp98
bS'can'
p99
tp100
Rp101
I30
I1
tp102
a(g4
(g5
(S'S3'
p103
I0
I1
tp104
Rp105
(I3
S'|'
p106
NNNI3
I1
I0
tp107
bS'can'
p108
tp109
Rp110
I15
I1
tp111
a(g4
(g5
(S'S3'
p112
I0
I1
tp113
Rp114
(I3
S'|'
p115
NNNI3
I1
I0
tp116
bS'can'
p117
tp118
Rp119
I29
I1
tp120
a(g4
(g5
(S'S9'
p121
I0
I1
tp122
Rp123
(I3
S'|'
p124
NNNI9
I1
I0
tp125
bS'container'
p126
tp127
Rp128
I15
I1
tp129
a(g4
(g5
(S'S4'
p130
I0
I1
tp131
Rp132
(I3
S'|'
p133
NNNI4
I1
I0
tp134
bS'blue'
p135
tp136
Rp137
I15
I0
tp138
a(g4
(g5
(S'S6'
p139
I0
I1
tp140
Rp141
(I3
S'|'
p142
NNNI6
I1
I0
tp143
bS'column'
p144
tp145
Rp146
I30
I1
tp147
a(g4
(g5
(S'S5'
p148
I0
I1
tp149
Rp150
(I3
S'|'
p151
NNNI5
I1
I0
tp152
bS'spice'
p153
tp154
Rp155
I15
I1
tp156
a(g4
(g5
(S'S5'
p157
I0
I1
tp158
Rp159
(I3
S'|'
p160
NNNI5
I1
I0
tp161
bS'clear'
p162
tp163
Rp164
I15
I1
tp165
a(g4
(g5
(S'S3'
p166
I0
I1
tp167
Rp168
(I3
S'|'
p169
NNNI3
I1
I0
tp170
bS'p_0'
p171
tp172
Rp173
I5
I1
tp174
a(g4
(g5
(S'S3'
p175
I0
I1
tp176
Rp177
(I3
S'|'
p178
NNNI3
I1
I0
tp179
bS'p_0'
p180
tp181
Rp182
I14
I0
tp183
a(g4
(g5
(S'S3'
p184
I0
I1
tp185
Rp186
(I3
S'|'
p187
NNNI3
I1
I0
tp188
bS'p_0'
p189
tp190
Rp191
I14
I1
tp192
a(g4
(g5
(S'S3'
p193
I0
I1
tp194
Rp195
(I3
S'|'
p196
NNNI3
I1
I0
tp197
bS'p_0'
p198
tp199
Rp200
I14
I0
tp201
a(g4
(g5
(S'S3'
p202
I0
I1
tp203
Rp204
(I3
S'|'
p205
NNNI3
I1
I0
tp206
bS'p_0'
p207
tp208
Rp209
I5
I1
tp210
aa(lp211
(S'anywhere'
p212
S'can'
p213
I01
tp214
a(S'o'
p215
S'food'
p216
I01
tp217
a(g61
S'body'
p218
I00
tp219
a(g61
g216
I00
tp220
a(g67
g218
I00
tp221
a(g67
g216
I00
tp222
aa.