(lp0
(lp1
(dp2
S'action'
p3
cnumpy.core.multiarray
scalar
p4
(cnumpy
dtype
p5
(S'S4'
p6
I0
I1
tp7
Rp8
(I3
S'|'
p9
NNNI4
I1
I0
tp10
bS'move'
p11
tp12
Rp13
sS'recipient'
p14
NsS'patient'
p15
S'oidx_26'
p16
sS'goal'
p17
S'3502'
p18
sS'source'
p19
S'3414'
p20
saa(lp21
(dp22
S'all'
p23
(lp24
S"go to the office on the right of dr sybil smalt 's office"
p25
asg15
(lp26
S'you'
p27
aS'nothing'
p28
aS'go to office s'
p29
aS'go to office s'
p30
asg17
(lp31
S'office s'
p32
asg19
(lp33
S'move an item from where you are located to the office left of the lab'
p34
aS'move from longe'
p35
asg3
(lp36
sg14
(lp37
saa(lp38
(g4
(g5
(S'S3'
p39
I0
I1
tp40
Rp41
(I3
S'|'
p42
NNNI3
I1
I0
tp43
bS'red'
p44
tp45
Rp46
I14
I0
tp47
a(g4
(g5
(S'S8'
p48
I0
I1
tp49
Rp50
(I3
S'|'
p51
NNNI8
I1
I0
tp52
bS'cylinder'
p53
tp54
Rp55
I8
I1
tp56
a(g4
(g5
(S'S6'
p57
I0
I1
tp58
Rp59
(I3
S'|'
p60
NNNI6
I1
I0
tp61
bS'column'
p62
tp63
Rp64
I30
I1
tp65
a(g4
(g5
(S'S8'
p66
I0
I1
tp67
Rp68
(I3
S'|'
p69
NNNI8
I1
I0
tp70
bS'cylinder'
p71
tp72
Rp73
I29
I1
tp74
a(g4
(g5
(S'S6'
p75
I0
I1
tp76
Rp77
(I3
S'|'
p78
NNNI6
I1
I0
tp79
bS'yellow'
p80
tp81
Rp82
I5
I0
tp83
a(g82
I14
I0
tp84
a(g82
I8
I0
tp85
a(g82
I15
I0
tp86
a(g82
I1
I0
tp87
a(g82
I30
I0
tp88
a(g82
I29
I0
tp89
a(g82
I31
I0
tp90
aa(lp91
a.