(lp0
(lp1
(dp2
S'action'
p3
cnumpy.core.multiarray
scalar
p4
(cnumpy
dtype
p5
(S'S4'
p6
I0
I1
tp7
Rp8
(I3
S'|'
p9
NNNI4
I1
I0
tp10
bS'walk'
p11
tp12
Rp13
sS'recipient'
p14
NsS'patient'
p15
NsS'goal'
p16
S'3406'
p17
sS'source'
p18
Nsa(dp19
g3
g4
(g5
(S'S5'
p20
I0
I1
tp21
Rp22
(I3
S'|'
p23
NNNI5
I1
I0
tp24
bS'bring'
p25
tp26
Rp27
sg14
g4
(g5
(S'S1'
p28
I0
I1
tp29
Rp30
(I3
S'|'
p31
NNNI1
I1
I0
tp32
bS'w'
p33
tp34
Rp35
sg15
S'oidx_6'
p36
sg16
Nsg18
Nsaa(lp37
(dp38
S'all'
p39
(lp40
S'please go to the lounge marked with an x in the diagram with green border'
p41
asg15
(lp42
sg16
(lp43
S'go to the lounge'
p44
aS'the other lounge'
p45
aS'the bigger lounge'
p46
asg18
(lp47
sg3
(lp48
sg14
(lp49
sa(dp50
g39
(lp51
S'go pick up the bottle sitting out in the open and take it to person w walter ward supervisor'
p52
asg15
(lp53
S'a white bottle'
p54
aS'a container'
p55
aS'go find a white bottle to deliver'
p56
aS'go find another bottle to deliver'
p57
aS'try to find another bottle'
p58
asg16
(lp59
sg18
(lp60
sg3
(lp61
sg14
(lp62
S'walter ward supervisor'
p63
asaa(lp64
(g4
(g5
(S'S8'
p65
I0
I1
tp66
Rp67
(I3
S'|'
p68
NNNI8
I1
I0
tp69
bS'cylinder'
p70
tp71
Rp72
I8
I1
tp73
a(g4
(g5
(S'S9'
p74
I0
I1
tp75
Rp76
(I3
S'|'
p77
NNNI9
I1
I0
tp78
bS'container'
p79
tp80
Rp81
I29
I1
tp82
a(g4
(g5
(S'S3'
p83
I0
I1
tp84
Rp85
(I3
S'|'
p86
NNNI3
I1
I0
tp87
bS'can'
p88
tp89
Rp90
I8
I1
tp91
a(g4
(g5
(S'S8'
p92
I0
I1
tp93
Rp94
(I3
S'|'
p95
NNNI8
I1
I0
tp96
bS'cylinder'
p97
tp98
Rp99
I8
I1
tp100
a(g4
(g5
(S'S6'
p101
I0
I1
tp102
Rp103
(I3
S'|'
p104
NNNI6
I1
I0
tp105
bS'coffee'
p106
tp107
Rp108
I30
I1
tp109
a(g4
(g5
(S'S9'
p110
I0
I1
tp111
Rp112
(I3
S'|'
p113
NNNI9
I1
I0
tp114
bS'container'
p115
tp116
Rp117
I14
I1
tp118
a(g4
(g5
(S'S9'
p119
I0
I1
tp120
Rp121
(I3
S'|'
p122
NNNI9
I1
I0
tp123
bS'container'
p124
tp125
Rp126
I30
I1
tp127
a(g4
(g5
(S'S9'
p128
I0
I1
tp129
Rp130
(I3
S'|'
p131
NNNI9
I1
I0
tp132
bS'container'
p133
tp134
Rp135
I5
I1
tp136
a(g4
(g5
(S'S5'
p137
I0
I1
tp138
Rp139
(I3
S'|'
p140
NNNI5
I1
I0
tp141
bS'white'
p142
tp143
Rp144
I5
I0
tp145
a(g144
I14
I0
tp146
a(g144
I8
I0
tp147
a(g144
I15
I0
tp148
a(g144
I1
I0
tp149
a(g144
I30
I0
tp150
a(g144
I29
I0
tp151
a(g144
I31
I0
tp152
a(g4
(g5
(S'S9'
p153
I0
I1
tp154
Rp155
(I3
S'|'
p156
NNNI9
I1
I0
tp157
bS'container'
p158
tp159
Rp160
I15
I1
tp161
aa(lp162
(S'green'
p163
S'yellow'
p164
I00
tp165
a(g163
S'blue'
p166
I00
tp167
a(g163
S'color'
p168
I01
tp169
a(S'bigger'
p170
S'your'
p171
I00
tp172
aa.