(lp0
(lp1
(dp2
S'action'
p3
cnumpy.core.multiarray
scalar
p4
(cnumpy
dtype
p5
(S'S5'
p6
I0
I1
tp7
Rp8
(I3
S'|'
p9
NNNI5
I1
I0
tp10
bS'bring'
p11
tp12
Rp13
sS'recipient'
p14
S's'
p15
sS'patient'
p16
S'oidx_28'
p17
sS'goal'
p18
NsS'source'
p19
Nsaa(lp20
(dp21
S'all'
p22
(lp23
S'lab'
p24
asg16
(lp25
S'bottle'
p26
aS'bottle'
p27
asg18
(lp28
sg19
(lp29
sg3
(lp30
sg14
(lp31
saa(lp32
(g4
(g5
(S'S3'
p33
I0
I1
tp34
Rp35
(I3
S'|'
p36
NNNI3
I1
I0
tp37
bS'can'
p38
tp39
Rp40
I30
I1
tp41
a(g4
(g5
(S'S3'
p42
I0
I1
tp43
Rp44
(I3
S'|'
p45
NNNI3
I1
I0
tp46
bS'red'
p47
tp48
Rp49
I5
I1
tp50
a(g49
I14
I1
tp51
a(g49
I8
I1
tp52
a(g49
I15
I1
tp53
a(g49
I1
I1
tp54
a(g49
I30
I1
tp55
a(g49
I29
I1
tp56
a(g49
I31
I1
tp57
a(g4
(g5
(S'S5'
p58
I0
I1
tp59
Rp60
(I3
S'|'
p61
NNNI5
I1
I0
tp62
bS'brown'
p63
tp64
Rp65
I5
I1
tp66
a(g65
I14
I1
tp67
a(g65
I8
I1
tp68
a(g65
I15
I1
tp69
a(g65
I1
I1
tp70
a(g65
I30
I1
tp71
a(g65
I29
I1
tp72
a(g65
I31
I1
tp73
a(g4
(g5
(S'S9'
p74
I0
I1
tp75
Rp76
(I3
S'|'
p77
NNNI9
I1
I0
tp78
bS'container'
p79
tp80
Rp81
I5
I0
tp82
a(g81
I14
I0
tp83
a(g81
I8
I0
tp84
a(g81
I15
I0
tp85
a(g81
I1
I0
tp86
a(g81
I30
I0
tp87
a(g81
I29
I0
tp88
a(g81
I31
I0
tp89
a(g4
(g5
(S'S6'
p90
I0
I1
tp91
Rp92
(I3
S'|'
p93
NNNI6
I1
I0
tp94
bS'column'
p95
tp96
Rp97
I14
I0
tp98
aa(lp99
a.