(lp0
(lp1
(dp2
S'action'
p3
cnumpy.core.multiarray
scalar
p4
(cnumpy
dtype
p5
(S'S4'
p6
I0
I1
tp7
Rp8
(I3
S'|'
p9
NNNI4
I1
I0
tp10
bS'walk'
p11
tp12
Rp13
sS'recipient'
p14
NsS'patient'
p15
NsS'goal'
p16
g4
(g5
(S'S4'
p17
I0
I1
tp18
Rp19
(I3
S'|'
p20
NNNI4
I1
I0
tp21
bS'3520'
p22
tp23
Rp24
sS'source'
p25
Nsa(dp26
g3
g4
(g5
(S'S4'
p27
I0
I1
tp28
Rp29
(I3
S'|'
p30
NNNI4
I1
I0
tp31
bS'walk'
p32
tp33
Rp34
sg14
Nsg15
Nsg16
S'3504'
p35
sg25
Nsa(dp36
g3
g4
(g5
(S'S4'
p37
I0
I1
tp38
Rp39
(I3
S'|'
p40
NNNI4
I1
I0
tp41
bS'walk'
p42
tp43
Rp44
sg14
Nsg15
Nsg16
S'3520'
p45
sg25
Nsaa(lp46
(dp47
S'all'
p48
(lp49
S'yes'
p50
asg15
(lp51
sg16
(lp52
S'b office'
p53
aS'b lab'
p54
aS'yes'
p55
aS'lab'
p56
aS'office'
p57
aS'conference'
p58
aS'b office'
p59
asg25
(lp60
sg3
(lp61
sg14
(lp62
sa(dp63
g48
(lp64
S'yes'
p65
asg15
(lp66
sg16
(lp67
S'office b'
p68
aS'office d'
p69
aS'office b'
p70
aS'office d'
p71
asg25
(lp72
sg3
(lp73
sg14
(lp74
sa(dp75
g48
(lp76
S'office n'
p77
asg15
(lp78
sg16
(lp79
S'office b'
p80
aS'office d'
p81
aS'office food'
p82
aS'office b'
p83
aS'conference'
p84
aS'office d'
p85
asg25
(lp86
sg3
(lp87
sg14
(lp88
saa(lp89
(g4
(g5
(S'S9'
p90
I0
I1
tp91
Rp92
(I3
S'|'
p93
NNNI9
I1
I0
tp94
bS'styrofoam'
p95
tp96
Rp97
I14
I1
tp98
a(g4
(g5
(S'S8'
p99
I0
I1
tp100
Rp101
(I3
S'|'
p102
NNNI8
I1
I0
tp103
bS'cylinder'
p104
tp105
Rp106
I30
I1
tp107
a(g4
(g5
(S'S3'
p108
I0
I1
tp109
Rp110
(I3
S'|'
p111
NNNI3
I1
I0
tp112
bS'can'
p113
tp114
Rp115
I14
I1
tp116
a(g4
(g5
(S'S5'
p117
I0
I1
tp118
Rp119
(I3
S'|'
p120
NNNI5
I1
I0
tp121
bS'clear'
p122
tp123
Rp124
I31
I1
tp125
a(g4
(g5
(S'S4'
p126
I0
I1
tp127
Rp128
(I3
S'|'
p129
NNNI4
I1
I0
tp130
bS'long'
p131
tp132
Rp133
I14
I1
tp134
a(g4
(g5
(S'S5'
p135
I0
I1
tp136
Rp137
(I3
S'|'
p138
NNNI5
I1
I0
tp139
bS'clear'
p140
tp141
Rp142
I8
I1
tp143
a(g4
(g5
(S'S4'
p144
I0
I1
tp145
Rp146
(I3
S'|'
p147
NNNI4
I1
I0
tp148
bS'blue'
p149
tp150
Rp151
I8
I0
tp152
a(g4
(g5
(S'S5'
p153
I0
I1
tp154
Rp155
(I3
S'|'
p156
NNNI5
I1
I0
tp157
bS'clear'
p158
tp159
Rp160
I14
I1
tp161
a(g4
(g5
(S'S5'
p162
I0
I1
tp163
Rp164
(I3
S'|'
p165
NNNI5
I1
I0
tp166
bS'block'
p167
tp168
Rp169
I29
I1
tp170
a(g4
(g5
(S'S5'
p171
I0
I1
tp172
Rp173
(I3
S'|'
p174
NNNI5
I1
I0
tp175
bS'block'
p176
tp177
Rp178
I8
I1
tp179
a(g4
(g5
(S'S5'
p180
I0
I1
tp181
Rp182
(I3
S'|'
p183
NNNI5
I1
I0
tp184
bS'small'
p185
tp186
Rp187
I14
I0
tp188
a(g4
(g5
(S'S8'
p189
I0
I1
tp190
Rp191
(I3
S'|'
p192
NNNI8
I1
I0
tp193
bS'cylinder'
p194
tp195
Rp196
I1
I1
tp197
a(g4
(g5
(S'S5'
p198
I0
I1
tp199
Rp200
(I3
S'|'
p201
NNNI5
I1
I0
tp202
bS'empty'
p203
tp204
Rp205
I14
I1
tp206
a(g4
(g5
(S'S5'
p207
I0
I1
tp208
Rp209
(I3
S'|'
p210
NNNI5
I1
I0
tp211
bS'clear'
p212
tp213
Rp214
I1
I0
tp215
a(g4
(g5
(S'S8'
p216
I0
I1
tp217
Rp218
(I3
S'|'
p219
NNNI8
I1
I0
tp220
bS'metallic'
p221
tp222
Rp223
I29
I1
tp224
aa(lp225
(S'n'
p226
S'food'
p227
I01
tp228
aa.