(lp0
(lp1
(dp2
S'action'
p3
cnumpy.core.multiarray
scalar
p4
(cnumpy
dtype
p5
(S'S4'
p6
I0
I1
tp7
Rp8
(I3
S'|'
p9
NNNI4
I1
I0
tp10
bS'move'
p11
tp12
Rp13
sS'recipient'
p14
NsS'patient'
p15
S'oidx_12'
p16
sS'goal'
p17
S'3408'
p18
sS'source'
p19
S'3414'
p20
sa(dp21
g3
g4
(g5
(S'S5'
p22
I0
I1
tp23
Rp24
(I3
S'|'
p25
NNNI5
I1
I0
tp26
bS'bring'
p27
tp28
Rp29
sg14
S'b'
p30
sg15
S'oidx_13'
p31
sg17
Nsg19
Nsa(dp32
g3
g4
(g5
(S'S5'
p33
I0
I1
tp34
Rp35
(I3
S'|'
p36
NNNI5
I1
I0
tp37
bS'bring'
p38
tp39
Rp40
sg14
S'r'
p41
sg15
S'oidx_22'
p42
sg17
Nsg19
Nsaa(lp43
(dp44
S'all'
p45
(lp46
S'office'
p47
asg15
(lp48
S'no'
p49
asg17
(lp50
S'yes'
p51
asg19
(lp52
S'yes'
p53
asg3
(lp54
sg14
(lp55
sa(dp56
g45
(lp57
S'yes'
p58
asg15
(lp59
S'yes'
p60
aS'yes'
p61
asg17
(lp62
sg19
(lp63
sg3
(lp64
sg14
(lp65
sa(dp66
g45
(lp67
S'kitchen'
p68
asg15
(lp69
S'yes'
p70
asg17
(lp71
sg19
(lp72
sg3
(lp73
sg14
(lp74
S'yes'
p75
asaa(lp76
(g4
(g5
(S'S5'
p77
I0
I1
tp78
Rp79
(I3
S'|'
p80
NNNI5
I1
I0
tp81
bS'block'
p82
tp83
Rp84
I14
I1
tp85
a(g4
(g5
(S'S8'
p86
I0
I1
tp87
Rp88
(I3
S'|'
p89
NNNI8
I1
I0
tp90
bS'cylinder'
p91
tp92
Rp93
I30
I1
tp94
a(g4
(g5
(S'S3'
p95
I0
I1
tp96
Rp97
(I3
S'|'
p98
NNNI3
I1
I0
tp99
bS'can'
p100
tp101
Rp102
I30
I1
tp103
a(g4
(g5
(S'S4'
p104
I0
I1
tp105
Rp106
(I3
S'|'
p107
NNNI4
I1
I0
tp108
bS'long'
p109
tp110
Rp111
I31
I0
tp112
a(g4
(g5
(S'S9'
p113
I0
I1
tp114
Rp115
(I3
S'|'
p116
NNNI9
I1
I0
tp117
bS'rectangle'
p118
tp119
Rp120
I1
I1
tp121
a(g4
(g5
(S'S3'
p122
I0
I1
tp123
Rp124
(I3
S'|'
p125
NNNI3
I1
I0
tp126
bS'can'
p127
tp128
Rp129
I5
I0
tp130
a(g129
I14
I0
tp131
a(g129
I8
I0
tp132
a(g129
I15
I0
tp133
a(g129
I1
I0
tp134
a(g129
I30
I0
tp135
a(g129
I29
I0
tp136
a(g129
I31
I0
tp137
a(g4
(g5
(S'S5'
p138
I0
I1
tp139
Rp140
(I3
S'|'
p141
NNNI5
I1
I0
tp142
bS'small'
p143
tp144
Rp145
I29
I0
tp146
a(g4
(g5
(S'S5'
p147
I0
I1
tp148
Rp149
(I3
S'|'
p150
NNNI5
I1
I0
tp151
bS'small'
p152
tp153
Rp154
I14
I1
tp155
a(g4
(g5
(S'S9'
p156
I0
I1
tp157
Rp158
(I3
S'|'
p159
NNNI9
I1
I0
tp160
bS'rectangle'
p161
tp162
Rp163
I5
I1
tp164
a(g4
(g5
(S'S5'
p165
I0
I1
tp166
Rp167
(I3
S'|'
p168
NNNI5
I1
I0
tp169
bS'tower'
p170
tp171
Rp172
I5
I1
tp173
a(g4
(g5
(S'S3'
p174
I0
I1
tp175
Rp176
(I3
S'|'
p177
NNNI3
I1
I0
tp178
bS'red'
p179
tp180
Rp181
I30
I0
tp182
a(g4
(g5
(S'S5'
p183
I0
I1
tp184
Rp185
(I3
S'|'
p186
NNNI5
I1
I0
tp187
bS'small'
p188
tp189
Rp190
I14
I0
tp191
a(g4
(g5
(S'S9'
p192
I0
I1
tp193
Rp194
(I3
S'|'
p195
NNNI9
I1
I0
tp196
bS'container'
p197
tp198
Rp199
I8
I1
tp200
a(g4
(g5
(S'S6'
p201
I0
I1
tp202
Rp203
(I3
S'|'
p204
NNNI6
I1
I0
tp205
bS'column'
p206
tp207
Rp208
I31
I1
tp209
a(g4
(g5
(S'S4'
p210
I0
I1
tp211
Rp212
(I3
S'|'
p213
NNNI4
I1
I0
tp214
bS'long'
p215
tp216
Rp217
I14
I0
tp218
aa(lp219
a.