(lp0
(lp1
(dp2
S'action'
p3
cnumpy.core.multiarray
scalar
p4
(cnumpy
dtype
p5
(S'S4'
p6
I0
I1
tp7
Rp8
(I3
S'|'
p9
NNNI4
I1
I0
tp10
bS'move'
p11
tp12
Rp13
sS'recipient'
p14
NsS'patient'
p15
S'oidx_22'
p16
sS'goal'
p17
S'3414b'
p18
sS'source'
p19
S'3422'
p20
saa(lp21
(dp22
S'all'
p23
(lp24
S'yes'
p25
asg15
(lp26
sg17
(lp27
S'yes'
p28
aS'yes'
p29
asg19
(lp30
S'yes'
p31
asg3
(lp32
sg14
(lp33
saa(lp34
(g4
(g5
(S'S5'
p35
I0
I1
tp36
Rp37
(I3
S'|'
p38
NNNI5
I1
I0
tp39
bS'block'
p40
tp41
Rp42
I30
I1
tp43
a(g4
(g5
(S'S5'
p44
I0
I1
tp45
Rp46
(I3
S'|'
p47
NNNI5
I1
I0
tp48
bS'empty'
p49
tp50
Rp51
I30
I1
tp52
a(g4
(g5
(S'S4'
p53
I0
I1
tp54
Rp55
(I3
S'|'
p56
NNNI4
I1
I0
tp57
bS'long'
p58
tp59
Rp60
I31
I1
tp61
a(g4
(g5
(S'S6'
p62
I0
I1
tp63
Rp64
(I3
S'|'
p65
NNNI6
I1
I0
tp66
bS'yellow'
p67
tp68
Rp69
I30
I1
tp70
a(g4
(g5
(S'S9'
p71
I0
I1
tp72
Rp73
(I3
S'|'
p74
NNNI9
I1
I0
tp75
bS'styrofoam'
p76
tp77
Rp78
I30
I1
tp79
aa(lp80
a.