(lp0
(lp1
(dp2
S'action'
p3
cnumpy.core.multiarray
scalar
p4
(cnumpy
dtype
p5
(S'S4'
p6
I0
I1
tp7
Rp8
(I3
S'|'
p9
NNNI4
I1
I0
tp10
bS'walk'
p11
tp12
Rp13
sS'recipient'
p14
NsS'patient'
p15
NsS'goal'
p16
g4
(g5
(S'S4'
p17
I0
I1
tp18
Rp19
(I3
S'|'
p20
NNNI4
I1
I0
tp21
bS'3420'
p22
tp23
Rp24
sS'source'
p25
Nsa(dp26
g3
g4
(g5
(S'S5'
p27
I0
I1
tp28
Rp29
(I3
S'|'
p30
NNNI5
I1
I0
tp31
bS'bring'
p32
tp33
Rp34
sg14
g4
(g5
(S'S1'
p35
I0
I1
tp36
Rp37
(I3
S'|'
p38
NNNI1
I1
I0
tp39
bS'r'
p40
tp41
Rp42
sg15
g4
(g5
(S'S7'
p43
I0
I1
tp44
Rp45
(I3
S'|'
p46
NNNI7
I1
I0
tp47
bS'oidx_11'
p48
tp49
Rp50
sg16
Nsg25
Nsa(dp51
g3
g4
(g5
(S'S4'
p52
I0
I1
tp53
Rp54
(I3
S'|'
p55
NNNI4
I1
I0
tp56
bS'walk'
p57
tp58
Rp59
sg14
Nsg15
Nsg16
S'3414'
p60
sg25
Nsaa(lp61
(dp62
S'all'
p63
(lp64
S"go to david 's office"
p65
asg15
(lp66
sg16
(lp67
sg25
(lp68
sg3
(lp69
sg14
(lp70
sa(dp71
g63
(lp72
S'bring the yellow can to richard'
p73
asg15
(lp74
S'the yellow can'
p75
aS'the yellow can'
p76
asg16
(lp77
sg25
(lp78
sg3
(lp79
sg14
(lp80
sa(dp81
g63
(lp82
S'move the wipes from the largest lab to the lab attached to the kitchen'
p83
asg15
(lp84
sg16
(lp85
S'the lab by the kitchen'
p86
asg25
(lp87
sg3
(lp88
sg14
(lp89
saa(lp90
(g4
(g5
(S'S9'
p91
I0
I1
tp92
Rp93
(I3
S'|'
p94
NNNI9
I1
I0
tp95
bS'styrofoam'
p96
tp97
Rp98
I30
I0
tp99
a(g4
(g5
(S'S6'
p100
I0
I1
tp101
Rp102
(I3
S'|'
p103
NNNI6
I1
I0
tp104
bS'coffee'
p105
tp106
Rp107
I5
I0
tp108
a(g107
I14
I0
tp109
a(g107
I8
I0
tp110
a(g107
I15
I0
tp111
a(g107
I1
I0
tp112
a(g107
I30
I0
tp113
a(g107
I29
I0
tp114
a(g107
I31
I0
tp115
a(g4
(g5
(S'S5'
p116
I0
I1
tp117
Rp118
(I3
S'|'
p119
NNNI5
I1
I0
tp120
bS'small'
p121
tp122
Rp123
I29
I0
tp124
a(g4
(g5
(S'S4'
p125
I0
I1
tp126
Rp127
(I3
S'|'
p128
NNNI4
I1
I0
tp129
bS'bean'
p130
tp131
Rp132
I5
I0
tp133
a(g132
I14
I0
tp134
a(g132
I8
I0
tp135
a(g132
I15
I0
tp136
a(g132
I1
I0
tp137
a(g132
I30
I0
tp138
a(g132
I29
I0
tp139
a(g132
I31
I0
tp140
a(g4
(g5
(S'S6'
p141
I0
I1
tp142
Rp143
(I3
S'|'
p144
NNNI6
I1
I0
tp145
bS'column'
p146
tp147
Rp148
I14
I0
tp149
a(g4
(g5
(S'S3'
p150
I0
I1
tp151
Rp152
(I3
S'|'
p153
NNNI3
I1
I0
tp154
bS'can'
p155
tp156
Rp157
I31
I0
tp158
a(g4
(g5
(S'S3'
p159
I0
I1
tp160
Rp161
(I3
S'|'
p162
NNNI3
I1
I0
tp163
bS'can'
p164
tp165
Rp166
I5
I1
tp167
a(g4
(g5
(S'S3'
p168
I0
I1
tp169
Rp170
(I3
S'|'
p171
NNNI3
I1
I0
tp172
bS'can'
p173
tp174
Rp175
I1
I0
tp176
a(g4
(g5
(S'S3'
p177
I0
I1
tp178
Rp179
(I3
S'|'
p180
NNNI3
I1
I0
tp181
bS'can'
p182
tp183
Rp184
I8
I1
tp185
a(g4
(g5
(S'S3'
p186
I0
I1
tp187
Rp188
(I3
S'|'
p189
NNNI3
I1
I0
tp190
bS'can'
p191
tp192
Rp193
I30
I0
tp194
a(g4
(g5
(S'S5'
p195
I0
I1
tp196
Rp197
(I3
S'|'
p198
NNNI5
I1
I0
tp199
bS'white'
p200
tp201
Rp202
I5
I0
tp203
a(g202
I14
I0
tp204
a(g202
I8
I0
tp205
a(g202
I15
I0
tp206
a(g202
I1
I0
tp207
a(g202
I30
I0
tp208
a(g202
I29
I0
tp209
a(g202
I31
I0
tp210
a(g4
(g5
(S'S6'
p211
I0
I1
tp212
Rp213
(I3
S'|'
p214
NNNI6
I1
I0
tp215
bS'yellow'
p216
tp217
Rp218
I5
I1
tp219
a(g4
(g5
(S'S5'
p220
I0
I1
tp221
Rp222
(I3
S'|'
p223
NNNI5
I1
I0
tp224
bS'block'
p225
tp226
Rp227
I5
I0
tp228
a(g227
I14
I0
tp229
a(g227
I8
I0
tp230
a(g227
I15
I0
tp231
a(g227
I1
I0
tp232
a(g227
I30
I0
tp233
a(g227
I29
I0
tp234
a(g227
I31
I0
tp235
a(g4
(g5
(S'S9'
p236
I0
I1
tp237
Rp238
(I3
S'|'
p239
NNNI9
I1
I0
tp240
bS'rectangle'
p241
tp242
Rp243
I5
I0
tp244
a(g243
I14
I0
tp245
a(g243
I8
I0
tp246
a(g243
I15
I0
tp247
a(g243
I1
I0
tp248
a(g243
I30
I0
tp249
a(g243
I29
I0
tp250
a(g243
I31
I0
tp251
a(g4
(g5
(S'S3'
p252
I0
I1
tp253
Rp254
(I3
S'|'
p255
NNNI3
I1
I0
tp256
bS'can'
p257
tp258
Rp259
I15
I1
tp260
aa(lp261
a.