(lp0
(lp1
(dp2
S'action'
p3
cnumpy.core.multiarray
scalar
p4
(cnumpy
dtype
p5
(S'S4'
p6
I0
I1
tp7
Rp8
(I3
S'|'
p9
NNNI4
I1
I0
tp10
bS'walk'
p11
tp12
Rp13
sS'recipient'
p14
NsS'patient'
p15
NsS'goal'
p16
S'3506'
p17
sS'source'
p18
Nsa(dp19
g3
g4
(g5
(S'S5'
p20
I0
I1
tp21
Rp22
(I3
S'|'
p23
NNNI5
I1
I0
tp24
bS'bring'
p25
tp26
Rp27
sg14
S'd'
p28
sg15
S'oidx_25'
p29
sg16
Nsg18
Nsa(dp30
g3
g4
(g5
(S'S4'
p31
I0
I1
tp32
Rp33
(I3
S'|'
p34
NNNI4
I1
I0
tp35
bS'walk'
p36
tp37
Rp38
sg14
Nsg15
Nsg16
S'3416'
p39
sg18
Nsaa(lp40
(dp41
S'all'
p42
(lp43
S'go to office'
p44
asg15
(lp45
sg16
(lp46
S'toru'
p47
aS'hills station'
p48
aS'yes'
p49
aS'any city'
p50
aS'any where'
p51
aS'usa'
p52
aS'goa'
p53
asg18
(lp54
sg3
(lp55
sg14
(lp56
sa(dp57
g42
(lp58
S'drink'
p59
asg15
(lp60
S'no'
p61
aS'pen'
p62
asg16
(lp63
sg18
(lp64
sg3
(lp65
sg14
(lp66
sa(dp67
g42
(lp68
S'yes'
p69
asg15
(lp70
sg16
(lp71
S'no'
p72
aS'no'
p73
aS'no'
p74
aS'beach'
p75
aS'yes'
p76
aS'yes'
p77
aS'no'
p78
aS'no'
p79
aS'yes'
p80
aS'time'
p81
aS'white'
p82
aS'no'
p83
aS'yes'
p84
asg18
(lp85
sg3
(lp86
sg14
(lp87
saa(lp88
(g4
(g5
(S'S8'
p89
I0
I1
tp90
Rp91
(I3
S'|'
p92
NNNI8
I1
I0
tp93
bS'cylinder'
p94
tp95
Rp96
I5
I0
tp97
a(g96
I14
I0
tp98
a(g96
I8
I0
tp99
a(g96
I15
I0
tp100
a(g96
I1
I0
tp101
a(g96
I30
I0
tp102
a(g96
I29
I0
tp103
a(g96
I31
I0
tp104
a(g4
(g5
(S'S5'
p105
I0
I1
tp106
Rp107
(I3
S'|'
p108
NNNI5
I1
I0
tp109
bS'small'
p110
tp111
Rp112
I5
I1
tp113
a(g112
I14
I1
tp114
a(g112
I8
I1
tp115
a(g112
I15
I1
tp116
a(g112
I1
I1
tp117
a(g112
I30
I1
tp118
a(g112
I29
I1
tp119
a(g112
I31
I1
tp120
a(g4
(g5
(S'S8'
p121
I0
I1
tp122
Rp123
(I3
S'|'
p124
NNNI8
I1
I0
tp125
bS'metallic'
p126
tp127
Rp128
I5
I0
tp129
a(g128
I14
I0
tp130
a(g128
I8
I0
tp131
a(g128
I15
I0
tp132
a(g128
I1
I0
tp133
a(g128
I30
I0
tp134
a(g128
I29
I0
tp135
a(g128
I31
I0
tp136
a(g4
(g5
(S'S4'
p137
I0
I1
tp138
Rp139
(I3
S'|'
p140
NNNI4
I1
I0
tp141
bS'long'
p142
tp143
Rp144
I14
I1
tp145
a(g4
(g5
(S'S5'
p146
I0
I1
tp147
Rp148
(I3
S'|'
p149
NNNI5
I1
I0
tp150
bS'block'
p151
tp152
Rp153
I5
I0
tp154
a(g153
I14
I0
tp155
a(g153
I8
I0
tp156
a(g153
I15
I0
tp157
a(g153
I1
I0
tp158
a(g153
I30
I0
tp159
a(g153
I29
I0
tp160
a(g153
I31
I0
tp161
a(g4
(g5
(S'S6'
p162
I0
I1
tp163
Rp164
(I3
S'|'
p165
NNNI6
I1
I0
tp166
bS'coffee'
p167
tp168
Rp169
I5
I0
tp170
a(g169
I14
I0
tp171
a(g169
I8
I0
tp172
a(g169
I15
I0
tp173
a(g169
I1
I0
tp174
a(g169
I30
I0
tp175
a(g169
I29
I0
tp176
a(g169
I31
I0
tp177
a(g4
(g5
(S'S5'
p178
I0
I1
tp179
Rp180
(I3
S'|'
p181
NNNI5
I1
I0
tp182
bS'clear'
p183
tp184
Rp185
I5
I0
tp186
a(g185
I14
I0
tp187
a(g185
I8
I0
tp188
a(g185
I15
I0
tp189
a(g185
I1
I0
tp190
a(g185
I30
I0
tp191
a(g185
I29
I0
tp192
a(g185
I31
I0
tp193
a(g4
(g5
(S'S9'
p194
I0
I1
tp195
Rp196
(I3
S'|'
p197
NNNI9
I1
I0
tp198
bS'container'
p199
tp200
Rp201
I5
I0
tp202
a(g201
I14
I0
tp203
a(g201
I8
I0
tp204
a(g201
I15
I0
tp205
a(g201
I1
I0
tp206
a(g201
I30
I0
tp207
a(g201
I29
I0
tp208
a(g201
I31
I0
tp209
a(g4
(g5
(S'S6'
p210
I0
I1
tp211
Rp212
(I3
S'|'
p213
NNNI6
I1
I0
tp214
bS'column'
p215
tp216
Rp217
I31
I0
tp218
a(g4
(g5
(S'S4'
p219
I0
I1
tp220
Rp221
(I3
S'|'
p222
NNNI4
I1
I0
tp223
bS'blue'
p224
tp225
Rp226
I5
I1
tp227
a(g226
I14
I1
tp228
a(g226
I8
I1
tp229
a(g226
I15
I1
tp230
a(g226
I1
I1
tp231
a(g226
I30
I1
tp232
a(g226
I29
I1
tp233
a(g226
I31
I1
tp234
a(g4
(g5
(S'S5'
p235
I0
I1
tp236
Rp237
(I3
S'|'
p238
NNNI5
I1
I0
tp239
bS'white'
p240
tp241
Rp242
I5
I0
tp243
a(g242
I14
I0
tp244
a(g242
I8
I0
tp245
a(g242
I15
I0
tp246
a(g242
I1
I0
tp247
a(g242
I30
I0
tp248
a(g242
I29
I0
tp249
a(g242
I31
I0
tp250
a(g4
(g5
(S'S6'
p251
I0
I1
tp252
Rp253
(I3
S'|'
p254
NNNI6
I1
I0
tp255
bS'yellow'
p256
tp257
Rp258
I5
I0
tp259
a(g258
I14
I0
tp260
a(g258
I8
I0
tp261
a(g258
I15
I0
tp262
a(g258
I1
I0
tp263
a(g258
I30
I0
tp264
a(g258
I29
I0
tp265
a(g258
I31
I0
tp266
a(g4
(g5
(S'S5'
p267
I0
I1
tp268
Rp269
(I3
S'|'
p270
NNNI5
I1
I0
tp271
bS'peach'
p272
tp273
Rp274
I5
I0
tp275
a(g274
I14
I0
tp276
a(g274
I8
I0
tp277
a(g274
I15
I0
tp278
a(g274
I1
I0
tp279
a(g274
I30
I0
tp280
a(g274
I29
I0
tp281
a(g274
I31
I0
tp282
a(g4
(g5
(S'S3'
p283
I0
I1
tp284
Rp285
(I3
S'|'
p286
NNNI3
I1
I0
tp287
bS'can'
p288
tp289
Rp290
I1
I1
tp291
a(g4
(g5
(S'S5'
p292
I0
I1
tp293
Rp294
(I3
S'|'
p295
NNNI5
I1
I0
tp296
bS'spice'
p297
tp298
Rp299
I5
I0
tp300
a(g299
I14
I0
tp301
a(g299
I8
I0
tp302
a(g299
I15
I0
tp303
a(g299
I1
I0
tp304
a(g299
I30
I0
tp305
a(g299
I29
I0
tp306
a(g299
I31
I0
tp307
aa(lp308
(S'station'
p309
S'tower'
p310
I01
tp311
a(g59
S'coffee'
p312
I01
tp313
a(g62
S'white'
p314
I01
tp315
a(g81
S'long'
p316
I01
tp317
aa.