(lp0
(lp1
(dp2
S'action'
p3
cnumpy.core.multiarray
scalar
p4
(cnumpy
dtype
p5
(S'S4'
p6
I0
I1
tp7
Rp8
(I3
S'|'
p9
NNNI4
I1
I0
tp10
bS'walk'
p11
tp12
Rp13
sS'recipient'
p14
NsS'patient'
p15
NsS'goal'
p16
S'3408'
p17
sS'source'
p18
Nsa(dp19
g3
g4
(g5
(S'S5'
p20
I0
I1
tp21
Rp22
(I3
S'|'
p23
NNNI5
I1
I0
tp24
bS'bring'
p25
tp26
Rp27
sg14
S'd'
p28
sg15
S'oidx_6'
p29
sg16
Nsg18
Nsa(dp30
g3
g4
(g5
(S'S4'
p31
I0
I1
tp32
Rp33
(I3
S'|'
p34
NNNI4
I1
I0
tp35
bS'walk'
p36
tp37
Rp38
sg14
Nsg15
Nsg16
g4
(g5
(S'S4'
p39
I0
I1
tp40
Rp41
(I3
S'|'
p42
NNNI4
I1
I0
tp43
bS'3520'
p44
tp45
Rp46
sg18
Nsaa(lp47
(dp48
S'all'
p49
(lp50
S'to go dr nancy nagel'
p51
asg15
(lp52
sg16
(lp53
S'kitchen'
p54
aS'nagel'
p55
aS'kitchen'
p56
asg18
(lp57
sg3
(lp58
sg14
(lp59
sa(dp60
g49
(lp61
S'you take this bottle'
p62
asg15
(lp63
S'yes'
p64
aS'you point'
p65
asg16
(lp66
sg18
(lp67
sg3
(lp68
sg14
(lp69
sa(dp70
g49
(lp71
S'you go to kitchen'
p72
asg15
(lp73
sg16
(lp74
sg18
(lp75
sg3
(lp76
sg14
(lp77
saa(lp78
(g4
(g5
(S'S6'
p79
I0
I1
tp80
Rp81
(I3
S'|'
p82
NNNI6
I1
I0
tp83
bS'column'
p84
tp85
Rp86
I30
I1
tp87
a(g4
(g5
(S'S8'
p88
I0
I1
tp89
Rp90
(I3
S'|'
p91
NNNI8
I1
I0
tp92
bS'cylinder'
p93
tp94
Rp95
I5
I0
tp96
a(g95
I14
I0
tp97
a(g95
I8
I0
tp98
a(g95
I15
I0
tp99
a(g95
I1
I0
tp100
a(g95
I30
I0
tp101
a(g95
I29
I0
tp102
a(g95
I31
I0
tp103
a(g4
(g5
(S'S6'
p104
I0
I1
tp105
Rp106
(I3
S'|'
p107
NNNI6
I1
I0
tp108
bS'coffee'
p109
tp110
Rp111
I30
I1
tp112
a(g4
(g5
(S'S9'
p113
I0
I1
tp114
Rp115
(I3
S'|'
p116
NNNI9
I1
I0
tp117
bS'styrofoam'
p118
tp119
Rp120
I30
I1
tp121
a(g4
(g5
(S'S9'
p122
I0
I1
tp123
Rp124
(I3
S'|'
p125
NNNI9
I1
I0
tp126
bS'styrofoam'
p127
tp128
Rp129
I14
I1
tp130
a(g4
(g5
(S'S5'
p131
I0
I1
tp132
Rp133
(I3
S'|'
p134
NNNI5
I1
I0
tp135
bS'small'
p136
tp137
Rp138
I29
I0
tp139
a(g4
(g5
(S'S6'
p140
I0
I1
tp141
Rp142
(I3
S'|'
p143
NNNI6
I1
I0
tp144
bS'yellow'
p145
tp146
Rp147
I5
I0
tp148
a(g147
I14
I0
tp149
a(g147
I8
I0
tp150
a(g147
I15
I0
tp151
a(g147
I1
I0
tp152
a(g147
I30
I0
tp153
a(g147
I29
I0
tp154
a(g147
I31
I0
tp155
a(g4
(g5
(S'S6'
p156
I0
I1
tp157
Rp158
(I3
S'|'
p159
NNNI6
I1
I0
tp160
bS'column'
p161
tp162
Rp163
I31
I1
tp164
a(g4
(g5
(S'S4'
p165
I0
I1
tp166
Rp167
(I3
S'|'
p168
NNNI4
I1
I0
tp169
bS'blue'
p170
tp171
Rp172
I5
I1
tp173
a(g172
I14
I1
tp174
a(g172
I8
I1
tp175
a(g172
I15
I1
tp176
a(g172
I1
I1
tp177
a(g172
I30
I1
tp178
a(g172
I29
I1
tp179
a(g172
I31
I1
tp180
a(g4
(g5
(S'S5'
p181
I0
I1
tp182
Rp183
(I3
S'|'
p184
NNNI5
I1
I0
tp185
bS'spice'
p186
tp187
Rp188
I29
I1
tp189
a(g4
(g5
(S'S6'
p190
I0
I1
tp191
Rp192
(I3
S'|'
p193
NNNI6
I1
I0
tp194
bS'coffee'
p195
tp196
Rp197
I14
I1
tp198
a(g4
(g5
(S'S6'
p199
I0
I1
tp200
Rp201
(I3
S'|'
p202
NNNI6
I1
I0
tp203
bS'coffee'
p204
tp205
Rp206
I31
I0
tp207
a(g4
(g5
(S'S9'
p208
I0
I1
tp209
Rp210
(I3
S'|'
p211
NNNI9
I1
I0
tp212
bS'styrofoam'
p213
tp214
Rp215
I31
I0
tp216
a(g4
(g5
(S'S4'
p217
I0
I1
tp218
Rp219
(I3
S'|'
p220
NNNI4
I1
I0
tp221
bS'long'
p222
tp223
Rp224
I14
I0
tp225
a(g4
(g5
(S'S9'
p226
I0
I1
tp227
Rp228
(I3
S'|'
p229
NNNI9
I1
I0
tp230
bS'styrofoam'
p231
tp232
Rp233
I5
I0
tp234
aa(lp235
a.