(lp0
(lp1
(dp2
S'action'
p3
cnumpy.core.multiarray
scalar
p4
(cnumpy
dtype
p5
(S'S4'
p6
I0
I1
tp7
Rp8
(I3
S'|'
p9
NNNI4
I1
I0
tp10
bS'walk'
p11
tp12
Rp13
sS'recipient'
p14
NsS'patient'
p15
NsS'goal'
p16
S'3518'
p17
sS'source'
p18
Nsa(dp19
g3
g4
(g5
(S'S5'
p20
I0
I1
tp21
Rp22
(I3
S'|'
p23
NNNI5
I1
I0
tp24
bS'bring'
p25
tp26
Rp27
sg14
S's'
p28
sg15
S'oidx_25'
p29
sg16
Nsg18
Nsa(dp30
g3
g4
(g5
(S'S4'
p31
I0
I1
tp32
Rp33
(I3
S'|'
p34
NNNI4
I1
I0
tp35
bS'walk'
p36
tp37
Rp38
sg14
Nsg15
Nsg16
S'3436'
p39
sg18
Nsaa(lp40
(dp41
S'all'
p42
(lp43
S'yes'
p44
asg15
(lp45
sg16
(lp46
S'no'
p47
aS'yes'
p48
aS'yes'
p49
aS'yes'
p50
aS'no'
p51
aS'yes'
p52
aS'yes'
p53
aS'yes'
p54
aS'yes'
p55
aS'yes'
p56
aS'yes'
p57
aS'yes'
p58
asg18
(lp59
sg3
(lp60
sg14
(lp61
sa(dp62
g42
(lp63
S'yes'
p64
asg15
(lp65
S'yes'
p66
aS'yes'
p67
asg16
(lp68
sg18
(lp69
sg3
(lp70
sg14
(lp71
sa(dp72
g42
(lp73
S'yes'
p74
asg15
(lp75
sg16
(lp76
S'yes'
p77
aS'yes'
p78
aS'no'
p79
aS'yes'
p80
aS'yes'
p81
aS'yes'
p82
aS'yes'
p83
aS'yes'
p84
aS'yes'
p85
aS'yes'
p86
aS'yes'
p87
aS'yes'
p88
aS'no'
p89
asg18
(lp90
sg3
(lp91
sg14
(lp92
saa(lp93
(g4
(g5
(S'S4'
p94
I0
I1
tp95
Rp96
(I3
S'|'
p97
NNNI4
I1
I0
tp98
bS'bean'
p99
tp100
Rp101
I5
I0
tp102
a(g101
I14
I0
tp103
a(g101
I8
I0
tp104
a(g101
I15
I0
tp105
a(g101
I1
I0
tp106
a(g101
I30
I0
tp107
a(g101
I29
I0
tp108
a(g101
I31
I0
tp109
a(g4
(g5
(S'S5'
p110
I0
I1
tp111
Rp112
(I3
S'|'
p113
NNNI5
I1
I0
tp114
bS'clear'
p115
tp116
Rp117
I5
I0
tp118
a(g117
I14
I0
tp119
a(g117
I8
I0
tp120
a(g117
I15
I0
tp121
a(g117
I1
I0
tp122
a(g117
I30
I0
tp123
a(g117
I29
I0
tp124
a(g117
I31
I0
tp125
a(g4
(g5
(S'S6'
p126
I0
I1
tp127
Rp128
(I3
S'|'
p129
NNNI6
I1
I0
tp130
bS'column'
p131
tp132
Rp133
I31
I1
tp134
a(g4
(g5
(S'S5'
p135
I0
I1
tp136
Rp137
(I3
S'|'
p138
NNNI5
I1
I0
tp139
bS'empty'
p140
tp141
Rp142
I5
I0
tp143
a(g142
I14
I0
tp144
a(g142
I8
I0
tp145
a(g142
I15
I0
tp146
a(g142
I1
I0
tp147
a(g142
I30
I0
tp148
a(g142
I29
I0
tp149
a(g142
I31
I0
tp150
a(g4
(g5
(S'S3'
p151
I0
I1
tp152
Rp153
(I3
S'|'
p154
NNNI3
I1
I0
tp155
bS'red'
p156
tp157
Rp158
I14
I0
tp159
a(g4
(g5
(S'S4'
p160
I0
I1
tp161
Rp162
(I3
S'|'
p163
NNNI4
I1
I0
tp164
bS'blue'
p165
tp166
Rp167
I5
I1
tp168
a(g167
I14
I1
tp169
a(g167
I8
I1
tp170
a(g167
I15
I1
tp171
a(g167
I1
I1
tp172
a(g167
I30
I1
tp173
a(g167
I29
I1
tp174
a(g167
I31
I1
tp175
a(g4
(g5
(S'S4'
p176
I0
I1
tp177
Rp178
(I3
S'|'
p179
NNNI4
I1
I0
tp180
bS'long'
p181
tp182
Rp183
I8
I1
tp184
a(g4
(g5
(S'S9'
p185
I0
I1
tp186
Rp187
(I3
S'|'
p188
NNNI9
I1
I0
tp189
bS'container'
p190
tp191
Rp192
I31
I1
tp193
a(g4
(g5
(S'S5'
p194
I0
I1
tp195
Rp196
(I3
S'|'
p197
NNNI5
I1
I0
tp198
bS'small'
p199
tp200
Rp201
I1
I0
tp202
a(g4
(g5
(S'S8'
p203
I0
I1
tp204
Rp205
(I3
S'|'
p206
NNNI8
I1
I0
tp207
bS'cylinder'
p208
tp209
Rp210
I1
I1
tp211
a(g4
(g5
(S'S5'
p212
I0
I1
tp213
Rp214
(I3
S'|'
p215
NNNI5
I1
I0
tp216
bS'white'
p217
tp218
Rp219
I5
I0
tp220
a(g219
I14
I0
tp221
a(g219
I8
I0
tp222
a(g219
I15
I0
tp223
a(g219
I1
I0
tp224
a(g219
I30
I0
tp225
a(g219
I29
I0
tp226
a(g219
I31
I0
tp227
a(g4
(g5
(S'S3'
p228
I0
I1
tp229
Rp230
(I3
S'|'
p231
NNNI3
I1
I0
tp232
bS'red'
p233
tp234
Rp235
I14
I1
tp236
a(g4
(g5
(S'S4'
p237
I0
I1
tp238
Rp239
(I3
S'|'
p240
NNNI4
I1
I0
tp241
bS'long'
p242
tp243
Rp244
I5
I1
tp245
a(g4
(g5
(S'S9'
p246
I0
I1
tp247
Rp248
(I3
S'|'
p249
NNNI9
I1
I0
tp250
bS'rectangle'
p251
tp252
Rp253
I14
I1
tp254
a(g4
(g5
(S'S9'
p255
I0
I1
tp256
Rp257
(I3
S'|'
p258
NNNI9
I1
I0
tp259
bS'styrofoam'
p260
tp261
Rp262
I30
I1
tp263
aa(lp264
a.