(lp0
(lp1
(dp2
S'action'
p3
cnumpy.core.multiarray
scalar
p4
(cnumpy
dtype
p5
(S'S4'
p6
I0
I1
tp7
Rp8
(I3
S'|'
p9
NNNI4
I1
I0
tp10
bS'walk'
p11
tp12
Rp13
sS'recipient'
p14
NsS'patient'
p15
NsS'goal'
p16
g4
(g5
(S'S4'
p17
I0
I1
tp18
Rp19
(I3
S'|'
p20
NNNI4
I1
I0
tp21
bS'3422'
p22
tp23
Rp24
sS'source'
p25
Nsa(dp26
g3
g4
(g5
(S'S4'
p27
I0
I1
tp28
Rp29
(I3
S'|'
p30
NNNI4
I1
I0
tp31
bS'walk'
p32
tp33
Rp34
sg14
Nsg15
Nsg16
g4
(g5
(S'S4'
p35
I0
I1
tp36
Rp37
(I3
S'|'
p38
NNNI4
I1
I0
tp39
bS'3512'
p40
tp41
Rp42
sg25
Nsa(dp43
g3
g4
(g5
(S'S5'
p44
I0
I1
tp45
Rp46
(I3
S'|'
p47
NNNI5
I1
I0
tp48
bS'bring'
p49
tp50
Rp51
sg14
S'n'
p52
sg15
S'oidx_26'
p53
sg16
Nsg25
Nsaa(lp54
(dp55
S'all'
p56
(lp57
S'go to the pod'
p58
asg15
(lp59
sg16
(lp60
S'left'
p61
aS'walter wards office'
p62
asg25
(lp63
sg3
(lp64
sg14
(lp65
sa(dp66
g56
(lp67
S'pickup'
p68
asg15
(lp69
sg16
(lp70
S'left'
p71
aS'richard rogue'
p72
asg25
(lp73
sg3
(lp74
sg14
(lp75
sa(dp76
g56
(lp77
S'go to robert bob brown'
p78
asg15
(lp79
sg16
(lp80
sg25
(lp81
sg3
(lp82
sg14
(lp83
saa(lp84
(g4
(g5
(S'S5'
p85
I0
I1
tp86
Rp87
(I3
S'|'
p88
NNNI5
I1
I0
tp89
bS'tower'
p90
tp91
Rp92
I10
I0
tp93
a(g92
I3
I0
tp94
a(g92
I27
I0
tp95
a(g92
I7
I0
tp96
a(g92
I18
I0
tp97
a(g92
I2
I0
tp98
a(g92
I20
I0
tp99
a(g92
I17
I0
tp100
a(g4
(g5
(S'S6'
p101
I0
I1
tp102
Rp103
(I3
S'|'
p104
NNNI6
I1
I0
tp105
bS'yellow'
p106
tp107
Rp108
I10
I0
tp109
a(g108
I3
I0
tp110
a(g108
I27
I0
tp111
a(g108
I7
I0
tp112
a(g108
I18
I0
tp113
a(g108
I2
I0
tp114
a(g108
I20
I0
tp115
a(g108
I17
I0
tp116
a(g4
(g5
(S'S5'
p117
I0
I1
tp118
Rp119
(I3
S'|'
p120
NNNI5
I1
I0
tp121
bS'empty'
p122
tp123
Rp124
I3
I1
tp125
a(g4
(g5
(S'S6'
p126
I0
I1
tp127
Rp128
(I3
S'|'
p129
NNNI6
I1
I0
tp130
bS'column'
p131
tp132
Rp133
I3
I1
tp134
a(g4
(g5
(S'S8'
p135
I0
I1
tp136
Rp137
(I3
S'|'
p138
NNNI8
I1
I0
tp139
bS'metallic'
p140
tp141
Rp142
I10
I0
tp143
a(g142
I3
I0
tp144
a(g142
I27
I0
tp145
a(g142
I7
I0
tp146
a(g142
I18
I0
tp147
a(g142
I2
I0
tp148
a(g142
I20
I0
tp149
a(g142
I17
I0
tp150
a(g4
(g5
(S'S8'
p151
I0
I1
tp152
Rp153
(I3
S'|'
p154
NNNI8
I1
I0
tp155
bS'pringles'
p156
tp157
Rp158
I10
I0
tp159
a(g158
I3
I0
tp160
a(g158
I27
I0
tp161
a(g158
I7
I0
tp162
a(g158
I18
I0
tp163
a(g158
I2
I0
tp164
a(g158
I20
I0
tp165
a(g158
I17
I0
tp166
a(g4
(g5
(S'S5'
p167
I0
I1
tp168
Rp169
(I3
S'|'
p170
NNNI5
I1
I0
tp171
bS'clear'
p172
tp173
Rp174
I10
I0
tp175
a(g174
I3
I0
tp176
a(g174
I27
I0
tp177
a(g174
I7
I0
tp178
a(g174
I18
I0
tp179
a(g174
I2
I0
tp180
a(g174
I20
I0
tp181
a(g174
I17
I0
tp182
a(g4
(g5
(S'S4'
p183
I0
I1
tp184
Rp185
(I3
S'|'
p186
NNNI4
I1
I0
tp187
bS'blue'
p188
tp189
Rp190
I18
I1
tp191
a(g4
(g5
(S'S4'
p192
I0
I1
tp193
Rp194
(I3
S'|'
p195
NNNI4
I1
I0
tp196
bS'blue'
p197
tp198
Rp199
I7
I0
tp200
a(g4
(g5
(S'S6'
p201
I0
I1
tp202
Rp203
(I3
S'|'
p204
NNNI6
I1
I0
tp205
bS'column'
p206
tp207
Rp208
I27
I0
tp209
aa(lp210
(S'brown'
p211
S'white'
p212
I00
tp213
a(g211
S'yellow'
p214
I00
tp215
a(g211
S'blue'
p216
I00
tp217
aa.