(lp0
(lp1
(dp2
S'action'
p3
cnumpy.core.multiarray
scalar
p4
(cnumpy
dtype
p5
(S'S4'
p6
I0
I1
tp7
Rp8
(I3
S'|'
p9
NNNI4
I1
I0
tp10
bS'walk'
p11
tp12
Rp13
sS'recipient'
p14
NsS'patient'
p15
NsS'goal'
p16
g4
(g5
(S'S4'
p17
I0
I1
tp18
Rp19
(I3
S'|'
p20
NNNI4
I1
I0
tp21
bS'3502'
p22
tp23
Rp24
sS'source'
p25
Nsa(dp26
g3
g4
(g5
(S'S5'
p27
I0
I1
tp28
Rp29
(I3
S'|'
p30
NNNI5
I1
I0
tp31
bS'bring'
p32
tp33
Rp34
sg14
g4
(g5
(S'S1'
p35
I0
I1
tp36
Rp37
(I3
S'|'
p38
NNNI1
I1
I0
tp39
bS'm'
p40
tp41
Rp42
sg15
g4
(g5
(S'S7'
p43
I0
I1
tp44
Rp45
(I3
S'|'
p46
NNNI7
I1
I0
tp47
bS'oidx_25'
p48
tp49
Rp50
sg16
Nsg25
Nsa(dp51
g3
g4
(g5
(S'S5'
p52
I0
I1
tp53
Rp54
(I3
S'|'
p55
NNNI5
I1
I0
tp56
bS'bring'
p57
tp58
Rp59
sg14
g4
(g5
(S'S1'
p60
I0
I1
tp61
Rp62
(I3
S'|'
p63
NNNI1
I1
I0
tp64
bS's'
p65
tp66
Rp67
sg15
g4
(g5
(S'S7'
p68
I0
I1
tp69
Rp70
(I3
S'|'
p71
NNNI7
I1
I0
tp72
bS'oidx_22'
p73
tp74
Rp75
sg16
Nsg25
Nsaa(lp76
(dp77
S'all'
p78
(lp79
S"go to malory maroon 's office"
p80
asg15
(lp81
sg16
(lp82
sg25
(lp83
sg3
(lp84
sg14
(lp85
sa(dp86
g78
(lp87
S'bring container to office m'
p88
asg15
(lp89
S'the container'
p90
asg16
(lp91
sg25
(lp92
sg3
(lp93
sg14
(lp94
S'mallory'
p95
asa(dp96
g78
(lp97
S'bring jar to office s'
p98
asg15
(lp99
S'a jar'
p100
aS'a container'
p101
asg16
(lp102
sg25
(lp103
sg3
(lp104
sg14
(lp105
S'to s office'
p106
aS'dr sybil smalt'
p107
asaa(lp108
(g4
(g5
(S'S6'
p109
I0
I1
tp110
Rp111
(I3
S'|'
p112
NNNI6
I1
I0
tp113
bS'column'
p114
tp115
Rp116
I10
I0
tp117
a(g116
I3
I0
tp118
a(g116
I27
I0
tp119
a(g116
I7
I0
tp120
a(g116
I18
I0
tp121
a(g116
I2
I0
tp122
a(g116
I20
I0
tp123
a(g116
I17
I0
tp124
a(g4
(g5
(S'S8'
p125
I0
I1
tp126
Rp127
(I3
S'|'
p128
NNNI8
I1
I0
tp129
bS'pringles'
p130
tp131
Rp132
I10
I0
tp133
a(g132
I3
I0
tp134
a(g132
I27
I0
tp135
a(g132
I7
I0
tp136
a(g132
I18
I0
tp137
a(g132
I2
I0
tp138
a(g132
I20
I0
tp139
a(g132
I17
I0
tp140
a(g4
(g5
(S'S9'
p141
I0
I1
tp142
Rp143
(I3
S'|'
p144
NNNI9
I1
I0
tp145
bS'container'
p146
tp147
Rp148
I7
I1
tp149
a(g4
(g5
(S'S4'
p150
I0
I1
tp151
Rp152
(I3
S'|'
p153
NNNI4
I1
I0
tp154
bS'bean'
p155
tp156
Rp157
I10
I0
tp158
a(g157
I3
I0
tp159
a(g157
I27
I0
tp160
a(g157
I7
I0
tp161
a(g157
I18
I0
tp162
a(g157
I2
I0
tp163
a(g157
I20
I0
tp164
a(g157
I17
I0
tp165
a(g4
(g5
(S'S5'
p166
I0
I1
tp167
Rp168
(I3
S'|'
p169
NNNI5
I1
I0
tp170
bS'peach'
p171
tp172
Rp173
I10
I0
tp174
a(g173
I3
I0
tp175
a(g173
I27
I0
tp176
a(g173
I7
I0
tp177
a(g173
I18
I0
tp178
a(g173
I2
I0
tp179
a(g173
I20
I0
tp180
a(g173
I17
I0
tp181
a(g4
(g5
(S'S6'
p182
I0
I1
tp183
Rp184
(I3
S'|'
p185
NNNI6
I1
I0
tp186
bS'yellow'
p187
tp188
Rp189
I10
I0
tp190
a(g189
I3
I0
tp191
a(g189
I27
I0
tp192
a(g189
I7
I0
tp193
a(g189
I18
I0
tp194
a(g189
I2
I0
tp195
a(g189
I20
I0
tp196
a(g189
I17
I0
tp197
a(g4
(g5
(S'S9'
p198
I0
I1
tp199
Rp200
(I3
S'|'
p201
NNNI9
I1
I0
tp202
bS'container'
p203
tp204
Rp205
I3
I0
tp206
a(g4
(g5
(S'S5'
p207
I0
I1
tp208
Rp209
(I3
S'|'
p210
NNNI5
I1
I0
tp211
bS'tower'
p212
tp213
Rp214
I10
I0
tp215
a(g214
I3
I0
tp216
a(g214
I27
I0
tp217
a(g214
I7
I0
tp218
a(g214
I18
I0
tp219
a(g214
I2
I0
tp220
a(g214
I20
I0
tp221
a(g214
I17
I0
tp222
a(g4
(g5
(S'S9'
p223
I0
I1
tp224
Rp225
(I3
S'|'
p226
NNNI9
I1
I0
tp227
bS'container'
p228
tp229
Rp230
I10
I1
tp231
a(g4
(g5
(S'S4'
p232
I0
I1
tp233
Rp234
(I3
S'|'
p235
NNNI4
I1
I0
tp236
bS'blue'
p237
tp238
Rp239
I18
I1
tp240
a(g4
(g5
(S'S5'
p241
I0
I1
tp242
Rp243
(I3
S'|'
p244
NNNI5
I1
I0
tp245
bS'empty'
p246
tp247
Rp248
I10
I0
tp249
a(g248
I3
I0
tp250
a(g248
I27
I0
tp251
a(g248
I7
I0
tp252
a(g248
I18
I0
tp253
a(g248
I2
I0
tp254
a(g248
I20
I0
tp255
a(g248
I17
I0
tp256
a(g4
(g5
(S'S8'
p257
I0
I1
tp258
Rp259
(I3
S'|'
p260
NNNI8
I1
I0
tp261
bS'metallic'
p262
tp263
Rp264
I10
I0
tp265
a(g264
I3
I0
tp266
a(g264
I27
I0
tp267
a(g264
I7
I0
tp268
a(g264
I18
I0
tp269
a(g264
I2
I0
tp270
a(g264
I20
I0
tp271
a(g264
I17
I0
tp272
a(g4
(g5
(S'S5'
p273
I0
I1
tp274
Rp275
(I3
S'|'
p276
NNNI5
I1
I0
tp277
bS'spice'
p278
tp279
Rp280
I10
I0
tp281
a(g280
I3
I0
tp282
a(g280
I27
I0
tp283
a(g280
I7
I0
tp284
a(g280
I18
I0
tp285
a(g280
I2
I0
tp286
a(g280
I20
I0
tp287
a(g280
I17
I0
tp288
a(g4
(g5
(S'S8'
p289
I0
I1
tp290
Rp291
(I3
S'|'
p292
NNNI8
I1
I0
tp293
bS'cylinder'
p294
tp295
Rp296
I3
I1
tp297
a(g4
(g5
(S'S9'
p298
I0
I1
tp299
Rp300
(I3
S'|'
p301
NNNI9
I1
I0
tp302
bS'rectangle'
p303
tp304
Rp305
I10
I0
tp306
a(g305
I3
I0
tp307
a(g305
I27
I0
tp308
a(g305
I7
I0
tp309
a(g305
I18
I0
tp310
a(g305
I2
I0
tp311
a(g305
I20
I0
tp312
a(g305
I17
I0
tp313
aa(lp314
a.