(lp0
(lp1
(dp2
S'action'
p3
cnumpy.core.multiarray
scalar
p4
(cnumpy
dtype
p5
(S'S4'
p6
I0
I1
tp7
Rp8
(I3
S'|'
p9
NNNI4
I1
I0
tp10
bS'walk'
p11
tp12
Rp13
sS'recipient'
p14
NsS'patient'
p15
NsS'goal'
p16
g4
(g5
(S'S4'
p17
I0
I1
tp18
Rp19
(I3
S'|'
p20
NNNI4
I1
I0
tp21
bS'3506'
p22
tp23
Rp24
sS'source'
p25
Nsa(dp26
g3
g4
(g5
(S'S4'
p27
I0
I1
tp28
Rp29
(I3
S'|'
p30
NNNI4
I1
I0
tp31
bS'walk'
p32
tp33
Rp34
sg14
Nsg15
Nsg16
g4
(g5
(S'S4'
p35
I0
I1
tp36
Rp37
(I3
S'|'
p38
NNNI4
I1
I0
tp39
bS'3520'
p40
tp41
Rp42
sg25
Nsa(dp43
g3
g4
(g5
(S'S5'
p44
I0
I1
tp45
Rp46
(I3
S'|'
p47
NNNI5
I1
I0
tp48
bS'bring'
p49
tp50
Rp51
sg14
S'b'
p52
sg15
S'oidx_22'
p53
sg16
Nsg25
Nsaa(lp54
(dp55
S'all'
p56
(lp57
S'go to the lounge'
p58
asg15
(lp59
sg16
(lp60
S'the lounge'
p61
aS'go to the lab'
p62
aS'go to the lab'
p63
aS'go to the office'
p64
aS'go to office r'
p65
aS'go to the printer'
p66
asg25
(lp67
sg3
(lp68
sg14
(lp69
sa(dp70
g56
(lp71
S'take the blue cylinder to dr nancy nagel'
p72
asg15
(lp73
sg16
(lp74
S'go to person b'
p75
aS'go to the kitchen'
p76
aS'go to room m'
p77
asg25
(lp78
sg3
(lp79
sg14
(lp80
sa(dp81
g56
(lp82
S'take the clear cylinder located in the lounge and take it to robert browns office'
p83
asg15
(lp84
sg16
(lp85
sg25
(lp86
sg3
(lp87
sg14
(lp88
saa(lp89
(g4
(g5
(S'S8'
p90
I0
I1
tp91
Rp92
(I3
S'|'
p93
NNNI8
I1
I0
tp94
bS'cylinder'
p95
tp96
Rp97
I10
I0
tp98
a(g97
I3
I0
tp99
a(g97
I27
I0
tp100
a(g97
I7
I0
tp101
a(g97
I18
I0
tp102
a(g97
I2
I0
tp103
a(g97
I20
I0
tp104
a(g97
I17
I0
tp105
a(g4
(g5
(S'S5'
p106
I0
I1
tp107
Rp108
(I3
S'|'
p109
NNNI5
I1
I0
tp110
bS'block'
p111
tp112
Rp113
I10
I0
tp114
a(g113
I3
I0
tp115
a(g113
I27
I0
tp116
a(g113
I7
I0
tp117
a(g113
I18
I0
tp118
a(g113
I2
I0
tp119
a(g113
I20
I0
tp120
a(g113
I17
I0
tp121
a(g4
(g5
(S'S5'
p122
I0
I1
tp123
Rp124
(I3
S'|'
p125
NNNI5
I1
I0
tp126
bS'white'
p127
tp128
Rp129
I10
I0
tp130
a(g129
I3
I0
tp131
a(g129
I27
I0
tp132
a(g129
I7
I0
tp133
a(g129
I18
I0
tp134
a(g129
I2
I0
tp135
a(g129
I20
I0
tp136
a(g129
I17
I0
tp137
a(g4
(g5
(S'S6'
p138
I0
I1
tp139
Rp140
(I3
S'|'
p141
NNNI6
I1
I0
tp142
bS'yellow'
p143
tp144
Rp145
I2
I1
tp146
a(g4
(g5
(S'S5'
p147
I0
I1
tp148
Rp149
(I3
S'|'
p150
NNNI5
I1
I0
tp151
bS'spice'
p152
tp153
Rp154
I2
I1
tp155
a(g4
(g5
(S'S4'
p156
I0
I1
tp157
Rp158
(I3
S'|'
p159
NNNI4
I1
I0
tp160
bS'blue'
p161
tp162
Rp163
I18
I1
tp164
a(g4
(g5
(S'S4'
p165
I0
I1
tp166
Rp167
(I3
S'|'
p168
NNNI4
I1
I0
tp169
bS'blue'
p170
tp171
Rp172
I3
I0
tp173
a(g4
(g5
(S'S4'
p174
I0
I1
tp175
Rp176
(I3
S'|'
p177
NNNI4
I1
I0
tp178
bS'blue'
p179
tp180
Rp181
I18
I1
tp182
a(g4
(g5
(S'S4'
p183
I0
I1
tp184
Rp185
(I3
S'|'
p186
NNNI4
I1
I0
tp187
bS'blue'
p188
tp189
Rp190
I7
I0
tp191
a(g4
(g5
(S'S4'
p192
I0
I1
tp193
Rp194
(I3
S'|'
p195
NNNI4
I1
I0
tp196
bS'blue'
p197
tp198
Rp199
I18
I1
tp200
aa(lp201
(S'person'
p202
S'can'
p203
I00
tp204
aa.