(lp0
(lp1
(dp2
S'action'
p3
cnumpy.core.multiarray
scalar
p4
(cnumpy
dtype
p5
(S'S4'
p6
I0
I1
tp7
Rp8
(I3
S'|'
p9
NNNI4
I1
I0
tp10
bS'walk'
p11
tp12
Rp13
sS'recipient'
p14
NsS'patient'
p15
NsS'goal'
p16
g4
(g5
(S'S4'
p17
I0
I1
tp18
Rp19
(I3
S'|'
p20
NNNI4
I1
I0
tp21
bS'3520'
p22
tp23
Rp24
sS'source'
p25
Nsa(dp26
g3
g4
(g5
(S'S5'
p27
I0
I1
tp28
Rp29
(I3
S'|'
p30
NNNI5
I1
I0
tp31
bS'bring'
p32
tp33
Rp34
sg14
g4
(g5
(S'S1'
p35
I0
I1
tp36
Rp37
(I3
S'|'
p38
NNNI1
I1
I0
tp39
bS'n'
p40
tp41
Rp42
sg15
g4
(g5
(S'S7'
p43
I0
I1
tp44
Rp45
(I3
S'|'
p46
NNNI7
I1
I0
tp47
bS'oidx_26'
p48
tp49
Rp50
sg16
Nsg25
Nsa(dp51
g3
g4
(g5
(S'S4'
p52
I0
I1
tp53
Rp54
(I3
S'|'
p55
NNNI4
I1
I0
tp56
bS'walk'
p57
tp58
Rp59
sg14
Nsg15
Nsg16
g4
(g5
(S'S4'
p60
I0
I1
tp61
Rp62
(I3
S'|'
p63
NNNI4
I1
I0
tp64
bS'3512'
p65
tp66
Rp67
sg25
Nsaa(lp68
(dp69
S'all'
p70
(lp71
S'go to the kitchen'
p72
asg15
(lp73
sg16
(lp74
S'kitchen'
p75
aS'right'
p76
asg25
(lp77
sg3
(lp78
sg14
(lp79
sa(dp80
g70
(lp81
S'pick it up'
p82
asg15
(lp83
S'can'
p84
aS'short cylinder'
p85
aS'cylinder'
p86
aS'the can'
p87
asg16
(lp88
sg25
(lp89
sg3
(lp90
sg14
(lp91
S'b'
p92
aS'bob'
p93
aS'n'
p94
aS'dr nancy nagel'
p95
asa(dp96
g70
(lp97
S'take it to the office'
p98
asg15
(lp99
sg16
(lp100
S'the office'
p101
asg25
(lp102
sg3
(lp103
sg14
(lp104
saa(lp105
(g4
(g5
(S'S4'
p106
I0
I1
tp107
Rp108
(I3
S'|'
p109
NNNI4
I1
I0
tp110
bS'bean'
p111
tp112
Rp113
I10
I0
tp114
a(g113
I3
I0
tp115
a(g113
I27
I0
tp116
a(g113
I7
I0
tp117
a(g113
I18
I0
tp118
a(g113
I2
I0
tp119
a(g113
I20
I0
tp120
a(g113
I17
I0
tp121
a(g4
(g5
(S'S9'
p122
I0
I1
tp123
Rp124
(I3
S'|'
p125
NNNI9
I1
I0
tp126
bS'styrofoam'
p127
tp128
Rp129
I20
I1
tp130
a(g4
(g5
(S'S9'
p131
I0
I1
tp132
Rp133
(I3
S'|'
p134
NNNI9
I1
I0
tp135
bS'container'
p136
tp137
Rp138
I2
I1
tp139
a(g4
(g5
(S'S9'
p140
I0
I1
tp141
Rp142
(I3
S'|'
p143
NNNI9
I1
I0
tp144
bS'styrofoam'
p145
tp146
Rp147
I18
I0
tp148
a(g4
(g5
(S'S5'
p149
I0
I1
tp150
Rp151
(I3
S'|'
p152
NNNI5
I1
I0
tp153
bS'peach'
p154
tp155
Rp156
I10
I0
tp157
a(g156
I3
I0
tp158
a(g156
I27
I0
tp159
a(g156
I7
I0
tp160
a(g156
I18
I0
tp161
a(g156
I2
I0
tp162
a(g156
I20
I0
tp163
a(g156
I17
I0
tp164
a(g4
(g5
(S'S4'
p165
I0
I1
tp166
Rp167
(I3
S'|'
p168
NNNI4
I1
I0
tp169
bS'long'
p170
tp171
Rp172
I3
I1
tp173
a(g4
(g5
(S'S3'
p174
I0
I1
tp175
Rp176
(I3
S'|'
p177
NNNI3
I1
I0
tp178
bS'can'
p179
tp180
Rp181
I10
I0
tp182
a(g181
I3
I0
tp183
a(g181
I27
I0
tp184
a(g181
I7
I0
tp185
a(g181
I18
I0
tp186
a(g181
I2
I0
tp187
a(g181
I20
I0
tp188
a(g181
I17
I0
tp189
a(g4
(g5
(S'S8'
p190
I0
I1
tp191
Rp192
(I3
S'|'
p193
NNNI8
I1
I0
tp194
bS'cylinder'
p195
tp196
Rp197
I20
I1
tp198
a(g4
(g5
(S'S5'
p199
I0
I1
tp200
Rp201
(I3
S'|'
p202
NNNI5
I1
I0
tp203
bS'clear'
p204
tp205
Rp206
I2
I1
tp207
a(g4
(g5
(S'S5'
p208
I0
I1
tp209
Rp210
(I3
S'|'
p211
NNNI5
I1
I0
tp212
bS'empty'
p213
tp214
Rp215
I10
I0
tp216
a(g215
I3
I0
tp217
a(g215
I27
I0
tp218
a(g215
I7
I0
tp219
a(g215
I18
I0
tp220
a(g215
I2
I0
tp221
a(g215
I20
I0
tp222
a(g215
I17
I0
tp223
a(g4
(g5
(S'S5'
p224
I0
I1
tp225
Rp226
(I3
S'|'
p227
NNNI5
I1
I0
tp228
bS'block'
p229
tp230
Rp231
I10
I0
tp232
a(g231
I3
I0
tp233
a(g231
I27
I0
tp234
a(g231
I7
I0
tp235
a(g231
I18
I0
tp236
a(g231
I2
I0
tp237
a(g231
I20
I0
tp238
a(g231
I17
I0
tp239
a(g4
(g5
(S'S5'
p240
I0
I1
tp241
Rp242
(I3
S'|'
p243
NNNI5
I1
I0
tp244
bS'short'
p245
tp246
Rp247
I10
I1
tp248
a(g4
(g5
(S'S5'
p249
I0
I1
tp250
Rp251
(I3
S'|'
p252
NNNI5
I1
I0
tp253
bS'white'
p254
tp255
Rp256
I10
I1
tp257
a(g4
(g5
(S'S9'
p258
I0
I1
tp259
Rp260
(I3
S'|'
p261
NNNI9
I1
I0
tp262
bS'rectangle'
p263
tp264
Rp265
I10
I0
tp266
a(g265
I3
I0
tp267
a(g265
I27
I0
tp268
a(g265
I7
I0
tp269
a(g265
I18
I0
tp270
a(g265
I2
I0
tp271
a(g265
I20
I0
tp272
a(g265
I17
I0
tp273
a(g4
(g5
(S'S4'
p274
I0
I1
tp275
Rp276
(I3
S'|'
p277
NNNI4
I1
I0
tp278
bS'long'
p279
tp280
Rp281
I20
I0
tp282
aa(lp283
(S'short'
p284
S'long'
p285
I00
tp286
aa.