(lp0
(lp1
(dp2
S'action'
p3
cnumpy.core.multiarray
scalar
p4
(cnumpy
dtype
p5
(S'S4'
p6
I0
I1
tp7
Rp8
(I3
S'|'
p9
NNNI4
I1
I0
tp10
bS'walk'
p11
tp12
Rp13
sS'recipient'
p14
NsS'patient'
p15
NsS'goal'
p16
g4
(g5
(S'S4'
p17
I0
I1
tp18
Rp19
(I3
S'|'
p20
NNNI4
I1
I0
tp21
bS'3514'
p22
tp23
Rp24
sS'source'
p25
Nsa(dp26
g3
g4
(g5
(S'S5'
p27
I0
I1
tp28
Rp29
(I3
S'|'
p30
NNNI5
I1
I0
tp31
bS'bring'
p32
tp33
Rp34
sg14
S'w'
p35
sg15
S'oidx_12'
p36
sg16
Nsg25
Nsa(dp37
g3
g4
(g5
(S'S4'
p38
I0
I1
tp39
Rp40
(I3
S'|'
p41
NNNI4
I1
I0
tp42
bS'move'
p43
tp44
Rp45
sg14
Nsg15
S'oidx_25'
p46
sg16
g4
(g5
(S'S4'
p47
I0
I1
tp48
Rp49
(I3
S'|'
p50
NNNI4
I1
I0
tp51
bS'3404'
p52
tp53
Rp54
sg25
g4
(g5
(S'S5'
p55
I0
I1
tp56
Rp57
(I3
S'|'
p58
NNNI5
I1
I0
tp59
bS'3414b'
p60
tp61
Rp62
saa(lp63
(dp64
S'all'
p65
(lp66
S"find robert brown 's office"
p67
asg15
(lp68
sg16
(lp69
S'to location b'
p70
aS'office b'
p71
aS'walk to office b'
p72
aS'walk to lounge'
p73
aS'go to south lounge'
p74
asg25
(lp75
sg3
(lp76
sg14
(lp77
sa(dp78
g65
(lp79
S'find the red cylinder take the red cylinder to walter ward supervisor'
p80
asg15
(lp81
sg16
(lp82
sg25
(lp83
sg3
(lp84
sg14
(lp85
sa(dp86
g65
(lp87
S'go to the east lab get the grey cylinder go to nancy nagel'
p88
asg15
(lp89
sg16
(lp90
S'lab'
p91
aS'ahshashsh'
p92
aS''
p93
aS'yes'
p94
aS'to a middle left lab'
p95
aS'a top left office'
p96
asg25
(lp97
S'a lab'
p98
asg3
(lp99
sg14
(lp100
saa(lp101
(g4
(g5
(S'S9'
p102
I0
I1
tp103
Rp104
(I3
S'|'
p105
NNNI9
I1
I0
tp106
bS'rectangle'
p107
tp108
Rp109
I10
I0
tp110
a(g109
I3
I0
tp111
a(g109
I27
I0
tp112
a(g109
I7
I0
tp113
a(g109
I18
I0
tp114
a(g109
I2
I0
tp115
a(g109
I20
I0
tp116
a(g109
I17
I0
tp117
a(g4
(g5
(S'S4'
p118
I0
I1
tp119
Rp120
(I3
S'|'
p121
NNNI4
I1
I0
tp122
bS'long'
p123
tp124
Rp125
I3
I1
tp126
a(g4
(g5
(S'S9'
p127
I0
I1
tp128
Rp129
(I3
S'|'
p130
NNNI9
I1
I0
tp131
bS'container'
p132
tp133
Rp134
I2
I1
tp135
a(g4
(g5
(S'S6'
p136
I0
I1
tp137
Rp138
(I3
S'|'
p139
NNNI6
I1
I0
tp140
bS'column'
p141
tp142
Rp143
I20
I1
tp144
a(g4
(g5
(S'S8'
p145
I0
I1
tp146
Rp147
(I3
S'|'
p148
NNNI8
I1
I0
tp149
bS'cylinder'
p150
tp151
Rp152
I3
I1
tp153
a(g4
(g5
(S'S6'
p154
I0
I1
tp155
Rp156
(I3
S'|'
p157
NNNI6
I1
I0
tp158
bS'coffee'
p159
tp160
Rp161
I2
I1
tp162
a(g4
(g5
(S'S5'
p163
I0
I1
tp164
Rp165
(I3
S'|'
p166
NNNI5
I1
I0
tp167
bS'white'
p168
tp169
Rp170
I10
I0
tp171
a(g170
I3
I0
tp172
a(g170
I27
I0
tp173
a(g170
I7
I0
tp174
a(g170
I18
I0
tp175
a(g170
I2
I0
tp176
a(g170
I20
I0
tp177
a(g170
I17
I0
tp178
a(g4
(g5
(S'S4'
p179
I0
I1
tp180
Rp181
(I3
S'|'
p182
NNNI4
I1
I0
tp183
bS'bean'
p184
tp185
Rp186
I10
I0
tp187
a(g186
I3
I0
tp188
a(g186
I27
I0
tp189
a(g186
I7
I0
tp190
a(g186
I18
I0
tp191
a(g186
I2
I0
tp192
a(g186
I20
I0
tp193
a(g186
I17
I0
tp194
a(g4
(g5
(S'S6'
p195
I0
I1
tp196
Rp197
(I3
S'|'
p198
NNNI6
I1
I0
tp199
bS'coffee'
p200
tp201
Rp202
I2
I0
tp203
a(g4
(g5
(S'S4'
p204
I0
I1
tp205
Rp206
(I3
S'|'
p207
NNNI4
I1
I0
tp208
bS'long'
p209
tp210
Rp211
I7
I0
tp212
aa(lp213
(S'red'
p214
S'white'
p215
I00
tp216
a(g214
S'yellow'
p217
I00
tp218
a(g214
S'blue'
p219
I00
tp220
aa.