(lp0
(lp1
(dp2
S'action'
p3
cnumpy.core.multiarray
scalar
p4
(cnumpy
dtype
p5
(S'S4'
p6
I0
I1
tp7
Rp8
(I3
S'|'
p9
NNNI4
I1
I0
tp10
bS'walk'
p11
tp12
Rp13
sS'recipient'
p14
NsS'patient'
p15
NsS'goal'
p16
g4
(g5
(S'S4'
p17
I0
I1
tp18
Rp19
(I3
S'|'
p20
NNNI4
I1
I0
tp21
bS'3514'
p22
tp23
Rp24
sS'source'
p25
Nsa(dp26
g3
g4
(g5
(S'S5'
p27
I0
I1
tp28
Rp29
(I3
S'|'
p30
NNNI5
I1
I0
tp31
bS'bring'
p32
tp33
Rp34
sg14
g4
(g5
(S'S1'
p35
I0
I1
tp36
Rp37
(I3
S'|'
p38
NNNI1
I1
I0
tp39
bS'b'
p40
tp41
Rp42
sg15
g4
(g5
(S'S7'
p43
I0
I1
tp44
Rp45
(I3
S'|'
p46
NNNI7
I1
I0
tp47
bS'oidx_22'
p48
tp49
Rp50
sg16
Nsg25
Nsa(dp51
g3
g4
(g5
(S'S4'
p52
I0
I1
tp53
Rp54
(I3
S'|'
p55
NNNI4
I1
I0
tp56
bS'walk'
p57
tp58
Rp59
sg14
Nsg15
Nsg16
g4
(g5
(S'S4'
p60
I0
I1
tp61
Rp62
(I3
S'|'
p63
NNNI4
I1
I0
tp64
bS'3432'
p65
tp66
Rp67
sg25
Nsaa(lp68
(dp69
S'all'
p70
(lp71
S'go to lounge'
p72
asg15
(lp73
sg16
(lp74
S'lounge'
p75
asg25
(lp76
sg3
(lp77
sg14
(lp78
sa(dp79
g70
(lp80
S'take plastic container to person b'
p81
asg15
(lp82
S'nuts'
p83
aS'find a clear container'
p84
asg16
(lp85
sg25
(lp86
sg3
(lp87
sg14
(lp88
S'robert brown'
p89
aS'the person in room b'
p90
aS'person b'
p91
aS'bob'
p92
aS'robert'
p93
asa(dp94
g70
(lp95
S'go to office'
p96
asg15
(lp97
sg16
(lp98
S'office'
p99
aS'go to the office next to office s'
p100
aS'go to office on pink map'
p101
aS'go to office'
p102
aS'go to lab'
p103
aS'go to empty office'
p104
aS'go to the office'
p105
asg25
(lp106
sg3
(lp107
sg14
(lp108
saa(lp109
(g4
(g5
(S'S4'
p110
I0
I1
tp111
Rp112
(I3
S'|'
p113
NNNI4
I1
I0
tp114
bS'blue'
p115
tp116
Rp117
I18
I1
tp118
a(g4
(g5
(S'S4'
p119
I0
I1
tp120
Rp121
(I3
S'|'
p122
NNNI4
I1
I0
tp123
bS'long'
p124
tp125
Rp126
I3
I1
tp127
a(g4
(g5
(S'S8'
p128
I0
I1
tp129
Rp130
(I3
S'|'
p131
NNNI8
I1
I0
tp132
bS'metallic'
p133
tp134
Rp135
I10
I0
tp136
a(g135
I3
I0
tp137
a(g135
I27
I0
tp138
a(g135
I7
I0
tp139
a(g135
I18
I0
tp140
a(g135
I2
I0
tp141
a(g135
I20
I0
tp142
a(g135
I17
I0
tp143
a(g4
(g5
(S'S5'
p144
I0
I1
tp145
Rp146
(I3
S'|'
p147
NNNI5
I1
I0
tp148
bS'tower'
p149
tp150
Rp151
I10
I0
tp152
a(g151
I3
I0
tp153
a(g151
I27
I0
tp154
a(g151
I7
I0
tp155
a(g151
I18
I0
tp156
a(g151
I2
I0
tp157
a(g151
I20
I0
tp158
a(g151
I17
I0
tp159
a(g4
(g5
(S'S9'
p160
I0
I1
tp161
Rp162
(I3
S'|'
p163
NNNI9
I1
I0
tp164
bS'styrofoam'
p165
tp166
Rp167
I20
I1
tp168
a(g4
(g5
(S'S5'
p169
I0
I1
tp170
Rp171
(I3
S'|'
p172
NNNI5
I1
I0
tp173
bS'clear'
p174
tp175
Rp176
I10
I0
tp177
a(g176
I3
I0
tp178
a(g176
I27
I0
tp179
a(g176
I7
I0
tp180
a(g176
I18
I0
tp181
a(g176
I2
I0
tp182
a(g176
I20
I0
tp183
a(g176
I17
I0
tp184
a(g4
(g5
(S'S3'
p185
I0
I1
tp186
Rp187
(I3
S'|'
p188
NNNI3
I1
I0
tp189
bS'can'
p190
tp191
Rp192
I2
I1
tp193
a(g4
(g5
(S'S6'
p194
I0
I1
tp195
Rp196
(I3
S'|'
p197
NNNI6
I1
I0
tp198
bS'coffee'
p199
tp200
Rp201
I10
I0
tp202
a(g201
I3
I0
tp203
a(g201
I27
I0
tp204
a(g201
I7
I0
tp205
a(g201
I18
I0
tp206
a(g201
I2
I0
tp207
a(g201
I20
I0
tp208
a(g201
I17
I0
tp209
a(g4
(g5
(S'S5'
p210
I0
I1
tp211
Rp212
(I3
S'|'
p213
NNNI5
I1
I0
tp214
bS'spice'
p215
tp216
Rp217
I10
I0
tp218
a(g217
I3
I0
tp219
a(g217
I27
I0
tp220
a(g217
I7
I0
tp221
a(g217
I18
I0
tp222
a(g217
I2
I0
tp223
a(g217
I20
I0
tp224
a(g217
I17
I0
tp225
a(g4
(g5
(S'S8'
p226
I0
I1
tp227
Rp228
(I3
S'|'
p229
NNNI8
I1
I0
tp230
bS'pringles'
p231
tp232
Rp233
I10
I0
tp234
a(g233
I3
I0
tp235
a(g233
I27
I0
tp236
a(g233
I7
I0
tp237
a(g233
I18
I0
tp238
a(g233
I2
I0
tp239
a(g233
I20
I0
tp240
a(g233
I17
I0
tp241
a(g4
(g5
(S'S8'
p242
I0
I1
tp243
Rp244
(I3
S'|'
p245
NNNI8
I1
I0
tp246
bS'cylinder'
p247
tp248
Rp249
I3
I1
tp250
a(g4
(g5
(S'S6'
p251
I0
I1
tp252
Rp253
(I3
S'|'
p254
NNNI6
I1
I0
tp255
bS'column'
p256
tp257
Rp258
I20
I1
tp259
a(g4
(g5
(S'S5'
p260
I0
I1
tp261
Rp262
(I3
S'|'
p263
NNNI5
I1
I0
tp264
bS'empty'
p265
tp266
Rp267
I3
I1
tp268
a(g4
(g5
(S'S9'
p269
I0
I1
tp270
Rp271
(I3
S'|'
p272
NNNI9
I1
I0
tp273
bS'container'
p274
tp275
Rp276
I2
I1
tp277
a(g4
(g5
(S'S4'
p278
I0
I1
tp279
Rp280
(I3
S'|'
p281
NNNI4
I1
I0
tp282
bS'long'
p283
tp284
Rp285
I2
I0
tp286
aa(lp287
(S'plastic'
p288
S'container'
p289
I00
tp290
a(g288
S'white'
p291
I00
tp292
a(g288
S'metallic'
p293
I00
tp294
a(S'brown'
p295
g291
I00
tp296
a(g295
S'yellow'
p297
I00
tp298
a(g295
S'blue'
p299
I00
tp300
a(S'pink'
p301
S'person'
p302
I00
tp303
a(g301
g297
I00
tp304
a(g301
g299
I00
tp305
aa.