(lp0
(lp1
(dp2
S'action'
p3
cnumpy.core.multiarray
scalar
p4
(cnumpy
dtype
p5
(S'S4'
p6
I0
I1
tp7
Rp8
(I3
S'|'
p9
NNNI4
I1
I0
tp10
bS'walk'
p11
tp12
Rp13
sS'recipient'
p14
NsS'patient'
p15
NsS'goal'
p16
g4
(g5
(S'S5'
p17
I0
I1
tp18
Rp19
(I3
S'|'
p20
NNNI5
I1
I0
tp21
bS'3414a'
p22
tp23
Rp24
sS'source'
p25
Nsa(dp26
g3
g4
(g5
(S'S5'
p27
I0
I1
tp28
Rp29
(I3
S'|'
p30
NNNI5
I1
I0
tp31
bS'bring'
p32
tp33
Rp34
sg14
g4
(g5
(S'S1'
p35
I0
I1
tp36
Rp37
(I3
S'|'
p38
NNNI1
I1
I0
tp39
bS'm'
p40
tp41
Rp42
sg15
g4
(g5
(S'S7'
p43
I0
I1
tp44
Rp45
(I3
S'|'
p46
NNNI7
I1
I0
tp47
bS'oidx_12'
p48
tp49
Rp50
sg16
Nsg25
Nsa(dp51
g3
g4
(g5
(S'S4'
p52
I0
I1
tp53
Rp54
(I3
S'|'
p55
NNNI4
I1
I0
tp56
bS'walk'
p57
tp58
Rp59
sg14
Nsg15
Nsg16
g4
(g5
(S'S4'
p60
I0
I1
tp61
Rp62
(I3
S'|'
p63
NNNI4
I1
I0
tp64
bS'3414'
p65
tp66
Rp67
sg25
Nsaa(lp68
(dp69
S'all'
p70
(lp71
S'go to the only lab that is across from both the conference and the pod'
p72
asg15
(lp73
sg16
(lp74
S'go to the lab across from the conference and the pod'
p75
aS'the lab'
p76
aS'the second largest lab'
p77
aS'lab'
p78
asg25
(lp79
sg3
(lp80
sg14
(lp81
sa(dp82
g70
(lp83
S'give the cylinder to mal'
p84
asg15
(lp85
sg16
(lp86
sg25
(lp87
sg3
(lp88
sg14
(lp89
S'mal'
p90
aS'mallory mal maroon'
p91
aS'mallory'
p92
asa(dp93
g70
(lp94
S'pick up the rectangle from the east lab and deliver it to the center lab'
p95
asg15
(lp96
sg16
(lp97
S'east lab'
p98
aS'lab'
p99
aS'lab'
p100
aS'go to the lab'
p101
aS'the lab'
p102
asg25
(lp103
sg3
(lp104
sg14
(lp105
saa(lp106
(g4
(g5
(S'S5'
p107
I0
I1
tp108
Rp109
(I3
S'|'
p110
NNNI5
I1
I0
tp111
bS'peach'
p112
tp113
Rp114
I2
I1
tp115
a(g4
(g5
(S'S8'
p116
I0
I1
tp117
Rp118
(I3
S'|'
p119
NNNI8
I1
I0
tp120
bS'cylinder'
p121
tp122
Rp123
I20
I1
tp124
a(g4
(g5
(S'S5'
p125
I0
I1
tp126
Rp127
(I3
S'|'
p128
NNNI5
I1
I0
tp129
bS'clear'
p130
tp131
Rp132
I10
I0
tp133
a(g132
I3
I0
tp134
a(g132
I27
I0
tp135
a(g132
I7
I0
tp136
a(g132
I18
I0
tp137
a(g132
I2
I0
tp138
a(g132
I20
I0
tp139
a(g132
I17
I0
tp140
a(g4
(g5
(S'S8'
p141
I0
I1
tp142
Rp143
(I3
S'|'
p144
NNNI8
I1
I0
tp145
bS'metallic'
p146
tp147
Rp148
I10
I0
tp149
a(g148
I3
I0
tp150
a(g148
I27
I0
tp151
a(g148
I7
I0
tp152
a(g148
I18
I0
tp153
a(g148
I2
I0
tp154
a(g148
I20
I0
tp155
a(g148
I17
I0
tp156
a(g4
(g5
(S'S3'
p157
I0
I1
tp158
Rp159
(I3
S'|'
p160
NNNI3
I1
I0
tp161
bS'can'
p162
tp163
Rp164
I2
I1
tp165
a(g4
(g5
(S'S8'
p166
I0
I1
tp167
Rp168
(I3
S'|'
p169
NNNI8
I1
I0
tp170
bS'cylinder'
p171
tp172
Rp173
I27
I0
tp174
a(g4
(g5
(S'S8'
p175
I0
I1
tp176
Rp177
(I3
S'|'
p178
NNNI8
I1
I0
tp179
bS'cylinder'
p180
tp181
Rp182
I2
I1
tp183
a(g4
(g5
(S'S8'
p184
I0
I1
tp185
Rp186
(I3
S'|'
p187
NNNI8
I1
I0
tp188
bS'cylinder'
p189
tp190
Rp191
I18
I1
tp192
a(g4
(g5
(S'S8'
p193
I0
I1
tp194
Rp195
(I3
S'|'
p196
NNNI8
I1
I0
tp197
bS'cylinder'
p198
tp199
Rp200
I3
I1
tp201
a(g4
(g5
(S'S8'
p202
I0
I1
tp203
Rp204
(I3
S'|'
p205
NNNI8
I1
I0
tp206
bS'cylinder'
p207
tp208
Rp209
I7
I0
tp210
a(g4
(g5
(S'S8'
p211
I0
I1
tp212
Rp213
(I3
S'|'
p214
NNNI8
I1
I0
tp215
bS'cylinder'
p216
tp217
Rp218
I10
I1
tp219
a(g4
(g5
(S'S5'
p220
I0
I1
tp221
Rp222
(I3
S'|'
p223
NNNI5
I1
I0
tp224
bS'block'
p225
tp226
Rp227
I10
I0
tp228
a(g227
I3
I0
tp229
a(g227
I27
I0
tp230
a(g227
I7
I0
tp231
a(g227
I18
I0
tp232
a(g227
I2
I0
tp233
a(g227
I20
I0
tp234
a(g227
I17
I0
tp235
a(g4
(g5
(S'S4'
p236
I0
I1
tp237
Rp238
(I3
S'|'
p239
NNNI4
I1
I0
tp240
bS'bean'
p241
tp242
Rp243
I10
I0
tp244
a(g243
I3
I0
tp245
a(g243
I27
I0
tp246
a(g243
I7
I0
tp247
a(g243
I18
I0
tp248
a(g243
I2
I0
tp249
a(g243
I20
I0
tp250
a(g243
I17
I0
tp251
a(g4
(g5
(S'S5'
p252
I0
I1
tp253
Rp254
(I3
S'|'
p255
NNNI5
I1
I0
tp256
bS'spice'
p257
tp258
Rp259
I10
I0
tp260
a(g259
I3
I0
tp261
a(g259
I27
I0
tp262
a(g259
I7
I0
tp263
a(g259
I18
I0
tp264
a(g259
I2
I0
tp265
a(g259
I20
I0
tp266
a(g259
I17
I0
tp267
a(g4
(g5
(S'S9'
p268
I0
I1
tp269
Rp270
(I3
S'|'
p271
NNNI9
I1
I0
tp272
bS'styrofoam'
p273
tp274
Rp275
I20
I1
tp276
aa(lp277
(S'maroon'
p278
S'white'
p279
I00
tp280
a(g278
S'yellow'
p281
I00
tp282
a(g278
S'blue'
p283
I00
tp284
a(S'center'
p285
S'tower'
p286
I00
tp287
aa.