(lp0
(lp1
(dp2
S'action'
p3
cnumpy.core.multiarray
scalar
p4
(cnumpy
dtype
p5
(S'S4'
p6
I0
I1
tp7
Rp8
(I3
S'|'
p9
NNNI4
I1
I0
tp10
bS'walk'
p11
tp12
Rp13
sS'recipient'
p14
NsS'patient'
p15
NsS'goal'
p16
g4
(g5
(S'S4'
p17
I0
I1
tp18
Rp19
(I3
S'|'
p20
NNNI4
I1
I0
tp21
bS'3520'
p22
tp23
Rp24
sS'source'
p25
Nsa(dp26
g3
g4
(g5
(S'S5'
p27
I0
I1
tp28
Rp29
(I3
S'|'
p30
NNNI5
I1
I0
tp31
bS'bring'
p32
tp33
Rp34
sg14
g4
(g5
(S'S1'
p35
I0
I1
tp36
Rp37
(I3
S'|'
p38
NNNI1
I1
I0
tp39
bS'h'
p40
tp41
Rp42
sg15
g4
(g5
(S'S7'
p43
I0
I1
tp44
Rp45
(I3
S'|'
p46
NNNI7
I1
I0
tp47
bS'oidx_22'
p48
tp49
Rp50
sg16
Nsg25
Nsa(dp51
g3
g4
(g5
(S'S5'
p52
I0
I1
tp53
Rp54
(I3
S'|'
p55
NNNI5
I1
I0
tp56
bS'bring'
p57
tp58
Rp59
sg14
g4
(g5
(S'S1'
p60
I0
I1
tp61
Rp62
(I3
S'|'
p63
NNNI1
I1
I0
tp64
bS'm'
p65
tp66
Rp67
sg15
g4
(g5
(S'S7'
p68
I0
I1
tp69
Rp70
(I3
S'|'
p71
NNNI7
I1
I0
tp72
bS'oidx_22'
p73
tp74
Rp75
sg16
Nsg25
Nsaa(lp76
(dp77
S'all'
p78
(lp79
S'go to the kitchen'
p80
asg15
(lp81
sg16
(lp82
S'kitchen'
p83
aS'office p'
p84
asg25
(lp85
sg3
(lp86
sg14
(lp87
sa(dp88
g78
(lp89
S'give dr heidi hughes the object'
p90
asg15
(lp91
sg16
(lp92
sg25
(lp93
sg3
(lp94
sg14
(lp95
sa(dp96
g78
(lp97
S'deliver the container to the conference room'
p98
asg15
(lp99
S'find the container'
p100
asg16
(lp101
sg25
(lp102
sg3
(lp103
sg14
(lp104
S'conference'
p105
aS'conference room'
p106
aS'conference'
p107
aS'richard rogue'
p108
aS'deliver to the conference room'
p109
aS'office w'
p110
aS'yes'
p111
aS'office of richard rogue'
p112
aS'office of the secretary'
p113
aS'deliver to dave'
p114
aS'deliver to conference'
p115
aS'deliver to bob'
p116
aS'dave'
p117
aS'deliver to dave'
p118
aS'deliver to mal'
p119
aS'deliver to supervisor'
p120
asaa(lp121
(g4
(g5
(S'S5'
p122
I0
I1
tp123
Rp124
(I3
S'|'
p125
NNNI5
I1
I0
tp126
bS'peach'
p127
tp128
Rp129
I10
I0
tp130
a(g129
I3
I0
tp131
a(g129
I27
I0
tp132
a(g129
I7
I0
tp133
a(g129
I18
I0
tp134
a(g129
I2
I0
tp135
a(g129
I20
I0
tp136
a(g129
I17
I0
tp137
a(g4
(g5
(S'S9'
p138
I0
I1
tp139
Rp140
(I3
S'|'
p141
NNNI9
I1
I0
tp142
bS'rectangle'
p143
tp144
Rp145
I2
I1
tp146
a(g4
(g5
(S'S6'
p147
I0
I1
tp148
Rp149
(I3
S'|'
p150
NNNI6
I1
I0
tp151
bS'yellow'
p152
tp153
Rp154
I10
I0
tp155
a(g154
I3
I0
tp156
a(g154
I27
I0
tp157
a(g154
I7
I0
tp158
a(g154
I18
I0
tp159
a(g154
I2
I0
tp160
a(g154
I20
I0
tp161
a(g154
I17
I0
tp162
a(g4
(g5
(S'S5'
p163
I0
I1
tp164
Rp165
(I3
S'|'
p166
NNNI5
I1
I0
tp167
bS'white'
p168
tp169
Rp170
I7
I1
tp171
a(g4
(g5
(S'S5'
p172
I0
I1
tp173
Rp174
(I3
S'|'
p175
NNNI5
I1
I0
tp176
bS'spice'
p177
tp178
Rp179
I10
I0
tp180
a(g179
I3
I0
tp181
a(g179
I27
I0
tp182
a(g179
I7
I0
tp183
a(g179
I18
I0
tp184
a(g179
I2
I0
tp185
a(g179
I20
I0
tp186
a(g179
I17
I0
tp187
a(g4
(g5
(S'S9'
p188
I0
I1
tp189
Rp190
(I3
S'|'
p191
NNNI9
I1
I0
tp192
bS'container'
p193
tp194
Rp195
I2
I1
tp196
a(g4
(g5
(S'S9'
p197
I0
I1
tp198
Rp199
(I3
S'|'
p200
NNNI9
I1
I0
tp201
bS'container'
p202
tp203
Rp204
I3
I0
tp205
a(g4
(g5
(S'S9'
p206
I0
I1
tp207
Rp208
(I3
S'|'
p209
NNNI9
I1
I0
tp210
bS'container'
p211
tp212
Rp213
I2
I1
tp214
a(g4
(g5
(S'S9'
p215
I0
I1
tp216
Rp217
(I3
S'|'
p218
NNNI9
I1
I0
tp219
bS'container'
p220
tp221
Rp222
I18
I0
tp223
a(g4
(g5
(S'S9'
p224
I0
I1
tp225
Rp226
(I3
S'|'
p227
NNNI9
I1
I0
tp228
bS'container'
p229
tp230
Rp231
I10
I0
tp232
a(g231
I3
I0
tp233
a(g231
I27
I0
tp234
a(g231
I7
I0
tp235
a(g231
I18
I0
tp236
a(g231
I2
I0
tp237
a(g231
I20
I0
tp238
a(g231
I17
I0
tp239
a(g4
(g5
(S'S8'
p240
I0
I1
tp241
Rp242
(I3
S'|'
p243
NNNI8
I1
I0
tp244
bS'metallic'
p245
tp246
Rp247
I10
I0
tp248
a(g247
I3
I0
tp249
a(g247
I27
I0
tp250
a(g247
I7
I0
tp251
a(g247
I18
I0
tp252
a(g247
I2
I0
tp253
a(g247
I20
I0
tp254
a(g247
I17
I0
tp255
a(g4
(g5
(S'S4'
p256
I0
I1
tp257
Rp258
(I3
S'|'
p259
NNNI4
I1
I0
tp260
bS'blue'
p261
tp262
Rp263
I18
I1
tp264
a(g4
(g5
(S'S6'
p265
I0
I1
tp266
Rp267
(I3
S'|'
p268
NNNI6
I1
I0
tp269
bS'coffee'
p270
tp271
Rp272
I10
I0
tp273
a(g272
I3
I0
tp274
a(g272
I27
I0
tp275
a(g272
I7
I0
tp276
a(g272
I18
I0
tp277
a(g272
I2
I0
tp278
a(g272
I20
I0
tp279
a(g272
I17
I0
tp280
a(g4
(g5
(S'S5'
p281
I0
I1
tp282
Rp283
(I3
S'|'
p284
NNNI5
I1
I0
tp285
bS'empty'
p286
tp287
Rp288
I3
I1
tp289
a(g4
(g5
(S'S8'
p290
I0
I1
tp291
Rp292
(I3
S'|'
p293
NNNI8
I1
I0
tp294
bS'pringles'
p295
tp296
Rp297
I10
I0
tp298
a(g297
I3
I0
tp299
a(g297
I27
I0
tp300
a(g297
I7
I0
tp301
a(g297
I18
I0
tp302
a(g297
I2
I0
tp303
a(g297
I20
I0
tp304
a(g297
I17
I0
tp305
aa(lp306
(S'object'
p307
S'container'
p308
I01
tp309
aa.