(lp0
(lp1
(dp2
S'action'
p3
cnumpy.core.multiarray
scalar
p4
(cnumpy
dtype
p5
(S'S4'
p6
I0
I1
tp7
Rp8
(I3
S'|'
p9
NNNI4
I1
I0
tp10
bS'walk'
p11
tp12
Rp13
sS'recipient'
p14
NsS'patient'
p15
NsS'goal'
p16
g4
(g5
(S'S4'
p17
I0
I1
tp18
Rp19
(I3
S'|'
p20
NNNI4
I1
I0
tp21
bS'3404'
p22
tp23
Rp24
sS'source'
p25
Nsa(dp26
g3
g4
(g5
(S'S4'
p27
I0
I1
tp28
Rp29
(I3
S'|'
p30
NNNI4
I1
I0
tp31
bS'walk'
p32
tp33
Rp34
sg14
Nsg15
Nsg16
g4
(g5
(S'S4'
p35
I0
I1
tp36
Rp37
(I3
S'|'
p38
NNNI4
I1
I0
tp39
bS'3502'
p40
tp41
Rp42
sg25
Nsa(dp43
g3
g4
(g5
(S'S4'
p44
I0
I1
tp45
Rp46
(I3
S'|'
p47
NNNI4
I1
I0
tp48
bS'walk'
p49
tp50
Rp51
sg14
Nsg15
Nsg16
g4
(g5
(S'S4'
p52
I0
I1
tp53
Rp54
(I3
S'|'
p55
NNNI4
I1
I0
tp56
bS'3510'
p57
tp58
Rp59
sg25
Nsaa(lp60
(dp61
S'all'
p62
(lp63
S'go to dr sybil smalts office'
p64
asg15
(lp65
sg16
(lp66
S'go to the lounge'
p67
aS'go to richard rogue secretary'
p68
aS'go to dr nancy nagels office'
p69
aS'go to office b'
p70
aS'go to person b'
p71
aS'go to robert bob brown'
p72
aS'go to robert bob browns office'
p73
aS'go to pod'
p74
asg25
(lp75
sg3
(lp76
sg14
(lp77
sa(dp78
g62
(lp79
S'take the pot to mallory mal maroon'
p80
asg15
(lp81
sg16
(lp82
S'pick up the object and take it to mallory mal maroon'
p83
aS'go to mallory mal maroon'
p84
aS'mallory mal maroons office'
p85
asg25
(lp86
sg3
(lp87
sg14
(lp88
sa(dp89
g62
(lp90
S'go to robert bob browns office and take the object in there then walk to mallory mal maroons office'
p91
asg15
(lp92
sg16
(lp93
S'walk to robert bob browns office and get the object then walk to mallory mal maroons office'
p94
aS'walk to robert bob browns office'
p95
asg25
(lp96
sg3
(lp97
sg14
(lp98
saa(lp99
(g4
(g5
(S'S4'
p100
I0
I1
tp101
Rp102
(I3
S'|'
p103
NNNI4
I1
I0
tp104
bS'bean'
p105
tp106
Rp107
I10
I0
tp108
a(g107
I3
I0
tp109
a(g107
I27
I0
tp110
a(g107
I7
I0
tp111
a(g107
I18
I0
tp112
a(g107
I2
I0
tp113
a(g107
I20
I0
tp114
a(g107
I17
I0
tp115
a(g4
(g5
(S'S9'
p116
I0
I1
tp117
Rp118
(I3
S'|'
p119
NNNI9
I1
I0
tp120
bS'container'
p121
tp122
Rp123
I2
I1
tp124
a(g4
(g5
(S'S5'
p125
I0
I1
tp126
Rp127
(I3
S'|'
p128
NNNI5
I1
I0
tp129
bS'peach'
p130
tp131
Rp132
I10
I0
tp133
a(g132
I3
I0
tp134
a(g132
I27
I0
tp135
a(g132
I7
I0
tp136
a(g132
I18
I0
tp137
a(g132
I2
I0
tp138
a(g132
I20
I0
tp139
a(g132
I17
I0
tp140
a(g4
(g5
(S'S5'
p141
I0
I1
tp142
Rp143
(I3
S'|'
p144
NNNI5
I1
I0
tp145
bS'white'
p146
tp147
Rp148
I10
I0
tp149
a(g148
I3
I0
tp150
a(g148
I27
I0
tp151
a(g148
I7
I0
tp152
a(g148
I18
I0
tp153
a(g148
I2
I0
tp154
a(g148
I20
I0
tp155
a(g148
I17
I0
tp156
a(g4
(g5
(S'S8'
p157
I0
I1
tp158
Rp159
(I3
S'|'
p160
NNNI8
I1
I0
tp161
bS'cylinder'
p162
tp163
Rp164
I3
I1
tp165
a(g4
(g5
(S'S8'
p166
I0
I1
tp167
Rp168
(I3
S'|'
p169
NNNI8
I1
I0
tp170
bS'pringles'
p171
tp172
Rp173
I10
I0
tp174
a(g173
I3
I0
tp175
a(g173
I27
I0
tp176
a(g173
I7
I0
tp177
a(g173
I18
I0
tp178
a(g173
I2
I0
tp179
a(g173
I20
I0
tp180
a(g173
I17
I0
tp181
a(g4
(g5
(S'S5'
p182
I0
I1
tp183
Rp184
(I3
S'|'
p185
NNNI5
I1
I0
tp186
bS'block'
p187
tp188
Rp189
I10
I0
tp190
a(g189
I3
I0
tp191
a(g189
I27
I0
tp192
a(g189
I7
I0
tp193
a(g189
I18
I0
tp194
a(g189
I2
I0
tp195
a(g189
I20
I0
tp196
a(g189
I17
I0
tp197
a(g4
(g5
(S'S9'
p198
I0
I1
tp199
Rp200
(I3
S'|'
p201
NNNI9
I1
I0
tp202
bS'rectangle'
p203
tp204
Rp205
I10
I0
tp206
a(g205
I3
I0
tp207
a(g205
I27
I0
tp208
a(g205
I7
I0
tp209
a(g205
I18
I0
tp210
a(g205
I2
I0
tp211
a(g205
I20
I0
tp212
a(g205
I17
I0
tp213
a(g4
(g5
(S'S8'
p214
I0
I1
tp215
Rp216
(I3
S'|'
p217
NNNI8
I1
I0
tp218
bS'cylinder'
p219
tp220
Rp221
I3
I0
tp222
a(g4
(g5
(S'S8'
p223
I0
I1
tp224
Rp225
(I3
S'|'
p226
NNNI8
I1
I0
tp227
bS'metallic'
p228
tp229
Rp230
I7
I1
tp231
a(g4
(g5
(S'S8'
p232
I0
I1
tp233
Rp234
(I3
S'|'
p235
NNNI8
I1
I0
tp236
bS'metallic'
p237
tp238
Rp239
I7
I0
tp240
a(g4
(g5
(S'S8'
p241
I0
I1
tp242
Rp243
(I3
S'|'
p244
NNNI8
I1
I0
tp245
bS'cylinder'
p246
tp247
Rp248
I3
I1
tp249
a(g4
(g5
(S'S6'
p250
I0
I1
tp251
Rp252
(I3
S'|'
p253
NNNI6
I1
I0
tp254
bS'maroon'
p255
tp256
Rp257
I7
I1
tp258
a(g4
(g5
(S'S4'
p259
I0
I1
tp260
Rp261
(I3
S'|'
p262
NNNI4
I1
I0
tp263
bS'blue'
p264
tp265
Rp266
I18
I1
tp267
a(g4
(g5
(S'S4'
p268
I0
I1
tp269
Rp270
(I3
S'|'
p271
NNNI4
I1
I0
tp272
bS'long'
p273
tp274
Rp275
I20
I1
tp276
aa(lp277
(S'maroon'
p278
S'white'
p279
I00
tp280
a(g278
S'yellow'
p281
I00
tp282
a(g278
S'blue'
p283
I00
tp284
aa.