(lp0
(lp1
(dp2
S'action'
p3
cnumpy.core.multiarray
scalar
p4
(cnumpy
dtype
p5
(S'S4'
p6
I0
I1
tp7
Rp8
(I3
S'|'
p9
NNNI4
I1
I0
tp10
bS'walk'
p11
tp12
Rp13
sS'recipient'
p14
NsS'patient'
p15
NsS'goal'
p16
g4
(g5
(S'S4'
p17
I0
I1
tp18
Rp19
(I3
S'|'
p20
NNNI4
I1
I0
tp21
bS'3506'
p22
tp23
Rp24
sS'source'
p25
Nsa(dp26
g3
g4
(g5
(S'S5'
p27
I0
I1
tp28
Rp29
(I3
S'|'
p30
NNNI5
I1
I0
tp31
bS'bring'
p32
tp33
Rp34
sg14
g4
(g5
(S'S1'
p35
I0
I1
tp36
Rp37
(I3
S'|'
p38
NNNI1
I1
I0
tp39
bS'n'
p40
tp41
Rp42
sg15
g4
(g5
(S'S7'
p43
I0
I1
tp44
Rp45
(I3
S'|'
p46
NNNI7
I1
I0
tp47
bS'oidx_13'
p48
tp49
Rp50
sg16
Nsg25
Nsa(dp51
g3
g4
(g5
(S'S4'
p52
I0
I1
tp53
Rp54
(I3
S'|'
p55
NNNI4
I1
I0
tp56
bS'walk'
p57
tp58
Rp59
sg14
Nsg15
Nsg16
g4
(g5
(S'S4'
p60
I0
I1
tp61
Rp62
(I3
S'|'
p63
NNNI4
I1
I0
tp64
bS'3414'
p65
tp66
Rp67
sg25
Nsaa(lp68
(dp69
S'all'
p70
(lp71
S"go into the printer room across from peggy parker 's office"
p72
asg15
(lp73
sg16
(lp74
S"the printer room it 's across from peggy parker 's office"
p75
asg25
(lp76
sg3
(lp77
sg14
(lp78
sa(dp79
g70
(lp80
S'give dr nagel the can of pringles'
p81
asg15
(lp82
sg16
(lp83
sg25
(lp84
sg3
(lp85
sg14
(lp86
S'dr nagel'
p87
aS'dr nancy nagel'
p88
asa(dp89
g70
(lp90
S"take the medicine bottle from the lab across from walter ward 's office and put it into the lounge across from dr heidi hughes 's office"
p91
asg15
(lp92
sg16
(lp93
S'the lab behind the kitchen'
p94
aS'the small lab between two larger labs'
p95
aS"the lab across from the supervisor 's office"
p96
asg25
(lp97
sg3
(lp98
sg14
(lp99
saa(lp100
(g4
(g5
(S'S5'
p101
I0
I1
tp102
Rp103
(I3
S'|'
p104
NNNI5
I1
I0
tp105
bS'block'
p106
tp107
Rp108
I10
I0
tp109
a(g108
I3
I0
tp110
a(g108
I27
I0
tp111
a(g108
I7
I0
tp112
a(g108
I18
I0
tp113
a(g108
I2
I0
tp114
a(g108
I20
I0
tp115
a(g108
I17
I0
tp116
a(g4
(g5
(S'S8'
p117
I0
I1
tp118
Rp119
(I3
S'|'
p120
NNNI8
I1
I0
tp121
bS'metallic'
p122
tp123
Rp124
I10
I0
tp125
a(g124
I3
I0
tp126
a(g124
I27
I0
tp127
a(g124
I7
I0
tp128
a(g124
I18
I0
tp129
a(g124
I2
I0
tp130
a(g124
I20
I0
tp131
a(g124
I17
I0
tp132
a(g4
(g5
(S'S9'
p133
I0
I1
tp134
Rp135
(I3
S'|'
p136
NNNI9
I1
I0
tp137
bS'styrofoam'
p138
tp139
Rp140
I20
I1
tp141
a(g4
(g5
(S'S9'
p142
I0
I1
tp143
Rp144
(I3
S'|'
p145
NNNI9
I1
I0
tp146
bS'container'
p147
tp148
Rp149
I2
I1
tp150
a(g4
(g5
(S'S8'
p151
I0
I1
tp152
Rp153
(I3
S'|'
p154
NNNI8
I1
I0
tp155
bS'cylinder'
p156
tp157
Rp158
I3
I1
tp159
a(g4
(g5
(S'S3'
p160
I0
I1
tp161
Rp162
(I3
S'|'
p163
NNNI3
I1
I0
tp164
bS'can'
p165
tp166
Rp167
I10
I1
tp168
a(g4
(g5
(S'S8'
p169
I0
I1
tp170
Rp171
(I3
S'|'
p172
NNNI8
I1
I0
tp173
bS'pringles'
p174
tp175
Rp176
I10
I0
tp177
a(g176
I3
I0
tp178
a(g176
I27
I0
tp179
a(g176
I7
I0
tp180
a(g176
I18
I0
tp181
a(g176
I2
I0
tp182
a(g176
I20
I0
tp183
a(g176
I17
I0
tp184
a(g4
(g5
(S'S3'
p185
I0
I1
tp186
Rp187
(I3
S'|'
p188
NNNI3
I1
I0
tp189
bS'can'
p190
tp191
Rp192
I7
I0
tp193
a(g4
(g5
(S'S3'
p194
I0
I1
tp195
Rp196
(I3
S'|'
p197
NNNI3
I1
I0
tp198
bS'can'
p199
tp200
Rp201
I2
I1
tp202
a(g4
(g5
(S'S3'
p203
I0
I1
tp204
Rp205
(I3
S'|'
p206
NNNI3
I1
I0
tp207
bS'can'
p208
tp209
Rp210
I27
I0
tp211
a(g4
(g5
(S'S5'
p212
I0
I1
tp213
Rp214
(I3
S'|'
p215
NNNI5
I1
I0
tp216
bS'peach'
p217
tp218
Rp219
I20
I1
tp220
a(g4
(g5
(S'S6'
p221
I0
I1
tp222
Rp223
(I3
S'|'
p224
NNNI6
I1
I0
tp225
bS'yellow'
p226
tp227
Rp228
I10
I0
tp229
a(g228
I3
I0
tp230
a(g228
I27
I0
tp231
a(g228
I7
I0
tp232
a(g228
I18
I0
tp233
a(g228
I2
I0
tp234
a(g228
I20
I0
tp235
a(g228
I17
I0
tp236
a(g4
(g5
(S'S4'
p237
I0
I1
tp238
Rp239
(I3
S'|'
p240
NNNI4
I1
I0
tp241
bS'blue'
p242
tp243
Rp244
I18
I1
tp245
a(g4
(g5
(S'S5'
p246
I0
I1
tp247
Rp248
(I3
S'|'
p249
NNNI5
I1
I0
tp250
bS'tower'
p251
tp252
Rp253
I10
I0
tp254
a(g253
I3
I0
tp255
a(g253
I27
I0
tp256
a(g253
I7
I0
tp257
a(g253
I18
I0
tp258
a(g253
I2
I0
tp259
a(g253
I20
I0
tp260
a(g253
I17
I0
tp261
a(g4
(g5
(S'S9'
p262
I0
I1
tp263
Rp264
(I3
S'|'
p265
NNNI9
I1
I0
tp266
bS'styrofoam'
p267
tp268
Rp269
I20
I0
tp270
aa(lp271
(S'bottle'
p272
S'container'
p273
I01
tp274
a(S'small'
p275
S'white'
p276
I00
tp277
a(S'larger'
p278
S'into'
p279
I00
tp280
aa.