(lp0
(lp1
(dp2
S'action'
p3
cnumpy.core.multiarray
scalar
p4
(cnumpy
dtype
p5
(S'S4'
p6
I0
I1
tp7
Rp8
(I3
S'|'
p9
NNNI4
I1
I0
tp10
bS'walk'
p11
tp12
Rp13
sS'recipient'
p14
NsS'patient'
p15
NsS'goal'
p16
g4
(g5
(S'S4'
p17
I0
I1
tp18
Rp19
(I3
S'|'
p20
NNNI4
I1
I0
tp21
bS'3520'
p22
tp23
Rp24
sS'source'
p25
Nsa(dp26
g3
g4
(g5
(S'S4'
p27
I0
I1
tp28
Rp29
(I3
S'|'
p30
NNNI4
I1
I0
tp31
bS'walk'
p32
tp33
Rp34
sg14
Nsg15
Nsg16
g4
(g5
(S'S4'
p35
I0
I1
tp36
Rp37
(I3
S'|'
p38
NNNI4
I1
I0
tp39
bS'3502'
p40
tp41
Rp42
sg25
Nsa(dp43
g3
g4
(g5
(S'S4'
p44
I0
I1
tp45
Rp46
(I3
S'|'
p47
NNNI4
I1
I0
tp48
bS'move'
p49
tp50
Rp51
sg14
Nsg15
g4
(g5
(S'S7'
p52
I0
I1
tp53
Rp54
(I3
S'|'
p55
NNNI7
I1
I0
tp56
bS'oidx_13'
p57
tp58
Rp59
sg16
g4
(g5
(S'S4'
p60
I0
I1
tp61
Rp62
(I3
S'|'
p63
NNNI4
I1
I0
tp64
bS'3432'
p65
tp66
Rp67
sg25
g4
(g5
(S'S4'
p68
I0
I1
tp69
Rp70
(I3
S'|'
p71
NNNI4
I1
I0
tp72
bS'3410'
p73
tp74
Rp75
saa(lp76
(dp77
S'all'
p78
(lp79
S'go to the kitchen'
p80
asg15
(lp81
sg16
(lp82
S'to the kitchen'
p83
asg25
(lp84
sg3
(lp85
sg14
(lp86
sa(dp87
g78
(lp88
S'give mallory maroon the white container with the red top'
p89
asg15
(lp90
sg16
(lp91
S"mallory 's office"
p92
asg25
(lp93
sg3
(lp94
sg14
(lp95
sa(dp96
g78
(lp97
S"take the pringles can to the office next to sybil 's office"
p98
asg15
(lp99
sg16
(lp100
sg25
(lp101
S'from the pod next to the printer'
p102
asg3
(lp103
sg14
(lp104
saa(lp105
(g4
(g5
(S'S5'
p106
I0
I1
tp107
Rp108
(I3
S'|'
p109
NNNI5
I1
I0
tp110
bS'white'
p111
tp112
Rp113
I10
I0
tp114
a(g113
I3
I0
tp115
a(g113
I27
I0
tp116
a(g113
I7
I0
tp117
a(g113
I18
I0
tp118
a(g113
I2
I0
tp119
a(g113
I20
I0
tp120
a(g113
I17
I0
tp121
a(g4
(g5
(S'S5'
p122
I0
I1
tp123
Rp124
(I3
S'|'
p125
NNNI5
I1
I0
tp126
bS'empty'
p127
tp128
Rp129
I3
I1
tp130
a(g4
(g5
(S'S9'
p131
I0
I1
tp132
Rp133
(I3
S'|'
p134
NNNI9
I1
I0
tp135
bS'rectangle'
p136
tp137
Rp138
I10
I0
tp139
a(g138
I3
I0
tp140
a(g138
I27
I0
tp141
a(g138
I7
I0
tp142
a(g138
I18
I0
tp143
a(g138
I2
I0
tp144
a(g138
I20
I0
tp145
a(g138
I17
I0
tp146
a(g4
(g5
(S'S5'
p147
I0
I1
tp148
Rp149
(I3
S'|'
p150
NNNI5
I1
I0
tp151
bS'spice'
p152
tp153
Rp154
I10
I0
tp155
a(g154
I3
I0
tp156
a(g154
I27
I0
tp157
a(g154
I7
I0
tp158
a(g154
I18
I0
tp159
a(g154
I2
I0
tp160
a(g154
I20
I0
tp161
a(g154
I17
I0
tp162
a(g4
(g5
(S'S6'
p163
I0
I1
tp164
Rp165
(I3
S'|'
p166
NNNI6
I1
I0
tp167
bS'column'
p168
tp169
Rp170
I3
I1
tp171
a(g4
(g5
(S'S5'
p172
I0
I1
tp173
Rp174
(I3
S'|'
p175
NNNI5
I1
I0
tp176
bS'empty'
p177
tp178
Rp179
I27
I0
tp180
a(g4
(g5
(S'S4'
p181
I0
I1
tp182
Rp183
(I3
S'|'
p184
NNNI4
I1
I0
tp185
bS'bean'
p186
tp187
Rp188
I10
I0
tp189
a(g188
I3
I0
tp190
a(g188
I27
I0
tp191
a(g188
I7
I0
tp192
a(g188
I18
I0
tp193
a(g188
I2
I0
tp194
a(g188
I20
I0
tp195
a(g188
I17
I0
tp196
a(g4
(g5
(S'S5'
p197
I0
I1
tp198
Rp199
(I3
S'|'
p200
NNNI5
I1
I0
tp201
bS'block'
p202
tp203
Rp204
I10
I0
tp205
a(g204
I3
I0
tp206
a(g204
I27
I0
tp207
a(g204
I7
I0
tp208
a(g204
I18
I0
tp209
a(g204
I2
I0
tp210
a(g204
I20
I0
tp211
a(g204
I17
I0
tp212
a(g4
(g5
(S'S5'
p213
I0
I1
tp214
Rp215
(I3
S'|'
p216
NNNI5
I1
I0
tp217
bS'clear'
p218
tp219
Rp220
I10
I0
tp221
a(g220
I3
I0
tp222
a(g220
I27
I0
tp223
a(g220
I7
I0
tp224
a(g220
I18
I0
tp225
a(g220
I2
I0
tp226
a(g220
I20
I0
tp227
a(g220
I17
I0
tp228
a(g4
(g5
(S'S8'
p229
I0
I1
tp230
Rp231
(I3
S'|'
p232
NNNI8
I1
I0
tp233
bS'pringles'
p234
tp235
Rp236
I10
I0
tp237
a(g236
I3
I0
tp238
a(g236
I27
I0
tp239
a(g236
I7
I0
tp240
a(g236
I18
I0
tp241
a(g236
I2
I0
tp242
a(g236
I20
I0
tp243
a(g236
I17
I0
tp244
a(g4
(g5
(S'S3'
p245
I0
I1
tp246
Rp247
(I3
S'|'
p248
NNNI3
I1
I0
tp249
bS'can'
p250
tp251
Rp252
I10
I1
tp253
a(g4
(g5
(S'S3'
p254
I0
I1
tp255
Rp256
(I3
S'|'
p257
NNNI3
I1
I0
tp258
bS'can'
p259
tp260
Rp261
I27
I0
tp262
a(g4
(g5
(S'S3'
p263
I0
I1
tp264
Rp265
(I3
S'|'
p266
NNNI3
I1
I0
tp267
bS'can'
p268
tp269
Rp270
I2
I1
tp271
a(g4
(g5
(S'S3'
p272
I0
I1
tp273
Rp274
(I3
S'|'
p275
NNNI3
I1
I0
tp276
bS'can'
p277
tp278
Rp279
I20
I0
tp280
a(g4
(g5
(S'S3'
p281
I0
I1
tp282
Rp283
(I3
S'|'
p284
NNNI3
I1
I0
tp285
bS'can'
p286
tp287
Rp288
I17
I0
tp289
aa(lp290
(S'maroon'
p291
S'white'
p292
I00
tp293
a(g291
S'yellow'
p294
I00
tp295
a(g291
S'blue'
p296
I00
tp297
a(S'red'
p298
g292
I00
tp299
a(g298
g294
I00
tp300
a(g298
g296
I00
tp301
aa.