(lp0
(lp1
(dp2
S'action'
p3
cnumpy.core.multiarray
scalar
p4
(cnumpy
dtype
p5
(S'S4'
p6
I0
I1
tp7
Rp8
(I3
S'|'
p9
NNNI4
I1
I0
tp10
bS'walk'
p11
tp12
Rp13
sS'recipient'
p14
NsS'patient'
p15
NsS'goal'
p16
S'3402'
p17
sS'source'
p18
Nsa(dp19
g3
g4
(g5
(S'S5'
p20
I0
I1
tp21
Rp22
(I3
S'|'
p23
NNNI5
I1
I0
tp24
bS'bring'
p25
tp26
Rp27
sg14
g4
(g5
(S'S1'
p28
I0
I1
tp29
Rp30
(I3
S'|'
p31
NNNI1
I1
I0
tp32
bS'n'
p33
tp34
Rp35
sg15
g4
(g5
(S'S7'
p36
I0
I1
tp37
Rp38
(I3
S'|'
p39
NNNI7
I1
I0
tp40
bS'oidx_26'
p41
tp42
Rp43
sg16
Nsg18
Nsa(dp44
g3
g4
(g5
(S'S4'
p45
I0
I1
tp46
Rp47
(I3
S'|'
p48
NNNI4
I1
I0
tp49
bS'walk'
p50
tp51
Rp52
sg14
Nsg15
Nsg16
S'3432'
p53
sg18
Nsaa(lp54
(dp55
S'all'
p56
(lp57
S'go to the office belonging to dr heidi hughes'
p58
asg15
(lp59
sg16
(lp60
S'go to the office'
p61
aS'go to the north west office'
p62
asg18
(lp63
sg3
(lp64
sg14
(lp65
sa(dp66
g56
(lp67
S'give the soda can to nancy nagel'
p68
asg15
(lp69
S'soda can'
p70
aS'a can'
p71
aS'a drink'
p72
asg16
(lp73
sg18
(lp74
sg3
(lp75
sg14
(lp76
sa(dp77
g56
(lp78
S'go somewhere'
p79
asg15
(lp80
sg16
(lp81
S'go to the north east office'
p82
aS'go to the office'
p83
aS'the office'
p84
aS'the lab'
p85
aS'go to the office'
p86
aS'office'
p87
aS'office next to big lab'
p88
aS'northern office'
p89
aS"smalt 's office"
p90
aS"the room next to smalt 's office"
p91
aS"the room next to smalt 's office"
p92
aS'unoccupied office'
p93
aS'go to the north west empty office'
p94
aS'go to the north east empty office'
p95
asg18
(lp96
sg3
(lp97
sg14
(lp98
saa(lp99
(g4
(g5
(S'S5'
p100
I0
I1
tp101
Rp102
(I3
S'|'
p103
NNNI5
I1
I0
tp104
bS'white'
p105
tp106
Rp107
I10
I0
tp108
a(g107
I3
I0
tp109
a(g107
I27
I0
tp110
a(g107
I7
I0
tp111
a(g107
I18
I0
tp112
a(g107
I2
I0
tp113
a(g107
I20
I0
tp114
a(g107
I17
I0
tp115
a(g4
(g5
(S'S6'
p116
I0
I1
tp117
Rp118
(I3
S'|'
p119
NNNI6
I1
I0
tp120
bS'yellow'
p121
tp122
Rp123
I2
I1
tp124
a(g4
(g5
(S'S5'
p125
I0
I1
tp126
Rp127
(I3
S'|'
p128
NNNI5
I1
I0
tp129
bS'block'
p130
tp131
Rp132
I10
I0
tp133
a(g132
I3
I0
tp134
a(g132
I27
I0
tp135
a(g132
I7
I0
tp136
a(g132
I18
I0
tp137
a(g132
I2
I0
tp138
a(g132
I20
I0
tp139
a(g132
I17
I0
tp140
a(g4
(g5
(S'S9'
p141
I0
I1
tp142
Rp143
(I3
S'|'
p144
NNNI9
I1
I0
tp145
bS'styrofoam'
p146
tp147
Rp148
I20
I1
tp149
a(g4
(g5
(S'S9'
p150
I0
I1
tp151
Rp152
(I3
S'|'
p153
NNNI9
I1
I0
tp154
bS'rectangle'
p155
tp156
Rp157
I10
I0
tp158
a(g157
I3
I0
tp159
a(g157
I27
I0
tp160
a(g157
I7
I0
tp161
a(g157
I18
I0
tp162
a(g157
I2
I0
tp163
a(g157
I20
I0
tp164
a(g157
I17
I0
tp165
a(g4
(g5
(S'S4'
p166
I0
I1
tp167
Rp168
(I3
S'|'
p169
NNNI4
I1
I0
tp170
bS'bean'
p171
tp172
Rp173
I10
I0
tp174
a(g173
I3
I0
tp175
a(g173
I27
I0
tp176
a(g173
I7
I0
tp177
a(g173
I18
I0
tp178
a(g173
I2
I0
tp179
a(g173
I20
I0
tp180
a(g173
I17
I0
tp181
a(g4
(g5
(S'S3'
p182
I0
I1
tp183
Rp184
(I3
S'|'
p185
NNNI3
I1
I0
tp186
bS'can'
p187
tp188
Rp189
I2
I1
tp190
a(g4
(g5
(S'S3'
p191
I0
I1
tp192
Rp193
(I3
S'|'
p194
NNNI3
I1
I0
tp195
bS'can'
p196
tp197
Rp198
I3
I0
tp199
a(g4
(g5
(S'S3'
p200
I0
I1
tp201
Rp202
(I3
S'|'
p203
NNNI3
I1
I0
tp204
bS'can'
p205
tp206
Rp207
I2
I1
tp208
a(g4
(g5
(S'S6'
p209
I0
I1
tp210
Rp211
(I3
S'|'
p212
NNNI6
I1
I0
tp213
bS'coffee'
p214
tp215
Rp216
I10
I0
tp217
a(g216
I3
I0
tp218
a(g216
I27
I0
tp219
a(g216
I7
I0
tp220
a(g216
I18
I0
tp221
a(g216
I2
I0
tp222
a(g216
I20
I0
tp223
a(g216
I17
I0
tp224
a(g4
(g5
(S'S6'
p225
I0
I1
tp226
Rp227
(I3
S'|'
p228
NNNI6
I1
I0
tp229
bS'column'
p230
tp231
Rp232
I20
I1
tp233
a(g4
(g5
(S'S5'
p234
I0
I1
tp235
Rp236
(I3
S'|'
p237
NNNI5
I1
I0
tp238
bS'tower'
p239
tp240
Rp241
I10
I0
tp242
a(g241
I3
I0
tp243
a(g241
I27
I0
tp244
a(g241
I7
I0
tp245
a(g241
I18
I0
tp246
a(g241
I2
I0
tp247
a(g241
I20
I0
tp248
a(g241
I17
I0
tp249
a(g4
(g5
(S'S4'
p250
I0
I1
tp251
Rp252
(I3
S'|'
p253
NNNI4
I1
I0
tp254
bS'long'
p255
tp256
Rp257
I20
I1
tp258
a(g4
(g5
(S'S8'
p259
I0
I1
tp260
Rp261
(I3
S'|'
p262
NNNI8
I1
I0
tp263
bS'metallic'
p264
tp265
Rp266
I10
I0
tp267
a(g266
I3
I0
tp268
a(g266
I27
I0
tp269
a(g266
I7
I0
tp270
a(g266
I18
I0
tp271
a(g266
I2
I0
tp272
a(g266
I20
I0
tp273
a(g266
I17
I0
tp274
a(g4
(g5
(S'S5'
p275
I0
I1
tp276
Rp277
(I3
S'|'
p278
NNNI5
I1
I0
tp279
bS'clear'
p280
tp281
Rp282
I10
I0
tp283
a(g282
I3
I0
tp284
a(g282
I27
I0
tp285
a(g282
I7
I0
tp286
a(g282
I18
I0
tp287
a(g282
I2
I0
tp288
a(g282
I20
I0
tp289
a(g282
I17
I0
tp290
aa(lp291
(S'unoccupied'
p292
S'block'
p293
I00
tp294
a(g292
S'empty'
p295
I01
tp296
aa.