(lp0
(lp1
(dp2
S'action'
p3
cnumpy.core.multiarray
scalar
p4
(cnumpy
dtype
p5
(S'S4'
p6
I0
I1
tp7
Rp8
(I3
S'|'
p9
NNNI4
I1
I0
tp10
bS'walk'
p11
tp12
Rp13
sS'recipient'
p14
NsS'patient'
p15
NsS'goal'
p16
g4
(g5
(S'S4'
p17
I0
I1
tp18
Rp19
(I3
S'|'
p20
NNNI4
I1
I0
tp21
bS'3430'
p22
tp23
Rp24
sS'source'
p25
Nsa(dp26
g3
g4
(g5
(S'S5'
p27
I0
I1
tp28
Rp29
(I3
S'|'
p30
NNNI5
I1
I0
tp31
bS'bring'
p32
tp33
Rp34
sg14
g4
(g5
(S'S1'
p35
I0
I1
tp36
Rp37
(I3
S'|'
p38
NNNI1
I1
I0
tp39
bS'h'
p40
tp41
Rp42
sg15
S'oidx_13'
p43
sg16
Nsg25
Nsaa(lp44
(dp45
S'all'
p46
(lp47
S"travel to dr sybil smalt 's office"
p48
asg15
(lp49
sg16
(lp50
S"dr sybil smalt 's office"
p51
asg25
(lp52
sg3
(lp53
sg14
(lp54
sa(dp55
g46
(lp56
S'dr heidi hughes needs the blue tower'
p57
asg15
(lp58
S'blue tower'
p59
aS'blue cylinder'
p60
aS'pringles can'
p61
aS'tall blue cylinder'
p62
aS'blue tower'
p63
aS'blue tower'
p64
aS'blue tower'
p65
aS'long can'
p66
aS'long blue tower'
p67
aS'long blue can'
p68
aS'tall blue pringles can with plastic lid'
p69
asg16
(lp70
sg25
(lp71
sg3
(lp72
sg14
(lp73
saa(lp74
(g4
(g5
(S'S5'
p75
I0
I1
tp76
Rp77
(I3
S'|'
p78
NNNI5
I1
I0
tp79
bS'tower'
p80
tp81
Rp82
I20
I1
tp83
a(g4
(g5
(S'S5'
p84
I0
I1
tp85
Rp86
(I3
S'|'
p87
NNNI5
I1
I0
tp88
bS'block'
p89
tp90
Rp91
I10
I0
tp92
a(g91
I3
I0
tp93
a(g91
I27
I0
tp94
a(g91
I7
I0
tp95
a(g91
I18
I0
tp96
a(g91
I2
I0
tp97
a(g91
I20
I0
tp98
a(g91
I17
I0
tp99
a(g4
(g5
(S'S9'
p100
I0
I1
tp101
Rp102
(I3
S'|'
p103
NNNI9
I1
I0
tp104
bS'styrofoam'
p105
tp106
Rp107
I20
I1
tp108
a(g4
(g5
(S'S5'
p109
I0
I1
tp110
Rp111
(I3
S'|'
p112
NNNI5
I1
I0
tp113
bS'clear'
p114
tp115
Rp116
I10
I0
tp117
a(g116
I3
I0
tp118
a(g116
I27
I0
tp119
a(g116
I7
I0
tp120
a(g116
I18
I0
tp121
a(g116
I2
I0
tp122
a(g116
I20
I0
tp123
a(g116
I17
I0
tp124
a(g4
(g5
(S'S9'
p125
I0
I1
tp126
Rp127
(I3
S'|'
p128
NNNI9
I1
I0
tp129
bS'styrofoam'
p130
tp131
Rp132
I27
I0
tp133
a(g4
(g5
(S'S4'
p134
I0
I1
tp135
Rp136
(I3
S'|'
p137
NNNI4
I1
I0
tp138
bS'blue'
p139
tp140
Rp141
I18
I1
tp142
a(g4
(g5
(S'S4'
p143
I0
I1
tp144
Rp145
(I3
S'|'
p146
NNNI4
I1
I0
tp147
bS'blue'
p148
tp149
Rp150
I17
I0
tp151
a(g4
(g5
(S'S5'
p152
I0
I1
tp153
Rp154
(I3
S'|'
p155
NNNI5
I1
I0
tp156
bS'tower'
p157
tp158
Rp159
I27
I0
tp160
a(g4
(g5
(S'S4'
p161
I0
I1
tp162
Rp163
(I3
S'|'
p164
NNNI4
I1
I0
tp165
bS'blue'
p166
tp167
Rp168
I18
I1
tp169
a(g4
(g5
(S'S4'
p170
I0
I1
tp171
Rp172
(I3
S'|'
p173
NNNI4
I1
I0
tp174
bS'blue'
p175
tp176
Rp177
I20
I0
tp178
aa(lp179
(S'tall'
p180
S'white'
p181
I00
tp182
a(g180
S'long'
p183
I01
tp184
a(S'plastic'
p185
S'container'
p186
I01
tp187
aa.