(lp0
(lp1
(dp2
S'action'
p3
cnumpy.core.multiarray
scalar
p4
(cnumpy
dtype
p5
(S'S4'
p6
I0
I1
tp7
Rp8
(I3
S'|'
p9
NNNI4
I1
I0
tp10
bS'walk'
p11
tp12
Rp13
sS'recipient'
p14
NsS'patient'
p15
NsS'goal'
p16
S'3414a'
p17
sS'source'
p18
Nsa(dp19
g3
g4
(g5
(S'S5'
p20
I0
I1
tp21
Rp22
(I3
S'|'
p23
NNNI5
I1
I0
tp24
bS'bring'
p25
tp26
Rp27
sg14
g4
(g5
(S'S1'
p28
I0
I1
tp29
Rp30
(I3
S'|'
p31
NNNI1
I1
I0
tp32
bS'p'
p33
tp34
Rp35
sg15
S'oidx_13'
p36
sg16
Nsg18
Nsaa(lp37
(dp38
S'all'
p39
(lp40
S'walk to the middle lab'
p41
asg15
(lp42
sg16
(lp43
S'walk to middle lab'
p44
aS'walk to center lab'
p45
aS'walk to center lab'
p46
aS'walk to lab next to the kitchen'
p47
aS'walk to lab next to the printer'
p48
asg18
(lp49
sg3
(lp50
sg14
(lp51
sa(dp52
g39
(lp53
S'take blue cylinder to peggy'
p54
asg15
(lp55
S'blue cylinder'
p56
aS'deliver blue cylinder to peggy'
p57
aS'deliver blue cylinder to p'
p58
aS'cylinder'
p59
aS'deliver pringles to peggy'
p60
aS'deliver pringles to peggy'
p61
aS'blue can'
p62
aS'blue can'
p63
aS'pringles'
p64
aS'pringles'
p65
aS'pringles'
p66
aS'blue can'
p67
aS'chips'
p68
aS'tall blue can'
p69
aS'blue can'
p70
asg16
(lp71
sg18
(lp72
sg3
(lp73
sg14
(lp74
S'peggy'
p75
asaa(lp76
(g4
(g5
(S'S5'
p77
I0
I1
tp78
Rp79
(I3
S'|'
p80
NNNI5
I1
I0
tp81
bS'tower'
p82
tp83
Rp84
I10
I0
tp85
a(g84
I3
I0
tp86
a(g84
I27
I0
tp87
a(g84
I7
I0
tp88
a(g84
I18
I0
tp89
a(g84
I2
I0
tp90
a(g84
I20
I0
tp91
a(g84
I17
I0
tp92
a(g4
(g5
(S'S6'
p93
I0
I1
tp94
Rp95
(I3
S'|'
p96
NNNI6
I1
I0
tp97
bS'coffee'
p98
tp99
Rp100
I2
I1
tp101
a(g4
(g5
(S'S8'
p102
I0
I1
tp103
Rp104
(I3
S'|'
p105
NNNI8
I1
I0
tp106
bS'cylinder'
p107
tp108
Rp109
I20
I1
tp110
a(g4
(g5
(S'S6'
p111
I0
I1
tp112
Rp113
(I3
S'|'
p114
NNNI6
I1
I0
tp115
bS'coffee'
p116
tp117
Rp118
I10
I0
tp119
a(g4
(g5
(S'S5'
p120
I0
I1
tp121
Rp122
(I3
S'|'
p123
NNNI5
I1
I0
tp124
bS'spice'
p125
tp126
Rp127
I10
I0
tp128
a(g127
I3
I0
tp129
a(g127
I27
I0
tp130
a(g127
I7
I0
tp131
a(g127
I18
I0
tp132
a(g127
I2
I0
tp133
a(g127
I20
I0
tp134
a(g127
I17
I0
tp135
a(g4
(g5
(S'S5'
p136
I0
I1
tp137
Rp138
(I3
S'|'
p139
NNNI5
I1
I0
tp140
bS'block'
p141
tp142
Rp143
I10
I0
tp144
a(g143
I3
I0
tp145
a(g143
I27
I0
tp146
a(g143
I7
I0
tp147
a(g143
I18
I0
tp148
a(g143
I2
I0
tp149
a(g143
I20
I0
tp150
a(g143
I17
I0
tp151
a(g4
(g5
(S'S5'
p152
I0
I1
tp153
Rp154
(I3
S'|'
p155
NNNI5
I1
I0
tp156
bS'clear'
p157
tp158
Rp159
I10
I0
tp160
a(g159
I3
I0
tp161
a(g159
I27
I0
tp162
a(g159
I7
I0
tp163
a(g159
I18
I0
tp164
a(g159
I2
I0
tp165
a(g159
I20
I0
tp166
a(g159
I17
I0
tp167
a(g4
(g5
(S'S9'
p168
I0
I1
tp169
Rp170
(I3
S'|'
p171
NNNI9
I1
I0
tp172
bS'styrofoam'
p173
tp174
Rp175
I20
I1
tp176
a(g4
(g5
(S'S8'
p177
I0
I1
tp178
Rp179
(I3
S'|'
p180
NNNI8
I1
I0
tp181
bS'pringles'
p182
tp183
Rp184
I10
I0
tp185
a(g184
I3
I0
tp186
a(g184
I27
I0
tp187
a(g184
I7
I0
tp188
a(g184
I18
I0
tp189
a(g184
I2
I0
tp190
a(g184
I20
I0
tp191
a(g184
I17
I0
tp192
a(g4
(g5
(S'S4'
p193
I0
I1
tp194
Rp195
(I3
S'|'
p196
NNNI4
I1
I0
tp197
bS'bean'
p198
tp199
Rp200
I2
I1
tp201
aa(lp202
(S'tall'
p203
S'white'
p204
I00
tp205
a(g203
S'long'
p206
I01
tp207
aa.