(lp0
(lp1
(dp2
S'action'
p3
cnumpy.core.multiarray
scalar
p4
(cnumpy
dtype
p5
(S'S4'
p6
I0
I1
tp7
Rp8
(I3
S'|'
p9
NNNI4
I1
I0
tp10
bS'walk'
p11
tp12
Rp13
sS'recipient'
p14
NsS'patient'
p15
NsS'goal'
p16
S'3520'
p17
sS'source'
p18
Nsaa(lp19
(dp20
S'all'
p21
(lp22
S'go see bob'
p23
asg15
(lp24
sg16
(lp25
S'go see robert bob brown'
p26
aS'go see dr sybil smalt'
p27
aS'go two offices to the right'
p28
aS'go to the office next door'
p29
aS'go to the kitchen'
p30
asg18
(lp31
sg3
(lp32
sg14
(lp33
saa(lp34
(g4
(g5
(S'S6'
p35
I0
I1
tp36
Rp37
(I3
S'|'
p38
NNNI6
I1
I0
tp39
bS'yellow'
p40
tp41
Rp42
I10
I0
tp43
a(g42
I3
I0
tp44
a(g42
I27
I0
tp45
a(g42
I7
I0
tp46
a(g42
I18
I0
tp47
a(g42
I2
I0
tp48
a(g42
I20
I0
tp49
a(g42
I17
I0
tp50
a(g4
(g5
(S'S8'
p51
I0
I1
tp52
Rp53
(I3
S'|'
p54
NNNI8
I1
I0
tp55
bS'pringles'
p56
tp57
Rp58
I10
I0
tp59
a(g58
I3
I0
tp60
a(g58
I27
I0
tp61
a(g58
I7
I0
tp62
a(g58
I18
I0
tp63
a(g58
I2
I0
tp64
a(g58
I20
I0
tp65
a(g58
I17
I0
tp66
a(g4
(g5
(S'S9'
p67
I0
I1
tp68
Rp69
(I3
S'|'
p70
NNNI9
I1
I0
tp71
bS'container'
p72
tp73
Rp74
I2
I1
tp75
a(g4
(g5
(S'S3'
p76
I0
I1
tp77
Rp78
(I3
S'|'
p79
NNNI3
I1
I0
tp80
bS'can'
p81
tp82
Rp83
I10
I0
tp84
a(g83
I3
I0
tp85
a(g83
I27
I0
tp86
a(g83
I7
I0
tp87
a(g83
I18
I0
tp88
a(g83
I2
I0
tp89
a(g83
I20
I0
tp90
a(g83
I17
I0
tp91
a(g4
(g5
(S'S5'
p92
I0
I1
tp93
Rp94
(I3
S'|'
p95
NNNI5
I1
I0
tp96
bS'block'
p97
tp98
Rp99
I10
I0
tp100
a(g99
I3
I0
tp101
a(g99
I27
I0
tp102
a(g99
I7
I0
tp103
a(g99
I18
I0
tp104
a(g99
I2
I0
tp105
a(g99
I20
I0
tp106
a(g99
I17
I0
tp107
aa(lp108
a.