(lp0
(lp1
(dp2
S'action'
p3
cnumpy.core.multiarray
scalar
p4
(cnumpy
dtype
p5
(S'S4'
p6
I0
I1
tp7
Rp8
(I3
S'|'
p9
NNNI4
I1
I0
tp10
bS'walk'
p11
tp12
Rp13
sS'recipient'
p14
NsS'patient'
p15
NsS'goal'
p16
g4
(g5
(S'S4'
p17
I0
I1
tp18
Rp19
(I3
S'|'
p20
NNNI4
I1
I0
tp21
bS'3502'
p22
tp23
Rp24
sS'source'
p25
Nsa(dp26
g3
g4
(g5
(S'S5'
p27
I0
I1
tp28
Rp29
(I3
S'|'
p30
NNNI5
I1
I0
tp31
bS'bring'
p32
tp33
Rp34
sg14
S'r'
p35
sg15
g4
(g5
(S'S7'
p36
I0
I1
tp37
Rp38
(I3
S'|'
p39
NNNI7
I1
I0
tp40
bS'oidx_25'
p41
tp42
Rp43
sg16
Nsg25
Nsa(dp44
g3
g4
(g5
(S'S4'
p45
I0
I1
tp46
Rp47
(I3
S'|'
p48
NNNI4
I1
I0
tp49
bS'move'
p50
tp51
Rp52
sg14
Nsg15
S'oidx_6'
p53
sg16
g4
(g5
(S'S4'
p54
I0
I1
tp55
Rp56
(I3
S'|'
p57
NNNI4
I1
I0
tp58
bS'3502'
p59
tp60
Rp61
sg25
S'3406'
p62
saa(lp63
(dp64
S'all'
p65
(lp66
S'go to the office of mallory mal maroon'
p67
asg15
(lp68
sg16
(lp69
S'go to the office of mallory mal maroon'
p70
asg25
(lp71
sg3
(lp72
sg14
(lp73
sa(dp74
g65
(lp75
S'deliver the spice container with the gray top to richard rogue'
p76
asg15
(lp77
S'the spice container with the gray top'
p78
aS'the spice container with the gray top'
p79
aS'the spice container'
p80
aS'the spice container'
p81
aS'the spice container'
p82
asg16
(lp83
sg25
(lp84
sg3
(lp85
sg14
(lp86
S'richard rogue'
p87
aS'richard rogue'
p88
aS'richard rogue'
p89
aS'richard rogue'
p90
aS'richard rogue'
p91
aS'richard rogue'
p92
aS'richard rogue'
p93
aS'richard rogue'
p94
aS'richard rogue'
p95
aS'richard rogue'
p96
aS'richard rogue'
p97
aS'richard rogue'
p98
aS'richard rogue secretary'
p99
aS'richard rogue secretary'
p100
aS'richard rogue secretary'
p101
aS'richard rogue secretary'
p102
aS'richard rogue secretary'
p103
aS'richard rogue secretary'
p104
aS'richard rogue secretary'
p105
aS'richard rogue'
p106
aS'richard rogue'
p107
asa(dp108
g65
(lp109
S'move white bottle from lounge to the office of mallory mal maroon'
p110
asg15
(lp111
S'white bottle'
p112
asg16
(lp113
S'the office of mallory mal maroon'
p114
asg25
(lp115
S'the lounge'
p116
aS'lounge'
p117
aS'large lounge'
p118
aS'large lounge'
p119
aS'lounge'
p120
asg3
(lp121
sg14
(lp122
saa(lp123
(g4
(g5
(S'S3'
p124
I0
I1
tp125
Rp126
(I3
S'|'
p127
NNNI3
I1
I0
tp128
bS'can'
p129
tp130
Rp131
I10
I0
tp132
a(g131
I3
I0
tp133
a(g131
I27
I0
tp134
a(g131
I7
I0
tp135
a(g131
I18
I0
tp136
a(g131
I2
I0
tp137
a(g131
I20
I0
tp138
a(g131
I17
I0
tp139
a(g4
(g5
(S'S5'
p140
I0
I1
tp141
Rp142
(I3
S'|'
p143
NNNI5
I1
I0
tp144
bS'spice'
p145
tp146
Rp147
I10
I1
tp148
a(g4
(g5
(S'S4'
p149
I0
I1
tp150
Rp151
(I3
S'|'
p152
NNNI4
I1
I0
tp153
bS'blue'
p154
tp155
Rp156
I18
I1
tp157
a(g4
(g5
(S'S8'
p158
I0
I1
tp159
Rp160
(I3
S'|'
p161
NNNI8
I1
I0
tp162
bS'metallic'
p163
tp164
Rp165
I10
I0
tp166
a(g165
I3
I0
tp167
a(g165
I27
I0
tp168
a(g165
I7
I0
tp169
a(g165
I18
I0
tp170
a(g165
I2
I0
tp171
a(g165
I20
I0
tp172
a(g165
I17
I0
tp173
a(g4
(g5
(S'S4'
p174
I0
I1
tp175
Rp176
(I3
S'|'
p177
NNNI4
I1
I0
tp178
bS'long'
p179
tp180
Rp181
I3
I1
tp182
a(g4
(g5
(S'S4'
p183
I0
I1
tp184
Rp185
(I3
S'|'
p186
NNNI4
I1
I0
tp187
bS'gray'
p188
tp189
Rp190
I10
I0
tp191
a(g190
I3
I0
tp192
a(g190
I27
I0
tp193
a(g190
I7
I0
tp194
a(g190
I18
I0
tp195
a(g190
I2
I0
tp196
a(g190
I20
I0
tp197
a(g190
I17
I0
tp198
a(g4
(g5
(S'S5'
p199
I0
I1
tp200
Rp201
(I3
S'|'
p202
NNNI5
I1
I0
tp203
bS'spice'
p204
tp205
Rp206
I20
I0
tp207
a(g4
(g5
(S'S5'
p208
I0
I1
tp209
Rp210
(I3
S'|'
p211
NNNI5
I1
I0
tp212
bS'empty'
p213
tp214
Rp215
I3
I1
tp216
a(g4
(g5
(S'S9'
p217
I0
I1
tp218
Rp219
(I3
S'|'
p220
NNNI9
I1
I0
tp221
bS'rectangle'
p222
tp223
Rp224
I10
I0
tp225
a(g224
I3
I0
tp226
a(g224
I27
I0
tp227
a(g224
I7
I0
tp228
a(g224
I18
I0
tp229
a(g224
I2
I0
tp230
a(g224
I20
I0
tp231
a(g224
I17
I0
tp232
a(g4
(g5
(S'S5'
p233
I0
I1
tp234
Rp235
(I3
S'|'
p236
NNNI5
I1
I0
tp237
bS'empty'
p238
tp239
Rp240
I20
I0
tp241
a(g4
(g5
(S'S8'
p242
I0
I1
tp243
Rp244
(I3
S'|'
p245
NNNI8
I1
I0
tp246
bS'pringles'
p247
tp248
Rp249
I10
I0
tp250
a(g249
I3
I0
tp251
a(g249
I27
I0
tp252
a(g249
I7
I0
tp253
a(g249
I18
I0
tp254
a(g249
I2
I0
tp255
a(g249
I20
I0
tp256
a(g249
I17
I0
tp257
a(g4
(g5
(S'S4'
p258
I0
I1
tp259
Rp260
(I3
S'|'
p261
NNNI4
I1
I0
tp262
bS'long'
p263
tp264
Rp265
I27
I0
tp266
a(g4
(g5
(S'S9'
p267
I0
I1
tp268
Rp269
(I3
S'|'
p270
NNNI9
I1
I0
tp271
bS'styrofoam'
p272
tp273
Rp274
I20
I1
tp275
a(g4
(g5
(S'S4'
p276
I0
I1
tp277
Rp278
(I3
S'|'
p279
NNNI4
I1
I0
tp280
bS'blue'
p281
tp282
Rp283
I17
I0
tp284
a(g4
(g5
(S'S9'
p285
I0
I1
tp286
Rp287
(I3
S'|'
p288
NNNI9
I1
I0
tp289
bS'container'
p290
tp291
Rp292
I2
I1
tp293
aa(lp294
(S'maroon'
p295
S'white'
p296
I00
tp297
a(g295
S'yellow'
p298
I00
tp299
a(g295
S'blue'
p300
I00
tp301
a(S'gray'
p302
g295
I00
tp303
a(g302
g296
I00
tp304
a(g302
g300
I00
tp305
a(S'large'
p306
g296
I00
tp307
aa.