(lp0
(lp1
(dp2
S'action'
p3
cnumpy.core.multiarray
scalar
p4
(cnumpy
dtype
p5
(S'S5'
p6
I0
I1
tp7
Rp8
(I3
S'|'
p9
NNNI5
I1
I0
tp10
bS'bring'
p11
tp12
Rp13
sS'recipient'
p14
S'd'
p15
sS'patient'
p16
S'oidx_22'
p17
sS'goal'
p18
NsS'source'
p19
Nsa(dp20
g3
g4
(g5
(S'S5'
p21
I0
I1
tp22
Rp23
(I3
S'|'
p24
NNNI5
I1
I0
tp25
bS'bring'
p26
tp27
Rp28
sg14
S's'
p29
sg16
S'oidx_28'
p30
sg18
Nsg19
Nsaa(lp31
(dp32
S'all'
p33
(lp34
S'it is for security reason'
p35
asg16
(lp36
S'office files'
p37
aS'file'
p38
aS'no'
p39
asg18
(lp40
sg19
(lp41
sg3
(lp42
sg14
(lp43
sa(dp44
g33
(lp45
S'explain about that'
p46
asg16
(lp47
S'yes'
p48
aS'yes'
p49
aS'no please'
p50
asg18
(lp51
sg19
(lp52
sg3
(lp53
sg14
(lp54
saa(lp55
(g4
(g5
(S'S5'
p56
I0
I1
tp57
Rp58
(I3
S'|'
p59
NNNI5
I1
I0
tp60
bS'clear'
p61
tp62
Rp63
I17
I1
tp64
a(g4
(g5
(S'S9'
p65
I0
I1
tp66
Rp67
(I3
S'|'
p68
NNNI9
I1
I0
tp69
bS'rectangle'
p70
tp71
Rp72
I17
I1
tp73
a(g4
(g5
(S'S9'
p74
I0
I1
tp75
Rp76
(I3
S'|'
p77
NNNI9
I1
I0
tp78
bS'styrofoam'
p79
tp80
Rp81
I7
I1
tp82
a(g4
(g5
(S'S6'
p83
I0
I1
tp84
Rp85
(I3
S'|'
p86
NNNI6
I1
I0
tp87
bS'column'
p88
tp89
Rp90
I18
I1
tp91
a(g4
(g5
(S'S5'
p92
I0
I1
tp93
Rp94
(I3
S'|'
p95
NNNI5
I1
I0
tp96
bS'white'
p97
tp98
Rp99
I3
I1
tp100
a(g4
(g5
(S'S5'
p101
I0
I1
tp102
Rp103
(I3
S'|'
p104
NNNI5
I1
I0
tp105
bS'block'
p106
tp107
Rp108
I7
I1
tp109
a(g4
(g5
(S'S5'
p110
I0
I1
tp111
Rp112
(I3
S'|'
p113
NNNI5
I1
I0
tp114
bS'spice'
p115
tp116
Rp117
I10
I1
tp118
a(g4
(g5
(S'S4'
p119
I0
I1
tp120
Rp121
(I3
S'|'
p122
NNNI4
I1
I0
tp123
bS'blue'
p124
tp125
Rp126
I2
I1
tp127
a(g4
(g5
(S'S5'
p128
I0
I1
tp129
Rp130
(I3
S'|'
p131
NNNI5
I1
I0
tp132
bS'peach'
p133
tp134
Rp135
I18
I1
tp136
a(g4
(g5
(S'S8'
p137
I0
I1
tp138
Rp139
(I3
S'|'
p140
NNNI8
I1
I0
tp141
bS'cylinder'
p142
tp143
Rp144
I3
I1
tp145
aa(lp146
(S'files'
p147
S'container'
p148
I01
tp149
a(S'explain'
p150
S'clear'
p151
I01
tp152
a(S'please'
p153
S'can'
p154
I01
tp155
aa.