(lp0
(lp1
(dp2
S'action'
p3
cnumpy.core.multiarray
scalar
p4
(cnumpy
dtype
p5
(S'S4'
p6
I0
I1
tp7
Rp8
(I3
S'|'
p9
NNNI4
I1
I0
tp10
bS'walk'
p11
tp12
Rp13
sS'recipient'
p14
NsS'patient'
p15
NsS'goal'
p16
g4
(g5
(S'S4'
p17
I0
I1
tp18
Rp19
(I3
S'|'
p20
NNNI4
I1
I0
tp21
bS'3402'
p22
tp23
Rp24
sS'source'
p25
Nsa(dp26
g3
g4
(g5
(S'S5'
p27
I0
I1
tp28
Rp29
(I3
S'|'
p30
NNNI5
I1
I0
tp31
bS'bring'
p32
tp33
Rp34
sg14
S'h'
p35
sg15
S'oidx_12'
p36
sg16
Nsg25
Nsa(dp37
g3
g4
(g5
(S'S4'
p38
I0
I1
tp39
Rp40
(I3
S'|'
p41
NNNI4
I1
I0
tp42
bS'move'
p43
tp44
Rp45
sg14
Nsg15
S'oidx_11'
p46
sg16
S'3420'
p47
sg25
S'3508'
p48
saa(lp49
(dp50
S'all'
p51
(lp52
S'go to dr heidi hughes office'
p53
asg15
(lp54
sg16
(lp55
sg25
(lp56
sg3
(lp57
sg14
(lp58
sa(dp59
g51
(lp60
S'robert bob brown needs the container with the gray lid'
p61
asg15
(lp62
S'a small container with a gray lid'
p63
aS'small container with grey lid'
p64
asg16
(lp65
sg25
(lp66
sg3
(lp67
sg14
(lp68
sa(dp69
g51
(lp70
S'take container with red lid from printer room to the office'
p71
asg15
(lp72
S'container with red lid'
p73
asg16
(lp74
S'office'
p75
asg25
(lp76
S'yes'
p77
asg3
(lp78
sg14
(lp79
saa(lp80
(g4
(g5
(S'S5'
p81
I0
I1
tp82
Rp83
(I3
S'|'
p84
NNNI5
I1
I0
tp85
bS'clear'
p86
tp87
Rp88
I10
I0
tp89
a(g88
I3
I0
tp90
a(g88
I27
I0
tp91
a(g88
I7
I0
tp92
a(g88
I18
I0
tp93
a(g88
I2
I0
tp94
a(g88
I20
I0
tp95
a(g88
I17
I0
tp96
a(g4
(g5
(S'S9'
p97
I0
I1
tp98
Rp99
(I3
S'|'
p100
NNNI9
I1
I0
tp101
bS'rectangle'
p102
tp103
Rp104
I10
I0
tp105
a(g104
I3
I0
tp106
a(g104
I27
I0
tp107
a(g104
I7
I0
tp108
a(g104
I18
I0
tp109
a(g104
I2
I0
tp110
a(g104
I20
I0
tp111
a(g104
I17
I0
tp112
a(g4
(g5
(S'S9'
p113
I0
I1
tp114
Rp115
(I3
S'|'
p116
NNNI9
I1
I0
tp117
bS'styrofoam'
p118
tp119
Rp120
I20
I1
tp121
a(g4
(g5
(S'S5'
p122
I0
I1
tp123
Rp124
(I3
S'|'
p125
NNNI5
I1
I0
tp126
bS'peach'
p127
tp128
Rp129
I2
I1
tp130
a(g4
(g5
(S'S9'
p131
I0
I1
tp132
Rp133
(I3
S'|'
p134
NNNI9
I1
I0
tp135
bS'container'
p136
tp137
Rp138
I2
I1
tp139
a(g4
(g5
(S'S5'
p140
I0
I1
tp141
Rp142
(I3
S'|'
p143
NNNI5
I1
I0
tp144
bS'small'
p145
tp146
Rp147
I10
I1
tp148
a(g4
(g5
(S'S9'
p149
I0
I1
tp150
Rp151
(I3
S'|'
p152
NNNI9
I1
I0
tp153
bS'container'
p154
tp155
Rp156
I10
I0
tp157
a(g4
(g5
(S'S5'
p158
I0
I1
tp159
Rp160
(I3
S'|'
p161
NNNI5
I1
I0
tp162
bS'peach'
p163
tp164
Rp165
I3
I0
tp166
a(g4
(g5
(S'S9'
p167
I0
I1
tp168
Rp169
(I3
S'|'
p170
NNNI9
I1
I0
tp171
bS'container'
p172
tp173
Rp174
I10
I1
tp175
a(g4
(g5
(S'S5'
p176
I0
I1
tp177
Rp178
(I3
S'|'
p179
NNNI5
I1
I0
tp180
bS'small'
p181
tp182
Rp183
I27
I0
tp184
a(g4
(g5
(S'S5'
p185
I0
I1
tp186
Rp187
(I3
S'|'
p188
NNNI5
I1
I0
tp189
bS'spice'
p190
tp191
Rp192
I10
I0
tp193
a(g192
I3
I0
tp194
a(g192
I27
I0
tp195
a(g192
I7
I0
tp196
a(g192
I18
I0
tp197
a(g192
I2
I0
tp198
a(g192
I20
I0
tp199
a(g192
I17
I0
tp200
a(g4
(g5
(S'S5'
p201
I0
I1
tp202
Rp203
(I3
S'|'
p204
NNNI5
I1
I0
tp205
bS'peach'
p206
tp207
Rp208
I2
I1
tp209
a(g4
(g5
(S'S5'
p210
I0
I1
tp211
Rp212
(I3
S'|'
p213
NNNI5
I1
I0
tp214
bS'empty'
p215
tp216
Rp217
I3
I1
tp218
a(g4
(g5
(S'S8'
p219
I0
I1
tp220
Rp221
(I3
S'|'
p222
NNNI8
I1
I0
tp223
bS'pringles'
p224
tp225
Rp226
I10
I0
tp227
a(g226
I3
I0
tp228
a(g226
I27
I0
tp229
a(g226
I7
I0
tp230
a(g226
I18
I0
tp231
a(g226
I2
I0
tp232
a(g226
I20
I0
tp233
a(g226
I17
I0
tp234
a(g4
(g5
(S'S3'
p235
I0
I1
tp236
Rp237
(I3
S'|'
p238
NNNI3
I1
I0
tp239
bS'can'
p240
tp241
Rp242
I2
I1
tp243
aa(lp244
(S'gray'
p245
S'white'
p246
I00
tp247
a(g245
S'yellow'
p248
I00
tp249
a(g245
S'blue'
p250
I00
tp251
a(S'small'
p252
S'dr'
p253
I00
tp254
a(g252
g246
I00
tp255
a(S'red'
p256
g246
I00
tp257
a(g256
g248
I00
tp258
a(g256
g250
I00
tp259
aa.