(lp0
(lp1
(dp2
S'action'
p3
cnumpy.core.multiarray
scalar
p4
(cnumpy
dtype
p5
(S'S4'
p6
I0
I1
tp7
Rp8
(I3
S'|'
p9
NNNI4
I1
I0
tp10
bS'walk'
p11
tp12
Rp13
sS'recipient'
p14
NsS'patient'
p15
NsS'goal'
p16
S'3520'
p17
sS'source'
p18
Nsa(dp19
g3
g4
(g5
(S'S4'
p20
I0
I1
tp21
Rp22
(I3
S'|'
p23
NNNI4
I1
I0
tp24
bS'move'
p25
tp26
Rp27
sg14
Nsg15
S'oidx_12'
p28
sg16
S'3518'
p29
sg18
S'3510'
p30
saa(lp31
(dp32
S'all'
p33
(lp34
S'go to b'
p35
asg15
(lp36
sg16
(lp37
S'the kitchen'
p38
asg18
(lp39
sg3
(lp40
sg14
(lp41
sa(dp42
g33
(lp43
S'open'
p44
asg15
(lp45
S'a red and white container'
p46
asg16
(lp47
S'yes'
p48
asg18
(lp49
sg3
(lp50
sg14
(lp51
saa(lp52
(g4
(g5
(S'S5'
p53
I0
I1
tp54
Rp55
(I3
S'|'
p56
NNNI5
I1
I0
tp57
bS'white'
p58
tp59
Rp60
I10
I1
tp61
a(g4
(g5
(S'S9'
p62
I0
I1
tp63
Rp64
(I3
S'|'
p65
NNNI9
I1
I0
tp66
bS'styrofoam'
p67
tp68
Rp69
I20
I1
tp70
a(g4
(g5
(S'S5'
p71
I0
I1
tp72
Rp73
(I3
S'|'
p74
NNNI5
I1
I0
tp75
bS'clear'
p76
tp77
Rp78
I10
I0
tp79
a(g78
I3
I0
tp80
a(g78
I27
I0
tp81
a(g78
I7
I0
tp82
a(g78
I18
I0
tp83
a(g78
I2
I0
tp84
a(g78
I20
I0
tp85
a(g78
I17
I0
tp86
a(g4
(g5
(S'S8'
p87
I0
I1
tp88
Rp89
(I3
S'|'
p90
NNNI8
I1
I0
tp91
bS'cylinder'
p92
tp93
Rp94
I3
I1
tp95
a(g4
(g5
(S'S5'
p96
I0
I1
tp97
Rp98
(I3
S'|'
p99
NNNI5
I1
I0
tp100
bS'white'
p101
tp102
Rp103
I7
I0
tp104
a(g4
(g5
(S'S1'
p105
I0
I1
tp106
Rp107
(I3
S'|'
p108
NNNI1
I1
I0
tp109
bS'b'
p110
tp111
Rp112
I18
I1
tp113
a(g4
(g5
(S'S6'
p114
I0
I1
tp115
Rp116
(I3
S'|'
p117
NNNI6
I1
I0
tp118
bS'coffee'
p119
tp120
Rp121
I2
I1
tp122
a(g4
(g5
(S'S8'
p123
I0
I1
tp124
Rp125
(I3
S'|'
p126
NNNI8
I1
I0
tp127
bS'pringles'
p128
tp129
Rp130
I10
I0
tp131
a(g130
I3
I0
tp132
a(g130
I27
I0
tp133
a(g130
I7
I0
tp134
a(g130
I18
I0
tp135
a(g130
I2
I0
tp136
a(g130
I20
I0
tp137
a(g130
I17
I0
tp138
a(g4
(g5
(S'S6'
p139
I0
I1
tp140
Rp141
(I3
S'|'
p142
NNNI6
I1
I0
tp143
bS'coffee'
p144
tp145
Rp146
I2
I0
tp147
a(g4
(g5
(S'S6'
p148
I0
I1
tp149
Rp150
(I3
S'|'
p151
NNNI6
I1
I0
tp152
bS'coffee'
p153
tp154
Rp155
I10
I0
tp156
a(g155
I3
I0
tp157
a(g155
I27
I0
tp158
a(g155
I7
I0
tp159
a(g155
I18
I0
tp160
a(g155
I2
I0
tp161
a(g155
I20
I0
tp162
a(g155
I17
I0
tp163
aa(lp164
(g110
S'can'
p165
I00
tp166
a(S'red'
p167
S'white'
p168
I00
tp169
a(g167
S'yellow'
p170
I00
tp171
a(g167
S'blue'
p172
I01
tp173
aa.