(lp0
(lp1
(dp2
S'action'
p3
cnumpy.core.multiarray
scalar
p4
(cnumpy
dtype
p5
(S'S4'
p6
I0
I1
tp7
Rp8
(I3
S'|'
p9
NNNI4
I1
I0
tp10
bS'walk'
p11
tp12
Rp13
sS'recipient'
p14
NsS'patient'
p15
NsS'goal'
p16
g4
(g5
(S'S4'
p17
I0
I1
tp18
Rp19
(I3
S'|'
p20
NNNI4
I1
I0
tp21
bS'3516'
p22
tp23
Rp24
sS'source'
p25
Nsaa(lp26
(dp27
S'all'
p28
(lp29
S'go to the conference room'
p30
asg15
(lp31
sg16
(lp32
S'go to the southern conference room'
p33
aS'go to the northern conference room'
p34
aS'go to the other conference room'
p35
aS'go to the conference room'
p36
asg25
(lp37
sg3
(lp38
sg14
(lp39
saa(lp40
(g4
(g5
(S'S5'
p41
I0
I1
tp42
Rp43
(I3
S'|'
p44
NNNI5
I1
I0
tp45
bS'clear'
p46
tp47
Rp48
I10
I0
tp49
a(g48
I3
I0
tp50
a(g48
I27
I0
tp51
a(g48
I7
I0
tp52
a(g48
I18
I0
tp53
a(g48
I2
I0
tp54
a(g48
I20
I0
tp55
a(g48
I17
I0
tp56
a(g4
(g5
(S'S5'
p57
I0
I1
tp58
Rp59
(I3
S'|'
p60
NNNI5
I1
I0
tp61
bS'spice'
p62
tp63
Rp64
I10
I0
tp65
a(g64
I3
I0
tp66
a(g64
I27
I0
tp67
a(g64
I7
I0
tp68
a(g64
I18
I0
tp69
a(g64
I2
I0
tp70
a(g64
I20
I0
tp71
a(g64
I17
I0
tp72
a(g4
(g5
(S'S9'
p73
I0
I1
tp74
Rp75
(I3
S'|'
p76
NNNI9
I1
I0
tp77
bS'rectangle'
p78
tp79
Rp80
I10
I0
tp81
a(g80
I3
I0
tp82
a(g80
I27
I0
tp83
a(g80
I7
I0
tp84
a(g80
I18
I0
tp85
a(g80
I2
I0
tp86
a(g80
I20
I0
tp87
a(g80
I17
I0
tp88
a(g4
(g5
(S'S6'
p89
I0
I1
tp90
Rp91
(I3
S'|'
p92
NNNI6
I1
I0
tp93
bS'yellow'
p94
tp95
Rp96
I2
I1
tp97
a(g4
(g5
(S'S5'
p98
I0
I1
tp99
Rp100
(I3
S'|'
p101
NNNI5
I1
I0
tp102
bS'tower'
p103
tp104
Rp105
I10
I0
tp106
a(g105
I3
I0
tp107
a(g105
I27
I0
tp108
a(g105
I7
I0
tp109
a(g105
I18
I0
tp110
a(g105
I2
I0
tp111
a(g105
I20
I0
tp112
a(g105
I17
I0
tp113
aa(lp114
a.