(lp0
(lp1
(dp2
S'action'
p3
cnumpy.core.multiarray
scalar
p4
(cnumpy
dtype
p5
(S'S5'
p6
I0
I1
tp7
Rp8
(I3
S'|'
p9
NNNI5
I1
I0
tp10
bS'bring'
p11
tp12
Rp13
sS'recipient'
p14
S'w'
p15
sS'patient'
p16
S'oidx_12'
p17
sS'goal'
p18
NsS'source'
p19
Nsa(dp20
g3
g4
(g5
(S'S4'
p21
I0
I1
tp22
Rp23
(I3
S'|'
p24
NNNI4
I1
I0
tp25
bS'walk'
p26
tp27
Rp28
sg14
Nsg16
Nsg18
S'3508'
p29
sg19
Nsa(dp30
g3
g4
(g5
(S'S4'
p31
I0
I1
tp32
Rp33
(I3
S'|'
p34
NNNI4
I1
I0
tp35
bS'move'
p36
tp37
Rp38
sg14
Nsg16
S'oidx_11'
p39
sg18
S'3416'
p40
sg19
S'3512'
p41
saa(lp42
(dp43
S'all'
p44
(lp45
S'hai'
p46
asg16
(lp47
S'p'
p48
asg18
(lp49
sg19
(lp50
sg3
(lp51
sg14
(lp52
S'no'
p53
aS'no'
p54
aS'go to office m'
p55
asa(dp56
g44
(lp57
S'yes'
p58
asg16
(lp59
sg18
(lp60
S'go to office w'
p61
asg19
(lp62
sg3
(lp63
sg14
(lp64
sa(dp65
g44
(lp66
S'yes'
p67
asg16
(lp68
S'go to office b'
p69
aS'yes'
p70
asg18
(lp71
sg19
(lp72
S'yes'
p73
aS'go to office m'
p74
asg3
(lp75
sg14
(lp76
saa(lp77
(g4
(g5
(S'S5'
p78
I0
I1
tp79
Rp80
(I3
S'|'
p81
NNNI5
I1
I0
tp82
bS'tower'
p83
tp84
Rp85
I2
I1
tp86
a(g4
(g5
(S'S5'
p87
I0
I1
tp88
Rp89
(I3
S'|'
p90
NNNI5
I1
I0
tp91
bS'block'
p92
tp93
Rp94
I3
I1
tp95
a(g4
(g5
(S'S4'
p96
I0
I1
tp97
Rp98
(I3
S'|'
p99
NNNI4
I1
I0
tp100
bS'long'
p101
tp102
Rp103
I20
I1
tp104
a(g4
(g5
(S'S8'
p105
I0
I1
tp106
Rp107
(I3
S'|'
p108
NNNI8
I1
I0
tp109
bS'pringles'
p110
tp111
Rp112
I7
I1
tp113
a(g4
(g5
(S'S8'
p114
I0
I1
tp115
Rp116
(I3
S'|'
p117
NNNI8
I1
I0
tp118
bS'pringles'
p119
tp120
Rp121
I27
I0
tp122
a(g4
(g5
(S'S8'
p123
I0
I1
tp124
Rp125
(I3
S'|'
p126
NNNI8
I1
I0
tp127
bS'pringles'
p128
tp129
Rp130
I18
I1
tp131
a(g4
(g5
(S'S6'
p132
I0
I1
tp133
Rp134
(I3
S'|'
p135
NNNI6
I1
I0
tp136
bS'column'
p137
tp138
Rp139
I7
I1
tp140
a(g4
(g5
(S'S6'
p141
I0
I1
tp142
Rp143
(I3
S'|'
p144
NNNI6
I1
I0
tp145
bS'coffee'
p146
tp147
Rp148
I2
I1
tp149
a(g4
(g5
(S'S8'
p150
I0
I1
tp151
Rp152
(I3
S'|'
p153
NNNI8
I1
I0
tp154
bS'pringles'
p155
tp156
Rp157
I18
I0
tp158
a(g4
(g5
(S'S4'
p159
I0
I1
tp160
Rp161
(I3
S'|'
p162
NNNI4
I1
I0
tp163
bS'bean'
p164
tp165
Rp166
I10
I1
tp167
a(g4
(g5
(S'S9'
p168
I0
I1
tp169
Rp170
(I3
S'|'
p171
NNNI9
I1
I0
tp172
bS'rectangle'
p173
tp174
Rp175
I2
I1
tp176
a(g4
(g5
(S'S9'
p177
I0
I1
tp178
Rp179
(I3
S'|'
p180
NNNI9
I1
I0
tp181
bS'styrofoam'
p182
tp183
Rp184
I18
I1
tp185
a(g4
(g5
(S'S5'
p186
I0
I1
tp187
Rp188
(I3
S'|'
p189
NNNI5
I1
I0
tp190
bS'empty'
p191
tp192
Rp193
I3
I1
tp194
a(g4
(g5
(S'S6'
p195
I0
I1
tp196
Rp197
(I3
S'|'
p198
NNNI6
I1
I0
tp199
bS'coffee'
p200
tp201
Rp202
I10
I0
tp203
a(g4
(g5
(S'S8'
p204
I0
I1
tp205
Rp206
(I3
S'|'
p207
NNNI8
I1
I0
tp208
bS'cylinder'
p209
tp210
Rp211
I20
I1
tp212
aa(lp213
(g48
S'column'
p214
I00
tp215
a(g48
S'block'
p216
I00
tp217
a(S'w'
p218
g46
I01
tp219
a(S'b'
p220
g46
I01
tp221
aa.