(lp0
(lp1
(dp2
S'action'
p3
cnumpy.core.multiarray
scalar
p4
(cnumpy
dtype
p5
(S'S4'
p6
I0
I1
tp7
Rp8
(I3
S'|'
p9
NNNI4
I1
I0
tp10
bS'walk'
p11
tp12
Rp13
sS'recipient'
p14
NsS'patient'
p15
NsS'goal'
p16
g4
(g5
(S'S4'
p17
I0
I1
tp18
Rp19
(I3
S'|'
p20
NNNI4
I1
I0
tp21
bS'3506'
p22
tp23
Rp24
sS'source'
p25
Nsa(dp26
g3
g4
(g5
(S'S5'
p27
I0
I1
tp28
Rp29
(I3
S'|'
p30
NNNI5
I1
I0
tp31
bS'bring'
p32
tp33
Rp34
sg14
g4
(g5
(S'S1'
p35
I0
I1
tp36
Rp37
(I3
S'|'
p38
NNNI1
I1
I0
tp39
bS'm'
p40
tp41
Rp42
sg15
S'oidx_6'
p43
sg16
Nsg25
Nsaa(lp44
(dp45
S'all'
p46
(lp47
S'go to the printer'
p48
asg15
(lp49
sg16
(lp50
S'printer'
p51
asg25
(lp52
sg3
(lp53
sg14
(lp54
sa(dp55
g46
(lp56
S'pick up the bottle'
p57
asg15
(lp58
S'white container'
p59
aS'white container to m'
p60
aS'white container'
p61
asg16
(lp62
sg25
(lp63
sg3
(lp64
sg14
(lp65
S'mallory'
p66
asaa(lp67
(g4
(g5
(S'S3'
p68
I0
I1
tp69
Rp70
(I3
S'|'
p71
NNNI3
I1
I0
tp72
bS'can'
p73
tp74
Rp75
I10
I0
tp76
a(g75
I3
I0
tp77
a(g75
I27
I0
tp78
a(g75
I7
I0
tp79
a(g75
I18
I0
tp80
a(g75
I2
I0
tp81
a(g75
I20
I0
tp82
a(g75
I17
I0
tp83
a(g4
(g5
(S'S4'
p84
I0
I1
tp85
Rp86
(I3
S'|'
p87
NNNI4
I1
I0
tp88
bS'blue'
p89
tp90
Rp91
I10
I0
tp92
a(g91
I3
I0
tp93
a(g91
I27
I0
tp94
a(g91
I7
I0
tp95
a(g91
I18
I0
tp96
a(g91
I2
I0
tp97
a(g91
I20
I0
tp98
a(g91
I17
I0
tp99
a(g4
(g5
(S'S5'
p100
I0
I1
tp101
Rp102
(I3
S'|'
p103
NNNI5
I1
I0
tp104
bS'spice'
p105
tp106
Rp107
I10
I1
tp108
a(g4
(g5
(S'S9'
p109
I0
I1
tp110
Rp111
(I3
S'|'
p112
NNNI9
I1
I0
tp113
bS'styrofoam'
p114
tp115
Rp116
I20
I1
tp117
a(g4
(g5
(S'S8'
p118
I0
I1
tp119
Rp120
(I3
S'|'
p121
NNNI8
I1
I0
tp122
bS'metallic'
p123
tp124
Rp125
I2
I1
tp126
a(g4
(g5
(S'S6'
p127
I0
I1
tp128
Rp129
(I3
S'|'
p130
NNNI6
I1
I0
tp131
bS'coffee'
p132
tp133
Rp134
I20
I1
tp135
a(g4
(g5
(S'S9'
p136
I0
I1
tp137
Rp138
(I3
S'|'
p139
NNNI9
I1
I0
tp140
bS'rectangle'
p141
tp142
Rp143
I10
I0
tp144
a(g143
I3
I0
tp145
a(g143
I27
I0
tp146
a(g143
I7
I0
tp147
a(g143
I18
I0
tp148
a(g143
I2
I0
tp149
a(g143
I20
I0
tp150
a(g143
I17
I0
tp151
a(g4
(g5
(S'S6'
p152
I0
I1
tp153
Rp154
(I3
S'|'
p155
NNNI6
I1
I0
tp156
bS'coffee'
p157
tp158
Rp159
I20
I0
tp160
a(g4
(g5
(S'S5'
p161
I0
I1
tp162
Rp163
(I3
S'|'
p164
NNNI5
I1
I0
tp165
bS'block'
p166
tp167
Rp168
I10
I0
tp169
a(g168
I3
I0
tp170
a(g168
I27
I0
tp171
a(g168
I7
I0
tp172
a(g168
I18
I0
tp173
a(g168
I2
I0
tp174
a(g168
I20
I0
tp175
a(g168
I17
I0
tp176
a(g4
(g5
(S'S6'
p177
I0
I1
tp178
Rp179
(I3
S'|'
p180
NNNI6
I1
I0
tp181
bS'coffee'
p182
tp183
Rp184
I2
I1
tp185
aa(lp186
(S'bottle'
p187
S'container'
p188
I01
tp189
aa.