(lp0
(lp1
(dp2
S'action'
p3
cnumpy.core.multiarray
scalar
p4
(cnumpy
dtype
p5
(S'S4'
p6
I0
I1
tp7
Rp8
(I3
S'|'
p9
NNNI4
I1
I0
tp10
bS'walk'
p11
tp12
Rp13
sS'recipient'
p14
NsS'patient'
p15
NsS'goal'
p16
S'3520'
p17
sS'source'
p18
Nsa(dp19
g3
g4
(g5
(S'S5'
p20
I0
I1
tp21
Rp22
(I3
S'|'
p23
NNNI5
I1
I0
tp24
bS'bring'
p25
tp26
Rp27
sg14
g4
(g5
(S'S1'
p28
I0
I1
tp29
Rp30
(I3
S'|'
p31
NNNI1
I1
I0
tp32
bS'r'
p33
tp34
Rp35
sg15
S'oidx_26'
p36
sg16
Nsg18
Nsaa(lp37
(dp38
S'all'
p39
(lp40
S'go to the lab in the center between printer and the kitchen'
p41
asg15
(lp42
sg16
(lp43
S'to the lab in the center'
p44
aS'to the x mark'
p45
asg18
(lp46
sg3
(lp47
sg14
(lp48
sa(dp49
g39
(lp50
S'h needs the plastic container'
p51
asg15
(lp52
S'container with maroon cap on it'
p53
asg16
(lp54
sg18
(lp55
sg3
(lp56
sg14
(lp57
saa(lp58
(g4
(g5
(S'S3'
p59
I0
I1
tp60
Rp61
(I3
S'|'
p62
NNNI3
I1
I0
tp63
bS'can'
p64
tp65
Rp66
I2
I1
tp67
a(g4
(g5
(S'S4'
p68
I0
I1
tp69
Rp70
(I3
S'|'
p71
NNNI4
I1
I0
tp72
bS'blue'
p73
tp74
Rp75
I18
I1
tp76
a(g4
(g5
(S'S5'
p77
I0
I1
tp78
Rp79
(I3
S'|'
p80
NNNI5
I1
I0
tp81
bS'white'
p82
tp83
Rp84
I10
I0
tp85
a(g84
I3
I0
tp86
a(g84
I27
I0
tp87
a(g84
I7
I0
tp88
a(g84
I18
I0
tp89
a(g84
I2
I0
tp90
a(g84
I20
I0
tp91
a(g84
I17
I0
tp92
a(g4
(g5
(S'S8'
p93
I0
I1
tp94
Rp95
(I3
S'|'
p96
NNNI8
I1
I0
tp97
bS'metallic'
p98
tp99
Rp100
I10
I0
tp101
a(g100
I3
I0
tp102
a(g100
I27
I0
tp103
a(g100
I7
I0
tp104
a(g100
I18
I0
tp105
a(g100
I2
I0
tp106
a(g100
I20
I0
tp107
a(g100
I17
I0
tp108
a(g4
(g5
(S'S6'
p109
I0
I1
tp110
Rp111
(I3
S'|'
p112
NNNI6
I1
I0
tp113
bS'coffee'
p114
tp115
Rp116
I10
I0
tp117
a(g116
I3
I0
tp118
a(g116
I27
I0
tp119
a(g116
I7
I0
tp120
a(g116
I18
I0
tp121
a(g116
I2
I0
tp122
a(g116
I20
I0
tp123
a(g116
I17
I0
tp124
a(g4
(g5
(S'S9'
p125
I0
I1
tp126
Rp127
(I3
S'|'
p128
NNNI9
I1
I0
tp129
bS'container'
p130
tp131
Rp132
I2
I1
tp133
a(g4
(g5
(S'S7'
p134
I0
I1
tp135
Rp136
(I3
S'|'
p137
NNNI7
I1
I0
tp138
bS'plastic'
p139
tp140
Rp141
I10
I1
tp142
a(g4
(g5
(S'S7'
p143
I0
I1
tp144
Rp145
(I3
S'|'
p146
NNNI7
I1
I0
tp147
bS'plastic'
p148
tp149
Rp150
I20
I0
tp151
a(g4
(g5
(S'S9'
p152
I0
I1
tp153
Rp154
(I3
S'|'
p155
NNNI9
I1
I0
tp156
bS'container'
p157
tp158
Rp159
I27
I0
tp160
a(g4
(g5
(S'S9'
p161
I0
I1
tp162
Rp163
(I3
S'|'
p164
NNNI9
I1
I0
tp165
bS'container'
p166
tp167
Rp168
I10
I1
tp169
aa(lp170
(S'plastic'
p171
S'container'
p172
I00
tp173
a(g171
S'white'
p174
I00
tp175
a(g171
S'metallic'
p176
I00
tp177
a(S'maroon'
p178
g174
I01
tp179
a(S'cap'
p180
S'blue'
p181
I00
tp182
aa.