(lp0
(lp1
(dp2
S'action'
p3
cnumpy.core.multiarray
scalar
p4
(cnumpy
dtype
p5
(S'S4'
p6
I0
I1
tp7
Rp8
(I3
S'|'
p9
NNNI4
I1
I0
tp10
bS'walk'
p11
tp12
Rp13
sS'recipient'
p14
NsS'patient'
p15
NsS'goal'
p16
g4
(g5
(S'S4'
p17
I0
I1
tp18
Rp19
(I3
S'|'
p20
NNNI4
I1
I0
tp21
bS'3430'
p22
tp23
Rp24
sS'source'
p25
Nsa(dp26
g3
g4
(g5
(S'S5'
p27
I0
I1
tp28
Rp29
(I3
S'|'
p30
NNNI5
I1
I0
tp31
bS'bring'
p32
tp33
Rp34
sg14
S'b'
p35
sg15
g4
(g5
(S'S7'
p36
I0
I1
tp37
Rp38
(I3
S'|'
p39
NNNI7
I1
I0
tp40
bS'oidx_26'
p41
tp42
Rp43
sg16
Nsg25
Nsaa(lp44
(dp45
S'all'
p46
(lp47
S'go to the office of dr sybil smalt'
p48
asg15
(lp49
sg16
(lp50
S'go to the office of dr sybil smalt'
p51
asg25
(lp52
sg3
(lp53
sg14
(lp54
sa(dp55
g46
(lp56
S'bring the soda can to robert bob brown'
p57
asg15
(lp58
S'a red can'
p59
aS'a red can'
p60
aS'a red can'
p61
aS'a red can'
p62
asg16
(lp63
sg25
(lp64
sg3
(lp65
sg14
(lp66
S'robert bob brown'
p67
aS'robert bob brown'
p68
aS'robert bob brown'
p69
aS'robert bob brown'
p70
aS'robert bob brown'
p71
aS'robert bob brown'
p72
asaa(lp73
(g4
(g5
(S'S9'
p74
I0
I1
tp75
Rp76
(I3
S'|'
p77
NNNI9
I1
I0
tp78
bS'container'
p79
tp80
Rp81
I2
I1
tp82
a(g4
(g5
(S'S8'
p83
I0
I1
tp84
Rp85
(I3
S'|'
p86
NNNI8
I1
I0
tp87
bS'metallic'
p88
tp89
Rp90
I10
I0
tp91
a(g90
I3
I0
tp92
a(g90
I27
I0
tp93
a(g90
I7
I0
tp94
a(g90
I18
I0
tp95
a(g90
I2
I0
tp96
a(g90
I20
I0
tp97
a(g90
I17
I0
tp98
a(g4
(g5
(S'S5'
p99
I0
I1
tp100
Rp101
(I3
S'|'
p102
NNNI5
I1
I0
tp103
bS'empty'
p104
tp105
Rp106
I3
I1
tp107
a(g4
(g5
(S'S9'
p108
I0
I1
tp109
Rp110
(I3
S'|'
p111
NNNI9
I1
I0
tp112
bS'styrofoam'
p113
tp114
Rp115
I20
I1
tp116
a(g4
(g5
(S'S5'
p117
I0
I1
tp118
Rp119
(I3
S'|'
p120
NNNI5
I1
I0
tp121
bS'spice'
p122
tp123
Rp124
I10
I1
tp125
a(g4
(g5
(S'S3'
p126
I0
I1
tp127
Rp128
(I3
S'|'
p129
NNNI3
I1
I0
tp130
bS'can'
p131
tp132
Rp133
I10
I0
tp134
a(g133
I3
I0
tp135
a(g133
I27
I0
tp136
a(g133
I7
I0
tp137
a(g133
I18
I0
tp138
a(g133
I2
I0
tp139
a(g133
I20
I0
tp140
a(g133
I17
I0
tp141
a(g4
(g5
(S'S3'
p142
I0
I1
tp143
Rp144
(I3
S'|'
p145
NNNI3
I1
I0
tp146
bS'red'
p147
tp148
Rp149
I10
I1
tp150
a(g4
(g5
(S'S3'
p151
I0
I1
tp152
Rp153
(I3
S'|'
p154
NNNI3
I1
I0
tp155
bS'red'
p156
tp157
Rp158
I2
I0
tp159
a(g4
(g5
(S'S3'
p160
I0
I1
tp161
Rp162
(I3
S'|'
p163
NNNI3
I1
I0
tp164
bS'red'
p165
tp166
Rp167
I17
I1
tp168
a(g4
(g5
(S'S3'
p169
I0
I1
tp170
Rp171
(I3
S'|'
p172
NNNI3
I1
I0
tp173
bS'red'
p174
tp175
Rp176
I3
I0
tp177
aa(lp178
(S'brown'
p179
S'white'
p180
I00
tp181
a(g179
S'yellow'
p182
I00
tp183
a(g179
S'blue'
p184
I00
tp185
a(S'red'
p186
S'dr'
p187
I00
tp188
a(g186
g182
I00
tp189
a(g186
g184
I00
tp190
aa.