(lp0
(lp1
(dp2
S'action'
p3
cnumpy.core.multiarray
scalar
p4
(cnumpy
dtype
p5
(S'S4'
p6
I0
I1
tp7
Rp8
(I3
S'|'
p9
NNNI4
I1
I0
tp10
bS'walk'
p11
tp12
Rp13
sS'recipient'
p14
NsS'patient'
p15
NsS'goal'
p16
g4
(g5
(S'S4'
p17
I0
I1
tp18
Rp19
(I3
S'|'
p20
NNNI4
I1
I0
tp21
bS'3418'
p22
tp23
Rp24
sS'source'
p25
Nsaa(lp26
(dp27
S'all'
p28
(lp29
S'go to the office next to the conference'
p30
asg15
(lp31
sg16
(lp32
S'to the office next to the conference'
p33
asg25
(lp34
sg3
(lp35
sg14
(lp36
saa(lp37
(g4
(g5
(S'S4'
p38
I0
I1
tp39
Rp40
(I3
S'|'
p41
NNNI4
I1
I0
tp42
bS'long'
p43
tp44
Rp45
I3
I1
tp46
a(g4
(g5
(S'S5'
p47
I0
I1
tp48
Rp49
(I3
S'|'
p50
NNNI5
I1
I0
tp51
bS'spice'
p52
tp53
Rp54
I2
I1
tp55
a(g4
(g5
(S'S9'
p56
I0
I1
tp57
Rp58
(I3
S'|'
p59
NNNI9
I1
I0
tp60
bS'container'
p61
tp62
Rp63
I10
I0
tp64
a(g63
I3
I0
tp65
a(g63
I27
I0
tp66
a(g63
I7
I0
tp67
a(g63
I18
I0
tp68
a(g63
I2
I0
tp69
a(g63
I20
I0
tp70
a(g63
I17
I0
tp71
a(g4
(g5
(S'S5'
p72
I0
I1
tp73
Rp74
(I3
S'|'
p75
NNNI5
I1
I0
tp76
bS'block'
p77
tp78
Rp79
I10
I0
tp80
a(g79
I3
I0
tp81
a(g79
I27
I0
tp82
a(g79
I7
I0
tp83
a(g79
I18
I0
tp84
a(g79
I2
I0
tp85
a(g79
I20
I0
tp86
a(g79
I17
I0
tp87
a(g4
(g5
(S'S5'
p88
I0
I1
tp89
Rp90
(I3
S'|'
p91
NNNI5
I1
I0
tp92
bS'spice'
p93
tp94
Rp95
I2
I0
tp96
aa(lp97
a.