(lp0
(lp1
(dp2
S'action'
p3
cnumpy.core.multiarray
scalar
p4
(cnumpy
dtype
p5
(S'S4'
p6
I0
I1
tp7
Rp8
(I3
S'|'
p9
NNNI4
I1
I0
tp10
bS'walk'
p11
tp12
Rp13
sS'recipient'
p14
NsS'patient'
p15
NsS'goal'
p16
g4
(g5
(S'S4'
p17
I0
I1
tp18
Rp19
(I3
S'|'
p20
NNNI4
I1
I0
tp21
bS'3502'
p22
tp23
Rp24
sS'source'
p25
Nsa(dp26
g3
g4
(g5
(S'S5'
p27
I0
I1
tp28
Rp29
(I3
S'|'
p30
NNNI5
I1
I0
tp31
bS'bring'
p32
tp33
Rp34
sg14
g4
(g5
(S'S1'
p35
I0
I1
tp36
Rp37
(I3
S'|'
p38
NNNI1
I1
I0
tp39
bS'm'
p40
tp41
Rp42
sg15
g4
(g5
(S'S7'
p43
I0
I1
tp44
Rp45
(I3
S'|'
p46
NNNI7
I1
I0
tp47
bS'oidx_13'
p48
tp49
Rp50
sg16
Nsg25
Nsaa(lp51
(dp52
S'all'
p53
(lp54
S"go to mal 's office"
p55
asg15
(lp56
sg16
(lp57
S"mal 's office"
p58
aS"mallory 's office"
p59
asg25
(lp60
sg3
(lp61
sg14
(lp62
sa(dp63
g53
(lp64
S'give mallory the pringles'
p65
asg15
(lp66
S'pringles'
p67
aS'blue cylinder'
p68
aS'deliver the can of pringles'
p69
aS'the blue cylinder'
p70
asg16
(lp71
sg25
(lp72
sg3
(lp73
sg14
(lp74
S'mallory'
p75
asaa(lp76
(g4
(g5
(S'S3'
p77
I0
I1
tp78
Rp79
(I3
S'|'
p80
NNNI3
I1
I0
tp81
bS'can'
p82
tp83
Rp84
I2
I1
tp85
a(g4
(g5
(S'S5'
p86
I0
I1
tp87
Rp88
(I3
S'|'
p89
NNNI5
I1
I0
tp90
bS'peach'
p91
tp92
Rp93
I10
I0
tp94
a(g93
I3
I0
tp95
a(g93
I27
I0
tp96
a(g93
I7
I0
tp97
a(g93
I18
I0
tp98
a(g93
I2
I0
tp99
a(g93
I20
I0
tp100
a(g93
I17
I0
tp101
a(g4
(g5
(S'S8'
p102
I0
I1
tp103
Rp104
(I3
S'|'
p105
NNNI8
I1
I0
tp106
bS'cylinder'
p107
tp108
Rp109
I20
I1
tp110
a(g4
(g5
(S'S9'
p111
I0
I1
tp112
Rp113
(I3
S'|'
p114
NNNI9
I1
I0
tp115
bS'styrofoam'
p116
tp117
Rp118
I10
I0
tp119
a(g118
I3
I0
tp120
a(g118
I27
I0
tp121
a(g118
I7
I0
tp122
a(g118
I18
I0
tp123
a(g118
I2
I0
tp124
a(g118
I20
I0
tp125
a(g118
I17
I0
tp126
a(g4
(g5
(S'S8'
p127
I0
I1
tp128
Rp129
(I3
S'|'
p130
NNNI8
I1
I0
tp131
bS'pringles'
p132
tp133
Rp134
I10
I0
tp135
a(g134
I3
I0
tp136
a(g134
I27
I0
tp137
a(g134
I7
I0
tp138
a(g134
I18
I0
tp139
a(g134
I2
I0
tp140
a(g134
I20
I0
tp141
a(g134
I17
I0
tp142
a(g4
(g5
(S'S5'
p143
I0
I1
tp144
Rp145
(I3
S'|'
p146
NNNI5
I1
I0
tp147
bS'tower'
p148
tp149
Rp150
I10
I0
tp151
a(g150
I3
I0
tp152
a(g150
I27
I0
tp153
a(g150
I7
I0
tp154
a(g150
I18
I0
tp155
a(g150
I2
I0
tp156
a(g150
I20
I0
tp157
a(g150
I17
I0
tp158
a(g4
(g5
(S'S5'
p159
I0
I1
tp160
Rp161
(I3
S'|'
p162
NNNI5
I1
I0
tp163
bS'block'
p164
tp165
Rp166
I10
I0
tp167
a(g166
I3
I0
tp168
a(g166
I27
I0
tp169
a(g166
I7
I0
tp170
a(g166
I18
I0
tp171
a(g166
I2
I0
tp172
a(g166
I20
I0
tp173
a(g166
I17
I0
tp174
a(g4
(g5
(S'S3'
p175
I0
I1
tp176
Rp177
(I3
S'|'
p178
NNNI3
I1
I0
tp179
bS'can'
p180
tp181
Rp182
I3
I0
tp183
a(g4
(g5
(S'S5'
p184
I0
I1
tp185
Rp186
(I3
S'|'
p187
NNNI5
I1
I0
tp188
bS'white'
p189
tp190
Rp191
I10
I0
tp192
a(g191
I3
I0
tp193
a(g191
I27
I0
tp194
a(g191
I7
I0
tp195
a(g191
I18
I0
tp196
a(g191
I2
I0
tp197
a(g191
I20
I0
tp198
a(g191
I17
I0
tp199
a(g4
(g5
(S'S4'
p200
I0
I1
tp201
Rp202
(I3
S'|'
p203
NNNI4
I1
I0
tp204
bS'blue'
p205
tp206
Rp207
I18
I1
tp208
aa(lp209
a.