(lp0
(lp1
(dp2
S'action'
p3
cnumpy.core.multiarray
scalar
p4
(cnumpy
dtype
p5
(S'S4'
p6
I0
I1
tp7
Rp8
(I3
S'|'
p9
NNNI4
I1
I0
tp10
bS'walk'
p11
tp12
Rp13
sS'recipient'
p14
NsS'patient'
p15
NsS'goal'
p16
S'3430'
p17
sS'source'
p18
Nsaa(lp19
(dp20
S'all'
p21
(lp22
S'go to the x'
p23
asg15
(lp24
sg16
(lp25
S'office s'
p26
aS's'
p27
aS'office s'
p28
aS's'
p29
aS'office'
p30
aS'office'
p31
aS'go to the office'
p32
aS'the office'
p33
aS'office s'
p34
asg18
(lp35
sg3
(lp36
sg14
(lp37
saa(lp38
(g4
(g5
(S'S4'
p39
I0
I1
tp40
Rp41
(I3
S'|'
p42
NNNI4
I1
I0
tp43
bS'blue'
p44
tp45
Rp46
I18
I1
tp47
a(g4
(g5
(S'S9'
p48
I0
I1
tp49
Rp50
(I3
S'|'
p51
NNNI9
I1
I0
tp52
bS'rectangle'
p53
tp54
Rp55
I10
I0
tp56
a(g55
I3
I0
tp57
a(g55
I27
I0
tp58
a(g55
I7
I0
tp59
a(g55
I18
I0
tp60
a(g55
I2
I0
tp61
a(g55
I20
I0
tp62
a(g55
I17
I0
tp63
a(g4
(g5
(S'S6'
p64
I0
I1
tp65
Rp66
(I3
S'|'
p67
NNNI6
I1
I0
tp68
bS'yellow'
p69
tp70
Rp71
I2
I1
tp72
a(g4
(g5
(S'S4'
p73
I0
I1
tp74
Rp75
(I3
S'|'
p76
NNNI4
I1
I0
tp77
bS'blue'
p78
tp79
Rp80
I17
I0
tp81
a(g4
(g5
(S'S9'
p82
I0
I1
tp83
Rp84
(I3
S'|'
p85
NNNI9
I1
I0
tp86
bS'styrofoam'
p87
tp88
Rp89
I20
I1
tp90
aa(lp91
a.