(lp0
(lp1
(dp2
S'action'
p3
cnumpy.core.multiarray
scalar
p4
(cnumpy
dtype
p5
(S'S4'
p6
I0
I1
tp7
Rp8
(I3
S'|'
p9
NNNI4
I1
I0
tp10
bS'walk'
p11
tp12
Rp13
sS'recipient'
p14
NsS'patient'
p15
NsS'goal'
p16
g4
(g5
(S'S4'
p17
I0
I1
tp18
Rp19
(I3
S'|'
p20
NNNI4
I1
I0
tp21
bS'3402'
p22
tp23
Rp24
sS'source'
p25
Nsa(dp26
g3
g4
(g5
(S'S5'
p27
I0
I1
tp28
Rp29
(I3
S'|'
p30
NNNI5
I1
I0
tp31
bS'bring'
p32
tp33
Rp34
sg14
S'b'
p35
sg15
g4
(g5
(S'S7'
p36
I0
I1
tp37
Rp38
(I3
S'|'
p39
NNNI7
I1
I0
tp40
bS'oidx_22'
p41
tp42
Rp43
sg16
Nsg25
Nsaa(lp44
(dp45
S'all'
p46
(lp47
S'go to dr heidi hughes office'
p48
asg15
(lp49
sg16
(lp50
S'dr heidi hughes office'
p51
asg25
(lp52
sg3
(lp53
sg14
(lp54
sa(dp55
g46
(lp56
S'take the peanuts to bob'
p57
asg15
(lp58
S'the container with the red lid'
p59
aS'the container'
p60
aS'the container with the red lid'
p61
asg16
(lp62
sg25
(lp63
sg3
(lp64
sg14
(lp65
S'robert bob brown'
p66
asaa(lp67
(g4
(g5
(S'S5'
p68
I0
I1
tp69
Rp70
(I3
S'|'
p71
NNNI5
I1
I0
tp72
bS'spice'
p73
tp74
Rp75
I10
I0
tp76
a(g75
I3
I0
tp77
a(g75
I27
I0
tp78
a(g75
I7
I0
tp79
a(g75
I18
I0
tp80
a(g75
I2
I0
tp81
a(g75
I20
I0
tp82
a(g75
I17
I0
tp83
a(g4
(g5
(S'S4'
p84
I0
I1
tp85
Rp86
(I3
S'|'
p87
NNNI4
I1
I0
tp88
bS'blue'
p89
tp90
Rp91
I18
I1
tp92
a(g4
(g5
(S'S6'
p93
I0
I1
tp94
Rp95
(I3
S'|'
p96
NNNI6
I1
I0
tp97
bS'yellow'
p98
tp99
Rp100
I10
I0
tp101
a(g100
I3
I0
tp102
a(g100
I27
I0
tp103
a(g100
I7
I0
tp104
a(g100
I18
I0
tp105
a(g100
I2
I0
tp106
a(g100
I20
I0
tp107
a(g100
I17
I0
tp108
a(g4
(g5
(S'S3'
p109
I0
I1
tp110
Rp111
(I3
S'|'
p112
NNNI3
I1
I0
tp113
bS'can'
p114
tp115
Rp116
I2
I1
tp117
a(g4
(g5
(S'S9'
p118
I0
I1
tp119
Rp120
(I3
S'|'
p121
NNNI9
I1
I0
tp122
bS'rectangle'
p123
tp124
Rp125
I10
I0
tp126
a(g125
I3
I0
tp127
a(g125
I27
I0
tp128
a(g125
I7
I0
tp129
a(g125
I18
I0
tp130
a(g125
I2
I0
tp131
a(g125
I20
I0
tp132
a(g125
I17
I0
tp133
a(g4
(g5
(S'S9'
p134
I0
I1
tp135
Rp136
(I3
S'|'
p137
NNNI9
I1
I0
tp138
bS'container'
p139
tp140
Rp141
I2
I1
tp142
a(g4
(g5
(S'S9'
p143
I0
I1
tp144
Rp145
(I3
S'|'
p146
NNNI9
I1
I0
tp147
bS'container'
p148
tp149
Rp150
I3
I0
tp151
a(g4
(g5
(S'S3'
p152
I0
I1
tp153
Rp154
(I3
S'|'
p155
NNNI3
I1
I0
tp156
bS'red'
p157
tp158
Rp159
I10
I1
tp160
a(g4
(g5
(S'S4'
p161
I0
I1
tp162
Rp163
(I3
S'|'
p164
NNNI4
I1
I0
tp165
bS'bean'
p166
tp167
Rp168
I10
I0
tp169
a(g168
I3
I0
tp170
a(g168
I27
I0
tp171
a(g168
I7
I0
tp172
a(g168
I18
I0
tp173
a(g168
I2
I0
tp174
a(g168
I20
I0
tp175
a(g168
I17
I0
tp176
a(g4
(g5
(S'S9'
p177
I0
I1
tp178
Rp179
(I3
S'|'
p180
NNNI9
I1
I0
tp181
bS'container'
p182
tp183
Rp184
I18
I1
tp185
aa(lp186
(S'peanuts'
p187
S'peaches'
p188
I00
tp189
a(g187
S'beans'
p190
I00
tp191
a(g187
S'bean'
p192
I00
tp193
a(S'red'
p194
S'white'
p195
I00
tp196
a(g194
S'yellow'
p197
I00
tp198
a(g194
S'blue'
p199
I00
tp200
aa.