(lp0
(lp1
(dp2
S'action'
p3
cnumpy.core.multiarray
scalar
p4
(cnumpy
dtype
p5
(S'S4'
p6
I0
I1
tp7
Rp8
(I3
S'|'
p9
NNNI4
I1
I0
tp10
bS'walk'
p11
tp12
Rp13
sS'recipient'
p14
NsS'patient'
p15
NsS'goal'
p16
g4
(g5
(S'S4'
p17
I0
I1
tp18
Rp19
(I3
S'|'
p20
NNNI4
I1
I0
tp21
bS'3512'
p22
tp23
Rp24
sS'source'
p25
Nsa(dp26
g3
g4
(g5
(S'S5'
p27
I0
I1
tp28
Rp29
(I3
S'|'
p30
NNNI5
I1
I0
tp31
bS'bring'
p32
tp33
Rp34
sg14
g4
(g5
(S'S1'
p35
I0
I1
tp36
Rp37
(I3
S'|'
p38
NNNI1
I1
I0
tp39
bS'd'
p40
tp41
Rp42
sg15
g4
(g5
(S'S7'
p43
I0
I1
tp44
Rp45
(I3
S'|'
p46
NNNI7
I1
I0
tp47
bS'oidx_28'
p48
tp49
Rp50
sg16
Nsg25
Nsaa(lp51
(dp52
S'all'
p53
(lp54
S'walk down the hallway with the office of mallroy mal maroon to your right continuning until you get to the office of richard rogue and turning right to enter'
p55
asg15
(lp56
sg16
(lp57
S'the office of mallory mal maroon'
p58
aS'the office of richard rogue'
p59
asg25
(lp60
sg3
(lp61
sg14
(lp62
sa(dp63
g53
(lp64
S'make a white rectangle for david dave daniel'
p65
asg15
(lp66
S'a long white rectangle'
p67
aS'a long white rectangle'
p68
asg16
(lp69
sg25
(lp70
sg3
(lp71
sg14
(lp72
saa(lp73
(g4
(g5
(S'S5'
p74
I0
I1
tp75
Rp76
(I3
S'|'
p77
NNNI5
I1
I0
tp78
bS'white'
p79
tp80
Rp81
I10
I0
tp82
a(g81
I3
I0
tp83
a(g81
I27
I0
tp84
a(g81
I7
I0
tp85
a(g81
I18
I0
tp86
a(g81
I2
I0
tp87
a(g81
I20
I0
tp88
a(g81
I17
I0
tp89
a(g4
(g5
(S'S6'
p90
I0
I1
tp91
Rp92
(I3
S'|'
p93
NNNI6
I1
I0
tp94
bS'column'
p95
tp96
Rp97
I3
I1
tp98
a(g4
(g5
(S'S9'
p99
I0
I1
tp100
Rp101
(I3
S'|'
p102
NNNI9
I1
I0
tp103
bS'container'
p104
tp105
Rp106
I2
I1
tp107
a(g4
(g5
(S'S9'
p108
I0
I1
tp109
Rp110
(I3
S'|'
p111
NNNI9
I1
I0
tp112
bS'rectangle'
p113
tp114
Rp115
I10
I0
tp116
a(g115
I3
I0
tp117
a(g115
I27
I0
tp118
a(g115
I7
I0
tp119
a(g115
I18
I0
tp120
a(g115
I2
I0
tp121
a(g115
I20
I0
tp122
a(g115
I17
I0
tp123
a(g4
(g5
(S'S3'
p124
I0
I1
tp125
Rp126
(I3
S'|'
p127
NNNI3
I1
I0
tp128
bS'can'
p129
tp130
Rp131
I10
I1
tp132
a(g4
(g5
(S'S3'
p133
I0
I1
tp134
Rp135
(I3
S'|'
p136
NNNI3
I1
I0
tp137
bS'can'
p138
tp139
Rp140
I10
I0
tp141
a(g4
(g5
(S'S8'
p142
I0
I1
tp143
Rp144
(I3
S'|'
p145
NNNI8
I1
I0
tp146
bS'cylinder'
p147
tp148
Rp149
I3
I1
tp150
a(g4
(g5
(S'S5'
p151
I0
I1
tp152
Rp153
(I3
S'|'
p154
NNNI5
I1
I0
tp155
bS'empty'
p156
tp157
Rp158
I10
I0
tp159
a(g158
I3
I0
tp160
a(g158
I27
I0
tp161
a(g158
I7
I0
tp162
a(g158
I18
I0
tp163
a(g158
I2
I0
tp164
a(g158
I20
I0
tp165
a(g158
I17
I0
tp166
a(g4
(g5
(S'S5'
p167
I0
I1
tp168
Rp169
(I3
S'|'
p170
NNNI5
I1
I0
tp171
bS'block'
p172
tp173
Rp174
I10
I0
tp175
a(g174
I3
I0
tp176
a(g174
I27
I0
tp177
a(g174
I7
I0
tp178
a(g174
I18
I0
tp179
a(g174
I2
I0
tp180
a(g174
I20
I0
tp181
a(g174
I17
I0
tp182
a(g4
(g5
(S'S8'
p183
I0
I1
tp184
Rp185
(I3
S'|'
p186
NNNI8
I1
I0
tp187
bS'metallic'
p188
tp189
Rp190
I3
I1
tp191
aa(lp192
a.