(lp0
(lp1
(dp2
S'action'
p3
cnumpy.core.multiarray
scalar
p4
(cnumpy
dtype
p5
(S'S4'
p6
I0
I1
tp7
Rp8
(I3
S'|'
p9
NNNI4
I1
I0
tp10
bS'walk'
p11
tp12
Rp13
sS'recipient'
p14
NsS'patient'
p15
NsS'goal'
p16
g4
(g5
(S'S4'
p17
I0
I1
tp18
Rp19
(I3
S'|'
p20
NNNI4
I1
I0
tp21
bS'3422'
p22
tp23
Rp24
sS'source'
p25
Nsa(dp26
g3
g4
(g5
(S'S5'
p27
I0
I1
tp28
Rp29
(I3
S'|'
p30
NNNI5
I1
I0
tp31
bS'bring'
p32
tp33
Rp34
sg14
S'm'
p35
sg15
S'oidx_11'
p36
sg16
Nsg25
Nsa(dp37
g3
g4
(g5
(S'S5'
p38
I0
I1
tp39
Rp40
(I3
S'|'
p41
NNNI5
I1
I0
tp42
bS'bring'
p43
tp44
Rp45
sg14
S'n'
p46
sg15
S'oidx_28'
p47
sg16
Nsg25
Nsaa(lp48
(dp49
S'all'
p50
(lp51
S"go to walter ward 's office"
p52
asg15
(lp53
sg16
(lp54
sg25
(lp55
sg3
(lp56
sg14
(lp57
sa(dp58
g50
(lp59
S'give the pills bottle to richard rogue'
p60
asg15
(lp61
S'a bottle'
p62
aS'a pills bottle'
p63
asg16
(lp64
sg25
(lp65
sg3
(lp66
sg14
(lp67
sa(dp68
g50
(lp69
S'pick up the prism at the lounge and give it to dr nancy nagel'
p70
asg15
(lp71
S'a rectangular polystyrene prism at the lounge'
p72
aS'an object at the lounge'
p73
asg16
(lp74
sg25
(lp75
sg3
(lp76
sg14
(lp77
S'nancy nagel'
p78
asaa(lp79
(g4
(g5
(S'S8'
p80
I0
I1
tp81
Rp82
(I3
S'|'
p83
NNNI8
I1
I0
tp84
bS'cylinder'
p85
tp86
Rp87
I3
I1
tp88
a(g4
(g5
(S'S8'
p89
I0
I1
tp90
Rp91
(I3
S'|'
p92
NNNI8
I1
I0
tp93
bS'pringles'
p94
tp95
Rp96
I3
I1
tp97
a(g4
(g5
(S'S5'
p98
I0
I1
tp99
Rp100
(I3
S'|'
p101
NNNI5
I1
I0
tp102
bS'tower'
p103
tp104
Rp105
I7
I1
tp106
a(g4
(g5
(S'S4'
p107
I0
I1
tp108
Rp109
(I3
S'|'
p110
NNNI4
I1
I0
tp111
bS'long'
p112
tp113
Rp114
I3
I1
tp115
a(g4
(g5
(S'S8'
p116
I0
I1
tp117
Rp118
(I3
S'|'
p119
NNNI8
I1
I0
tp120
bS'pringles'
p121
tp122
Rp123
I27
I0
tp124
a(g4
(g5
(S'S9'
p125
I0
I1
tp126
Rp127
(I3
S'|'
p128
NNNI9
I1
I0
tp129
bS'container'
p130
tp131
Rp132
I2
I1
tp133
a(g4
(g5
(S'S9'
p134
I0
I1
tp135
Rp136
(I3
S'|'
p137
NNNI9
I1
I0
tp138
bS'container'
p139
tp140
Rp141
I10
I0
tp142
a(g4
(g5
(S'S9'
p143
I0
I1
tp144
Rp145
(I3
S'|'
p146
NNNI9
I1
I0
tp147
bS'container'
p148
tp149
Rp150
I10
I1
tp151
a(g4
(g5
(S'S8'
p152
I0
I1
tp153
Rp154
(I3
S'|'
p155
NNNI8
I1
I0
tp156
bS'cylinder'
p157
tp158
Rp159
I27
I0
tp160
a(g4
(g5
(S'S3'
p161
I0
I1
tp162
Rp163
(I3
S'|'
p164
NNNI3
I1
I0
tp165
bS'can'
p166
tp167
Rp168
I2
I1
tp169
a(g4
(g5
(S'S8'
p170
I0
I1
tp171
Rp172
(I3
S'|'
p173
NNNI8
I1
I0
tp174
bS'pringles'
p175
tp176
Rp177
I10
I0
tp178
a(g177
I3
I0
tp179
a(g177
I27
I0
tp180
a(g177
I7
I0
tp181
a(g177
I18
I0
tp182
a(g177
I2
I0
tp183
a(g177
I20
I0
tp184
a(g177
I17
I0
tp185
a(g4
(g5
(S'S6'
p186
I0
I1
tp187
Rp188
(I3
S'|'
p189
NNNI6
I1
I0
tp190
bS'coffee'
p191
tp192
Rp193
I10
I0
tp194
a(g193
I3
I0
tp195
a(g193
I27
I0
tp196
a(g193
I7
I0
tp197
a(g193
I18
I0
tp198
a(g193
I2
I0
tp199
a(g193
I20
I0
tp200
a(g193
I17
I0
tp201
a(g4
(g5
(S'S5'
p202
I0
I1
tp203
Rp204
(I3
S'|'
p205
NNNI5
I1
I0
tp206
bS'prism'
p207
tp208
Rp209
I10
I0
tp210
a(g209
I3
I0
tp211
a(g209
I27
I0
tp212
a(g209
I7
I0
tp213
a(g209
I18
I0
tp214
a(g209
I2
I0
tp215
a(g209
I20
I0
tp216
a(g209
I17
I0
tp217
a(g4
(g5
(S'S8'
p218
I0
I1
tp219
Rp220
(I3
S'|'
p221
NNNI8
I1
I0
tp222
bS'metallic'
p223
tp224
Rp225
I10
I0
tp226
a(g225
I3
I0
tp227
a(g225
I27
I0
tp228
a(g225
I7
I0
tp229
a(g225
I18
I0
tp230
a(g225
I2
I0
tp231
a(g225
I20
I0
tp232
a(g225
I17
I0
tp233
a(g4
(g5
(S'S5'
p234
I0
I1
tp235
Rp236
(I3
S'|'
p237
NNNI5
I1
I0
tp238
bS'white'
p239
tp240
Rp241
I10
I0
tp242
a(g241
I3
I0
tp243
a(g241
I27
I0
tp244
a(g241
I7
I0
tp245
a(g241
I18
I0
tp246
a(g241
I2
I0
tp247
a(g241
I20
I0
tp248
a(g241
I17
I0
tp249
aa(lp250
(S'prism'
p251
S'white'
p252
I00
tp253
a(S'rectangular'
p254
S'blue'
p255
I00
tp256
a(g254
S'metallic'
p257
I00
tp258
aa.