(lp0
(lp1
(dp2
S'action'
p3
cnumpy.core.multiarray
scalar
p4
(cnumpy
dtype
p5
(S'S4'
p6
I0
I1
tp7
Rp8
(I3
S'|'
p9
NNNI4
I1
I0
tp10
bS'walk'
p11
tp12
Rp13
sS'recipient'
p14
NsS'patient'
p15
NsS'goal'
p16
g4
(g5
(S'S4'
p17
I0
I1
tp18
Rp19
(I3
S'|'
p20
NNNI4
I1
I0
tp21
bS'3422'
p22
tp23
Rp24
sS'source'
p25
Nsa(dp26
g3
g4
(g5
(S'S5'
p27
I0
I1
tp28
Rp29
(I3
S'|'
p30
NNNI5
I1
I0
tp31
bS'bring'
p32
tp33
Rp34
sg14
g4
(g5
(S'S1'
p35
I0
I1
tp36
Rp37
(I3
S'|'
p38
NNNI1
I1
I0
tp39
bS's'
p40
tp41
Rp42
sg15
g4
(g5
(S'S7'
p43
I0
I1
tp44
Rp45
(I3
S'|'
p46
NNNI7
I1
I0
tp47
bS'oidx_26'
p48
tp49
Rp50
sg16
Nsg25
Nsaa(lp51
(dp52
S'all'
p53
(lp54
S"you need to go to walter ward 's office"
p55
asg15
(lp56
sg16
(lp57
S"walter ward 's office"
p58
asg25
(lp59
sg3
(lp60
sg14
(lp61
sa(dp62
g53
(lp63
S'deliver this object to dr sybil smalt'
p64
asg15
(lp65
S'the orange can'
p66
aS'the orange can'
p67
asg16
(lp68
sg25
(lp69
sg3
(lp70
sg14
(lp71
saa(lp72
(g4
(g5
(S'S5'
p73
I0
I1
tp74
Rp75
(I3
S'|'
p76
NNNI5
I1
I0
tp77
bS'clear'
p78
tp79
Rp80
I7
I1
tp81
a(g4
(g5
(S'S9'
p82
I0
I1
tp83
Rp84
(I3
S'|'
p85
NNNI9
I1
I0
tp86
bS'container'
p87
tp88
Rp89
I10
I1
tp90
a(g4
(g5
(S'S6'
p91
I0
I1
tp92
Rp93
(I3
S'|'
p94
NNNI6
I1
I0
tp95
bS'yellow'
p96
tp97
Rp98
I2
I1
tp99
a(g4
(g5
(S'S4'
p100
I0
I1
tp101
Rp102
(I3
S'|'
p103
NNNI4
I1
I0
tp104
bS'long'
p105
tp106
Rp107
I3
I1
tp108
a(g4
(g5
(S'S5'
p109
I0
I1
tp110
Rp111
(I3
S'|'
p112
NNNI5
I1
I0
tp113
bS'empty'
p114
tp115
Rp116
I10
I0
tp117
a(g116
I3
I0
tp118
a(g116
I27
I0
tp119
a(g116
I7
I0
tp120
a(g116
I18
I0
tp121
a(g116
I2
I0
tp122
a(g116
I20
I0
tp123
a(g116
I17
I0
tp124
a(g4
(g5
(S'S5'
p125
I0
I1
tp126
Rp127
(I3
S'|'
p128
NNNI5
I1
I0
tp129
bS'block'
p130
tp131
Rp132
I10
I0
tp133
a(g132
I3
I0
tp134
a(g132
I27
I0
tp135
a(g132
I7
I0
tp136
a(g132
I18
I0
tp137
a(g132
I2
I0
tp138
a(g132
I20
I0
tp139
a(g132
I17
I0
tp140
a(g4
(g5
(S'S6'
p141
I0
I1
tp142
Rp143
(I3
S'|'
p144
NNNI6
I1
I0
tp145
bS'coffee'
p146
tp147
Rp148
I2
I1
tp149
a(g4
(g5
(S'S4'
p150
I0
I1
tp151
Rp152
(I3
S'|'
p153
NNNI4
I1
I0
tp154
bS'blue'
p155
tp156
Rp157
I18
I1
tp158
a(g4
(g5
(S'S5'
p159
I0
I1
tp160
Rp161
(I3
S'|'
p162
NNNI5
I1
I0
tp163
bS'peach'
p164
tp165
Rp166
I10
I0
tp167
a(g166
I3
I0
tp168
a(g166
I27
I0
tp169
a(g166
I7
I0
tp170
a(g166
I18
I0
tp171
a(g166
I2
I0
tp172
a(g166
I20
I0
tp173
a(g166
I17
I0
tp174
a(g4
(g5
(S'S4'
p175
I0
I1
tp176
Rp177
(I3
S'|'
p178
NNNI4
I1
I0
tp179
bS'bean'
p180
tp181
Rp182
I10
I0
tp183
a(g182
I3
I0
tp184
a(g182
I27
I0
tp185
a(g182
I7
I0
tp186
a(g182
I18
I0
tp187
a(g182
I2
I0
tp188
a(g182
I20
I0
tp189
a(g182
I17
I0
tp190
aa(lp191
(S'orange'
p192
S'white'
p193
I00
tp194
a(g192
S'yellow'
p195
I00
tp196
a(g192
S'blue'
p197
I00
tp198
aa.