(lp0
(lp1
(dp2
S'action'
p3
cnumpy.core.multiarray
scalar
p4
(cnumpy
dtype
p5
(S'S4'
p6
I0
I1
tp7
Rp8
(I3
S'|'
p9
NNNI4
I1
I0
tp10
bS'walk'
p11
tp12
Rp13
sS'recipient'
p14
NsS'patient'
p15
NsS'goal'
p16
S'3516'
p17
sS'source'
p18
Nsaa(lp19
(dp20
S'all'
p21
(lp22
S'go to the big conference room'
p23
asg15
(lp24
sg16
(lp25
S'the big conference room'
p26
aS'the conference room'
p27
asg18
(lp28
sg3
(lp29
sg14
(lp30
saa(lp31
(g4
(g5
(S'S9'
p32
I0
I1
tp33
Rp34
(I3
S'|'
p35
NNNI9
I1
I0
tp36
bS'styrofoam'
p37
tp38
Rp39
I10
I0
tp40
a(g39
I3
I0
tp41
a(g39
I27
I0
tp42
a(g39
I7
I0
tp43
a(g39
I18
I0
tp44
a(g39
I2
I0
tp45
a(g39
I20
I0
tp46
a(g39
I17
I0
tp47
a(g4
(g5
(S'S8'
p48
I0
I1
tp49
Rp50
(I3
S'|'
p51
NNNI8
I1
I0
tp52
bS'cylinder'
p53
tp54
Rp55
I2
I1
tp56
a(g4
(g5
(S'S4'
p57
I0
I1
tp58
Rp59
(I3
S'|'
p60
NNNI4
I1
I0
tp61
bS'bean'
p62
tp63
Rp64
I10
I0
tp65
a(g64
I3
I0
tp66
a(g64
I27
I0
tp67
a(g64
I7
I0
tp68
a(g64
I18
I0
tp69
a(g64
I2
I0
tp70
a(g64
I20
I0
tp71
a(g64
I17
I0
tp72
a(g4
(g5
(S'S5'
p73
I0
I1
tp74
Rp75
(I3
S'|'
p76
NNNI5
I1
I0
tp77
bS'spice'
p78
tp79
Rp80
I10
I0
tp81
a(g80
I3
I0
tp82
a(g80
I27
I0
tp83
a(g80
I7
I0
tp84
a(g80
I18
I0
tp85
a(g80
I2
I0
tp86
a(g80
I20
I0
tp87
a(g80
I17
I0
tp88
a(g4
(g5
(S'S9'
p89
I0
I1
tp90
Rp91
(I3
S'|'
p92
NNNI9
I1
I0
tp93
bS'container'
p94
tp95
Rp96
I2
I1
tp97
aa(lp98
a.