(lp0
(lp1
(dp2
S'action'
p3
cnumpy.core.multiarray
scalar
p4
(cnumpy
dtype
p5
(S'S4'
p6
I0
I1
tp7
Rp8
(I3
S'|'
p9
NNNI4
I1
I0
tp10
bS'walk'
p11
tp12
Rp13
sS'recipient'
p14
NsS'patient'
p15
NsS'goal'
p16
g4
(g5
(S'S4'
p17
I0
I1
tp18
Rp19
(I3
S'|'
p20
NNNI4
I1
I0
tp21
bS'3506'
p22
tp23
Rp24
sS'source'
p25
Nsa(dp26
g3
g4
(g5
(S'S5'
p27
I0
I1
tp28
Rp29
(I3
S'|'
p30
NNNI5
I1
I0
tp31
bS'bring'
p32
tp33
Rp34
sg14
g4
(g5
(S'S1'
p35
I0
I1
tp36
Rp37
(I3
S'|'
p38
NNNI1
I1
I0
tp39
bS'h'
p40
tp41
Rp42
sg15
S'oidx_26'
p43
sg16
Nsg25
Nsaa(lp44
(dp45
S'all'
p46
(lp47
S'go to the printer'
p48
asg15
(lp49
sg16
(lp50
sg25
(lp51
sg3
(lp52
sg14
(lp53
sa(dp54
g46
(lp55
S'give the soda to dr heidi hughes'
p56
asg15
(lp57
S'the cylinder'
p58
asg16
(lp59
sg25
(lp60
sg3
(lp61
sg14
(lp62
saa(lp63
(g4
(g5
(S'S4'
p64
I0
I1
tp65
Rp66
(I3
S'|'
p67
NNNI4
I1
I0
tp68
bS'bean'
p69
tp70
Rp71
I10
I0
tp72
a(g71
I3
I0
tp73
a(g71
I27
I0
tp74
a(g71
I7
I0
tp75
a(g71
I18
I0
tp76
a(g71
I2
I0
tp77
a(g71
I20
I0
tp78
a(g71
I17
I0
tp79
a(g4
(g5
(S'S8'
p80
I0
I1
tp81
Rp82
(I3
S'|'
p83
NNNI8
I1
I0
tp84
bS'pringles'
p85
tp86
Rp87
I10
I0
tp88
a(g87
I3
I0
tp89
a(g87
I27
I0
tp90
a(g87
I7
I0
tp91
a(g87
I18
I0
tp92
a(g87
I2
I0
tp93
a(g87
I20
I0
tp94
a(g87
I17
I0
tp95
a(g4
(g5
(S'S6'
p96
I0
I1
tp97
Rp98
(I3
S'|'
p99
NNNI6
I1
I0
tp100
bS'yellow'
p101
tp102
Rp103
I10
I0
tp104
a(g103
I3
I0
tp105
a(g103
I27
I0
tp106
a(g103
I7
I0
tp107
a(g103
I18
I0
tp108
a(g103
I2
I0
tp109
a(g103
I20
I0
tp110
a(g103
I17
I0
tp111
a(g4
(g5
(S'S8'
p112
I0
I1
tp113
Rp114
(I3
S'|'
p115
NNNI8
I1
I0
tp116
bS'cylinder'
p117
tp118
Rp119
I2
I1
tp120
a(g4
(g5
(S'S5'
p121
I0
I1
tp122
Rp123
(I3
S'|'
p124
NNNI5
I1
I0
tp125
bS'spice'
p126
tp127
Rp128
I10
I0
tp129
a(g128
I3
I0
tp130
a(g128
I27
I0
tp131
a(g128
I7
I0
tp132
a(g128
I18
I0
tp133
a(g128
I2
I0
tp134
a(g128
I20
I0
tp135
a(g128
I17
I0
tp136
a(g4
(g5
(S'S4'
p137
I0
I1
tp138
Rp139
(I3
S'|'
p140
NNNI4
I1
I0
tp141
bS'long'
p142
tp143
Rp144
I3
I1
tp145
a(g4
(g5
(S'S5'
p146
I0
I1
tp147
Rp148
(I3
S'|'
p149
NNNI5
I1
I0
tp150
bS'peach'
p151
tp152
Rp153
I10
I0
tp154
a(g153
I3
I0
tp155
a(g153
I27
I0
tp156
a(g153
I7
I0
tp157
a(g153
I18
I0
tp158
a(g153
I2
I0
tp159
a(g153
I20
I0
tp160
a(g153
I17
I0
tp161
a(g4
(g5
(S'S8'
p162
I0
I1
tp163
Rp164
(I3
S'|'
p165
NNNI8
I1
I0
tp166
bS'metallic'
p167
tp168
Rp169
I10
I0
tp170
a(g169
I3
I0
tp171
a(g169
I27
I0
tp172
a(g169
I7
I0
tp173
a(g169
I18
I0
tp174
a(g169
I2
I0
tp175
a(g169
I20
I0
tp176
a(g169
I17
I0
tp177
a(g4
(g5
(S'S4'
p178
I0
I1
tp179
Rp180
(I3
S'|'
p181
NNNI4
I1
I0
tp182
bS'long'
p183
tp184
Rp185
I27
I0
tp186
a(g4
(g5
(S'S9'
p187
I0
I1
tp188
Rp189
(I3
S'|'
p190
NNNI9
I1
I0
tp191
bS'container'
p192
tp193
Rp194
I2
I1
tp195
aa(lp196
a.