(lp0
(lp1
(dp2
S'action'
p3
cnumpy.core.multiarray
scalar
p4
(cnumpy
dtype
p5
(S'S4'
p6
I0
I1
tp7
Rp8
(I3
S'|'
p9
NNNI4
I1
I0
tp10
bS'walk'
p11
tp12
Rp13
sS'recipient'
p14
NsS'patient'
p15
NsS'goal'
p16
g4
(g5
(S'S4'
p17
I0
I1
tp18
Rp19
(I3
S'|'
p20
NNNI4
I1
I0
tp21
bS'3504'
p22
tp23
Rp24
sS'source'
p25
Nsa(dp26
g3
g4
(g5
(S'S5'
p27
I0
I1
tp28
Rp29
(I3
S'|'
p30
NNNI5
I1
I0
tp31
bS'bring'
p32
tp33
Rp34
sg14
S'r'
p35
sg15
g4
(g5
(S'S7'
p36
I0
I1
tp37
Rp38
(I3
S'|'
p39
NNNI7
I1
I0
tp40
bS'oidx_22'
p41
tp42
Rp43
sg16
Nsg25
Nsaa(lp44
(dp45
S'all'
p46
(lp47
S'go to the pod'
p48
asg15
(lp49
sg16
(lp50
S'to the pod'
p51
aS'the pod at the bottom left'
p52
aS'the pod between m and p'
p53
aS"the pod between maroon 's office and parker 's office"
p54
asg25
(lp55
sg3
(lp56
sg14
(lp57
sa(dp58
g46
(lp59
S'take clear cylinder to rogue'
p60
asg15
(lp61
S'the clear cylinder with nuts in it'
p62
aS'the clear cylinder'
p63
aS'the jar of nuts'
p64
aS'the jar with the red cap'
p65
asg16
(lp66
sg25
(lp67
sg3
(lp68
sg14
(lp69
S'richard rogue secretary'
p70
aS'the secretary'
p71
asaa(lp72
(g4
(g5
(S'S8'
p73
I0
I1
tp74
Rp75
(I3
S'|'
p76
NNNI8
I1
I0
tp77
bS'metallic'
p78
tp79
Rp80
I10
I0
tp81
a(g80
I3
I0
tp82
a(g80
I27
I0
tp83
a(g80
I7
I0
tp84
a(g80
I18
I0
tp85
a(g80
I2
I0
tp86
a(g80
I20
I0
tp87
a(g80
I17
I0
tp88
a(g4
(g5
(S'S6'
p89
I0
I1
tp90
Rp91
(I3
S'|'
p92
NNNI6
I1
I0
tp93
bS'yellow'
p94
tp95
Rp96
I10
I0
tp97
a(g96
I3
I0
tp98
a(g96
I27
I0
tp99
a(g96
I7
I0
tp100
a(g96
I18
I0
tp101
a(g96
I2
I0
tp102
a(g96
I20
I0
tp103
a(g96
I17
I0
tp104
a(g4
(g5
(S'S9'
p105
I0
I1
tp106
Rp107
(I3
S'|'
p108
NNNI9
I1
I0
tp109
bS'styrofoam'
p110
tp111
Rp112
I10
I0
tp113
a(g112
I3
I0
tp114
a(g112
I27
I0
tp115
a(g112
I7
I0
tp116
a(g112
I18
I0
tp117
a(g112
I2
I0
tp118
a(g112
I20
I0
tp119
a(g112
I17
I0
tp120
a(g4
(g5
(S'S4'
p121
I0
I1
tp122
Rp123
(I3
S'|'
p124
NNNI4
I1
I0
tp125
bS'blue'
p126
tp127
Rp128
I18
I1
tp129
a(g4
(g5
(S'S9'
p130
I0
I1
tp131
Rp132
(I3
S'|'
p133
NNNI9
I1
I0
tp134
bS'rectangle'
p135
tp136
Rp137
I10
I0
tp138
a(g137
I3
I0
tp139
a(g137
I27
I0
tp140
a(g137
I7
I0
tp141
a(g137
I18
I0
tp142
a(g137
I2
I0
tp143
a(g137
I20
I0
tp144
a(g137
I17
I0
tp145
a(g4
(g5
(S'S8'
p146
I0
I1
tp147
Rp148
(I3
S'|'
p149
NNNI8
I1
I0
tp150
bS'cylinder'
p151
tp152
Rp153
I3
I1
tp154
a(g4
(g5
(S'S8'
p155
I0
I1
tp156
Rp157
(I3
S'|'
p158
NNNI8
I1
I0
tp159
bS'cylinder'
p160
tp161
Rp162
I27
I0
tp163
a(g4
(g5
(S'S8'
p164
I0
I1
tp165
Rp166
(I3
S'|'
p167
NNNI8
I1
I0
tp168
bS'cylinder'
p169
tp170
Rp171
I2
I1
tp172
a(g4
(g5
(S'S5'
p173
I0
I1
tp174
Rp175
(I3
S'|'
p176
NNNI5
I1
I0
tp177
bS'block'
p178
tp179
Rp180
I10
I0
tp181
a(g180
I3
I0
tp182
a(g180
I27
I0
tp183
a(g180
I7
I0
tp184
a(g180
I18
I0
tp185
a(g180
I2
I0
tp186
a(g180
I20
I0
tp187
a(g180
I17
I0
tp188
a(g4
(g5
(S'S5'
p189
I0
I1
tp190
Rp191
(I3
S'|'
p192
NNNI5
I1
I0
tp193
bS'clear'
p194
tp195
Rp196
I10
I0
tp197
a(g196
I3
I0
tp198
a(g196
I27
I0
tp199
a(g196
I7
I0
tp200
a(g196
I18
I0
tp201
a(g196
I2
I0
tp202
a(g196
I20
I0
tp203
a(g196
I17
I0
tp204
aa(lp205
(S'red'
p206
S'white'
p207
I00
tp208
a(g206
S'yellow'
p209
I00
tp210
a(g206
S'blue'
p211
I00
tp212
aa.