(lp0
(lp1
(dp2
S'action'
p3
cnumpy.core.multiarray
scalar
p4
(cnumpy
dtype
p5
(S'S4'
p6
I0
I1
tp7
Rp8
(I3
S'|'
p9
NNNI4
I1
I0
tp10
bS'walk'
p11
tp12
Rp13
sS'recipient'
p14
NsS'patient'
p15
NsS'goal'
p16
g4
(g5
(S'S4'
p17
I0
I1
tp18
Rp19
(I3
S'|'
p20
NNNI4
I1
I0
tp21
bS'3510'
p22
tp23
Rp24
sS'source'
p25
Nsa(dp26
g3
g4
(g5
(S'S4'
p27
I0
I1
tp28
Rp29
(I3
S'|'
p30
NNNI4
I1
I0
tp31
bS'move'
p32
tp33
Rp34
sg14
Nsg15
S'oidx_28'
p35
sg16
S'3520'
p36
sg25
S'3406'
p37
sa(dp38
g3
g4
(g5
(S'S4'
p39
I0
I1
tp40
Rp41
(I3
S'|'
p42
NNNI4
I1
I0
tp43
bS'walk'
p44
tp45
Rp46
sg14
Nsg15
Nsg16
S'3516'
p47
sg25
Nsaa(lp48
(dp49
S'all'
p50
(lp51
S'walk towards robert browns office'
p52
asg15
(lp53
sg16
(lp54
sg25
(lp55
sg3
(lp56
sg14
(lp57
sa(dp58
g50
(lp59
S'look for object'
p60
asg15
(lp61
S'long block'
p62
asg16
(lp63
sg25
(lp64
S'no'
p65
aS'must find something'
p66
asg3
(lp67
sg14
(lp68
sa(dp69
g50
(lp70
S'take something to conference room'
p71
asg15
(lp72
sg16
(lp73
S'conference room'
p74
asg25
(lp75
sg3
(lp76
sg14
(lp77
saa(lp78
(g4
(g5
(S'S6'
p79
I0
I1
tp80
Rp81
(I3
S'|'
p82
NNNI6
I1
I0
tp83
bS'column'
p84
tp85
Rp86
I10
I0
tp87
a(g86
I3
I0
tp88
a(g86
I27
I0
tp89
a(g86
I7
I0
tp90
a(g86
I18
I0
tp91
a(g86
I2
I0
tp92
a(g86
I20
I0
tp93
a(g86
I17
I0
tp94
a(g4
(g5
(S'S6'
p95
I0
I1
tp96
Rp97
(I3
S'|'
p98
NNNI6
I1
I0
tp99
bS'coffee'
p100
tp101
Rp102
I2
I1
tp103
a(g4
(g5
(S'S5'
p104
I0
I1
tp105
Rp106
(I3
S'|'
p107
NNNI5
I1
I0
tp108
bS'peach'
p109
tp110
Rp111
I10
I0
tp112
a(g111
I3
I0
tp113
a(g111
I27
I0
tp114
a(g111
I7
I0
tp115
a(g111
I18
I0
tp116
a(g111
I2
I0
tp117
a(g111
I20
I0
tp118
a(g111
I17
I0
tp119
a(g4
(g5
(S'S9'
p120
I0
I1
tp121
Rp122
(I3
S'|'
p123
NNNI9
I1
I0
tp124
bS'container'
p125
tp126
Rp127
I18
I1
tp128
a(g4
(g5
(S'S6'
p129
I0
I1
tp130
Rp131
(I3
S'|'
p132
NNNI6
I1
I0
tp133
bS'yellow'
p134
tp135
Rp136
I10
I0
tp137
a(g136
I3
I0
tp138
a(g136
I27
I0
tp139
a(g136
I7
I0
tp140
a(g136
I18
I0
tp141
a(g136
I2
I0
tp142
a(g136
I20
I0
tp143
a(g136
I17
I0
tp144
a(g4
(g5
(S'S5'
p145
I0
I1
tp146
Rp147
(I3
S'|'
p148
NNNI5
I1
I0
tp149
bS'empty'
p150
tp151
Rp152
I10
I0
tp153
a(g152
I3
I0
tp154
a(g152
I27
I0
tp155
a(g152
I7
I0
tp156
a(g152
I18
I0
tp157
a(g152
I2
I0
tp158
a(g152
I20
I0
tp159
a(g152
I17
I0
tp160
a(g4
(g5
(S'S8'
p161
I0
I1
tp162
Rp163
(I3
S'|'
p164
NNNI8
I1
I0
tp165
bS'metallic'
p166
tp167
Rp168
I10
I0
tp169
a(g168
I3
I0
tp170
a(g168
I27
I0
tp171
a(g168
I7
I0
tp172
a(g168
I18
I0
tp173
a(g168
I2
I0
tp174
a(g168
I20
I0
tp175
a(g168
I17
I0
tp176
a(g4
(g5
(S'S4'
p177
I0
I1
tp178
Rp179
(I3
S'|'
p180
NNNI4
I1
I0
tp181
bS'long'
p182
tp183
Rp184
I3
I1
tp185
a(g4
(g5
(S'S5'
p186
I0
I1
tp187
Rp188
(I3
S'|'
p189
NNNI5
I1
I0
tp190
bS'block'
p191
tp192
Rp193
I10
I0
tp194
a(g193
I3
I0
tp195
a(g193
I27
I0
tp196
a(g193
I7
I0
tp197
a(g193
I18
I0
tp198
a(g193
I2
I0
tp199
a(g193
I20
I0
tp200
a(g193
I17
I0
tp201
a(g4
(g5
(S'S9'
p202
I0
I1
tp203
Rp204
(I3
S'|'
p205
NNNI9
I1
I0
tp206
bS'container'
p207
tp208
Rp209
I10
I1
tp210
a(g209
I3
I1
tp211
a(g209
I27
I1
tp212
a(g209
I7
I1
tp213
a(g209
I18
I1
tp214
a(g209
I2
I1
tp215
a(g209
I20
I1
tp216
a(g209
I17
I1
tp217
a(g4
(g5
(S'S6'
p218
I0
I1
tp219
Rp220
(I3
S'|'
p221
NNNI6
I1
I0
tp222
bS'coffee'
p223
tp224
Rp225
I20
I0
tp226
a(g4
(g5
(S'S9'
p227
I0
I1
tp228
Rp229
(I3
S'|'
p230
NNNI9
I1
I0
tp231
bS'rectangle'
p232
tp233
Rp234
I10
I0
tp235
a(g234
I3
I0
tp236
a(g234
I27
I0
tp237
a(g234
I7
I0
tp238
a(g234
I18
I0
tp239
a(g234
I2
I0
tp240
a(g234
I20
I0
tp241
a(g234
I17
I0
tp242
a(g4
(g5
(S'S4'
p243
I0
I1
tp244
Rp245
(I3
S'|'
p246
NNNI4
I1
I0
tp247
bS'blue'
p248
tp249
Rp250
I10
I0
tp251
a(g250
I3
I0
tp252
a(g250
I27
I0
tp253
a(g250
I7
I0
tp254
a(g250
I18
I0
tp255
a(g250
I2
I0
tp256
a(g250
I20
I0
tp257
a(g250
I17
I0
tp258
a(g4
(g5
(S'S4'
p259
I0
I1
tp260
Rp261
(I3
S'|'
p262
NNNI4
I1
I0
tp263
bS'bean'
p264
tp265
Rp266
I2
I1
tp267
a(g4
(g5
(S'S4'
p268
I0
I1
tp269
Rp270
(I3
S'|'
p271
NNNI4
I1
I0
tp272
bS'long'
p273
tp274
Rp275
I27
I0
tp276
aa(lp277
(S'object'
p278
S'container'
p279
I01
tp280
a(S'must'
p281
S'can'
p282
I00
tp283
aa.