(lp0
(lp1
(dp2
S'action'
p3
cnumpy.core.multiarray
scalar
p4
(cnumpy
dtype
p5
(S'S4'
p6
I0
I1
tp7
Rp8
(I3
S'|'
p9
NNNI4
I1
I0
tp10
bS'walk'
p11
tp12
Rp13
sS'recipient'
p14
NsS'patient'
p15
NsS'goal'
p16
S'3430'
p17
sS'source'
p18
Nsaa(lp19
(dp20
S'all'
p21
(lp22
S'v'
p23
asg15
(lp24
sg16
(lp25
S'go to office r'
p26
aS'go to office r'
p27
aS"go to dr sybil smalt 's office"
p28
asg18
(lp29
sg3
(lp30
sg14
(lp31
saa(lp32
(g4
(g5
(S'S9'
p33
I0
I1
tp34
Rp35
(I3
S'|'
p36
NNNI9
I1
I0
tp37
bS'styrofoam'
p38
tp39
Rp40
I10
I0
tp41
a(g40
I3
I0
tp42
a(g40
I27
I0
tp43
a(g40
I7
I0
tp44
a(g40
I18
I0
tp45
a(g40
I2
I0
tp46
a(g40
I20
I0
tp47
a(g40
I17
I0
tp48
a(g4
(g5
(S'S3'
p49
I0
I1
tp50
Rp51
(I3
S'|'
p52
NNNI3
I1
I0
tp53
bS'can'
p54
tp55
Rp56
I2
I1
tp57
a(g4
(g5
(S'S6'
p58
I0
I1
tp59
Rp60
(I3
S'|'
p61
NNNI6
I1
I0
tp62
bS'coffee'
p63
tp64
Rp65
I10
I0
tp66
a(g65
I3
I0
tp67
a(g65
I27
I0
tp68
a(g65
I7
I0
tp69
a(g65
I18
I0
tp70
a(g65
I2
I0
tp71
a(g65
I20
I0
tp72
a(g65
I17
I0
tp73
a(g4
(g5
(S'S5'
p74
I0
I1
tp75
Rp76
(I3
S'|'
p77
NNNI5
I1
I0
tp78
bS'block'
p79
tp80
Rp81
I10
I0
tp82
a(g81
I3
I0
tp83
a(g81
I27
I0
tp84
a(g81
I7
I0
tp85
a(g81
I18
I0
tp86
a(g81
I2
I0
tp87
a(g81
I20
I0
tp88
a(g81
I17
I0
tp89
a(g4
(g5
(S'S6'
p90
I0
I1
tp91
Rp92
(I3
S'|'
p93
NNNI6
I1
I0
tp94
bS'yellow'
p95
tp96
Rp97
I10
I0
tp98
a(g97
I3
I0
tp99
a(g97
I27
I0
tp100
a(g97
I7
I0
tp101
a(g97
I18
I0
tp102
a(g97
I2
I0
tp103
a(g97
I20
I0
tp104
a(g97
I17
I0
tp105
aa(lp106
a.