(lp0
(lp1
(dp2
S'action'
p3
cnumpy.core.multiarray
scalar
p4
(cnumpy
dtype
p5
(S'S4'
p6
I0
I1
tp7
Rp8
(I3
S'|'
p9
NNNI4
I1
I0
tp10
bS'walk'
p11
tp12
Rp13
sS'recipient'
p14
NsS'patient'
p15
NsS'goal'
p16
S'3414b'
p17
sS'source'
p18
Nsa(dp19
g3
g4
(g5
(S'S5'
p20
I0
I1
tp21
Rp22
(I3
S'|'
p23
NNNI5
I1
I0
tp24
bS'bring'
p25
tp26
Rp27
sg14
S'h'
p28
sg15
S'oidx_26'
p29
sg16
Nsg18
Nsaa(lp30
(dp31
S'all'
p32
(lp33
S'you should reach the lab which has big area which is next to kitchen'
p34
asg15
(lp35
sg16
(lp36
S'lab opposite to dr sybil smalt'
p37
aS'lab'
p38
aS'to lab'
p39
aS'lab'
p40
asg18
(lp41
sg3
(lp42
sg14
(lp43
sa(dp44
g32
(lp45
S'bring to me the blue pringles'
p46
asg15
(lp47
S'blue pringles'
p48
aS'blue tin'
p49
aS'blue colored container'
p50
aS'blue'
p51
aS'blue box'
p52
asg16
(lp53
sg18
(lp54
sg3
(lp55
sg14
(lp56
saa(lp57
(g4
(g5
(S'S4'
p58
I0
I1
tp59
Rp60
(I3
S'|'
p61
NNNI4
I1
I0
tp62
bS'blue'
p63
tp64
Rp65
I7
I1
tp66
a(g4
(g5
(S'S5'
p67
I0
I1
tp68
Rp69
(I3
S'|'
p70
NNNI5
I1
I0
tp71
bS'empty'
p72
tp73
Rp74
I10
I1
tp75
a(g4
(g5
(S'S6'
p76
I0
I1
tp77
Rp78
(I3
S'|'
p79
NNNI6
I1
I0
tp80
bS'coffee'
p81
tp82
Rp83
I2
I1
tp84
a(g4
(g5
(S'S5'
p85
I0
I1
tp86
Rp87
(I3
S'|'
p88
NNNI5
I1
I0
tp89
bS'spice'
p90
tp91
Rp92
I10
I1
tp93
a(g4
(g5
(S'S5'
p94
I0
I1
tp95
Rp96
(I3
S'|'
p97
NNNI5
I1
I0
tp98
bS'spice'
p99
tp100
Rp101
I3
I0
tp102
a(g4
(g5
(S'S8'
p103
I0
I1
tp104
Rp105
(I3
S'|'
p106
NNNI8
I1
I0
tp107
bS'pringles'
p108
tp109
Rp110
I10
I0
tp111
a(g110
I3
I0
tp112
a(g110
I27
I0
tp113
a(g110
I7
I0
tp114
a(g110
I18
I0
tp115
a(g110
I2
I0
tp116
a(g110
I20
I0
tp117
a(g110
I17
I0
tp118
a(g4
(g5
(S'S4'
p119
I0
I1
tp120
Rp121
(I3
S'|'
p122
NNNI4
I1
I0
tp123
bS'blue'
p124
tp125
Rp126
I3
I0
tp127
a(g4
(g5
(S'S4'
p128
I0
I1
tp129
Rp130
(I3
S'|'
p131
NNNI4
I1
I0
tp132
bS'blue'
p133
tp134
Rp135
I18
I1
tp136
a(g4
(g5
(S'S4'
p137
I0
I1
tp138
Rp139
(I3
S'|'
p140
NNNI4
I1
I0
tp141
bS'blue'
p142
tp143
Rp144
I3
I0
tp145
a(g4
(g5
(S'S4'
p146
I0
I1
tp147
Rp148
(I3
S'|'
p149
NNNI4
I1
I0
tp150
bS'blue'
p151
tp152
Rp153
I18
I1
tp154
aa(lp155
(S'colored'
p156
S'white'
p157
I00
tp158
a(g156
S'yellow'
p159
I00
tp160
a(g156
S'blue'
p161
I00
tp162
a(S'box'
p163
S'container'
p164
I01
tp165
aa.