(lp0
(lp1
(dp2
S'action'
p3
cnumpy.core.multiarray
scalar
p4
(cnumpy
dtype
p5
(S'S4'
p6
I0
I1
tp7
Rp8
(I3
S'|'
p9
NNNI4
I1
I0
tp10
bS'walk'
p11
tp12
Rp13
sS'recipient'
p14
NsS'patient'
p15
NsS'goal'
p16
g4
(g5
(S'S4'
p17
I0
I1
tp18
Rp19
(I3
S'|'
p20
NNNI4
I1
I0
tp21
bS'3502'
p22
tp23
Rp24
sS'source'
p25
Nsa(dp26
g3
g4
(g5
(S'S4'
p27
I0
I1
tp28
Rp29
(I3
S'|'
p30
NNNI4
I1
I0
tp31
bS'move'
p32
tp33
Rp34
sg14
Nsg15
S'oidx_6'
p35
sg16
g4
(g5
(S'S4'
p36
I0
I1
tp37
Rp38
(I3
S'|'
p39
NNNI4
I1
I0
tp40
bS'3512'
p41
tp42
Rp43
sg25
S'3430'
p44
sa(dp45
g3
g4
(g5
(S'S4'
p46
I0
I1
tp47
Rp48
(I3
S'|'
p49
NNNI4
I1
I0
tp50
bS'move'
p51
tp52
Rp53
sg14
Nsg15
g4
(g5
(S'S7'
p54
I0
I1
tp55
Rp56
(I3
S'|'
p57
NNNI7
I1
I0
tp58
bS'oidx_13'
p59
tp60
Rp61
sg16
g4
(g5
(S'S4'
p62
I0
I1
tp63
Rp64
(I3
S'|'
p65
NNNI4
I1
I0
tp66
bS'3508'
p67
tp68
Rp69
sg25
g4
(g5
(S'S4'
p70
I0
I1
tp71
Rp72
(I3
S'|'
p73
NNNI4
I1
I0
tp74
bS'3402'
p75
tp76
Rp77
saa(lp78
(dp79
S'all'
p80
(lp81
S'go to office m'
p82
asg15
(lp83
sg16
(lp84
S'go to the office of mallory mal maroon'
p85
asg25
(lp86
sg3
(lp87
sg14
(lp88
sa(dp89
g80
(lp90
S'take the container to richard'
p91
asg15
(lp92
S'the white bottle'
p93
aS'the white container with the red label'
p94
aS'white cylinder'
p95
asg16
(lp96
S'to the office of richard rogue'
p97
asg25
(lp98
S'the table'
p99
aS'from the white rectangle'
p100
asg3
(lp101
sg14
(lp102
sa(dp103
g80
(lp104
S'move the blue cylinder from the office of dr heidi hughes to the office of peggy parker'
p105
asg15
(lp106
S'move the blue cylinder'
p107
aS'the blue cylinder'
p108
aS'the blue can'
p109
asg16
(lp110
sg25
(lp111
sg3
(lp112
sg14
(lp113
saa(lp114
(g4
(g5
(S'S6'
p115
I0
I1
tp116
Rp117
(I3
S'|'
p118
NNNI6
I1
I0
tp119
bS'coffee'
p120
tp121
Rp122
I2
I1
tp123
a(g4
(g5
(S'S5'
p124
I0
I1
tp125
Rp126
(I3
S'|'
p127
NNNI5
I1
I0
tp128
bS'tower'
p129
tp130
Rp131
I10
I0
tp132
a(g131
I3
I0
tp133
a(g131
I27
I0
tp134
a(g131
I7
I0
tp135
a(g131
I18
I0
tp136
a(g131
I2
I0
tp137
a(g131
I20
I0
tp138
a(g131
I17
I0
tp139
a(g4
(g5
(S'S9'
p140
I0
I1
tp141
Rp142
(I3
S'|'
p143
NNNI9
I1
I0
tp144
bS'container'
p145
tp146
Rp147
I18
I1
tp148
a(g4
(g5
(S'S5'
p149
I0
I1
tp150
Rp151
(I3
S'|'
p152
NNNI5
I1
I0
tp153
bS'block'
p154
tp155
Rp156
I10
I0
tp157
a(g156
I3
I0
tp158
a(g156
I27
I0
tp159
a(g156
I7
I0
tp160
a(g156
I18
I0
tp161
a(g156
I2
I0
tp162
a(g156
I20
I0
tp163
a(g156
I17
I0
tp164
a(g4
(g5
(S'S4'
p165
I0
I1
tp166
Rp167
(I3
S'|'
p168
NNNI4
I1
I0
tp169
bS'bean'
p170
tp171
Rp172
I10
I0
tp173
a(g172
I3
I0
tp174
a(g172
I27
I0
tp175
a(g172
I7
I0
tp176
a(g172
I18
I0
tp177
a(g172
I2
I0
tp178
a(g172
I20
I0
tp179
a(g172
I17
I0
tp180
a(g4
(g5
(S'S9'
p181
I0
I1
tp182
Rp183
(I3
S'|'
p184
NNNI9
I1
I0
tp185
bS'rectangle'
p186
tp187
Rp188
I10
I0
tp189
a(g188
I3
I0
tp190
a(g188
I27
I0
tp191
a(g188
I7
I0
tp192
a(g188
I18
I0
tp193
a(g188
I2
I0
tp194
a(g188
I20
I0
tp195
a(g188
I17
I0
tp196
a(g4
(g5
(S'S5'
p197
I0
I1
tp198
Rp199
(I3
S'|'
p200
NNNI5
I1
I0
tp201
bS'spice'
p202
tp203
Rp204
I10
I0
tp205
a(g204
I3
I0
tp206
a(g204
I27
I0
tp207
a(g204
I7
I0
tp208
a(g204
I18
I0
tp209
a(g204
I2
I0
tp210
a(g204
I20
I0
tp211
a(g204
I17
I0
tp212
a(g4
(g5
(S'S8'
p213
I0
I1
tp214
Rp215
(I3
S'|'
p216
NNNI8
I1
I0
tp217
bS'cylinder'
p218
tp219
Rp220
I3
I1
tp221
a(g4
(g5
(S'S6'
p222
I0
I1
tp223
Rp224
(I3
S'|'
p225
NNNI6
I1
I0
tp226
bS'coffee'
p227
tp228
Rp229
I7
I0
tp230
a(g4
(g5
(S'S5'
p231
I0
I1
tp232
Rp233
(I3
S'|'
p234
NNNI5
I1
I0
tp235
bS'peach'
p236
tp237
Rp238
I27
I1
tp239
a(g4
(g5
(S'S4'
p240
I0
I1
tp241
Rp242
(I3
S'|'
p243
NNNI4
I1
I0
tp244
bS'blue'
p245
tp246
Rp247
I18
I1
tp248
a(g4
(g5
(S'S4'
p249
I0
I1
tp250
Rp251
(I3
S'|'
p252
NNNI4
I1
I0
tp253
bS'blue'
p254
tp255
Rp256
I2
I0
tp257
a(g4
(g5
(S'S8'
p258
I0
I1
tp259
Rp260
(I3
S'|'
p261
NNNI8
I1
I0
tp262
bS'cylinder'
p263
tp264
Rp265
I27
I0
tp266
a(g4
(g5
(S'S8'
p267
I0
I1
tp268
Rp269
(I3
S'|'
p270
NNNI8
I1
I0
tp271
bS'cylinder'
p272
tp273
Rp274
I3
I1
tp275
a(g4
(g5
(S'S4'
p276
I0
I1
tp277
Rp278
(I3
S'|'
p279
NNNI4
I1
I0
tp280
bS'blue'
p281
tp282
Rp283
I18
I1
tp284
aa(lp285
(S'maroon'
p286
S'white'
p287
I00
tp288
a(g286
S'yellow'
p289
I00
tp290
a(g286
S'blue'
p291
I00
tp292
a(S'red'
p293
g287
I00
tp294
a(g293
g289
I00
tp295
a(g293
g291
I00
tp296
aa.