(lp0
(lp1
(dp2
S'action'
p3
cnumpy.core.multiarray
scalar
p4
(cnumpy
dtype
p5
(S'S4'
p6
I0
I1
tp7
Rp8
(I3
S'|'
p9
NNNI4
I1
I0
tp10
bS'walk'
p11
tp12
Rp13
sS'recipient'
p14
NsS'patient'
p15
NsS'goal'
p16
S'3510'
p17
sS'source'
p18
Nsa(dp19
g3
g4
(g5
(S'S5'
p20
I0
I1
tp21
Rp22
(I3
S'|'
p23
NNNI5
I1
I0
tp24
bS'bring'
p25
tp26
Rp27
sg14
g4
(g5
(S'S1'
p28
I0
I1
tp29
Rp30
(I3
S'|'
p31
NNNI1
I1
I0
tp32
bS'b'
p33
tp34
Rp35
sg15
g4
(g5
(S'S7'
p36
I0
I1
tp37
Rp38
(I3
S'|'
p39
NNNI7
I1
I0
tp40
bS'oidx_22'
p41
tp42
Rp43
sg16
Nsg18
Nsaa(lp44
(dp45
S'all'
p46
(lp47
S'go to the office of b'
p48
asg15
(lp49
sg16
(lp50
S'go to the office of b'
p51
asg18
(lp52
sg3
(lp53
sg14
(lp54
sa(dp55
g46
(lp56
S'give b the spice container'
p57
asg15
(lp58
S'a spice container with maroon cap'
p59
aS'a transparent container'
p60
asg16
(lp61
sg18
(lp62
sg3
(lp63
sg14
(lp64
S'to person b'
p65
aS'b'
p66
aS'robert bob brown'
p67
aS'deliver to b'
p68
aS'person b'
p69
aS'to robert b'
p70
asaa(lp71
(g4
(g5
(S'S8'
p72
I0
I1
tp73
Rp74
(I3
S'|'
p75
NNNI8
I1
I0
tp76
bS'metallic'
p77
tp78
Rp79
I10
I0
tp80
a(g79
I3
I0
tp81
a(g79
I27
I0
tp82
a(g79
I7
I0
tp83
a(g79
I18
I0
tp84
a(g79
I2
I0
tp85
a(g79
I20
I0
tp86
a(g79
I17
I0
tp87
a(g4
(g5
(S'S9'
p88
I0
I1
tp89
Rp90
(I3
S'|'
p91
NNNI9
I1
I0
tp92
bS'container'
p93
tp94
Rp95
I2
I1
tp96
a(g4
(g5
(S'S5'
p97
I0
I1
tp98
Rp99
(I3
S'|'
p100
NNNI5
I1
I0
tp101
bS'spice'
p102
tp103
Rp104
I10
I0
tp105
a(g104
I3
I0
tp106
a(g104
I27
I0
tp107
a(g104
I7
I0
tp108
a(g104
I18
I0
tp109
a(g104
I2
I0
tp110
a(g104
I20
I0
tp111
a(g104
I17
I0
tp112
a(g4
(g5
(S'S8'
p113
I0
I1
tp114
Rp115
(I3
S'|'
p116
NNNI8
I1
I0
tp117
bS'cylinder'
p118
tp119
Rp120
I3
I1
tp121
a(g4
(g5
(S'S8'
p122
I0
I1
tp123
Rp124
(I3
S'|'
p125
NNNI8
I1
I0
tp126
bS'cylinder'
p127
tp128
Rp129
I27
I0
tp130
a(g4
(g5
(S'S9'
p131
I0
I1
tp132
Rp133
(I3
S'|'
p134
NNNI9
I1
I0
tp135
bS'container'
p136
tp137
Rp138
I27
I0
tp139
a(g4
(g5
(S'S9'
p140
I0
I1
tp141
Rp142
(I3
S'|'
p143
NNNI9
I1
I0
tp144
bS'container'
p145
tp146
Rp147
I2
I1
tp148
a(g4
(g5
(S'S9'
p149
I0
I1
tp150
Rp151
(I3
S'|'
p152
NNNI9
I1
I0
tp153
bS'container'
p154
tp155
Rp156
I20
I0
tp157
a(g4
(g5
(S'S9'
p158
I0
I1
tp159
Rp160
(I3
S'|'
p161
NNNI9
I1
I0
tp162
bS'container'
p163
tp164
Rp165
I10
I1
tp166
a(g4
(g5
(S'S9'
p167
I0
I1
tp168
Rp169
(I3
S'|'
p170
NNNI9
I1
I0
tp171
bS'container'
p172
tp173
Rp174
I18
I0
tp175
aa(lp176
(S'maroon'
p177
S'white'
p178
I01
tp179
a(S'transparent'
p180
S'clear'
p181
I01
tp182
a(S'brown'
p183
g178
I01
tp184
aa.