(lp0
(lp1
(dp2
S'action'
p3
cnumpy.core.multiarray
scalar
p4
(cnumpy
dtype
p5
(S'S4'
p6
I0
I1
tp7
Rp8
(I3
S'|'
p9
NNNI4
I1
I0
tp10
bS'walk'
p11
tp12
Rp13
sS'recipient'
p14
NsS'patient'
p15
NsS'goal'
p16
g4
(g5
(S'S4'
p17
I0
I1
tp18
Rp19
(I3
S'|'
p20
NNNI4
I1
I0
tp21
bS'3436'
p22
tp23
Rp24
sS'source'
p25
Nsa(dp26
g3
g4
(g5
(S'S5'
p27
I0
I1
tp28
Rp29
(I3
S'|'
p30
NNNI5
I1
I0
tp31
bS'bring'
p32
tp33
Rp34
sg14
S's'
p35
sg15
S'oidx_6'
p36
sg16
Nsg25
Nsa(dp37
g3
g4
(g5
(S'S4'
p38
I0
I1
tp39
Rp40
(I3
S'|'
p41
NNNI4
I1
I0
tp42
bS'move'
p43
tp44
Rp45
sg14
Nsg15
S'oidx_13'
p46
sg16
S'3404'
p47
sg25
S'3414b'
p48
saa(lp49
(dp50
S'all'
p51
(lp52
S'go to the lab and circle around it twice'
p53
asg15
(lp54
sg16
(lp55
S'the lab'
p56
aS'the lab'
p57
aS'go to the lab'
p58
asg25
(lp59
sg3
(lp60
sg14
(lp61
sa(dp62
g51
(lp63
S'pick up the soda can and take it to peggy parker'
p64
asg15
(lp65
S'the cylinder object'
p66
aS'nothing'
p67
aS'nothing'
p68
aS'nothing'
p69
aS'nothing'
p70
aS'perhaps some intelligence'
p71
asg16
(lp72
sg25
(lp73
sg3
(lp74
sg14
(lp75
sa(dp76
g51
(lp77
S'pick up container in office and take to center located lab'
p78
asg15
(lp79
S'container'
p80
asg16
(lp81
S'the office next to s'
p82
aS'go to last office to the left pick up the container and take it to the middle lab'
p83
aS'the other lab next to it'
p84
aS'the last office at the other end'
p85
aS'the last office to the large middle lab'
p86
aS'next door'
p87
asg25
(lp88
S'the office west of s to the lab west of the printer'
p89
asg3
(lp90
sg14
(lp91
saa(lp92
(g4
(g5
(S'S8'
p93
I0
I1
tp94
Rp95
(I3
S'|'
p96
NNNI8
I1
I0
tp97
bS'pringles'
p98
tp99
Rp100
I2
I1
tp101
a(g4
(g5
(S'S6'
p102
I0
I1
tp103
Rp104
(I3
S'|'
p105
NNNI6
I1
I0
tp106
bS'yellow'
p107
tp108
Rp109
I27
I1
tp110
a(g4
(g5
(S'S4'
p111
I0
I1
tp112
Rp113
(I3
S'|'
p114
NNNI4
I1
I0
tp115
bS'bean'
p116
tp117
Rp118
I10
I1
tp119
a(g4
(g5
(S'S8'
p120
I0
I1
tp121
Rp122
(I3
S'|'
p123
NNNI8
I1
I0
tp124
bS'pringles'
p125
tp126
Rp127
I3
I0
tp128
a(g4
(g5
(S'S9'
p129
I0
I1
tp130
Rp131
(I3
S'|'
p132
NNNI9
I1
I0
tp133
bS'rectangle'
p134
tp135
Rp136
I2
I1
tp137
a(g4
(g5
(S'S9'
p138
I0
I1
tp139
Rp140
(I3
S'|'
p141
NNNI9
I1
I0
tp142
bS'container'
p143
tp144
Rp145
I10
I1
tp146
a(g4
(g5
(S'S9'
p147
I0
I1
tp148
Rp149
(I3
S'|'
p150
NNNI9
I1
I0
tp151
bS'container'
p152
tp153
Rp154
I3
I0
tp155
a(g4
(g5
(S'S9'
p156
I0
I1
tp157
Rp158
(I3
S'|'
p159
NNNI9
I1
I0
tp160
bS'container'
p161
tp162
Rp163
I18
I1
tp164
a(g4
(g5
(S'S9'
p165
I0
I1
tp166
Rp167
(I3
S'|'
p168
NNNI9
I1
I0
tp169
bS'container'
p170
tp171
Rp172
I20
I0
tp173
a(g4
(g5
(S'S9'
p174
I0
I1
tp175
Rp176
(I3
S'|'
p177
NNNI9
I1
I0
tp178
bS'container'
p179
tp180
Rp181
I27
I0
tp182
a(g4
(g5
(S'S4'
p183
I0
I1
tp184
Rp185
(I3
S'|'
p186
NNNI4
I1
I0
tp187
bS'long'
p188
tp189
Rp190
I20
I1
tp191
a(g4
(g5
(S'S6'
p192
I0
I1
tp193
Rp194
(I3
S'|'
p195
NNNI6
I1
I0
tp196
bS'coffee'
p197
tp198
Rp199
I10
I0
tp200
a(g199
I3
I0
tp201
a(g199
I27
I0
tp202
a(g199
I7
I0
tp203
a(g199
I18
I0
tp204
a(g199
I2
I0
tp205
a(g199
I20
I0
tp206
a(g199
I17
I0
tp207
a(g4
(g5
(S'S6'
p208
I0
I1
tp209
Rp210
(I3
S'|'
p211
NNNI6
I1
I0
tp212
bS'yellow'
p213
tp214
Rp215
I10
I0
tp216
a(g4
(g5
(S'S9'
p217
I0
I1
tp218
Rp219
(I3
S'|'
p220
NNNI9
I1
I0
tp221
bS'rectangle'
p222
tp223
Rp224
I27
I0
tp225
a(g4
(g5
(S'S5'
p226
I0
I1
tp227
Rp228
(I3
S'|'
p229
NNNI5
I1
I0
tp230
bS'block'
p231
tp232
Rp233
I10
I0
tp234
a(g233
I3
I0
tp235
a(g233
I27
I0
tp236
a(g233
I7
I0
tp237
a(g233
I18
I0
tp238
a(g233
I2
I0
tp239
a(g233
I20
I0
tp240
a(g233
I17
I0
tp241
aa(lp242
(S'circle'
p243
S'blue'
p244
I00
tp245
a(S'soda'
p246
S'peaches'
p247
I00
tp248
a(g246
S'bean'
p249
I00
tp250
a(g246
S'coffee'
p251
I00
tp252
a(S'object'
p253
S'container'
p254
I01
tp255
a(S'large'
p256
S'white'
p257
I00
tp258
aa.