(lp0
(lp1
(dp2
S'action'
p3
cnumpy.core.multiarray
scalar
p4
(cnumpy
dtype
p5
(S'S4'
p6
I0
I1
tp7
Rp8
(I3
S'|'
p9
NNNI4
I1
I0
tp10
bS'walk'
p11
tp12
Rp13
sS'recipient'
p14
NsS'patient'
p15
NsS'goal'
p16
g4
(g5
(S'S4'
p17
I0
I1
tp18
Rp19
(I3
S'|'
p20
NNNI4
I1
I0
tp21
bS'3510'
p22
tp23
Rp24
sS'source'
p25
Nsa(dp26
g3
g4
(g5
(S'S5'
p27
I0
I1
tp28
Rp29
(I3
S'|'
p30
NNNI5
I1
I0
tp31
bS'bring'
p32
tp33
Rp34
sg14
g4
(g5
(S'S1'
p35
I0
I1
tp36
Rp37
(I3
S'|'
p38
NNNI1
I1
I0
tp39
bS'd'
p40
tp41
Rp42
sg15
S'oidx_13'
p43
sg16
Nsg25
Nsa(dp44
g3
g4
(g5
(S'S5'
p45
I0
I1
tp46
Rp47
(I3
S'|'
p48
NNNI5
I1
I0
tp49
bS'bring'
p50
tp51
Rp52
sg14
S'b'
p53
sg15
S'oidx_28'
p54
sg16
Nsg25
Nsaa(lp55
(dp56
S'all'
p57
(lp58
S"go to robert bob brown 's office"
p59
asg15
(lp60
sg16
(lp61
sg25
(lp62
sg3
(lp63
sg14
(lp64
sa(dp65
g57
(lp66
S"bring the object to david daniel 's office"
p67
asg15
(lp68
S'a container of seasoning'
p69
asg16
(lp70
sg25
(lp71
sg3
(lp72
sg14
(lp73
S'david'
p74
asa(dp75
g57
(lp76
S"deliver the styrofoam block to the bob 's office"
p77
asg15
(lp78
S'styrofoam block'
p79
aS'white styrofoam block'
p80
aS'long block'
p81
aS'white long block'
p82
aS'long block'
p83
asg16
(lp84
sg25
(lp85
sg3
(lp86
sg14
(lp87
S'office b'
p88
aS'bob'
p89
asaa(lp90
(g4
(g5
(S'S5'
p91
I0
I1
tp92
Rp93
(I3
S'|'
p94
NNNI5
I1
I0
tp95
bS'empty'
p96
tp97
Rp98
I3
I1
tp99
a(g4
(g5
(S'S4'
p100
I0
I1
tp101
Rp102
(I3
S'|'
p103
NNNI4
I1
I0
tp104
bS'long'
p105
tp106
Rp107
I3
I1
tp108
a(g4
(g5
(S'S5'
p109
I0
I1
tp110
Rp111
(I3
S'|'
p112
NNNI5
I1
I0
tp113
bS'empty'
p114
tp115
Rp116
I10
I0
tp117
a(g4
(g5
(S'S4'
p118
I0
I1
tp119
Rp120
(I3
S'|'
p121
NNNI4
I1
I0
tp122
bS'bean'
p123
tp124
Rp125
I10
I0
tp126
a(g125
I3
I0
tp127
a(g125
I27
I0
tp128
a(g125
I7
I0
tp129
a(g125
I18
I0
tp130
a(g125
I2
I0
tp131
a(g125
I20
I0
tp132
a(g125
I17
I0
tp133
a(g4
(g5
(S'S9'
p134
I0
I1
tp135
Rp136
(I3
S'|'
p137
NNNI9
I1
I0
tp138
bS'styrofoam'
p139
tp140
Rp141
I20
I1
tp142
a(g4
(g5
(S'S9'
p143
I0
I1
tp144
Rp145
(I3
S'|'
p146
NNNI9
I1
I0
tp147
bS'container'
p148
tp149
Rp150
I2
I1
tp151
a(g4
(g5
(S'S9'
p152
I0
I1
tp153
Rp154
(I3
S'|'
p155
NNNI9
I1
I0
tp156
bS'container'
p157
tp158
Rp159
I27
I0
tp160
a(g4
(g5
(S'S9'
p161
I0
I1
tp162
Rp163
(I3
S'|'
p164
NNNI9
I1
I0
tp165
bS'container'
p166
tp167
Rp168
I7
I1
tp169
a(g4
(g5
(S'S9'
p170
I0
I1
tp171
Rp172
(I3
S'|'
p173
NNNI9
I1
I0
tp174
bS'container'
p175
tp176
Rp177
I3
I0
tp178
a(g4
(g5
(S'S9'
p179
I0
I1
tp180
Rp181
(I3
S'|'
p182
NNNI9
I1
I0
tp183
bS'container'
p184
tp185
Rp186
I17
I1
tp187
a(g4
(g5
(S'S5'
p188
I0
I1
tp189
Rp190
(I3
S'|'
p191
NNNI5
I1
I0
tp192
bS'empty'
p193
tp194
Rp195
I3
I1
tp196
a(g4
(g5
(S'S5'
p197
I0
I1
tp198
Rp199
(I3
S'|'
p200
NNNI5
I1
I0
tp201
bS'block'
p202
tp203
Rp204
I10
I0
tp205
a(g204
I3
I0
tp206
a(g204
I27
I0
tp207
a(g204
I7
I0
tp208
a(g204
I18
I0
tp209
a(g204
I2
I0
tp210
a(g204
I20
I0
tp211
a(g204
I17
I0
tp212
a(g4
(g5
(S'S6'
p213
I0
I1
tp214
Rp215
(I3
S'|'
p216
NNNI6
I1
I0
tp217
bS'coffee'
p218
tp219
Rp220
I2
I1
tp221
a(g4
(g5
(S'S8'
p222
I0
I1
tp223
Rp224
(I3
S'|'
p225
NNNI8
I1
I0
tp226
bS'metallic'
p227
tp228
Rp229
I10
I0
tp230
a(g229
I3
I0
tp231
a(g229
I27
I0
tp232
a(g229
I7
I0
tp233
a(g229
I18
I0
tp234
a(g229
I2
I0
tp235
a(g229
I20
I0
tp236
a(g229
I17
I0
tp237
a(g4
(g5
(S'S4'
p238
I0
I1
tp239
Rp240
(I3
S'|'
p241
NNNI4
I1
I0
tp242
bS'long'
p243
tp244
Rp245
I27
I0
tp246
aa(lp247
(S'object'
p248
S'container'
p249
I01
tp250
a(S'seasoning'
p251
S'spice'
p252
I01
tp253
aa.