(lp0
(lp1
(dp2
S'action'
p3
cnumpy.core.multiarray
scalar
p4
(cnumpy
dtype
p5
(S'S4'
p6
I0
I1
tp7
Rp8
(I3
S'|'
p9
NNNI4
I1
I0
tp10
bS'walk'
p11
tp12
Rp13
sS'recipient'
p14
NsS'patient'
p15
NsS'goal'
p16
S'3432'
p17
sS'source'
p18
Nsa(dp19
g3
g4
(g5
(S'S4'
p20
I0
I1
tp21
Rp22
(I3
S'|'
p23
NNNI4
I1
I0
tp24
bS'move'
p25
tp26
Rp27
sg14
Nsg15
S'oidx_25'
p28
sg16
S'3408'
p29
sg18
S'3422'
p30
saa(lp31
(dp32
S'all'
p33
(lp34
S'go'
p35
asg15
(lp36
sg16
(lp37
S'pod'
p38
asg18
(lp39
sg3
(lp40
sg14
(lp41
sa(dp42
g33
(lp43
S'grab'
p44
asg15
(lp45
S'spice'
p46
aS'grey'
p47
aS'grey'
p48
aS'grey'
p49
asg16
(lp50
S'office'
p51
asg18
(lp52
S'right'
p53
aS'yes'
p54
asg3
(lp55
sg14
(lp56
saa(lp57
(g4
(g5
(S'S5'
p58
I0
I1
tp59
Rp60
(I3
S'|'
p61
NNNI5
I1
I0
tp62
bS'clear'
p63
tp64
Rp65
I10
I0
tp66
a(g65
I3
I0
tp67
a(g65
I27
I0
tp68
a(g65
I7
I0
tp69
a(g65
I18
I0
tp70
a(g65
I2
I0
tp71
a(g65
I20
I0
tp72
a(g65
I17
I0
tp73
a(g4
(g5
(S'S6'
p74
I0
I1
tp75
Rp76
(I3
S'|'
p77
NNNI6
I1
I0
tp78
bS'yellow'
p79
tp80
Rp81
I10
I0
tp82
a(g81
I3
I0
tp83
a(g81
I27
I0
tp84
a(g81
I7
I0
tp85
a(g81
I18
I0
tp86
a(g81
I2
I0
tp87
a(g81
I20
I0
tp88
a(g81
I17
I0
tp89
a(g4
(g5
(S'S5'
p90
I0
I1
tp91
Rp92
(I3
S'|'
p93
NNNI5
I1
I0
tp94
bS'peach'
p95
tp96
Rp97
I27
I1
tp98
a(g4
(g5
(S'S3'
p99
I0
I1
tp100
Rp101
(I3
S'|'
p102
NNNI3
I1
I0
tp103
bS'can'
p104
tp105
Rp106
I10
I0
tp107
a(g106
I3
I0
tp108
a(g106
I27
I0
tp109
a(g106
I7
I0
tp110
a(g106
I18
I0
tp111
a(g106
I2
I0
tp112
a(g106
I20
I0
tp113
a(g106
I17
I0
tp114
a(g4
(g5
(S'S5'
p115
I0
I1
tp116
Rp117
(I3
S'|'
p118
NNNI5
I1
I0
tp119
bS'block'
p120
tp121
Rp122
I10
I0
tp123
a(g122
I3
I0
tp124
a(g122
I27
I0
tp125
a(g122
I7
I0
tp126
a(g122
I18
I0
tp127
a(g122
I2
I0
tp128
a(g122
I20
I0
tp129
a(g122
I17
I0
tp130
a(g4
(g5
(S'S5'
p131
I0
I1
tp132
Rp133
(I3
S'|'
p134
NNNI5
I1
I0
tp135
bS'spice'
p136
tp137
Rp138
I10
I0
tp139
a(g138
I3
I0
tp140
a(g138
I27
I0
tp141
a(g138
I7
I0
tp142
a(g138
I18
I0
tp143
a(g138
I2
I0
tp144
a(g138
I20
I0
tp145
a(g138
I17
I0
tp146
a(g4
(g5
(S'S9'
p147
I0
I1
tp148
Rp149
(I3
S'|'
p150
NNNI9
I1
I0
tp151
bS'container'
p152
tp153
Rp154
I2
I1
tp155
a(g4
(g5
(S'S8'
p156
I0
I1
tp157
Rp158
(I3
S'|'
p159
NNNI8
I1
I0
tp160
bS'cylinder'
p161
tp162
Rp163
I10
I0
tp164
a(g163
I3
I0
tp165
a(g163
I27
I0
tp166
a(g163
I7
I0
tp167
a(g163
I18
I0
tp168
a(g163
I2
I0
tp169
a(g163
I20
I0
tp170
a(g163
I17
I0
tp171
a(g4
(g5
(S'S5'
p172
I0
I1
tp173
Rp174
(I3
S'|'
p175
NNNI5
I1
I0
tp176
bS'tower'
p177
tp178
Rp179
I7
I1
tp180
a(g4
(g5
(S'S9'
p181
I0
I1
tp182
Rp183
(I3
S'|'
p184
NNNI9
I1
I0
tp185
bS'rectangle'
p186
tp187
Rp188
I10
I0
tp189
a(g188
I3
I0
tp190
a(g188
I27
I0
tp191
a(g188
I7
I0
tp192
a(g188
I18
I0
tp193
a(g188
I2
I0
tp194
a(g188
I20
I0
tp195
a(g188
I17
I0
tp196
aa(lp197
a.