(lp0
(lp1
(dp2
S'action'
p3
cnumpy.core.multiarray
scalar
p4
(cnumpy
dtype
p5
(S'S4'
p6
I0
I1
tp7
Rp8
(I3
S'|'
p9
NNNI4
I1
I0
tp10
bS'walk'
p11
tp12
Rp13
sS'recipient'
p14
NsS'patient'
p15
NsS'goal'
p16
g4
(g5
(S'S4'
p17
I0
I1
tp18
Rp19
(I3
S'|'
p20
NNNI4
I1
I0
tp21
bS'3518'
p22
tp23
Rp24
sS'source'
p25
Nsa(dp26
g3
g4
(g5
(S'S4'
p27
I0
I1
tp28
Rp29
(I3
S'|'
p30
NNNI4
I1
I0
tp31
bS'walk'
p32
tp33
Rp34
sg14
Nsg15
Nsg16
g4
(g5
(S'S4'
p35
I0
I1
tp36
Rp37
(I3
S'|'
p38
NNNI4
I1
I0
tp39
bS'3510'
p40
tp41
Rp42
sg25
Nsa(dp43
g3
g4
(g5
(S'S4'
p44
I0
I1
tp45
Rp46
(I3
S'|'
p47
NNNI4
I1
I0
tp48
bS'walk'
p49
tp50
Rp51
sg14
Nsg15
Nsg16
S'3406'
p52
sg25
Nsaa(lp53
(dp54
S'all'
p55
(lp56
S'go into the hall'
p57
asg15
(lp58
sg16
(lp59
S'into the hallway'
p60
aS'into the pod'
p61
aS'the room beside the conference room'
p62
aS'to the pod'
p63
aS'go to the pod'
p64
asg25
(lp65
sg3
(lp66
sg14
(lp67
sa(dp68
g55
(lp69
S"go to robert brown 's office"
p70
asg15
(lp71
sg16
(lp72
sg25
(lp73
sg3
(lp74
sg14
(lp75
sa(dp76
g55
(lp77
S"go to the office next door to dr smalt 's office"
p78
asg15
(lp79
sg16
(lp80
S"go to the office next door to dr smalt 's office"
p81
aS'go to the office'
p82
aS'go to the office'
p83
aS'go out into the hall'
p84
asg25
(lp85
sg3
(lp86
sg14
(lp87
saa(lp88
(g4
(g5
(S'S6'
p89
I0
I1
tp90
Rp91
(I3
S'|'
p92
NNNI6
I1
I0
tp93
bS'yellow'
p94
tp95
Rp96
I10
I0
tp97
a(g96
I3
I0
tp98
a(g96
I27
I0
tp99
a(g96
I7
I0
tp100
a(g96
I18
I0
tp101
a(g96
I2
I0
tp102
a(g96
I20
I0
tp103
a(g96
I17
I0
tp104
a(g4
(g5
(S'S3'
p105
I0
I1
tp106
Rp107
(I3
S'|'
p108
NNNI3
I1
I0
tp109
bS'can'
p110
tp111
Rp112
I2
I1
tp113
a(g4
(g5
(S'S4'
p114
I0
I1
tp115
Rp116
(I3
S'|'
p117
NNNI4
I1
I0
tp118
bS'long'
p119
tp120
Rp121
I3
I1
tp122
a(g4
(g5
(S'S8'
p123
I0
I1
tp124
Rp125
(I3
S'|'
p126
NNNI8
I1
I0
tp127
bS'cylinder'
p128
tp129
Rp130
I20
I1
tp131
a(g4
(g5
(S'S5'
p132
I0
I1
tp133
Rp134
(I3
S'|'
p135
NNNI5
I1
I0
tp136
bS'clear'
p137
tp138
Rp139
I10
I0
tp140
a(g139
I3
I0
tp141
a(g139
I27
I0
tp142
a(g139
I7
I0
tp143
a(g139
I18
I0
tp144
a(g139
I2
I0
tp145
a(g139
I20
I0
tp146
a(g139
I17
I0
tp147
a(g4
(g5
(S'S6'
p148
I0
I1
tp149
Rp150
(I3
S'|'
p151
NNNI6
I1
I0
tp152
bS'column'
p153
tp154
Rp155
I3
I1
tp156
a(g4
(g5
(S'S8'
p157
I0
I1
tp158
Rp159
(I3
S'|'
p160
NNNI8
I1
I0
tp161
bS'cylinder'
p162
tp163
Rp164
I27
I0
tp165
a(g4
(g5
(S'S9'
p166
I0
I1
tp167
Rp168
(I3
S'|'
p169
NNNI9
I1
I0
tp170
bS'styrofoam'
p171
tp172
Rp173
I10
I0
tp174
a(g173
I3
I0
tp175
a(g173
I27
I0
tp176
a(g173
I7
I0
tp177
a(g173
I18
I0
tp178
a(g173
I2
I0
tp179
a(g173
I20
I0
tp180
a(g173
I17
I0
tp181
a(g4
(g5
(S'S5'
p182
I0
I1
tp183
Rp184
(I3
S'|'
p185
NNNI5
I1
I0
tp186
bS'tower'
p187
tp188
Rp189
I10
I0
tp190
a(g189
I3
I0
tp191
a(g189
I27
I0
tp192
a(g189
I7
I0
tp193
a(g189
I18
I0
tp194
a(g189
I2
I0
tp195
a(g189
I20
I0
tp196
a(g189
I17
I0
tp197
a(g4
(g5
(S'S9'
p198
I0
I1
tp199
Rp200
(I3
S'|'
p201
NNNI9
I1
I0
tp202
bS'container'
p203
tp204
Rp205
I10
I1
tp206
a(g4
(g5
(S'S5'
p207
I0
I1
tp208
Rp209
(I3
S'|'
p210
NNNI5
I1
I0
tp211
bS'block'
p212
tp213
Rp214
I10
I0
tp215
a(g214
I3
I0
tp216
a(g214
I27
I0
tp217
a(g214
I7
I0
tp218
a(g214
I18
I0
tp219
a(g214
I2
I0
tp220
a(g214
I20
I0
tp221
a(g214
I17
I0
tp222
a(g4
(g5
(S'S8'
p223
I0
I1
tp224
Rp225
(I3
S'|'
p226
NNNI8
I1
I0
tp227
bS'metallic'
p228
tp229
Rp230
I10
I0
tp231
a(g230
I3
I0
tp232
a(g230
I27
I0
tp233
a(g230
I7
I0
tp234
a(g230
I18
I0
tp235
a(g230
I2
I0
tp236
a(g230
I20
I0
tp237
a(g230
I17
I0
tp238
a(g4
(g5
(S'S9'
p239
I0
I1
tp240
Rp241
(I3
S'|'
p242
NNNI9
I1
I0
tp243
bS'rectangle'
p244
tp245
Rp246
I10
I0
tp247
a(g246
I3
I0
tp248
a(g246
I27
I0
tp249
a(g246
I7
I0
tp250
a(g246
I18
I0
tp251
a(g246
I2
I0
tp252
a(g246
I20
I0
tp253
a(g246
I17
I0
tp254
a(g4
(g5
(S'S5'
p255
I0
I1
tp256
Rp257
(I3
S'|'
p258
NNNI5
I1
I0
tp259
bS'empty'
p260
tp261
Rp262
I3
I1
tp263
a(g4
(g5
(S'S6'
p264
I0
I1
tp265
Rp266
(I3
S'|'
p267
NNNI6
I1
I0
tp268
bS'column'
p269
tp270
Rp271
I27
I0
tp272
aa(lp273
a.