(lp0
(lp1
(dp2
S'action'
p3
cnumpy.core.multiarray
scalar
p4
(cnumpy
dtype
p5
(S'S5'
p6
I0
I1
tp7
Rp8
(I3
S'|'
p9
NNNI5
I1
I0
tp10
bS'bring'
p11
tp12
Rp13
sS'recipient'
p14
g4
(g5
(S'S1'
p15
I0
I1
tp16
Rp17
(I3
S'|'
p18
NNNI1
I1
I0
tp19
bS'd'
p20
tp21
Rp22
sS'patient'
p23
S'oidx_28'
p24
sS'goal'
p25
NsS'source'
p26
Nsa(dp27
g3
g4
(g5
(S'S4'
p28
I0
I1
tp29
Rp30
(I3
S'|'
p31
NNNI4
I1
I0
tp32
bS'walk'
p33
tp34
Rp35
sg14
Nsg23
Nsg25
S'3502'
p36
sg26
Nsa(dp37
g3
g4
(g5
(S'S4'
p38
I0
I1
tp39
Rp40
(I3
S'|'
p41
NNNI4
I1
I0
tp42
bS'walk'
p43
tp44
Rp45
sg14
Nsg23
Nsg25
g4
(g5
(S'S4'
p46
I0
I1
tp47
Rp48
(I3
S'|'
p49
NNNI4
I1
I0
tp50
bS'3436'
p51
tp52
Rp53
sg26
Nsaa(lp54
(dp55
S'all'
p56
(lp57
S'you need to go to office d'
p58
asg23
(lp59
S'office d'
p60
asg25
(lp61
sg26
(lp62
sg3
(lp63
sg14
(lp64
S'david dave daniel'
p65
asa(dp66
g56
(lp67
S'package needs to be delivered to m'
p68
asg23
(lp69
sg25
(lp70
S'm'
p71
aS'm'
p72
aS'mallory mal maroon'
p73
asg26
(lp74
sg3
(lp75
sg14
(lp76
sa(dp77
g56
(lp78
S'go to the lab'
p79
asg23
(lp80
sg25
(lp81
S'the lab'
p82
aS'lab'
p83
asg26
(lp84
sg3
(lp85
sg14
(lp86
saa(lp87
(g4
(g5
(S'S6'
p88
I0
I1
tp89
Rp90
(I3
S'|'
p91
NNNI6
I1
I0
tp92
bS'coffee'
p93
tp94
Rp95
I10
I0
tp96
a(g95
I3
I0
tp97
a(g95
I27
I0
tp98
a(g95
I7
I0
tp99
a(g95
I18
I0
tp100
a(g95
I2
I0
tp101
a(g95
I20
I0
tp102
a(g95
I17
I0
tp103
a(g4
(g5
(S'S8'
p104
I0
I1
tp105
Rp106
(I3
S'|'
p107
NNNI8
I1
I0
tp108
bS'metallic'
p109
tp110
Rp111
I10
I0
tp112
a(g111
I3
I0
tp113
a(g111
I27
I0
tp114
a(g111
I7
I0
tp115
a(g111
I18
I0
tp116
a(g111
I2
I0
tp117
a(g111
I20
I0
tp118
a(g111
I17
I0
tp119
a(g4
(g5
(S'S5'
p120
I0
I1
tp121
Rp122
(I3
S'|'
p123
NNNI5
I1
I0
tp124
bS'white'
p125
tp126
Rp127
I10
I0
tp128
a(g127
I3
I0
tp129
a(g127
I27
I0
tp130
a(g127
I7
I0
tp131
a(g127
I18
I0
tp132
a(g127
I2
I0
tp133
a(g127
I20
I0
tp134
a(g127
I17
I0
tp135
a(g4
(g5
(S'S9'
p136
I0
I1
tp137
Rp138
(I3
S'|'
p139
NNNI9
I1
I0
tp140
bS'styrofoam'
p141
tp142
Rp143
I10
I0
tp144
a(g143
I3
I0
tp145
a(g143
I27
I0
tp146
a(g143
I7
I0
tp147
a(g143
I18
I0
tp148
a(g143
I2
I0
tp149
a(g143
I20
I0
tp150
a(g143
I17
I0
tp151
a(g4
(g5
(S'S5'
p152
I0
I1
tp153
Rp154
(I3
S'|'
p155
NNNI5
I1
I0
tp156
bS'peach'
p157
tp158
Rp159
I10
I0
tp160
a(g159
I3
I0
tp161
a(g159
I27
I0
tp162
a(g159
I7
I0
tp163
a(g159
I18
I0
tp164
a(g159
I2
I0
tp165
a(g159
I20
I0
tp166
a(g159
I17
I0
tp167
a(g4
(g5
(S'S8'
p168
I0
I1
tp169
Rp170
(I3
S'|'
p171
NNNI8
I1
I0
tp172
bS'pringles'
p173
tp174
Rp175
I10
I0
tp176
a(g175
I3
I0
tp177
a(g175
I27
I0
tp178
a(g175
I7
I0
tp179
a(g175
I18
I0
tp180
a(g175
I2
I0
tp181
a(g175
I20
I0
tp182
a(g175
I17
I0
tp183
a(g4
(g5
(S'S6'
p184
I0
I1
tp185
Rp186
(I3
S'|'
p187
NNNI6
I1
I0
tp188
bS'yellow'
p189
tp190
Rp191
I10
I0
tp192
a(g191
I3
I0
tp193
a(g191
I27
I0
tp194
a(g191
I7
I0
tp195
a(g191
I18
I0
tp196
a(g191
I2
I0
tp197
a(g191
I20
I0
tp198
a(g191
I17
I0
tp199
a(g4
(g5
(S'S5'
p200
I0
I1
tp201
Rp202
(I3
S'|'
p203
NNNI5
I1
I0
tp204
bS'tower'
p205
tp206
Rp207
I10
I0
tp208
a(g207
I3
I0
tp209
a(g207
I27
I0
tp210
a(g207
I7
I0
tp211
a(g207
I18
I0
tp212
a(g207
I2
I0
tp213
a(g207
I20
I0
tp214
a(g207
I17
I0
tp215
a(g4
(g5
(S'S4'
p216
I0
I1
tp217
Rp218
(I3
S'|'
p219
NNNI4
I1
I0
tp220
bS'long'
p221
tp222
Rp223
I20
I1
tp224
a(g4
(g5
(S'S8'
p225
I0
I1
tp226
Rp227
(I3
S'|'
p228
NNNI8
I1
I0
tp229
bS'cylinder'
p230
tp231
Rp232
I20
I1
tp233
a(g4
(g5
(S'S5'
p234
I0
I1
tp235
Rp236
(I3
S'|'
p237
NNNI5
I1
I0
tp238
bS'clear'
p239
tp240
Rp241
I10
I0
tp242
a(g241
I3
I0
tp243
a(g241
I27
I0
tp244
a(g241
I7
I0
tp245
a(g241
I18
I0
tp246
a(g241
I2
I0
tp247
a(g241
I20
I0
tp248
a(g241
I17
I0
tp249
a(g4
(g5
(S'S6'
p250
I0
I1
tp251
Rp252
(I3
S'|'
p253
NNNI6
I1
I0
tp254
bS'column'
p255
tp256
Rp257
I10
I0
tp258
a(g257
I3
I0
tp259
a(g257
I27
I0
tp260
a(g257
I7
I0
tp261
a(g257
I18
I0
tp262
a(g257
I2
I0
tp263
a(g257
I20
I0
tp264
a(g257
I17
I0
tp265
a(g4
(g5
(S'S9'
p266
I0
I1
tp267
Rp268
(I3
S'|'
p269
NNNI9
I1
I0
tp270
bS'container'
p271
tp272
Rp273
I18
I1
tp274
a(g4
(g5
(S'S4'
p275
I0
I1
tp276
Rp277
(I3
S'|'
p278
NNNI4
I1
I0
tp279
bS'bean'
p280
tp281
Rp282
I10
I0
tp283
a(g282
I3
I0
tp284
a(g282
I27
I0
tp285
a(g282
I7
I0
tp286
a(g282
I18
I0
tp287
a(g282
I2
I0
tp288
a(g282
I20
I0
tp289
a(g282
I17
I0
tp290
a(g4
(g5
(S'S5'
p291
I0
I1
tp292
Rp293
(I3
S'|'
p294
NNNI5
I1
I0
tp295
bS'block'
p296
tp297
Rp298
I10
I0
tp299
a(g298
I3
I0
tp300
a(g298
I27
I0
tp301
a(g298
I7
I0
tp302
a(g298
I18
I0
tp303
a(g298
I2
I0
tp304
a(g298
I20
I0
tp305
a(g298
I17
I0
tp306
aa(lp307
a.