(lp0
(lp1
(dp2
S'action'
p3
cnumpy.core.multiarray
scalar
p4
(cnumpy
dtype
p5
(S'S4'
p6
I0
I1
tp7
Rp8
(I3
S'|'
p9
NNNI4
I1
I0
tp10
bS'walk'
p11
tp12
Rp13
sS'recipient'
p14
NsS'patient'
p15
NsS'goal'
p16
S'3430'
p17
sS'source'
p18
Nsa(dp19
g3
g4
(g5
(S'S5'
p20
I0
I1
tp21
Rp22
(I3
S'|'
p23
NNNI5
I1
I0
tp24
bS'bring'
p25
tp26
Rp27
sg14
S'm'
p28
sg15
g4
(g5
(S'S7'
p29
I0
I1
tp30
Rp31
(I3
S'|'
p32
NNNI7
I1
I0
tp33
bS'oidx_28'
p34
tp35
Rp36
sg16
Nsg18
Nsaa(lp37
(dp38
S'all'
p39
(lp40
S'go to the room at the northwest corner of the building'
p41
asg15
(lp42
sg16
(lp43
S'go inside the office marked h'
p44
aS'go to the office located at the northwest end of the building'
p45
aS'go inside the building'
p46
asg18
(lp47
sg3
(lp48
sg14
(lp49
sa(dp50
g39
(lp51
S'get the blue can from the white table'
p52
asg15
(lp53
S'the blue can'
p54
aS'the blue can'
p55
asg16
(lp56
sg18
(lp57
sg3
(lp58
sg14
(lp59
saa(lp60
(g4
(g5
(S'S6'
p61
I0
I1
tp62
Rp63
(I3
S'|'
p64
NNNI6
I1
I0
tp65
bS'column'
p66
tp67
Rp68
I10
I0
tp69
a(g68
I3
I0
tp70
a(g68
I27
I0
tp71
a(g68
I7
I0
tp72
a(g68
I18
I0
tp73
a(g68
I2
I0
tp74
a(g68
I20
I0
tp75
a(g68
I17
I0
tp76
a(g4
(g5
(S'S9'
p77
I0
I1
tp78
Rp79
(I3
S'|'
p80
NNNI9
I1
I0
tp81
bS'styrofoam'
p82
tp83
Rp84
I10
I0
tp85
a(g84
I3
I0
tp86
a(g84
I27
I0
tp87
a(g84
I7
I0
tp88
a(g84
I18
I0
tp89
a(g84
I2
I0
tp90
a(g84
I20
I0
tp91
a(g84
I17
I0
tp92
a(g4
(g5
(S'S5'
p93
I0
I1
tp94
Rp95
(I3
S'|'
p96
NNNI5
I1
I0
tp97
bS'empty'
p98
tp99
Rp100
I10
I0
tp101
a(g100
I3
I0
tp102
a(g100
I27
I0
tp103
a(g100
I7
I0
tp104
a(g100
I18
I0
tp105
a(g100
I2
I0
tp106
a(g100
I20
I0
tp107
a(g100
I17
I0
tp108
a(g4
(g5
(S'S9'
p109
I0
I1
tp110
Rp111
(I3
S'|'
p112
NNNI9
I1
I0
tp113
bS'rectangle'
p114
tp115
Rp116
I10
I0
tp117
a(g116
I3
I0
tp118
a(g116
I27
I0
tp119
a(g116
I7
I0
tp120
a(g116
I18
I0
tp121
a(g116
I2
I0
tp122
a(g116
I20
I0
tp123
a(g116
I17
I0
tp124
a(g4
(g5
(S'S5'
p125
I0
I1
tp126
Rp127
(I3
S'|'
p128
NNNI5
I1
I0
tp129
bS'spice'
p130
tp131
Rp132
I10
I0
tp133
a(g132
I3
I0
tp134
a(g132
I27
I0
tp135
a(g132
I7
I0
tp136
a(g132
I18
I0
tp137
a(g132
I2
I0
tp138
a(g132
I20
I0
tp139
a(g132
I17
I0
tp140
a(g4
(g5
(S'S3'
p141
I0
I1
tp142
Rp143
(I3
S'|'
p144
NNNI3
I1
I0
tp145
bS'can'
p146
tp147
Rp148
I10
I0
tp149
a(g148
I3
I0
tp150
a(g148
I27
I0
tp151
a(g148
I7
I0
tp152
a(g148
I18
I0
tp153
a(g148
I2
I0
tp154
a(g148
I20
I0
tp155
a(g148
I17
I0
tp156
a(g4
(g5
(S'S4'
p157
I0
I1
tp158
Rp159
(I3
S'|'
p160
NNNI4
I1
I0
tp161
bS'blue'
p162
tp163
Rp164
I10
I0
tp165
a(g164
I3
I0
tp166
a(g164
I27
I0
tp167
a(g164
I7
I0
tp168
a(g164
I18
I0
tp169
a(g164
I2
I0
tp170
a(g164
I20
I0
tp171
a(g164
I17
I0
tp172
a(g4
(g5
(S'S4'
p173
I0
I1
tp174
Rp175
(I3
S'|'
p176
NNNI4
I1
I0
tp177
bS'long'
p178
tp179
Rp180
I10
I0
tp181
a(g180
I3
I0
tp182
a(g180
I27
I0
tp183
a(g180
I7
I0
tp184
a(g180
I18
I0
tp185
a(g180
I2
I0
tp186
a(g180
I20
I0
tp187
a(g180
I17
I0
tp188
a(g4
(g5
(S'S5'
p189
I0
I1
tp190
Rp191
(I3
S'|'
p192
NNNI5
I1
I0
tp193
bS'peach'
p194
tp195
Rp196
I10
I0
tp197
a(g196
I3
I0
tp198
a(g196
I27
I0
tp199
a(g196
I7
I0
tp200
a(g196
I18
I0
tp201
a(g196
I2
I0
tp202
a(g196
I20
I0
tp203
a(g196
I17
I0
tp204
a(g4
(g5
(S'S6'
p205
I0
I1
tp206
Rp207
(I3
S'|'
p208
NNNI6
I1
I0
tp209
bS'yellow'
p210
tp211
Rp212
I10
I0
tp213
a(g212
I3
I0
tp214
a(g212
I27
I0
tp215
a(g212
I7
I0
tp216
a(g212
I18
I0
tp217
a(g212
I2
I0
tp218
a(g212
I20
I0
tp219
a(g212
I17
I0
tp220
aa(lp221
(S'building'
p222
S'tower'
p223
I01
tp224
aa.