(lp0
(lp1
(dp2
S'action'
p3
cnumpy.core.multiarray
scalar
p4
(cnumpy
dtype
p5
(S'S4'
p6
I0
I1
tp7
Rp8
(I3
S'|'
p9
NNNI4
I1
I0
tp10
bS'walk'
p11
tp12
Rp13
sS'recipient'
p14
NsS'patient'
p15
NsS'goal'
p16
g4
(g5
(S'S4'
p17
I0
I1
tp18
Rp19
(I3
S'|'
p20
NNNI4
I1
I0
tp21
bS'3404'
p22
tp23
Rp24
sS'source'
p25
Nsa(dp26
g3
g4
(g5
(S'S5'
p27
I0
I1
tp28
Rp29
(I3
S'|'
p30
NNNI5
I1
I0
tp31
bS'bring'
p32
tp33
Rp34
sg14
g4
(g5
(S'S1'
p35
I0
I1
tp36
Rp37
(I3
S'|'
p38
NNNI1
I1
I0
tp39
bS's'
p40
tp41
Rp42
sg15
g4
(g5
(S'S7'
p43
I0
I1
tp44
Rp45
(I3
S'|'
p46
NNNI7
I1
I0
tp47
bS'oidx_22'
p48
tp49
Rp50
sg16
Nsg25
Nsa(dp51
g3
g4
(g5
(S'S5'
p52
I0
I1
tp53
Rp54
(I3
S'|'
p55
NNNI5
I1
I0
tp56
bS'bring'
p57
tp58
Rp59
sg14
S'w'
p60
sg15
S'oidx_26'
p61
sg16
Nsg25
Nsaa(lp62
(dp63
S'all'
p64
(lp65
S'go to the office of nancy nagel'
p66
asg15
(lp67
sg16
(lp68
sg25
(lp69
sg3
(lp70
sg14
(lp71
sa(dp72
g64
(lp73
S'give the container to sybil smalt'
p74
asg15
(lp75
S'container'
p76
aS'a container'
p77
asg16
(lp78
sg25
(lp79
sg3
(lp80
sg14
(lp81
sa(dp82
g64
(lp83
S'give the coke can to walter ward'
p84
asg15
(lp85
S'can'
p86
aS'coke can'
p87
asg16
(lp88
sg25
(lp89
sg3
(lp90
sg14
(lp91
saa(lp92
(g4
(g5
(S'S4'
p93
I0
I1
tp94
Rp95
(I3
S'|'
p96
NNNI4
I1
I0
tp97
bS'bean'
p98
tp99
Rp100
I10
I0
tp101
a(g100
I3
I0
tp102
a(g100
I27
I0
tp103
a(g100
I7
I0
tp104
a(g100
I18
I0
tp105
a(g100
I2
I0
tp106
a(g100
I20
I0
tp107
a(g100
I17
I0
tp108
a(g4
(g5
(S'S9'
p109
I0
I1
tp110
Rp111
(I3
S'|'
p112
NNNI9
I1
I0
tp113
bS'container'
p114
tp115
Rp116
I18
I1
tp117
a(g4
(g5
(S'S6'
p118
I0
I1
tp119
Rp120
(I3
S'|'
p121
NNNI6
I1
I0
tp122
bS'coffee'
p123
tp124
Rp125
I10
I0
tp126
a(g125
I3
I0
tp127
a(g125
I27
I0
tp128
a(g125
I7
I0
tp129
a(g125
I18
I0
tp130
a(g125
I2
I0
tp131
a(g125
I20
I0
tp132
a(g125
I17
I0
tp133
a(g4
(g5
(S'S5'
p134
I0
I1
tp135
Rp136
(I3
S'|'
p137
NNNI5
I1
I0
tp138
bS'empty'
p139
tp140
Rp141
I10
I0
tp142
a(g141
I3
I0
tp143
a(g141
I27
I0
tp144
a(g141
I7
I0
tp145
a(g141
I18
I0
tp146
a(g141
I2
I0
tp147
a(g141
I20
I0
tp148
a(g141
I17
I0
tp149
a(g4
(g5
(S'S4'
p150
I0
I1
tp151
Rp152
(I3
S'|'
p153
NNNI4
I1
I0
tp154
bS'long'
p155
tp156
Rp157
I10
I0
tp158
a(g157
I3
I0
tp159
a(g157
I27
I0
tp160
a(g157
I7
I0
tp161
a(g157
I18
I0
tp162
a(g157
I2
I0
tp163
a(g157
I20
I0
tp164
a(g157
I17
I0
tp165
a(g4
(g5
(S'S9'
p166
I0
I1
tp167
Rp168
(I3
S'|'
p169
NNNI9
I1
I0
tp170
bS'container'
p171
tp172
Rp173
I27
I0
tp174
a(g4
(g5
(S'S9'
p175
I0
I1
tp176
Rp177
(I3
S'|'
p178
NNNI9
I1
I0
tp179
bS'container'
p180
tp181
Rp182
I2
I1
tp183
a(g4
(g5
(S'S9'
p184
I0
I1
tp185
Rp186
(I3
S'|'
p187
NNNI9
I1
I0
tp188
bS'container'
p189
tp190
Rp191
I7
I0
tp192
a(g4
(g5
(S'S9'
p193
I0
I1
tp194
Rp195
(I3
S'|'
p196
NNNI9
I1
I0
tp197
bS'container'
p198
tp199
Rp200
I17
I0
tp201
a(g4
(g5
(S'S9'
p202
I0
I1
tp203
Rp204
(I3
S'|'
p205
NNNI9
I1
I0
tp206
bS'container'
p207
tp208
Rp209
I2
I1
tp210
a(g4
(g5
(S'S5'
p211
I0
I1
tp212
Rp213
(I3
S'|'
p214
NNNI5
I1
I0
tp215
bS'spice'
p216
tp217
Rp218
I10
I0
tp219
a(g218
I3
I0
tp220
a(g218
I27
I0
tp221
a(g218
I7
I0
tp222
a(g218
I18
I0
tp223
a(g218
I2
I0
tp224
a(g218
I20
I0
tp225
a(g218
I17
I0
tp226
a(g4
(g5
(S'S3'
p227
I0
I1
tp228
Rp229
(I3
S'|'
p230
NNNI3
I1
I0
tp231
bS'can'
p232
tp233
Rp234
I10
I0
tp235
a(g234
I3
I0
tp236
a(g234
I27
I0
tp237
a(g234
I7
I0
tp238
a(g234
I18
I0
tp239
a(g234
I2
I0
tp240
a(g234
I20
I0
tp241
a(g234
I17
I0
tp242
a(g4
(g5
(S'S5'
p243
I0
I1
tp244
Rp245
(I3
S'|'
p246
NNNI5
I1
I0
tp247
bS'peach'
p248
tp249
Rp250
I10
I0
tp251
a(g250
I3
I0
tp252
a(g250
I27
I0
tp253
a(g250
I7
I0
tp254
a(g250
I18
I0
tp255
a(g250
I2
I0
tp256
a(g250
I20
I0
tp257
a(g250
I17
I0
tp258
a(g4
(g5
(S'S9'
p259
I0
I1
tp260
Rp261
(I3
S'|'
p262
NNNI9
I1
I0
tp263
bS'rectangle'
p264
tp265
Rp266
I10
I0
tp267
a(g266
I3
I0
tp268
a(g266
I27
I0
tp269
a(g266
I7
I0
tp270
a(g266
I18
I0
tp271
a(g266
I2
I0
tp272
a(g266
I20
I0
tp273
a(g266
I17
I0
tp274
a(g4
(g5
(S'S5'
p275
I0
I1
tp276
Rp277
(I3
S'|'
p278
NNNI5
I1
I0
tp279
bS'clear'
p280
tp281
Rp282
I10
I0
tp283
a(g282
I3
I0
tp284
a(g282
I27
I0
tp285
a(g282
I7
I0
tp286
a(g282
I18
I0
tp287
a(g282
I2
I0
tp288
a(g282
I20
I0
tp289
a(g282
I17
I0
tp290
aa(lp291
a.