(lp0
(lp1
(dp2
S'action'
p3
cnumpy.core.multiarray
scalar
p4
(cnumpy
dtype
p5
(S'S4'
p6
I0
I1
tp7
Rp8
(I3
S'|'
p9
NNNI4
I1
I0
tp10
bS'walk'
p11
tp12
Rp13
sS'recipient'
p14
NsS'patient'
p15
NsS'goal'
p16
S'3502'
p17
sS'source'
p18
Nsa(dp19
g3
g4
(g5
(S'S5'
p20
I0
I1
tp21
Rp22
(I3
S'|'
p23
NNNI5
I1
I0
tp24
bS'bring'
p25
tp26
Rp27
sg14
g4
(g5
(S'S1'
p28
I0
I1
tp29
Rp30
(I3
S'|'
p31
NNNI1
I1
I0
tp32
bS'b'
p33
tp34
Rp35
sg15
g4
(g5
(S'S7'
p36
I0
I1
tp37
Rp38
(I3
S'|'
p39
NNNI7
I1
I0
tp40
bS'oidx_22'
p41
tp42
Rp43
sg16
Nsg18
Nsa(dp44
g3
g4
(g5
(S'S4'
p45
I0
I1
tp46
Rp47
(I3
S'|'
p48
NNNI4
I1
I0
tp49
bS'move'
p50
tp51
Rp52
sg14
Nsg15
g4
(g5
(S'S7'
p53
I0
I1
tp54
Rp55
(I3
S'|'
p56
NNNI7
I1
I0
tp57
bS'oidx_12'
p58
tp59
Rp60
sg16
g4
(g5
(S'S4'
p61
I0
I1
tp62
Rp63
(I3
S'|'
p64
NNNI4
I1
I0
tp65
bS'3516'
p66
tp67
Rp68
sg18
g4
(g5
(S'S4'
p69
I0
I1
tp70
Rp71
(I3
S'|'
p72
NNNI4
I1
I0
tp73
bS'3418'
p74
tp75
Rp76
saa(lp77
(dp78
S'all'
p79
(lp80
S"go to mal 's office"
p81
asg15
(lp82
sg16
(lp83
S"mallory maroon 's office"
p84
asg18
(lp85
sg3
(lp86
sg14
(lp87
sa(dp88
g79
(lp89
S'bring the jar of peanuts to robert'
p90
asg15
(lp91
S'the container'
p92
aS'the clear container with a red top'
p93
aS'the clear container'
p94
asg16
(lp95
sg18
(lp96
sg3
(lp97
sg14
(lp98
sa(dp99
g79
(lp100
S'go to the office and get the white container then deliver it to the conference room next to the lounge'
p101
asg15
(lp102
S'the white container'
p103
aS'the white container'
p104
aS'the white container'
p105
asg16
(lp106
S'to the conference room between the lounge and pod'
p107
aS'the conference room across from the lab'
p108
asg18
(lp109
S"from the office between the conference room and david daniel 's office"
p110
aS"the office between david 's office and the conference room"
p111
asg3
(lp112
sg14
(lp113
saa(lp114
(g4
(g5
(S'S8'
p115
I0
I1
tp116
Rp117
(I3
S'|'
p118
NNNI8
I1
I0
tp119
bS'cylinder'
p120
tp121
Rp122
I3
I1
tp123
a(g4
(g5
(S'S5'
p124
I0
I1
tp125
Rp126
(I3
S'|'
p127
NNNI5
I1
I0
tp128
bS'block'
p129
tp130
Rp131
I10
I0
tp132
a(g131
I3
I0
tp133
a(g131
I27
I0
tp134
a(g131
I7
I0
tp135
a(g131
I18
I0
tp136
a(g131
I2
I0
tp137
a(g131
I20
I0
tp138
a(g131
I17
I0
tp139
a(g4
(g5
(S'S6'
p140
I0
I1
tp141
Rp142
(I3
S'|'
p143
NNNI6
I1
I0
tp144
bS'column'
p145
tp146
Rp147
I7
I1
tp148
a(g4
(g5
(S'S8'
p149
I0
I1
tp150
Rp151
(I3
S'|'
p152
NNNI8
I1
I0
tp153
bS'cylinder'
p154
tp155
Rp156
I27
I0
tp157
a(g4
(g5
(S'S5'
p158
I0
I1
tp159
Rp160
(I3
S'|'
p161
NNNI5
I1
I0
tp162
bS'clear'
p163
tp164
Rp165
I10
I0
tp166
a(g165
I3
I0
tp167
a(g165
I27
I0
tp168
a(g165
I7
I0
tp169
a(g165
I18
I0
tp170
a(g165
I2
I0
tp171
a(g165
I20
I0
tp172
a(g165
I17
I0
tp173
a(g4
(g5
(S'S9'
p174
I0
I1
tp175
Rp176
(I3
S'|'
p177
NNNI9
I1
I0
tp178
bS'container'
p179
tp180
Rp181
I10
I1
tp182
a(g4
(g5
(S'S9'
p183
I0
I1
tp184
Rp185
(I3
S'|'
p186
NNNI9
I1
I0
tp187
bS'container'
p188
tp189
Rp190
I20
I0
tp191
a(g4
(g5
(S'S9'
p192
I0
I1
tp193
Rp194
(I3
S'|'
p195
NNNI9
I1
I0
tp196
bS'container'
p197
tp198
Rp199
I2
I1
tp200
a(g4
(g5
(S'S9'
p201
I0
I1
tp202
Rp203
(I3
S'|'
p204
NNNI9
I1
I0
tp205
bS'container'
p206
tp207
Rp208
I27
I0
tp209
a(g4
(g5
(S'S9'
p210
I0
I1
tp211
Rp212
(I3
S'|'
p213
NNNI9
I1
I0
tp214
bS'container'
p215
tp216
Rp217
I17
I1
tp218
a(g4
(g5
(S'S6'
p219
I0
I1
tp220
Rp221
(I3
S'|'
p222
NNNI6
I1
I0
tp223
bS'coffee'
p224
tp225
Rp226
I10
I0
tp227
a(g226
I3
I0
tp228
a(g226
I27
I0
tp229
a(g226
I7
I0
tp230
a(g226
I18
I0
tp231
a(g226
I2
I0
tp232
a(g226
I20
I0
tp233
a(g226
I17
I0
tp234
a(g4
(g5
(S'S4'
p235
I0
I1
tp236
Rp237
(I3
S'|'
p238
NNNI4
I1
I0
tp239
bS'long'
p240
tp241
Rp242
I3
I1
tp243
a(g4
(g5
(S'S9'
p244
I0
I1
tp245
Rp246
(I3
S'|'
p247
NNNI9
I1
I0
tp248
bS'rectangle'
p249
tp250
Rp251
I10
I0
tp252
a(g251
I3
I0
tp253
a(g251
I27
I0
tp254
a(g251
I7
I0
tp255
a(g251
I18
I0
tp256
a(g251
I2
I0
tp257
a(g251
I20
I0
tp258
a(g251
I17
I0
tp259
a(g4
(g5
(S'S9'
p260
I0
I1
tp261
Rp262
(I3
S'|'
p263
NNNI9
I1
I0
tp264
bS'styrofoam'
p265
tp266
Rp267
I10
I0
tp268
a(g267
I3
I0
tp269
a(g267
I27
I0
tp270
a(g267
I7
I0
tp271
a(g267
I18
I0
tp272
a(g267
I2
I0
tp273
a(g267
I20
I0
tp274
a(g267
I17
I0
tp275
a(g4
(g5
(S'S8'
p276
I0
I1
tp277
Rp278
(I3
S'|'
p279
NNNI8
I1
I0
tp280
bS'metallic'
p281
tp282
Rp283
I10
I0
tp284
a(g283
I3
I0
tp285
a(g283
I27
I0
tp286
a(g283
I7
I0
tp287
a(g283
I18
I0
tp288
a(g283
I2
I0
tp289
a(g283
I20
I0
tp290
a(g283
I17
I0
tp291
aa(lp292
(S'jar'
p293
S'container'
p294
I01
tp295
a(S'red'
p296
S'white'
p297
I00
tp298
a(g296
S'yellow'
p299
I00
tp300
a(g296
S'blue'
p301
I00
tp302
aa.