(lp0
(lp1
(dp2
S'action'
p3
cnumpy.core.multiarray
scalar
p4
(cnumpy
dtype
p5
(S'S4'
p6
I0
I1
tp7
Rp8
(I3
S'|'
p9
NNNI4
I1
I0
tp10
bS'walk'
p11
tp12
Rp13
sS'recipient'
p14
NsS'patient'
p15
NsS'goal'
p16
S'3516'
p17
sS'source'
p18
Nsa(dp19
g3
g4
(g5
(S'S5'
p20
I0
I1
tp21
Rp22
(I3
S'|'
p23
NNNI5
I1
I0
tp24
bS'bring'
p25
tp26
Rp27
sg14
g4
(g5
(S'S1'
p28
I0
I1
tp29
Rp30
(I3
S'|'
p31
NNNI1
I1
I0
tp32
bS'p'
p33
tp34
Rp35
sg15
g4
(g5
(S'S7'
p36
I0
I1
tp37
Rp38
(I3
S'|'
p39
NNNI7
I1
I0
tp40
bS'oidx_11'
p41
tp42
Rp43
sg16
Nsg18
Nsa(dp44
g3
g4
(g5
(S'S5'
p45
I0
I1
tp46
Rp47
(I3
S'|'
p48
NNNI5
I1
I0
tp49
bS'bring'
p50
tp51
Rp52
sg14
S'b'
p53
sg15
S'oidx_25'
p54
sg16
Nsg18
Nsaa(lp55
(dp56
S'all'
p57
(lp58
S'go to the conference room'
p59
asg15
(lp60
sg16
(lp61
S'the conference room'
p62
asg18
(lp63
sg3
(lp64
sg14
(lp65
sa(dp66
g57
(lp67
S'take the can over to p'
p68
asg15
(lp69
S'the can'
p70
aS'a can'
p71
aS'a can'
p72
asg16
(lp73
sg18
(lp74
sg3
(lp75
sg14
(lp76
S'peggy'
p77
asa(dp78
g57
(lp79
S'take the jar from office b and take it to the printer room'
p80
asg15
(lp81
S'jar'
p82
aS'jar'
p83
aS'jar'
p84
aS'wipes'
p85
aS'nothing'
p86
asg16
(lp87
sg18
(lp88
sg3
(lp89
sg14
(lp90
saa(lp91
(g4
(g5
(S'S3'
p92
I0
I1
tp93
Rp94
(I3
S'|'
p95
NNNI3
I1
I0
tp96
bS'can'
p97
tp98
Rp99
I2
I1
tp100
a(g4
(g5
(S'S5'
p101
I0
I1
tp102
Rp103
(I3
S'|'
p104
NNNI5
I1
I0
tp105
bS'peach'
p106
tp107
Rp108
I10
I0
tp109
a(g108
I3
I0
tp110
a(g108
I27
I0
tp111
a(g108
I7
I0
tp112
a(g108
I18
I0
tp113
a(g108
I2
I0
tp114
a(g108
I20
I0
tp115
a(g108
I17
I0
tp116
a(g4
(g5
(S'S3'
p117
I0
I1
tp118
Rp119
(I3
S'|'
p120
NNNI3
I1
I0
tp121
bS'can'
p122
tp123
Rp124
I27
I0
tp125
a(g4
(g5
(S'S4'
p126
I0
I1
tp127
Rp128
(I3
S'|'
p129
NNNI4
I1
I0
tp130
bS'long'
p131
tp132
Rp133
I3
I1
tp134
a(g4
(g5
(S'S9'
p135
I0
I1
tp136
Rp137
(I3
S'|'
p138
NNNI9
I1
I0
tp139
bS'styrofoam'
p140
tp141
Rp142
I20
I1
tp143
a(g4
(g5
(S'S3'
p144
I0
I1
tp145
Rp146
(I3
S'|'
p147
NNNI3
I1
I0
tp148
bS'can'
p149
tp150
Rp151
I2
I1
tp152
a(g4
(g5
(S'S3'
p153
I0
I1
tp154
Rp155
(I3
S'|'
p156
NNNI3
I1
I0
tp157
bS'can'
p158
tp159
Rp160
I27
I0
tp161
a(g4
(g5
(S'S3'
p162
I0
I1
tp163
Rp164
(I3
S'|'
p165
NNNI3
I1
I0
tp166
bS'can'
p167
tp168
Rp169
I2
I1
tp170
a(g4
(g5
(S'S3'
p171
I0
I1
tp172
Rp173
(I3
S'|'
p174
NNNI3
I1
I0
tp175
bS'can'
p176
tp177
Rp178
I7
I0
tp179
a(g4
(g5
(S'S4'
p180
I0
I1
tp181
Rp182
(I3
S'|'
p183
NNNI4
I1
I0
tp184
bS'bean'
p185
tp186
Rp187
I10
I0
tp188
a(g187
I3
I0
tp189
a(g187
I27
I0
tp190
a(g187
I7
I0
tp191
a(g187
I18
I0
tp192
a(g187
I2
I0
tp193
a(g187
I20
I0
tp194
a(g187
I17
I0
tp195
a(g4
(g5
(S'S5'
p196
I0
I1
tp197
Rp198
(I3
S'|'
p199
NNNI5
I1
I0
tp200
bS'spice'
p201
tp202
Rp203
I10
I1
tp204
a(g4
(g5
(S'S5'
p205
I0
I1
tp206
Rp207
(I3
S'|'
p208
NNNI5
I1
I0
tp209
bS'block'
p210
tp211
Rp212
I10
I0
tp213
a(g212
I3
I0
tp214
a(g212
I27
I0
tp215
a(g212
I7
I0
tp216
a(g212
I18
I0
tp217
a(g212
I2
I0
tp218
a(g212
I20
I0
tp219
a(g212
I17
I0
tp220
a(g4
(g5
(S'S9'
p221
I0
I1
tp222
Rp223
(I3
S'|'
p224
NNNI9
I1
I0
tp225
bS'rectangle'
p226
tp227
Rp228
I10
I0
tp229
a(g228
I3
I0
tp230
a(g228
I27
I0
tp231
a(g228
I7
I0
tp232
a(g228
I18
I0
tp233
a(g228
I2
I0
tp234
a(g228
I20
I0
tp235
a(g228
I17
I0
tp236
a(g4
(g5
(S'S5'
p237
I0
I1
tp238
Rp239
(I3
S'|'
p240
NNNI5
I1
I0
tp241
bS'clear'
p242
tp243
Rp244
I10
I0
tp245
a(g244
I3
I0
tp246
a(g244
I27
I0
tp247
a(g244
I7
I0
tp248
a(g244
I18
I0
tp249
a(g244
I2
I0
tp250
a(g244
I20
I0
tp251
a(g244
I17
I0
tp252
a(g4
(g5
(S'S6'
p253
I0
I1
tp254
Rp255
(I3
S'|'
p256
NNNI6
I1
I0
tp257
bS'column'
p258
tp259
Rp260
I3
I1
tp261
aa(lp262
a.