(lp0
(lp1
(dp2
S'action'
p3
cnumpy.core.multiarray
scalar
p4
(cnumpy
dtype
p5
(S'S4'
p6
I0
I1
tp7
Rp8
(I3
S'|'
p9
NNNI4
I1
I0
tp10
bS'walk'
p11
tp12
Rp13
sS'recipient'
p14
NsS'patient'
p15
NsS'goal'
p16
S'3422'
p17
sS'source'
p18
Nsa(dp19
g3
g4
(g5
(S'S4'
p20
I0
I1
tp21
Rp22
(I3
S'|'
p23
NNNI4
I1
I0
tp24
bS'walk'
p25
tp26
Rp27
sg14
Nsg15
Nsg16
S'3414b'
p28
sg18
Nsa(dp29
g3
g4
(g5
(S'S5'
p30
I0
I1
tp31
Rp32
(I3
S'|'
p33
NNNI5
I1
I0
tp34
bS'bring'
p35
tp36
Rp37
sg14
S'w'
p38
sg15
S'oidx_28'
p39
sg16
Nsg18
Nsaa(lp40
(dp41
S'all'
p42
(lp43
S'go to s and wait for instructions'
p44
asg15
(lp45
sg16
(lp46
S's'
p47
aS'office s'
p48
aS's'
p49
aS'location s'
p50
aS's'
p51
aS'dr smalt'
p52
aS'to s'
p53
aS's office'
p54
aS'station s'
p55
asg18
(lp56
sg3
(lp57
sg14
(lp58
sa(dp59
g42
(lp60
S'pick up object and give to p'
p61
asg15
(lp62
sg16
(lp63
S'person p'
p64
aS'got to p'
p65
aS'where are you'
p66
aS'you should go to p'
p67
aS'peggy'
p68
aS'stop p'
p69
aS'reset'
p70
aS'exit'
p71
aS'command list'
p72
asg18
(lp73
sg3
(lp74
sg14
(lp75
sa(dp76
g42
(lp77
S'go to m manipulate object go to s'
p78
asg15
(lp79
S'white object'
p80
aS'rectangle'
p81
asg16
(lp82
sg18
(lp83
sg3
(lp84
sg14
(lp85
saa(lp86
(g4
(g5
(S'S5'
p87
I0
I1
tp88
Rp89
(I3
S'|'
p90
NNNI5
I1
I0
tp91
bS'empty'
p92
tp93
Rp94
I20
I1
tp95
a(g4
(g5
(S'S4'
p96
I0
I1
tp97
Rp98
(I3
S'|'
p99
NNNI4
I1
I0
tp100
bS'blue'
p101
tp102
Rp103
I10
I0
tp104
a(g103
I3
I0
tp105
a(g103
I27
I0
tp106
a(g103
I7
I0
tp107
a(g103
I18
I0
tp108
a(g103
I2
I0
tp109
a(g103
I20
I0
tp110
a(g103
I17
I0
tp111
a(g4
(g5
(S'S3'
p112
I0
I1
tp113
Rp114
(I3
S'|'
p115
NNNI3
I1
I0
tp116
bS'can'
p117
tp118
Rp119
I10
I1
tp120
a(g4
(g5
(S'S5'
p121
I0
I1
tp122
Rp123
(I3
S'|'
p124
NNNI5
I1
I0
tp125
bS'clear'
p126
tp127
Rp128
I10
I0
tp129
a(g128
I3
I0
tp130
a(g128
I27
I0
tp131
a(g128
I7
I0
tp132
a(g128
I18
I0
tp133
a(g128
I2
I0
tp134
a(g128
I20
I0
tp135
a(g128
I17
I0
tp136
a(g4
(g5
(S'S4'
p137
I0
I1
tp138
Rp139
(I3
S'|'
p140
NNNI4
I1
I0
tp141
bS'bean'
p142
tp143
Rp144
I10
I0
tp145
a(g144
I3
I0
tp146
a(g144
I27
I0
tp147
a(g144
I7
I0
tp148
a(g144
I18
I0
tp149
a(g144
I2
I0
tp150
a(g144
I20
I0
tp151
a(g144
I17
I0
tp152
a(g4
(g5
(S'S6'
p153
I0
I1
tp154
Rp155
(I3
S'|'
p156
NNNI6
I1
I0
tp157
bS'yellow'
p158
tp159
Rp160
I10
I0
tp161
a(g160
I3
I0
tp162
a(g160
I27
I0
tp163
a(g160
I7
I0
tp164
a(g160
I18
I0
tp165
a(g160
I2
I0
tp166
a(g160
I20
I0
tp167
a(g160
I17
I0
tp168
a(g4
(g5
(S'S9'
p169
I0
I1
tp170
Rp171
(I3
S'|'
p172
NNNI9
I1
I0
tp173
bS'container'
p174
tp175
Rp176
I18
I1
tp177
a(g4
(g5
(S'S8'
p178
I0
I1
tp179
Rp180
(I3
S'|'
p181
NNNI8
I1
I0
tp182
bS'cylinder'
p183
tp184
Rp185
I3
I1
tp186
a(g4
(g5
(S'S9'
p187
I0
I1
tp188
Rp189
(I3
S'|'
p190
NNNI9
I1
I0
tp191
bS'container'
p192
tp193
Rp194
I27
I0
tp195
a(g4
(g5
(S'S5'
p196
I0
I1
tp197
Rp198
(I3
S'|'
p199
NNNI5
I1
I0
tp200
bS'white'
p201
tp202
Rp203
I10
I0
tp204
a(g203
I3
I0
tp205
a(g203
I27
I0
tp206
a(g203
I7
I0
tp207
a(g203
I18
I0
tp208
a(g203
I2
I0
tp209
a(g203
I20
I0
tp210
a(g203
I17
I0
tp211
a(g4
(g5
(S'S5'
p212
I0
I1
tp213
Rp214
(I3
S'|'
p215
NNNI5
I1
I0
tp216
bS'empty'
p217
tp218
Rp219
I2
I0
tp220
a(g4
(g5
(S'S8'
p221
I0
I1
tp222
Rp223
(I3
S'|'
p224
NNNI8
I1
I0
tp225
bS'cylinder'
p226
tp227
Rp228
I3
I0
tp229
a(g4
(g5
(S'S9'
p230
I0
I1
tp231
Rp232
(I3
S'|'
p233
NNNI9
I1
I0
tp234
bS'rectangle'
p235
tp236
Rp237
I10
I0
tp238
a(g237
I3
I0
tp239
a(g237
I27
I0
tp240
a(g237
I7
I0
tp241
a(g237
I18
I0
tp242
a(g237
I2
I0
tp243
a(g237
I20
I0
tp244
a(g237
I17
I0
tp245
a(g4
(g5
(S'S5'
p246
I0
I1
tp247
Rp248
(I3
S'|'
p249
NNNI5
I1
I0
tp250
bS'tower'
p251
tp252
Rp253
I10
I0
tp254
a(g253
I3
I0
tp255
a(g253
I27
I0
tp256
a(g253
I7
I0
tp257
a(g253
I18
I0
tp258
a(g253
I2
I0
tp259
a(g253
I20
I0
tp260
a(g253
I17
I0
tp261
a(g4
(g5
(S'S6'
p262
I0
I1
tp263
Rp264
(I3
S'|'
p265
NNNI6
I1
I0
tp266
bS'coffee'
p267
tp268
Rp269
I10
I0
tp270
a(g269
I3
I0
tp271
a(g269
I27
I0
tp272
a(g269
I7
I0
tp273
a(g269
I18
I0
tp274
a(g269
I2
I0
tp275
a(g269
I20
I0
tp276
a(g269
I17
I0
tp277
aa(lp278
(S'instructions'
p279
S'clear'
p280
I01
tp281
a(S'object'
p282
S'container'
p283
I01
tp284
a(S'm'
p285
S'metallic'
p286
I01
tp287
aa.