(lp0
(lp1
(dp2
S'action'
p3
cnumpy.core.multiarray
scalar
p4
(cnumpy
dtype
p5
(S'S4'
p6
I0
I1
tp7
Rp8
(I3
S'|'
p9
NNNI4
I1
I0
tp10
bS'walk'
p11
tp12
Rp13
sS'recipient'
p14
NsS'patient'
p15
NsS'goal'
p16
g4
(g5
(S'S4'
p17
I0
I1
tp18
Rp19
(I3
S'|'
p20
NNNI4
I1
I0
tp21
bS'3422'
p22
tp23
Rp24
sS'source'
p25
Nsaa(lp26
(dp27
S'all'
p28
(lp29
S"go to walter ward supervisor 's office"
p30
asg15
(lp31
sg16
(lp32
S"walter 's office"
p33
asg25
(lp34
sg3
(lp35
sg14
(lp36
saa(lp37
(g4
(g5
(S'S4'
p38
I0
I1
tp39
Rp40
(I3
S'|'
p41
NNNI4
I1
I0
tp42
bS'long'
p43
tp44
Rp45
I3
I1
tp46
a(g4
(g5
(S'S3'
p47
I0
I1
tp48
Rp49
(I3
S'|'
p50
NNNI3
I1
I0
tp51
bS'can'
p52
tp53
Rp54
I10
I0
tp55
a(g54
I3
I0
tp56
a(g54
I27
I0
tp57
a(g54
I7
I0
tp58
a(g54
I18
I0
tp59
a(g54
I2
I0
tp60
a(g54
I20
I0
tp61
a(g54
I17
I0
tp62
a(g4
(g5
(S'S8'
p63
I0
I1
tp64
Rp65
(I3
S'|'
p66
NNNI8
I1
I0
tp67
bS'metallic'
p68
tp69
Rp70
I10
I0
tp71
a(g70
I3
I0
tp72
a(g70
I27
I0
tp73
a(g70
I7
I0
tp74
a(g70
I18
I0
tp75
a(g70
I2
I0
tp76
a(g70
I20
I0
tp77
a(g70
I17
I0
tp78
a(g4
(g5
(S'S4'
p79
I0
I1
tp80
Rp81
(I3
S'|'
p82
NNNI4
I1
I0
tp83
bS'blue'
p84
tp85
Rp86
I18
I1
tp87
a(g4
(g5
(S'S5'
p88
I0
I1
tp89
Rp90
(I3
S'|'
p91
NNNI5
I1
I0
tp92
bS'white'
p93
tp94
Rp95
I10
I1
tp96
aa(lp97
a.