(lp0
(lp1
(dp2
S'action'
p3
cnumpy.core.multiarray
scalar
p4
(cnumpy
dtype
p5
(S'S4'
p6
I0
I1
tp7
Rp8
(I3
S'|'
p9
NNNI4
I1
I0
tp10
bS'walk'
p11
tp12
Rp13
sS'recipient'
p14
NsS'patient'
p15
NsS'goal'
p16
g4
(g5
(S'S4'
p17
I0
I1
tp18
Rp19
(I3
S'|'
p20
NNNI4
I1
I0
tp21
bS'3406'
p22
tp23
Rp24
sS'source'
p25
Nsa(dp26
g3
g4
(g5
(S'S5'
p27
I0
I1
tp28
Rp29
(I3
S'|'
p30
NNNI5
I1
I0
tp31
bS'bring'
p32
tp33
Rp34
sg14
g4
(g5
(S'S1'
p35
I0
I1
tp36
Rp37
(I3
S'|'
p38
NNNI1
I1
I0
tp39
bS's'
p40
tp41
Rp42
sg15
S'oidx_11'
p43
sg16
Nsg25
Nsa(dp44
g3
g4
(g5
(S'S4'
p45
I0
I1
tp46
Rp47
(I3
S'|'
p48
NNNI4
I1
I0
tp49
bS'move'
p50
tp51
Rp52
sg14
Nsg15
S'oidx_28'
p53
sg16
S'3414a'
p54
sg25
g4
(g5
(S'S4'
p55
I0
I1
tp56
Rp57
(I3
S'|'
p58
NNNI4
I1
I0
tp59
bS'3408'
p60
tp61
Rp62
saa(lp63
(dp64
S'all'
p65
(lp66
S'go to the lounge'
p67
asg15
(lp68
sg16
(lp69
S'the lounge'
p70
aS'the lounge by the pod'
p71
aS'the lounge by office n'
p72
asg25
(lp73
sg3
(lp74
sg14
(lp75
sa(dp76
g65
(lp77
S'bring the yellow can to s'
p78
asg15
(lp79
S'yellow can'
p80
aS'yellow can'
p81
aS'can'
p82
aS'can'
p83
aS'empty can'
p84
aS'can'
p85
aS'yellow can'
p86
aS'yellow can'
p87
aS'yellow and orange can'
p88
aS'orange can'
p89
aS'deliver orange can to dr sybil'
p90
asg16
(lp91
sg25
(lp92
sg3
(lp93
sg14
(lp94
S'dr sybil'
p95
asa(dp96
g65
(lp97
S'take object from pod to lab'
p98
asg15
(lp99
S'white rectangle'
p100
aS'white rectangle'
p101
aS'white rectangle'
p102
aS'white rectangle'
p103
aS'white rectangle'
p104
aS'white rectangle foam'
p105
aS'white rectangle foam'
p106
asg16
(lp107
S'to the lab'
p108
asg25
(lp109
S'the pod to the lab'
p110
aS'the pod to the lab'
p111
aS'the pod'
p112
aS'the pod'
p113
asg3
(lp114
sg14
(lp115
saa(lp116
(g4
(g5
(S'S8'
p117
I0
I1
tp118
Rp119
(I3
S'|'
p120
NNNI8
I1
I0
tp121
bS'metallic'
p122
tp123
Rp124
I10
I0
tp125
a(g124
I3
I0
tp126
a(g124
I27
I0
tp127
a(g124
I7
I0
tp128
a(g124
I18
I0
tp129
a(g124
I2
I0
tp130
a(g124
I20
I0
tp131
a(g124
I17
I0
tp132
a(g4
(g5
(S'S6'
p133
I0
I1
tp134
Rp135
(I3
S'|'
p136
NNNI6
I1
I0
tp137
bS'yellow'
p138
tp139
Rp140
I10
I0
tp141
a(g140
I3
I0
tp142
a(g140
I27
I0
tp143
a(g140
I7
I0
tp144
a(g140
I18
I0
tp145
a(g140
I2
I0
tp146
a(g140
I20
I0
tp147
a(g140
I17
I0
tp148
a(g4
(g5
(S'S9'
p149
I0
I1
tp150
Rp151
(I3
S'|'
p152
NNNI9
I1
I0
tp153
bS'rectangle'
p154
tp155
Rp156
I10
I0
tp157
a(g156
I3
I0
tp158
a(g156
I27
I0
tp159
a(g156
I7
I0
tp160
a(g156
I18
I0
tp161
a(g156
I2
I0
tp162
a(g156
I20
I0
tp163
a(g156
I17
I0
tp164
a(g4
(g5
(S'S4'
p165
I0
I1
tp166
Rp167
(I3
S'|'
p168
NNNI4
I1
I0
tp169
bS'blue'
p170
tp171
Rp172
I18
I1
tp173
a(g4
(g5
(S'S6'
p174
I0
I1
tp175
Rp176
(I3
S'|'
p177
NNNI6
I1
I0
tp178
bS'column'
p179
tp180
Rp181
I20
I1
tp182
a(g4
(g5
(S'S3'
p183
I0
I1
tp184
Rp185
(I3
S'|'
p186
NNNI3
I1
I0
tp187
bS'can'
p188
tp189
Rp190
I2
I1
tp191
a(g4
(g5
(S'S3'
p192
I0
I1
tp193
Rp194
(I3
S'|'
p195
NNNI3
I1
I0
tp196
bS'can'
p197
tp198
Rp199
I27
I0
tp200
a(g4
(g5
(S'S3'
p201
I0
I1
tp202
Rp203
(I3
S'|'
p204
NNNI3
I1
I0
tp205
bS'can'
p206
tp207
Rp208
I2
I1
tp209
a(g4
(g5
(S'S3'
p210
I0
I1
tp211
Rp212
(I3
S'|'
p213
NNNI3
I1
I0
tp214
bS'can'
p215
tp216
Rp217
I7
I0
tp218
a(g4
(g5
(S'S4'
p219
I0
I1
tp220
Rp221
(I3
S'|'
p222
NNNI4
I1
I0
tp223
bS'blue'
p224
tp225
Rp226
I17
I0
tp227
a(g4
(g5
(S'S4'
p228
I0
I1
tp229
Rp230
(I3
S'|'
p231
NNNI4
I1
I0
tp232
bS'long'
p233
tp234
Rp235
I3
I1
tp236
a(g4
(g5
(S'S3'
p237
I0
I1
tp238
Rp239
(I3
S'|'
p240
NNNI3
I1
I0
tp241
bS'can'
p242
tp243
Rp244
I2
I1
tp245
a(g4
(g5
(S'S6'
p246
I0
I1
tp247
Rp248
(I3
S'|'
p249
NNNI6
I1
I0
tp250
bS'coffee'
p251
tp252
Rp253
I10
I0
tp254
a(g253
I3
I0
tp255
a(g253
I27
I0
tp256
a(g253
I7
I0
tp257
a(g253
I18
I0
tp258
a(g253
I2
I0
tp259
a(g253
I20
I0
tp260
a(g253
I17
I0
tp261
a(g4
(g5
(S'S5'
p262
I0
I1
tp263
Rp264
(I3
S'|'
p265
NNNI5
I1
I0
tp266
bS'tower'
p267
tp268
Rp269
I7
I1
tp270
a(g4
(g5
(S'S4'
p271
I0
I1
tp272
Rp273
(I3
S'|'
p274
NNNI4
I1
I0
tp275
bS'long'
p276
tp277
Rp278
I27
I0
tp279
aa(lp280
(S'orange'
p281
S'white'
p282
I00
tp283
a(g281
S'yellow'
p284
I01
tp285
aa.