(lp0
(lp1
(dp2
S'action'
p3
cnumpy.core.multiarray
scalar
p4
(cnumpy
dtype
p5
(S'S4'
p6
I0
I1
tp7
Rp8
(I3
S'|'
p9
NNNI4
I1
I0
tp10
bS'walk'
p11
tp12
Rp13
sS'recipient'
p14
NsS'patient'
p15
NsS'goal'
p16
S'3430'
p17
sS'source'
p18
Nsa(dp19
g3
g4
(g5
(S'S4'
p20
I0
I1
tp21
Rp22
(I3
S'|'
p23
NNNI4
I1
I0
tp24
bS'move'
p25
tp26
Rp27
sg14
Nsg15
S'oidx_26'
p28
sg16
S'3514'
p29
sg18
g4
(g5
(S'S4'
p30
I0
I1
tp31
Rp32
(I3
S'|'
p33
NNNI4
I1
I0
tp34
bS'3514'
p35
tp36
Rp37
saa(lp38
(dp39
S'all'
p40
(lp41
S'walk to the lounge'
p42
asg15
(lp43
sg16
(lp44
S'dr sybil smalt office'
p45
asg18
(lp46
sg3
(lp47
sg14
(lp48
sa(dp49
g40
(lp50
S'take the container to sr sybil smalt'
p51
asg15
(lp52
S'yes'
p53
aS's'
p54
asg16
(lp55
sg18
(lp56
S'the container of aspirin'
p57
aS'the lounge'
p58
asg3
(lp59
sg14
(lp60
saa(lp61
(g4
(g5
(S'S9'
p62
I0
I1
tp63
Rp64
(I3
S'|'
p65
NNNI9
I1
I0
tp66
bS'container'
p67
tp68
Rp69
I2
I1
tp70
a(g4
(g5
(S'S6'
p71
I0
I1
tp72
Rp73
(I3
S'|'
p74
NNNI6
I1
I0
tp75
bS'column'
p76
tp77
Rp78
I3
I1
tp79
a(g4
(g5
(S'S6'
p80
I0
I1
tp81
Rp82
(I3
S'|'
p83
NNNI6
I1
I0
tp84
bS'column'
p85
tp86
Rp87
I27
I0
tp88
a(g4
(g5
(S'S6'
p89
I0
I1
tp90
Rp91
(I3
S'|'
p92
NNNI6
I1
I0
tp93
bS'coffee'
p94
tp95
Rp96
I10
I0
tp97
a(g96
I3
I0
tp98
a(g96
I27
I0
tp99
a(g96
I7
I0
tp100
a(g96
I18
I0
tp101
a(g96
I2
I0
tp102
a(g96
I20
I0
tp103
a(g96
I17
I0
tp104
a(g4
(g5
(S'S5'
p105
I0
I1
tp106
Rp107
(I3
S'|'
p108
NNNI5
I1
I0
tp109
bS'peach'
p110
tp111
Rp112
I10
I0
tp113
a(g112
I3
I0
tp114
a(g112
I27
I0
tp115
a(g112
I7
I0
tp116
a(g112
I18
I0
tp117
a(g112
I2
I0
tp118
a(g112
I20
I0
tp119
a(g112
I17
I0
tp120
a(g4
(g5
(S'S9'
p121
I0
I1
tp122
Rp123
(I3
S'|'
p124
NNNI9
I1
I0
tp125
bS'container'
p126
tp127
Rp128
I2
I0
tp129
a(g4
(g5
(S'S9'
p130
I0
I1
tp131
Rp132
(I3
S'|'
p133
NNNI9
I1
I0
tp134
bS'container'
p135
tp136
Rp137
I27
I1
tp138
a(g4
(g5
(S'S9'
p139
I0
I1
tp140
Rp141
(I3
S'|'
p142
NNNI9
I1
I0
tp143
bS'container'
p144
tp145
Rp146
I10
I1
tp147
a(g146
I3
I1
tp148
a(g146
I27
I1
tp149
a(g146
I7
I1
tp150
a(g146
I18
I1
tp151
a(g146
I2
I1
tp152
a(g146
I20
I1
tp153
a(g146
I17
I1
tp154
a(g4
(g5
(S'S4'
p155
I0
I1
tp156
Rp157
(I3
S'|'
p158
NNNI4
I1
I0
tp159
bS'bean'
p160
tp161
Rp162
I10
I0
tp163
a(g162
I3
I0
tp164
a(g162
I27
I0
tp165
a(g162
I7
I0
tp166
a(g162
I18
I0
tp167
a(g162
I2
I0
tp168
a(g162
I20
I0
tp169
a(g162
I17
I0
tp170
a(g4
(g5
(S'S3'
p171
I0
I1
tp172
Rp173
(I3
S'|'
p174
NNNI3
I1
I0
tp175
bS'can'
p176
tp177
Rp178
I10
I1
tp179
aa(lp180
a.