(lp0
(lp1
(dp2
S'action'
p3
cnumpy.core.multiarray
scalar
p4
(cnumpy
dtype
p5
(S'S5'
p6
I0
I1
tp7
Rp8
(I3
S'|'
p9
NNNI5
I1
I0
tp10
bS'bring'
p11
tp12
Rp13
sS'recipient'
p14
S'm'
p15
sS'patient'
p16
S'oidx_22'
p17
sS'goal'
p18
NsS'source'
p19
Nsa(dp20
g3
g4
(g5
(S'S5'
p21
I0
I1
tp22
Rp23
(I3
S'|'
p24
NNNI5
I1
I0
tp25
bS'bring'
p26
tp27
Rp28
sg14
g4
(g5
(S'S1'
p29
I0
I1
tp30
Rp31
(I3
S'|'
p32
NNNI1
I1
I0
tp33
bS'h'
p34
tp35
Rp36
sg16
g4
(g5
(S'S7'
p37
I0
I1
tp38
Rp39
(I3
S'|'
p40
NNNI7
I1
I0
tp41
bS'oidx_26'
p42
tp43
Rp44
sg18
Nsg19
Nsaa(lp45
(dp46
S'all'
p47
(lp48
S'you need to get to your desk'
p49
asg16
(lp50
S'printer'
p51
aS'bottle'
p52
asg18
(lp53
sg19
(lp54
sg3
(lp55
sg14
(lp56
sa(dp57
g47
(lp58
S'deliver a can'
p59
asg16
(lp60
S'red can'
p61
aS'can'
p62
aS'a can'
p63
aS'open can'
p64
aS'a drink'
p65
aS'a container'
p66
asg18
(lp67
sg19
(lp68
sg3
(lp69
sg14
(lp70
S'dr heidi hughes'
p71
asaa(lp72
(g4
(g5
(S'S4'
p73
I0
I1
tp74
Rp75
(I3
S'|'
p76
NNNI4
I1
I0
tp77
bS'blue'
p78
tp79
Rp80
I18
I1
tp81
a(g4
(g5
(S'S4'
p82
I0
I1
tp83
Rp84
(I3
S'|'
p85
NNNI4
I1
I0
tp86
bS'long'
p87
tp88
Rp89
I3
I1
tp90
a(g4
(g5
(S'S9'
p91
I0
I1
tp92
Rp93
(I3
S'|'
p94
NNNI9
I1
I0
tp95
bS'styrofoam'
p96
tp97
Rp98
I20
I1
tp99
a(g4
(g5
(S'S4'
p100
I0
I1
tp101
Rp102
(I3
S'|'
p103
NNNI4
I1
I0
tp104
bS'bean'
p105
tp106
Rp107
I10
I0
tp108
a(g107
I3
I0
tp109
a(g107
I27
I0
tp110
a(g107
I7
I0
tp111
a(g107
I18
I0
tp112
a(g107
I2
I0
tp113
a(g107
I20
I0
tp114
a(g107
I17
I0
tp115
a(g4
(g5
(S'S5'
p116
I0
I1
tp117
Rp118
(I3
S'|'
p119
NNNI5
I1
I0
tp120
bS'clear'
p121
tp122
Rp123
I10
I0
tp124
a(g123
I3
I0
tp125
a(g123
I27
I0
tp126
a(g123
I7
I0
tp127
a(g123
I18
I0
tp128
a(g123
I2
I0
tp129
a(g123
I20
I0
tp130
a(g123
I17
I0
tp131
a(g4
(g5
(S'S3'
p132
I0
I1
tp133
Rp134
(I3
S'|'
p135
NNNI3
I1
I0
tp136
bS'can'
p137
tp138
Rp139
I10
I1
tp140
a(g4
(g5
(S'S3'
p141
I0
I1
tp142
Rp143
(I3
S'|'
p144
NNNI3
I1
I0
tp145
bS'can'
p146
tp147
Rp148
I20
I0
tp149
a(g4
(g5
(S'S3'
p150
I0
I1
tp151
Rp152
(I3
S'|'
p153
NNNI3
I1
I0
tp154
bS'can'
p155
tp156
Rp157
I2
I1
tp158
a(g4
(g5
(S'S3'
p159
I0
I1
tp160
Rp161
(I3
S'|'
p162
NNNI3
I1
I0
tp163
bS'can'
p164
tp165
Rp166
I20
I0
tp167
a(g4
(g5
(S'S3'
p168
I0
I1
tp169
Rp170
(I3
S'|'
p171
NNNI3
I1
I0
tp172
bS'can'
p173
tp174
Rp175
I10
I0
tp176
a(g175
I3
I0
tp177
a(g175
I27
I0
tp178
a(g175
I7
I0
tp179
a(g175
I18
I0
tp180
a(g175
I2
I0
tp181
a(g175
I20
I0
tp182
a(g175
I17
I0
tp183
aa(lp184
(S'you'
p185
S'can'
p186
I00
tp187
a(g52
S'container'
p188
I01
tp189
a(S'red'
p190
S'white'
p191
I01
tp192
aa.