(lp0
(lp1
(dp2
S'action'
p3
cnumpy.core.multiarray
scalar
p4
(cnumpy
dtype
p5
(S'S5'
p6
I0
I1
tp7
Rp8
(I3
S'|'
p9
NNNI5
I1
I0
tp10
bS'bring'
p11
tp12
Rp13
sS'recipient'
p14
g4
(g5
(S'S1'
p15
I0
I1
tp16
Rp17
(I3
S'|'
p18
NNNI1
I1
I0
tp19
bS'm'
p20
tp21
Rp22
sS'patient'
p23
S'oidx_22'
p24
sS'goal'
p25
NsS'source'
p26
Nsa(dp27
g3
g4
(g5
(S'S4'
p28
I0
I1
tp29
Rp30
(I3
S'|'
p31
NNNI4
I1
I0
tp32
bS'move'
p33
tp34
Rp35
sg14
Nsg23
S'oidx_12'
p36
sg25
S'3402'
p37
sg26
S'3516'
p38
sa(dp39
g3
g4
(g5
(S'S4'
p40
I0
I1
tp41
Rp42
(I3
S'|'
p43
NNNI4
I1
I0
tp44
bS'move'
p45
tp46
Rp47
sg14
Nsg23
S'oidx_13'
p48
sg25
S'3406'
p49
sg26
S'3410'
p50
saa(lp51
(dp52
S'all'
p53
(lp54
S"visit mallory manroon 's offic"
p55
asg23
(lp56
S'a letter'
p57
asg25
(lp58
sg26
(lp59
sg3
(lp60
sg14
(lp61
S'mallory'
p62
asa(dp63
g53
(lp64
S'give the object to someone'
p65
asg23
(lp66
S'the container'
p67
asg25
(lp68
S'to h'
p69
asg26
(lp70
sg3
(lp71
sg14
(lp72
sa(dp73
g53
(lp74
S'give container to w'
p75
asg23
(lp76
S'blue'
p77
asg25
(lp78
sg26
(lp79
S'w'
p80
aS'lounge'
p81
asg3
(lp82
sg14
(lp83
saa(lp84
(g4
(g5
(S'S6'
p85
I0
I1
tp86
Rp87
(I3
S'|'
p88
NNNI6
I1
I0
tp89
bS'column'
p90
tp91
Rp92
I10
I0
tp93
a(g92
I3
I0
tp94
a(g92
I27
I0
tp95
a(g92
I7
I0
tp96
a(g92
I18
I0
tp97
a(g92
I2
I0
tp98
a(g92
I20
I0
tp99
a(g92
I17
I0
tp100
a(g4
(g5
(S'S5'
p101
I0
I1
tp102
Rp103
(I3
S'|'
p104
NNNI5
I1
I0
tp105
bS'tower'
p106
tp107
Rp108
I3
I1
tp109
a(g4
(g5
(S'S5'
p110
I0
I1
tp111
Rp112
(I3
S'|'
p113
NNNI5
I1
I0
tp114
bS'clear'
p115
tp116
Rp117
I10
I0
tp118
a(g117
I3
I0
tp119
a(g117
I27
I0
tp120
a(g117
I7
I0
tp121
a(g117
I18
I0
tp122
a(g117
I2
I0
tp123
a(g117
I20
I0
tp124
a(g117
I17
I0
tp125
a(g4
(g5
(S'S4'
p126
I0
I1
tp127
Rp128
(I3
S'|'
p129
NNNI4
I1
I0
tp130
bS'long'
p131
tp132
Rp133
I3
I1
tp134
a(g4
(g5
(S'S5'
p135
I0
I1
tp136
Rp137
(I3
S'|'
p138
NNNI5
I1
I0
tp139
bS'block'
p140
tp141
Rp142
I10
I0
tp143
a(g142
I3
I0
tp144
a(g142
I27
I0
tp145
a(g142
I7
I0
tp146
a(g142
I18
I0
tp147
a(g142
I2
I0
tp148
a(g142
I20
I0
tp149
a(g142
I17
I0
tp150
a(g4
(g5
(S'S9'
p151
I0
I1
tp152
Rp153
(I3
S'|'
p154
NNNI9
I1
I0
tp155
bS'container'
p156
tp157
Rp158
I10
I1
tp159
a(g4
(g5
(S'S9'
p160
I0
I1
tp161
Rp162
(I3
S'|'
p163
NNNI9
I1
I0
tp164
bS'container'
p165
tp166
Rp167
I20
I0
tp168
a(g4
(g5
(S'S9'
p169
I0
I1
tp170
Rp171
(I3
S'|'
p172
NNNI9
I1
I0
tp173
bS'container'
p174
tp175
Rp176
I2
I1
tp177
a(g4
(g5
(S'S9'
p178
I0
I1
tp179
Rp180
(I3
S'|'
p181
NNNI9
I1
I0
tp182
bS'container'
p183
tp184
Rp185
I27
I0
tp186
a(g4
(g5
(S'S9'
p187
I0
I1
tp188
Rp189
(I3
S'|'
p190
NNNI9
I1
I0
tp191
bS'container'
p192
tp193
Rp194
I17
I1
tp195
a(g4
(g5
(S'S9'
p196
I0
I1
tp197
Rp198
(I3
S'|'
p199
NNNI9
I1
I0
tp200
bS'rectangle'
p201
tp202
Rp203
I10
I0
tp204
a(g203
I3
I0
tp205
a(g203
I27
I0
tp206
a(g203
I7
I0
tp207
a(g203
I18
I0
tp208
a(g203
I2
I0
tp209
a(g203
I20
I0
tp210
a(g203
I17
I0
tp211
a(g4
(g5
(S'S9'
p212
I0
I1
tp213
Rp214
(I3
S'|'
p215
NNNI9
I1
I0
tp216
bS'container'
p217
tp218
Rp219
I18
I1
tp220
a(g4
(g5
(S'S3'
p221
I0
I1
tp222
Rp223
(I3
S'|'
p224
NNNI3
I1
I0
tp225
bS'can'
p226
tp227
Rp228
I2
I1
tp229
a(g4
(g5
(S'S9'
p230
I0
I1
tp231
Rp232
(I3
S'|'
p233
NNNI9
I1
I0
tp234
bS'styrofoam'
p235
tp236
Rp237
I10
I0
tp238
a(g237
I3
I0
tp239
a(g237
I27
I0
tp240
a(g237
I7
I0
tp241
a(g237
I18
I0
tp242
a(g237
I2
I0
tp243
a(g237
I20
I0
tp244
a(g237
I17
I0
tp245
a(g4
(g5
(S'S4'
p246
I0
I1
tp247
Rp248
(I3
S'|'
p249
NNNI4
I1
I0
tp250
bS'blue'
p251
tp252
Rp253
I17
I1
tp254
aa(lp255
(S'object'
p256
S'container'
p257
I01
tp258
aa.