(lp0
(lp1
(dp2
S'action'
p3
cnumpy.core.multiarray
scalar
p4
(cnumpy
dtype
p5
(S'S4'
p6
I0
I1
tp7
Rp8
(I3
S'|'
p9
NNNI4
I1
I0
tp10
bS'walk'
p11
tp12
Rp13
sS'recipient'
p14
NsS'patient'
p15
NsS'goal'
p16
S'3406'
p17
sS'source'
p18
Nsaa(lp19
(dp20
S'all'
p21
(lp22
S"go to dr smalt 's office"
p23
asg15
(lp24
sg16
(lp25
S'dr smalt'
p26
aS'go to a lounge'
p27
asg18
(lp28
sg3
(lp29
sg14
(lp30
saa(lp31
(g4
(g5
(S'S6'
p32
I0
I1
tp33
Rp34
(I3
S'|'
p35
NNNI6
I1
I0
tp36
bS'coffee'
p37
tp38
Rp39
I10
I0
tp40
a(g39
I3
I0
tp41
a(g39
I27
I0
tp42
a(g39
I7
I0
tp43
a(g39
I18
I0
tp44
a(g39
I2
I0
tp45
a(g39
I20
I0
tp46
a(g39
I17
I0
tp47
a(g4
(g5
(S'S5'
p48
I0
I1
tp49
Rp50
(I3
S'|'
p51
NNNI5
I1
I0
tp52
bS'block'
p53
tp54
Rp55
I10
I0
tp56
a(g55
I3
I0
tp57
a(g55
I27
I0
tp58
a(g55
I7
I0
tp59
a(g55
I18
I0
tp60
a(g55
I2
I0
tp61
a(g55
I20
I0
tp62
a(g55
I17
I0
tp63
a(g4
(g5
(S'S8'
p64
I0
I1
tp65
Rp66
(I3
S'|'
p67
NNNI8
I1
I0
tp68
bS'metallic'
p69
tp70
Rp71
I10
I0
tp72
a(g71
I3
I0
tp73
a(g71
I27
I0
tp74
a(g71
I7
I0
tp75
a(g71
I18
I0
tp76
a(g71
I2
I0
tp77
a(g71
I20
I0
tp78
a(g71
I17
I0
tp79
a(g4
(g5
(S'S5'
p80
I0
I1
tp81
Rp82
(I3
S'|'
p83
NNNI5
I1
I0
tp84
bS'empty'
p85
tp86
Rp87
I10
I0
tp88
a(g87
I3
I0
tp89
a(g87
I27
I0
tp90
a(g87
I7
I0
tp91
a(g87
I18
I0
tp92
a(g87
I2
I0
tp93
a(g87
I20
I0
tp94
a(g87
I17
I0
tp95
a(g4
(g5
(S'S5'
p96
I0
I1
tp97
Rp98
(I3
S'|'
p99
NNNI5
I1
I0
tp100
bS'spice'
p101
tp102
Rp103
I10
I0
tp104
a(g103
I3
I0
tp105
a(g103
I27
I0
tp106
a(g103
I7
I0
tp107
a(g103
I18
I0
tp108
a(g103
I2
I0
tp109
a(g103
I20
I0
tp110
a(g103
I17
I0
tp111
aa(lp112
a.