(lp0
(lp1
(dp2
S'action'
p3
cnumpy.core.multiarray
scalar
p4
(cnumpy
dtype
p5
(S'S4'
p6
I0
I1
tp7
Rp8
(I3
S'|'
p9
NNNI4
I1
I0
tp10
bS'walk'
p11
tp12
Rp13
sS'recipient'
p14
NsS'patient'
p15
NsS'goal'
p16
g4
(g5
(S'S4'
p17
I0
I1
tp18
Rp19
(I3
S'|'
p20
NNNI4
I1
I0
tp21
bS'3406'
p22
tp23
Rp24
sS'source'
p25
Nsa(dp26
g3
g4
(g5
(S'S4'
p27
I0
I1
tp28
Rp29
(I3
S'|'
p30
NNNI4
I1
I0
tp31
bS'walk'
p32
tp33
Rp34
sg14
Nsg15
Nsg16
S'3418'
p35
sg25
Nsa(dp36
g3
g4
(g5
(S'S4'
p37
I0
I1
tp38
Rp39
(I3
S'|'
p40
NNNI4
I1
I0
tp41
bS'move'
p42
tp43
Rp44
sg14
Nsg15
S'oidx_11'
p45
sg16
g4
(g5
(S'S4'
p46
I0
I1
tp47
Rp48
(I3
S'|'
p49
NNNI4
I1
I0
tp50
bS'3506'
p51
tp52
Rp53
sg25
S'3414a'
p54
saa(lp55
(dp56
S'all'
p57
(lp58
S'go to the lounge next to office r'
p59
asg15
(lp60
sg16
(lp61
sg25
(lp62
sg3
(lp63
sg14
(lp64
sa(dp65
g57
(lp66
S'bring yellow to david'
p67
asg15
(lp68
sg16
(lp69
S'go to david and bring the yellow'
p70
aS'go to the yellow and bring it to david'
p71
aS'go to the yellow can and then take it and bring it to david'
p72
aS"just stay there and i'l 's go"
p73
aS'no where'
p74
aS'wherever you want'
p75
aS'go to the can'
p76
aS'the can'
p77
aS'the yellow can'
p78
aS'go to d'
p79
aS'yes'
p80
asg25
(lp81
sg3
(lp82
sg14
(lp83
sa(dp84
g57
(lp85
S'bring the bottle from the lab to the printer'
p86
asg15
(lp87
sg16
(lp88
S'the printer to the left'
p89
aS'the printer'
p90
asg25
(lp91
S'from the lab to the printer'
p92
asg3
(lp93
sg14
(lp94
saa(lp95
(g4
(g5
(S'S4'
p96
I0
I1
tp97
Rp98
(I3
S'|'
p99
NNNI4
I1
I0
tp100
bS'blue'
p101
tp102
Rp103
I18
I1
tp104
a(g4
(g5
(S'S5'
p105
I0
I1
tp106
Rp107
(I3
S'|'
p108
NNNI5
I1
I0
tp109
bS'white'
p110
tp111
Rp112
I10
I0
tp113
a(g112
I3
I0
tp114
a(g112
I27
I0
tp115
a(g112
I7
I0
tp116
a(g112
I18
I0
tp117
a(g112
I2
I0
tp118
a(g112
I20
I0
tp119
a(g112
I17
I0
tp120
a(g4
(g5
(S'S5'
p121
I0
I1
tp122
Rp123
(I3
S'|'
p124
NNNI5
I1
I0
tp125
bS'spice'
p126
tp127
Rp128
I10
I1
tp129
a(g4
(g5
(S'S6'
p130
I0
I1
tp131
Rp132
(I3
S'|'
p133
NNNI6
I1
I0
tp134
bS'yellow'
p135
tp136
Rp137
I27
I1
tp138
a(g4
(g5
(S'S5'
p139
I0
I1
tp140
Rp141
(I3
S'|'
p142
NNNI5
I1
I0
tp143
bS'empty'
p144
tp145
Rp146
I10
I0
tp147
a(g146
I3
I0
tp148
a(g146
I27
I0
tp149
a(g146
I7
I0
tp150
a(g146
I18
I0
tp151
a(g146
I2
I0
tp152
a(g146
I20
I0
tp153
a(g146
I17
I0
tp154
a(g4
(g5
(S'S9'
p155
I0
I1
tp156
Rp157
(I3
S'|'
p158
NNNI9
I1
I0
tp159
bS'rectangle'
p160
tp161
Rp162
I10
I0
tp163
a(g162
I3
I0
tp164
a(g162
I27
I0
tp165
a(g162
I7
I0
tp166
a(g162
I18
I0
tp167
a(g162
I2
I0
tp168
a(g162
I20
I0
tp169
a(g162
I17
I0
tp170
a(g4
(g5
(S'S4'
p171
I0
I1
tp172
Rp173
(I3
S'|'
p174
NNNI4
I1
I0
tp175
bS'bean'
p176
tp177
Rp178
I10
I0
tp179
a(g178
I3
I0
tp180
a(g178
I27
I0
tp181
a(g178
I7
I0
tp182
a(g178
I18
I0
tp183
a(g178
I2
I0
tp184
a(g178
I20
I0
tp185
a(g178
I17
I0
tp186
a(g4
(g5
(S'S4'
p187
I0
I1
tp188
Rp189
(I3
S'|'
p190
NNNI4
I1
I0
tp191
bS'blue'
p192
tp193
Rp194
I27
I0
tp195
a(g4
(g5
(S'S8'
p196
I0
I1
tp197
Rp198
(I3
S'|'
p199
NNNI8
I1
I0
tp200
bS'metallic'
p201
tp202
Rp203
I10
I0
tp204
a(g203
I3
I0
tp205
a(g203
I27
I0
tp206
a(g203
I7
I0
tp207
a(g203
I18
I0
tp208
a(g203
I2
I0
tp209
a(g203
I20
I0
tp210
a(g203
I17
I0
tp211
a(g4
(g5
(S'S9'
p212
I0
I1
tp213
Rp214
(I3
S'|'
p215
NNNI9
I1
I0
tp216
bS'styrofoam'
p217
tp218
Rp219
I2
I1
tp220
a(g4
(g5
(S'S5'
p221
I0
I1
tp222
Rp223
(I3
S'|'
p224
NNNI5
I1
I0
tp225
bS'peach'
p226
tp227
Rp228
I10
I0
tp229
a(g228
I3
I0
tp230
a(g228
I27
I0
tp231
a(g228
I7
I0
tp232
a(g228
I18
I0
tp233
a(g228
I2
I0
tp234
a(g228
I20
I0
tp235
a(g228
I17
I0
tp236
a(g4
(g5
(S'S4'
p237
I0
I1
tp238
Rp239
(I3
S'|'
p240
NNNI4
I1
I0
tp241
bS'blue'
p242
tp243
Rp244
I18
I1
tp245
a(g4
(g5
(S'S9'
p246
I0
I1
tp247
Rp248
(I3
S'|'
p249
NNNI9
I1
I0
tp250
bS'container'
p251
tp252
Rp253
I10
I0
tp254
a(g253
I3
I0
tp255
a(g253
I27
I0
tp256
a(g253
I7
I0
tp257
a(g253
I18
I0
tp258
a(g253
I2
I0
tp259
a(g253
I20
I0
tp260
a(g253
I17
I0
tp261
a(g4
(g5
(S'S6'
p262
I0
I1
tp263
Rp264
(I3
S'|'
p265
NNNI6
I1
I0
tp266
bS'column'
p267
tp268
Rp269
I10
I0
tp270
a(g269
I3
I0
tp271
a(g269
I27
I0
tp272
a(g269
I7
I0
tp273
a(g269
I18
I0
tp274
a(g269
I2
I0
tp275
a(g269
I20
I0
tp276
a(g269
I17
I0
tp277
a(g4
(g5
(S'S4'
p278
I0
I1
tp279
Rp280
(I3
S'|'
p281
NNNI4
I1
I0
tp282
bS'blue'
p283
tp284
Rp285
I10
I1
tp286
a(g285
I3
I1
tp287
a(g285
I27
I1
tp288
a(g285
I7
I1
tp289
a(g285
I18
I1
tp290
a(g285
I2
I1
tp291
a(g285
I20
I1
tp292
a(g285
I17
I1
tp293
aa(lp294
(S'you'
p295
S'can'
p296
I00
tp297
a(S'bottle'
p298
S'container'
p299
I01
tp300
aa.