(lp0
(lp1
(dp2
S'action'
p3
cnumpy.core.multiarray
scalar
p4
(cnumpy
dtype
p5
(S'S5'
p6
I0
I1
tp7
Rp8
(I3
S'|'
p9
NNNI5
I1
I0
tp10
bS'bring'
p11
tp12
Rp13
sS'recipient'
p14
S'h'
p15
sS'patient'
p16
S'oidx_13'
p17
sS'goal'
p18
NsS'source'
p19
Nsa(dp20
g3
g4
(g5
(S'S5'
p21
I0
I1
tp22
Rp23
(I3
S'|'
p24
NNNI5
I1
I0
tp25
bS'bring'
p26
tp27
Rp28
sg14
g4
(g5
(S'S1'
p29
I0
I1
tp30
Rp31
(I3
S'|'
p32
NNNI1
I1
I0
tp33
bS'h'
p34
tp35
Rp36
sg16
S'oidx_11'
p37
sg18
Nsg19
Nsaa(lp38
(dp39
S'all'
p40
(lp41
S'go to the pod between maroon and parker'
p42
asg16
(lp43
S'food'
p44
aS'something blue'
p45
aS'a blue bottle'
p46
asg18
(lp47
sg19
(lp48
sg3
(lp49
sg14
(lp50
sa(dp51
g40
(lp52
S'take the yellow can to that person'
p53
asg16
(lp54
S'yellow can'
p55
aS'yellow can'
p56
aS'yellow tin can'
p57
aS'yellow tin can'
p58
asg18
(lp59
sg19
(lp60
sg3
(lp61
sg14
(lp62
g34
aS'dr heidi hughes'
p63
asaa(lp64
(g4
(g5
(S'S9'
p65
I0
I1
tp66
Rp67
(I3
S'|'
p68
NNNI9
I1
I0
tp69
bS'rectangle'
p70
tp71
Rp72
I10
I0
tp73
a(g72
I3
I0
tp74
a(g72
I27
I0
tp75
a(g72
I7
I0
tp76
a(g72
I18
I0
tp77
a(g72
I2
I0
tp78
a(g72
I20
I0
tp79
a(g72
I17
I0
tp80
a(g4
(g5
(S'S4'
p81
I0
I1
tp82
Rp83
(I3
S'|'
p84
NNNI4
I1
I0
tp85
bS'blue'
p86
tp87
Rp88
I18
I1
tp89
a(g4
(g5
(S'S5'
p90
I0
I1
tp91
Rp92
(I3
S'|'
p93
NNNI5
I1
I0
tp94
bS'empty'
p95
tp96
Rp97
I10
I0
tp98
a(g97
I3
I0
tp99
a(g97
I27
I0
tp100
a(g97
I7
I0
tp101
a(g97
I18
I0
tp102
a(g97
I2
I0
tp103
a(g97
I20
I0
tp104
a(g97
I17
I0
tp105
a(g4
(g5
(S'S5'
p106
I0
I1
tp107
Rp108
(I3
S'|'
p109
NNNI5
I1
I0
tp110
bS'white'
p111
tp112
Rp113
I10
I1
tp114
a(g4
(g5
(S'S4'
p115
I0
I1
tp116
Rp117
(I3
S'|'
p118
NNNI4
I1
I0
tp119
bS'bean'
p120
tp121
Rp122
I10
I0
tp123
a(g122
I3
I0
tp124
a(g122
I27
I0
tp125
a(g122
I7
I0
tp126
a(g122
I18
I0
tp127
a(g122
I2
I0
tp128
a(g122
I20
I0
tp129
a(g122
I17
I0
tp130
a(g4
(g5
(S'S6'
p131
I0
I1
tp132
Rp133
(I3
S'|'
p134
NNNI6
I1
I0
tp135
bS'yellow'
p136
tp137
Rp138
I10
I0
tp139
a(g138
I3
I0
tp140
a(g138
I27
I0
tp141
a(g138
I7
I0
tp142
a(g138
I18
I0
tp143
a(g138
I2
I0
tp144
a(g138
I20
I0
tp145
a(g138
I17
I0
tp146
a(g4
(g5
(S'S3'
p147
I0
I1
tp148
Rp149
(I3
S'|'
p150
NNNI3
I1
I0
tp151
bS'can'
p152
tp153
Rp154
I10
I0
tp155
a(g154
I3
I0
tp156
a(g154
I27
I0
tp157
a(g154
I7
I0
tp158
a(g154
I18
I0
tp159
a(g154
I2
I0
tp160
a(g154
I20
I0
tp161
a(g154
I17
I0
tp162
a(g4
(g5
(S'S5'
p163
I0
I1
tp164
Rp165
(I3
S'|'
p166
NNNI5
I1
I0
tp167
bS'clear'
p168
tp169
Rp170
I10
I0
tp171
a(g170
I3
I0
tp172
a(g170
I27
I0
tp173
a(g170
I7
I0
tp174
a(g170
I18
I0
tp175
a(g170
I2
I0
tp176
a(g170
I20
I0
tp177
a(g170
I17
I0
tp178
a(g4
(g5
(S'S5'
p179
I0
I1
tp180
Rp181
(I3
S'|'
p182
NNNI5
I1
I0
tp183
bS'spice'
p184
tp185
Rp186
I10
I0
tp187
a(g186
I3
I0
tp188
a(g186
I27
I0
tp189
a(g186
I7
I0
tp190
a(g186
I18
I0
tp191
a(g186
I2
I0
tp192
a(g186
I20
I0
tp193
a(g186
I17
I0
tp194
a(g4
(g5
(S'S8'
p195
I0
I1
tp196
Rp197
(I3
S'|'
p198
NNNI8
I1
I0
tp199
bS'pringles'
p200
tp201
Rp202
I10
I0
tp203
a(g202
I3
I0
tp204
a(g202
I27
I0
tp205
a(g202
I7
I0
tp206
a(g202
I18
I0
tp207
a(g202
I2
I0
tp208
a(g202
I20
I0
tp209
a(g202
I17
I0
tp210
aa(lp211
(S'tin'
p212
S'container'
p213
I00
tp214
a(g212
S'metallic'
p215
I01
tp216
aa.