(lp0
(lp1
(dp2
S'action'
p3
cnumpy.core.multiarray
scalar
p4
(cnumpy
dtype
p5
(S'S4'
p6
I0
I1
tp7
Rp8
(I3
S'|'
p9
NNNI4
I1
I0
tp10
bS'walk'
p11
tp12
Rp13
sS'recipient'
p14
NsS'patient'
p15
NsS'goal'
p16
g4
(g5
(S'S4'
p17
I0
I1
tp18
Rp19
(I3
S'|'
p20
NNNI4
I1
I0
tp21
bS'3404'
p22
tp23
Rp24
sS'source'
p25
Nsa(dp26
g3
g4
(g5
(S'S5'
p27
I0
I1
tp28
Rp29
(I3
S'|'
p30
NNNI5
I1
I0
tp31
bS'bring'
p32
tp33
Rp34
sg14
g4
(g5
(S'S1'
p35
I0
I1
tp36
Rp37
(I3
S'|'
p38
NNNI1
I1
I0
tp39
bS'd'
p40
tp41
Rp42
sg15
S'oidx_12'
p43
sg16
Nsg25
Nsa(dp44
g3
g4
(g5
(S'S4'
p45
I0
I1
tp46
Rp47
(I3
S'|'
p48
NNNI4
I1
I0
tp49
bS'move'
p50
tp51
Rp52
sg14
Nsg15
g4
(g5
(S'S7'
p53
I0
I1
tp54
Rp55
(I3
S'|'
p56
NNNI7
I1
I0
tp57
bS'oidx_28'
p58
tp59
Rp60
sg16
g4
(g5
(S'S4'
p61
I0
I1
tp62
Rp63
(I3
S'|'
p64
NNNI4
I1
I0
tp65
bS'3436'
p66
tp67
Rp68
sg25
S'3516'
p69
saa(lp70
(dp71
S'all'
p72
(lp73
S"go to dave 's office"
p74
asg15
(lp75
sg16
(lp76
sg25
(lp77
sg3
(lp78
sg14
(lp79
sa(dp80
g72
(lp81
S'give bob the soda can'
p82
asg15
(lp83
S'can'
p84
asg16
(lp85
sg25
(lp86
sg3
(lp87
sg14
(lp88
sa(dp89
g72
(lp90
S'move the object from the pod to the lab'
p91
asg15
(lp92
S'the object'
p93
aS'the object'
p94
asg16
(lp95
S'the lab'
p96
asg25
(lp97
sg3
(lp98
sg14
(lp99
saa(lp100
(g4
(g5
(S'S4'
p101
I0
I1
tp102
Rp103
(I3
S'|'
p104
NNNI4
I1
I0
tp105
bS'bean'
p106
tp107
Rp108
I10
I0
tp109
a(g108
I3
I0
tp110
a(g108
I27
I0
tp111
a(g108
I7
I0
tp112
a(g108
I18
I0
tp113
a(g108
I2
I0
tp114
a(g108
I20
I0
tp115
a(g108
I17
I0
tp116
a(g4
(g5
(S'S5'
p117
I0
I1
tp118
Rp119
(I3
S'|'
p120
NNNI5
I1
I0
tp121
bS'tower'
p122
tp123
Rp124
I10
I0
tp125
a(g124
I3
I0
tp126
a(g124
I27
I0
tp127
a(g124
I7
I0
tp128
a(g124
I18
I0
tp129
a(g124
I2
I0
tp130
a(g124
I20
I0
tp131
a(g124
I17
I0
tp132
a(g4
(g5
(S'S8'
p133
I0
I1
tp134
Rp135
(I3
S'|'
p136
NNNI8
I1
I0
tp137
bS'pringles'
p138
tp139
Rp140
I2
I1
tp141
a(g4
(g5
(S'S3'
p142
I0
I1
tp143
Rp144
(I3
S'|'
p145
NNNI3
I1
I0
tp146
bS'can'
p147
tp148
Rp149
I10
I1
tp150
a(g4
(g5
(S'S5'
p151
I0
I1
tp152
Rp153
(I3
S'|'
p154
NNNI5
I1
I0
tp155
bS'clear'
p156
tp157
Rp158
I2
I1
tp159
a(g4
(g5
(S'S3'
p160
I0
I1
tp161
Rp162
(I3
S'|'
p163
NNNI3
I1
I0
tp164
bS'can'
p165
tp166
Rp167
I27
I0
tp168
a(g4
(g5
(S'S3'
p169
I0
I1
tp170
Rp171
(I3
S'|'
p172
NNNI3
I1
I0
tp173
bS'can'
p174
tp175
Rp176
I10
I1
tp177
a(g4
(g5
(S'S3'
p178
I0
I1
tp179
Rp180
(I3
S'|'
p181
NNNI3
I1
I0
tp182
bS'can'
p183
tp184
Rp185
I3
I0
tp186
a(g4
(g5
(S'S3'
p187
I0
I1
tp188
Rp189
(I3
S'|'
p190
NNNI3
I1
I0
tp191
bS'can'
p192
tp193
Rp194
I2
I1
tp195
a(g4
(g5
(S'S3'
p196
I0
I1
tp197
Rp198
(I3
S'|'
p199
NNNI3
I1
I0
tp200
bS'can'
p201
tp202
Rp203
I17
I0
tp204
a(g4
(g5
(S'S6'
p205
I0
I1
tp206
Rp207
(I3
S'|'
p208
NNNI6
I1
I0
tp209
bS'object'
p210
tp211
Rp212
I18
I1
tp213
a(g4
(g5
(S'S6'
p214
I0
I1
tp215
Rp216
(I3
S'|'
p217
NNNI6
I1
I0
tp218
bS'object'
p219
tp220
Rp221
I10
I1
tp222
a(g221
I3
I1
tp223
a(g221
I27
I1
tp224
a(g221
I7
I1
tp225
a(g221
I18
I1
tp226
a(g221
I2
I1
tp227
a(g221
I20
I1
tp228
a(g221
I17
I1
tp229
a(g4
(g5
(S'S3'
p230
I0
I1
tp231
Rp232
(I3
S'|'
p233
NNNI3
I1
I0
tp234
bS'can'
p235
tp236
Rp237
I10
I1
tp238
a(g4
(g5
(S'S9'
p239
I0
I1
tp240
Rp241
(I3
S'|'
p242
NNNI9
I1
I0
tp243
bS'container'
p244
tp245
Rp246
I2
I1
tp247
a(g4
(g5
(S'S3'
p248
I0
I1
tp249
Rp250
(I3
S'|'
p251
NNNI3
I1
I0
tp252
bS'can'
p253
tp254
Rp255
I20
I0
tp256
aa(lp257
(S'object'
p258
S'container'
p259
I00
tp260
a(g258
S'metallic'
p261
I00
tp262
aa.