(lp0
(lp1
(dp2
S'action'
p3
cnumpy.core.multiarray
scalar
p4
(cnumpy
dtype
p5
(S'S4'
p6
I0
I1
tp7
Rp8
(I3
S'|'
p9
NNNI4
I1
I0
tp10
bS'walk'
p11
tp12
Rp13
sS'recipient'
p14
NsS'patient'
p15
NsS'goal'
p16
g4
(g5
(S'S4'
p17
I0
I1
tp18
Rp19
(I3
S'|'
p20
NNNI4
I1
I0
tp21
bS'3514'
p22
tp23
Rp24
sS'source'
p25
Nsa(dp26
g3
g4
(g5
(S'S4'
p27
I0
I1
tp28
Rp29
(I3
S'|'
p30
NNNI4
I1
I0
tp31
bS'walk'
p32
tp33
Rp34
sg14
Nsg15
Nsg16
g4
(g5
(S'S4'
p35
I0
I1
tp36
Rp37
(I3
S'|'
p38
NNNI4
I1
I0
tp39
bS'3502'
p40
tp41
Rp42
sg25
Nsa(dp43
g3
g4
(g5
(S'S4'
p44
I0
I1
tp45
Rp46
(I3
S'|'
p47
NNNI4
I1
I0
tp48
bS'walk'
p49
tp50
Rp51
sg14
Nsg15
Nsg16
S'3410'
p52
sg25
Nsaa(lp53
(dp54
S'all'
p55
(lp56
S'go to the lounge and relax'
p57
asg15
(lp58
sg16
(lp59
S'go to the lounge'
p60
asg25
(lp61
sg3
(lp62
sg14
(lp63
sa(dp64
g55
(lp65
S'give person m the object on the table'
p66
asg15
(lp67
sg16
(lp68
S'go see mallory mal maroon'
p69
aS"go to mallory maroon 's office"
p70
asg25
(lp71
sg3
(lp72
sg14
(lp73
sa(dp74
g55
(lp75
S'go to the pod and retrieve the object in there'
p76
asg15
(lp77
sg16
(lp78
S'go to the center pod'
p79
asg25
(lp80
sg3
(lp81
sg14
(lp82
saa(lp83
(g4
(g5
(S'S5'
p84
I0
I1
tp85
Rp86
(I3
S'|'
p87
NNNI5
I1
I0
tp88
bS'empty'
p89
tp90
Rp91
I10
I0
tp92
a(g91
I3
I0
tp93
a(g91
I27
I0
tp94
a(g91
I7
I0
tp95
a(g91
I18
I0
tp96
a(g91
I2
I0
tp97
a(g91
I20
I0
tp98
a(g91
I17
I0
tp99
a(g4
(g5
(S'S8'
p100
I0
I1
tp101
Rp102
(I3
S'|'
p103
NNNI8
I1
I0
tp104
bS'pringles'
p105
tp106
Rp107
I10
I0
tp108
a(g107
I3
I0
tp109
a(g107
I27
I0
tp110
a(g107
I7
I0
tp111
a(g107
I18
I0
tp112
a(g107
I2
I0
tp113
a(g107
I20
I0
tp114
a(g107
I17
I0
tp115
a(g4
(g5
(S'S5'
p116
I0
I1
tp117
Rp118
(I3
S'|'
p119
NNNI5
I1
I0
tp120
bS'spice'
p121
tp122
Rp123
I2
I1
tp124
a(g4
(g5
(S'S5'
p125
I0
I1
tp126
Rp127
(I3
S'|'
p128
NNNI5
I1
I0
tp129
bS'block'
p130
tp131
Rp132
I10
I0
tp133
a(g132
I3
I0
tp134
a(g132
I27
I0
tp135
a(g132
I7
I0
tp136
a(g132
I18
I0
tp137
a(g132
I2
I0
tp138
a(g132
I20
I0
tp139
a(g132
I17
I0
tp140
a(g4
(g5
(S'S4'
p141
I0
I1
tp142
Rp143
(I3
S'|'
p144
NNNI4
I1
I0
tp145
bS'blue'
p146
tp147
Rp148
I18
I1
tp149
a(g4
(g5
(S'S4'
p150
I0
I1
tp151
Rp152
(I3
S'|'
p153
NNNI4
I1
I0
tp154
bS'blue'
p155
tp156
Rp157
I3
I0
tp158
a(g4
(g5
(S'S8'
p159
I0
I1
tp160
Rp161
(I3
S'|'
p162
NNNI8
I1
I0
tp163
bS'cylinder'
p164
tp165
Rp166
I10
I1
tp167
a(g4
(g5
(S'S6'
p168
I0
I1
tp169
Rp170
(I3
S'|'
p171
NNNI6
I1
I0
tp172
bS'column'
p173
tp174
Rp175
I10
I0
tp176
a(g175
I3
I0
tp177
a(g175
I27
I0
tp178
a(g175
I7
I0
tp179
a(g175
I18
I0
tp180
a(g175
I2
I0
tp181
a(g175
I20
I0
tp182
a(g175
I17
I0
tp183
a(g4
(g5
(S'S4'
p184
I0
I1
tp185
Rp186
(I3
S'|'
p187
NNNI4
I1
I0
tp188
bS'long'
p189
tp190
Rp191
I3
I1
tp192
a(g4
(g5
(S'S5'
p193
I0
I1
tp194
Rp195
(I3
S'|'
p196
NNNI5
I1
I0
tp197
bS'clear'
p198
tp199
Rp200
I10
I0
tp201
a(g200
I3
I0
tp202
a(g200
I27
I0
tp203
a(g200
I7
I0
tp204
a(g200
I18
I0
tp205
a(g200
I2
I0
tp206
a(g200
I20
I0
tp207
a(g200
I17
I0
tp208
a(g4
(g5
(S'S6'
p209
I0
I1
tp210
Rp211
(I3
S'|'
p212
NNNI6
I1
I0
tp213
bS'coffee'
p214
tp215
Rp216
I10
I1
tp217
a(g4
(g5
(S'S5'
p218
I0
I1
tp219
Rp220
(I3
S'|'
p221
NNNI5
I1
I0
tp222
bS'tower'
p223
tp224
Rp225
I10
I0
tp226
a(g225
I3
I0
tp227
a(g225
I27
I0
tp228
a(g225
I7
I0
tp229
a(g225
I18
I0
tp230
a(g225
I2
I0
tp231
a(g225
I20
I0
tp232
a(g225
I17
I0
tp233
a(g4
(g5
(S'S3'
p234
I0
I1
tp235
Rp236
(I3
S'|'
p237
NNNI3
I1
I0
tp238
bS'm_0'
p239
tp240
Rp241
I2
I1
tp242
a(g4
(g5
(S'S4'
p243
I0
I1
tp244
Rp245
(I3
S'|'
p246
NNNI4
I1
I0
tp247
bS'long'
p248
tp249
Rp250
I10
I0
tp251
a(g4
(g5
(S'S4'
p252
I0
I1
tp253
Rp254
(I3
S'|'
p255
NNNI4
I1
I0
tp256
bS'bean'
p257
tp258
Rp259
I10
I0
tp260
a(g259
I3
I0
tp261
a(g259
I27
I0
tp262
a(g259
I7
I0
tp263
a(g259
I18
I0
tp264
a(g259
I2
I0
tp265
a(g259
I20
I0
tp266
a(g259
I17
I0
tp267
aa(lp268
(S'person'
p269
S'can'
p270
I00
tp271
a(S'm'
p272
S'metallic'
p273
I00
tp274
a(S'object'
p275
S'container'
p276
I01
tp277
aa.