(lp0
(lp1
(dp2
S'action'
p3
cnumpy.core.multiarray
scalar
p4
(cnumpy
dtype
p5
(S'S4'
p6
I0
I1
tp7
Rp8
(I3
S'|'
p9
NNNI4
I1
I0
tp10
bS'walk'
p11
tp12
Rp13
sS'recipient'
p14
NsS'patient'
p15
NsS'goal'
p16
g4
(g5
(S'S4'
p17
I0
I1
tp18
Rp19
(I3
S'|'
p20
NNNI4
I1
I0
tp21
bS'3520'
p22
tp23
Rp24
sS'source'
p25
Nsa(dp26
g3
g4
(g5
(S'S5'
p27
I0
I1
tp28
Rp29
(I3
S'|'
p30
NNNI5
I1
I0
tp31
bS'bring'
p32
tp33
Rp34
sg14
g4
(g5
(S'S1'
p35
I0
I1
tp36
Rp37
(I3
S'|'
p38
NNNI1
I1
I0
tp39
bS's'
p40
tp41
Rp42
sg15
g4
(g5
(S'S7'
p43
I0
I1
tp44
Rp45
(I3
S'|'
p46
NNNI7
I1
I0
tp47
bS'oidx_26'
p48
tp49
Rp50
sg16
Nsg25
Nsa(dp51
g3
g4
(g5
(S'S4'
p52
I0
I1
tp53
Rp54
(I3
S'|'
p55
NNNI4
I1
I0
tp56
bS'move'
p57
tp58
Rp59
sg14
Nsg15
g4
(g5
(S'S7'
p60
I0
I1
tp61
Rp62
(I3
S'|'
p63
NNNI7
I1
I0
tp64
bS'oidx_11'
p65
tp66
Rp67
sg16
g4
(g5
(S'S4'
p68
I0
I1
tp69
Rp70
(I3
S'|'
p71
NNNI4
I1
I0
tp72
bS'3422'
p73
tp74
Rp75
sg25
g4
(g5
(S'S4'
p76
I0
I1
tp77
Rp78
(I3
S'|'
p79
NNNI4
I1
I0
tp80
bS'3510'
p81
tp82
Rp83
saa(lp84
(dp85
S'all'
p86
(lp87
S'go to the kitchen'
p88
asg15
(lp89
sg16
(lp90
sg25
(lp91
sg3
(lp92
sg14
(lp93
sa(dp94
g86
(lp95
S'sybil needs the can'
p96
asg15
(lp97
S'a soda can'
p98
aS'a can'
p99
asg16
(lp100
sg25
(lp101
sg3
(lp102
sg14
(lp103
sa(dp104
g86
(lp105
S"take the can of peaches to walter ward 's office"
p106
asg15
(lp107
S'acan'
p108
aS'a can'
p109
aS'a can'
p110
aS'a can of peaches'
p111
asg16
(lp112
S'office w'
p113
aS"walter 's office"
p114
asg25
(lp115
S'yes'
p116
aS"bob 's office"
p117
asg3
(lp118
sg14
(lp119
saa(lp120
(g4
(g5
(S'S8'
p121
I0
I1
tp122
Rp123
(I3
S'|'
p124
NNNI8
I1
I0
tp125
bS'metallic'
p126
tp127
Rp128
I10
I0
tp129
a(g128
I3
I0
tp130
a(g128
I27
I0
tp131
a(g128
I7
I0
tp132
a(g128
I18
I0
tp133
a(g128
I2
I0
tp134
a(g128
I20
I0
tp135
a(g128
I17
I0
tp136
a(g4
(g5
(S'S5'
p137
I0
I1
tp138
Rp139
(I3
S'|'
p140
NNNI5
I1
I0
tp141
bS'peach'
p142
tp143
Rp144
I10
I0
tp145
a(g144
I3
I0
tp146
a(g144
I27
I0
tp147
a(g144
I7
I0
tp148
a(g144
I18
I0
tp149
a(g144
I2
I0
tp150
a(g144
I20
I0
tp151
a(g144
I17
I0
tp152
a(g4
(g5
(S'S9'
p153
I0
I1
tp154
Rp155
(I3
S'|'
p156
NNNI9
I1
I0
tp157
bS'styrofoam'
p158
tp159
Rp160
I20
I1
tp161
a(g4
(g5
(S'S6'
p162
I0
I1
tp163
Rp164
(I3
S'|'
p165
NNNI6
I1
I0
tp166
bS'coffee'
p167
tp168
Rp169
I10
I0
tp170
a(g169
I3
I0
tp171
a(g169
I27
I0
tp172
a(g169
I7
I0
tp173
a(g169
I18
I0
tp174
a(g169
I2
I0
tp175
a(g169
I20
I0
tp176
a(g169
I17
I0
tp177
a(g4
(g5
(S'S5'
p178
I0
I1
tp179
Rp180
(I3
S'|'
p181
NNNI5
I1
I0
tp182
bS'clear'
p183
tp184
Rp185
I10
I0
tp186
a(g185
I3
I0
tp187
a(g185
I27
I0
tp188
a(g185
I7
I0
tp189
a(g185
I18
I0
tp190
a(g185
I2
I0
tp191
a(g185
I20
I0
tp192
a(g185
I17
I0
tp193
a(g4
(g5
(S'S3'
p194
I0
I1
tp195
Rp196
(I3
S'|'
p197
NNNI3
I1
I0
tp198
bS'can'
p199
tp200
Rp201
I10
I0
tp202
a(g201
I3
I0
tp203
a(g201
I27
I0
tp204
a(g201
I7
I0
tp205
a(g201
I18
I0
tp206
a(g201
I2
I0
tp207
a(g201
I20
I0
tp208
a(g201
I17
I0
tp209
a(g4
(g5
(S'S4'
p210
I0
I1
tp211
Rp212
(I3
S'|'
p213
NNNI4
I1
I0
tp214
bS'long'
p215
tp216
Rp217
I3
I1
tp218
a(g4
(g5
(S'S8'
p219
I0
I1
tp220
Rp221
(I3
S'|'
p222
NNNI8
I1
I0
tp223
bS'pringles'
p224
tp225
Rp226
I10
I0
tp227
a(g226
I3
I0
tp228
a(g226
I27
I0
tp229
a(g226
I7
I0
tp230
a(g226
I18
I0
tp231
a(g226
I2
I0
tp232
a(g226
I20
I0
tp233
a(g226
I17
I0
tp234
a(g4
(g5
(S'S8'
p235
I0
I1
tp236
Rp237
(I3
S'|'
p238
NNNI8
I1
I0
tp239
bS'cylinder'
p240
tp241
Rp242
I2
I1
tp243
a(g4
(g5
(S'S5'
p244
I0
I1
tp245
Rp246
(I3
S'|'
p247
NNNI5
I1
I0
tp248
bS'block'
p249
tp250
Rp251
I10
I0
tp252
a(g251
I3
I0
tp253
a(g251
I27
I0
tp254
a(g251
I7
I0
tp255
a(g251
I18
I0
tp256
a(g251
I2
I0
tp257
a(g251
I20
I0
tp258
a(g251
I17
I0
tp259
a(g4
(g5
(S'S9'
p260
I0
I1
tp261
Rp262
(I3
S'|'
p263
NNNI9
I1
I0
tp264
bS'container'
p265
tp266
Rp267
I2
I1
tp268
a(g4
(g5
(S'S5'
p269
I0
I1
tp270
Rp271
(I3
S'|'
p272
NNNI5
I1
I0
tp273
bS'empty'
p274
tp275
Rp276
I10
I0
tp277
a(g276
I3
I0
tp278
a(g276
I27
I0
tp279
a(g276
I7
I0
tp280
a(g276
I18
I0
tp281
a(g276
I2
I0
tp282
a(g276
I20
I0
tp283
a(g276
I17
I0
tp284
a(g4
(g5
(S'S9'
p285
I0
I1
tp286
Rp287
(I3
S'|'
p288
NNNI9
I1
I0
tp289
bS'styrofoam'
p290
tp291
Rp292
I20
I0
tp293
a(g4
(g5
(S'S5'
p294
I0
I1
tp295
Rp296
(I3
S'|'
p297
NNNI5
I1
I0
tp298
bS'spice'
p299
tp300
Rp301
I10
I0
tp302
a(g301
I3
I0
tp303
a(g301
I27
I0
tp304
a(g301
I7
I0
tp305
a(g301
I18
I0
tp306
a(g301
I2
I0
tp307
a(g301
I20
I0
tp308
a(g301
I17
I0
tp309
a(g4
(g5
(S'S8'
p310
I0
I1
tp311
Rp312
(I3
S'|'
p313
NNNI8
I1
I0
tp314
bS'cylinder'
p315
tp316
Rp317
I3
I0
tp318
aa(lp319
a.