(lp0
(lp1
(dp2
S'action'
p3
cnumpy.core.multiarray
scalar
p4
(cnumpy
dtype
p5
(S'S4'
p6
I0
I1
tp7
Rp8
(I3
S'|'
p9
NNNI4
I1
I0
tp10
bS'walk'
p11
tp12
Rp13
sS'recipient'
p14
NsS'patient'
p15
NsS'goal'
p16
g4
(g5
(S'S4'
p17
I0
I1
tp18
Rp19
(I3
S'|'
p20
NNNI4
I1
I0
tp21
bS'3420'
p22
tp23
Rp24
sS'source'
p25
Nsa(dp26
g3
g4
(g5
(S'S5'
p27
I0
I1
tp28
Rp29
(I3
S'|'
p30
NNNI5
I1
I0
tp31
bS'bring'
p32
tp33
Rp34
sg14
S'n'
p35
sg15
g4
(g5
(S'S6'
p36
I0
I1
tp37
Rp38
(I3
S'|'
p39
NNNI6
I1
I0
tp40
bS'oidx_6'
p41
tp42
Rp43
sg16
Nsg25
Nsa(dp44
g3
g4
(g5
(S'S4'
p45
I0
I1
tp46
Rp47
(I3
S'|'
p48
NNNI4
I1
I0
tp49
bS'move'
p50
tp51
Rp52
sg14
Nsg15
g4
(g5
(S'S7'
p53
I0
I1
tp54
Rp55
(I3
S'|'
p56
NNNI7
I1
I0
tp57
bS'oidx_11'
p58
tp59
Rp60
sg16
S'3510'
p61
sg25
g4
(g5
(S'S4'
p62
I0
I1
tp63
Rp64
(I3
S'|'
p65
NNNI4
I1
I0
tp66
bS'3518'
p67
tp68
Rp69
saa(lp70
(dp71
S'all'
p72
(lp73
S"go to david daniel 's office"
p74
asg15
(lp75
sg16
(lp76
sg25
(lp77
sg3
(lp78
sg14
(lp79
sa(dp80
g72
(lp81
S'deliver the pill bottle to nancy nagel'
p82
asg15
(lp83
S'a small container'
p84
aS'a small white bottle'
p85
aS'a white pill bottle'
p86
aS'a small red and white plastic container'
p87
aS'a pill bottle'
p88
aS'something white'
p89
aS'a bottle'
p90
asg16
(lp91
sg25
(lp92
sg3
(lp93
sg14
(lp94
sa(dp95
g72
(lp96
S"move the metallic can from the pod in the corner to robert brown 's office"
p97
asg15
(lp98
S'a metallic can'
p99
aS'a metallic can'
p100
aS'a can'
p101
aS'a can of peaches'
p102
asg16
(lp103
S"to robert brown 's office"
p104
aS"to robert brown 's office"
p105
aS"to robert brown 's office"
p106
asg25
(lp107
S"from the corner pod to robert brown 's office"
p108
aS'from the pod closest to the kitchen'
p109
aS"from the room three to the left of richard rogue 's office"
p110
aS'from the pod'
p111
aS'from the pod'
p112
aS'from the pod closest to the lounge across from the kitchen'
p113
aS'from the pod closest to the lounge across from the kitchen'
p114
aS'from the pod closest to the kitchen'
p115
aS"from the pod across from sybil smalt 's office"
p116
aS'from the pod in the corner'
p117
aS'from the pod in the corner'
p118
aS'from the pod to the left of the conference room'
p119
aS"from the pod that 's to the left of richard rogue 's office"
p120
aS'from the pod in the lower right corner'
p121
aS'from the pod'
p122
asg3
(lp123
sg14
(lp124
saa(lp125
(g4
(g5
(S'S8'
p126
I0
I1
tp127
Rp128
(I3
S'|'
p129
NNNI8
I1
I0
tp130
bS'cylinder'
p131
tp132
Rp133
I3
I1
tp134
a(g4
(g5
(S'S5'
p135
I0
I1
tp136
Rp137
(I3
S'|'
p138
NNNI5
I1
I0
tp139
bS'peach'
p140
tp141
Rp142
I10
I0
tp143
a(g142
I3
I0
tp144
a(g142
I27
I0
tp145
a(g142
I7
I0
tp146
a(g142
I18
I0
tp147
a(g142
I2
I0
tp148
a(g142
I20
I0
tp149
a(g142
I17
I0
tp150
a(g4
(g5
(S'S6'
p151
I0
I1
tp152
Rp153
(I3
S'|'
p154
NNNI6
I1
I0
tp155
bS'coffee'
p156
tp157
Rp158
I2
I1
tp159
a(g4
(g5
(S'S8'
p160
I0
I1
tp161
Rp162
(I3
S'|'
p163
NNNI8
I1
I0
tp164
bS'cylinder'
p165
tp166
Rp167
I27
I0
tp168
a(g4
(g5
(S'S3'
p169
I0
I1
tp170
Rp171
(I3
S'|'
p172
NNNI3
I1
I0
tp173
bS'can'
p174
tp175
Rp176
I10
I0
tp177
a(g176
I3
I0
tp178
a(g176
I27
I0
tp179
a(g176
I7
I0
tp180
a(g176
I18
I0
tp181
a(g176
I2
I0
tp182
a(g176
I20
I0
tp183
a(g176
I17
I0
tp184
a(g4
(g5
(S'S5'
p185
I0
I1
tp186
Rp187
(I3
S'|'
p188
NNNI5
I1
I0
tp189
bS'small'
p190
tp191
Rp192
I27
I1
tp193
a(g4
(g5
(S'S9'
p194
I0
I1
tp195
Rp196
(I3
S'|'
p197
NNNI9
I1
I0
tp198
bS'container'
p199
tp200
Rp201
I10
I1
tp202
a(g4
(g5
(S'S5'
p203
I0
I1
tp204
Rp205
(I3
S'|'
p206
NNNI5
I1
I0
tp207
bS'small'
p208
tp209
Rp210
I7
I0
tp211
a(g4
(g5
(S'S9'
p212
I0
I1
tp213
Rp214
(I3
S'|'
p215
NNNI9
I1
I0
tp216
bS'container'
p217
tp218
Rp219
I27
I0
tp220
a(g4
(g5
(S'S5'
p221
I0
I1
tp222
Rp223
(I3
S'|'
p224
NNNI5
I1
I0
tp225
bS'small'
p226
tp227
Rp228
I10
I1
tp229
a(g4
(g5
(S'S9'
p230
I0
I1
tp231
Rp232
(I3
S'|'
p233
NNNI9
I1
I0
tp234
bS'container'
p235
tp236
Rp237
I10
I0
tp238
a(g237
I3
I0
tp239
a(g237
I27
I0
tp240
a(g237
I7
I0
tp241
a(g237
I18
I0
tp242
a(g237
I2
I0
tp243
a(g237
I20
I0
tp244
a(g237
I17
I0
tp245
a(g4
(g5
(S'S6'
p246
I0
I1
tp247
Rp248
(I3
S'|'
p249
NNNI6
I1
I0
tp250
bS'column'
p251
tp252
Rp253
I3
I1
tp254
a(g4
(g5
(S'S7'
p255
I0
I1
tp256
Rp257
(I3
S'|'
p258
NNNI7
I1
I0
tp259
bS'plastic'
p260
tp261
Rp262
I7
I1
tp263
a(g4
(g5
(S'S5'
p264
I0
I1
tp265
Rp266
(I3
S'|'
p267
NNNI5
I1
I0
tp268
bS'brown'
p269
tp270
Rp271
I3
I1
tp272
a(g4
(g5
(S'S6'
p273
I0
I1
tp274
Rp275
(I3
S'|'
p276
NNNI6
I1
I0
tp277
bS'coffee'
p278
tp279
Rp280
I10
I0
tp281
aa(lp282
(S'small'
p283
S'white'
p284
I00
tp285
a(S'red'
p286
g284
I00
tp287
a(g286
S'yellow'
p288
I00
tp289
a(g286
S'blue'
p290
I00
tp291
a(S'plastic'
p292
S'container'
p293
I00
tp294
a(g292
g284
I00
tp295
a(g292
S'metallic'
p296
I00
tp297
a(S'brown'
p298
S'pill'
p299
I00
tp300
a(g298
g284
I00
tp301
a(g298
g290
I00
tp302
aa.