(lp0
(lp1
(dp2
S'action'
p3
cnumpy.core.multiarray
scalar
p4
(cnumpy
dtype
p5
(S'S4'
p6
I0
I1
tp7
Rp8
(I3
S'|'
p9
NNNI4
I1
I0
tp10
bS'walk'
p11
tp12
Rp13
sS'recipient'
p14
NsS'patient'
p15
NsS'goal'
p16
g4
(g5
(S'S4'
p17
I0
I1
tp18
Rp19
(I3
S'|'
p20
NNNI4
I1
I0
tp21
bS'3502'
p22
tp23
Rp24
sS'source'
p25
Nsaa(lp26
(dp27
S'all'
p28
(lp29
S"go to mallory maroon 's office"
p30
asg15
(lp31
sg16
(lp32
S'office m'
p33
asg25
(lp34
sg3
(lp35
sg14
(lp36
saa(lp37
(g4
(g5
(S'S5'
p38
I0
I1
tp39
Rp40
(I3
S'|'
p41
NNNI5
I1
I0
tp42
bS'tower'
p43
tp44
Rp45
I10
I0
tp46
a(g45
I3
I0
tp47
a(g45
I27
I0
tp48
a(g45
I7
I0
tp49
a(g45
I18
I0
tp50
a(g45
I2
I0
tp51
a(g45
I20
I0
tp52
a(g45
I17
I0
tp53
a(g4
(g5
(S'S5'
p54
I0
I1
tp55
Rp56
(I3
S'|'
p57
NNNI5
I1
I0
tp58
bS'block'
p59
tp60
Rp61
I10
I0
tp62
a(g61
I3
I0
tp63
a(g61
I27
I0
tp64
a(g61
I7
I0
tp65
a(g61
I18
I0
tp66
a(g61
I2
I0
tp67
a(g61
I20
I0
tp68
a(g61
I17
I0
tp69
a(g4
(g5
(S'S5'
p70
I0
I1
tp71
Rp72
(I3
S'|'
p73
NNNI5
I1
I0
tp74
bS'peach'
p75
tp76
Rp77
I10
I0
tp78
a(g77
I3
I0
tp79
a(g77
I27
I0
tp80
a(g77
I7
I0
tp81
a(g77
I18
I0
tp82
a(g77
I2
I0
tp83
a(g77
I20
I0
tp84
a(g77
I17
I0
tp85
a(g4
(g5
(S'S4'
p86
I0
I1
tp87
Rp88
(I3
S'|'
p89
NNNI4
I1
I0
tp90
bS'blue'
p91
tp92
Rp93
I18
I1
tp94
a(g4
(g5
(S'S5'
p95
I0
I1
tp96
Rp97
(I3
S'|'
p98
NNNI5
I1
I0
tp99
bS'empty'
p100
tp101
Rp102
I10
I0
tp103
a(g102
I3
I0
tp104
a(g102
I27
I0
tp105
a(g102
I7
I0
tp106
a(g102
I18
I0
tp107
a(g102
I2
I0
tp108
a(g102
I20
I0
tp109
a(g102
I17
I0
tp110
aa(lp111
(S'maroon'
p112
S'white'
p113
I00
tp114
a(g112
S'yellow'
p115
I00
tp116
a(g112
S'blue'
p117
I00
tp118
aa.