(lp0
(lp1
(dp2
S'action'
p3
cnumpy.core.multiarray
scalar
p4
(cnumpy
dtype
p5
(S'S4'
p6
I0
I1
tp7
Rp8
(I3
S'|'
p9
NNNI4
I1
I0
tp10
bS'walk'
p11
tp12
Rp13
sS'recipient'
p14
NsS'patient'
p15
NsS'goal'
p16
g4
(g5
(S'S4'
p17
I0
I1
tp18
Rp19
(I3
S'|'
p20
NNNI4
I1
I0
tp21
bS'3514'
p22
tp23
Rp24
sS'source'
p25
Nsa(dp26
g3
g4
(g5
(S'S4'
p27
I0
I1
tp28
Rp29
(I3
S'|'
p30
NNNI4
I1
I0
tp31
bS'walk'
p32
tp33
Rp34
sg14
Nsg15
Nsg16
S'3420'
p35
sg25
Nsaa(lp36
(dp37
S'all'
p38
(lp39
S'go to the lounge'
p40
asg15
(lp41
sg16
(lp42
S'to the lounge'
p43
asg25
(lp44
sg3
(lp45
sg14
(lp46
sa(dp47
g38
(lp48
S'take the soda to mallory mal maroon'
p49
asg15
(lp50
sg16
(lp51
S'to mallory mal maroon'
p52
aS'm'
p53
aS'go to mallory mal maroon'
p54
aS'take the object to mallory mal maroon'
p55
aS'take the can to mallory mal maroon'
p56
aS'take the can to m'
p57
aS'mallory mal maroon needs the soda'
p58
aS'mallory mal maroon'
p59
aS'office'
p60
aS'nowhere'
p61
aS'yes'
p62
aS'to the object'
p63
asg25
(lp64
sg3
(lp65
sg14
(lp66
saa(lp67
(g4
(g5
(S'S9'
p68
I0
I1
tp69
Rp70
(I3
S'|'
p71
NNNI9
I1
I0
tp72
bS'styrofoam'
p73
tp74
Rp75
I10
I0
tp76
a(g75
I3
I0
tp77
a(g75
I27
I0
tp78
a(g75
I7
I0
tp79
a(g75
I18
I0
tp80
a(g75
I2
I0
tp81
a(g75
I20
I0
tp82
a(g75
I17
I0
tp83
a(g4
(g5
(S'S4'
p84
I0
I1
tp85
Rp86
(I3
S'|'
p87
NNNI4
I1
I0
tp88
bS'blue'
p89
tp90
Rp91
I18
I1
tp92
a(g4
(g5
(S'S5'
p93
I0
I1
tp94
Rp95
(I3
S'|'
p96
NNNI5
I1
I0
tp97
bS'peach'
p98
tp99
Rp100
I10
I0
tp101
a(g100
I3
I0
tp102
a(g100
I27
I0
tp103
a(g100
I7
I0
tp104
a(g100
I18
I0
tp105
a(g100
I2
I0
tp106
a(g100
I20
I0
tp107
a(g100
I17
I0
tp108
a(g4
(g5
(S'S9'
p109
I0
I1
tp110
Rp111
(I3
S'|'
p112
NNNI9
I1
I0
tp113
bS'rectangle'
p114
tp115
Rp116
I10
I0
tp117
a(g116
I3
I0
tp118
a(g116
I27
I0
tp119
a(g116
I7
I0
tp120
a(g116
I18
I0
tp121
a(g116
I2
I0
tp122
a(g116
I20
I0
tp123
a(g116
I17
I0
tp124
a(g4
(g5
(S'S6'
p125
I0
I1
tp126
Rp127
(I3
S'|'
p128
NNNI6
I1
I0
tp129
bS'coffee'
p130
tp131
Rp132
I2
I1
tp133
a(g4
(g5
(S'S5'
p134
I0
I1
tp135
Rp136
(I3
S'|'
p137
NNNI5
I1
I0
tp138
bS'tower'
p139
tp140
Rp141
I10
I0
tp142
a(g141
I3
I0
tp143
a(g141
I27
I0
tp144
a(g141
I7
I0
tp145
a(g141
I18
I0
tp146
a(g141
I2
I0
tp147
a(g141
I20
I0
tp148
a(g141
I17
I0
tp149
a(g4
(g5
(S'S6'
p150
I0
I1
tp151
Rp152
(I3
S'|'
p153
NNNI6
I1
I0
tp154
bS'coffee'
p155
tp156
Rp157
I2
I0
tp158
a(g4
(g5
(S'S6'
p159
I0
I1
tp160
Rp161
(I3
S'|'
p162
NNNI6
I1
I0
tp163
bS'yellow'
p164
tp165
Rp166
I10
I0
tp167
a(g166
I3
I0
tp168
a(g166
I27
I0
tp169
a(g166
I7
I0
tp170
a(g166
I18
I0
tp171
a(g166
I2
I0
tp172
a(g166
I20
I0
tp173
a(g166
I17
I0
tp174
a(g4
(g5
(S'S5'
p175
I0
I1
tp176
Rp177
(I3
S'|'
p178
NNNI5
I1
I0
tp179
bS'spice'
p180
tp181
Rp182
I10
I0
tp183
a(g182
I3
I0
tp184
a(g182
I27
I0
tp185
a(g182
I7
I0
tp186
a(g182
I18
I0
tp187
a(g182
I2
I0
tp188
a(g182
I20
I0
tp189
a(g182
I17
I0
tp190
a(g4
(g5
(S'S4'
p191
I0
I1
tp192
Rp193
(I3
S'|'
p194
NNNI4
I1
I0
tp195
bS'bean'
p196
tp197
Rp198
I10
I0
tp199
a(g198
I3
I0
tp200
a(g198
I27
I0
tp201
a(g198
I7
I0
tp202
a(g198
I18
I0
tp203
a(g198
I2
I0
tp204
a(g198
I20
I0
tp205
a(g198
I17
I0
tp206
aa(lp207
(S'maroon'
p208
S'white'
p209
I00
tp210
a(g208
S'yellow'
p211
I00
tp212
a(g208
S'blue'
p213
I00
tp214
a(S'object'
p215
S'container'
p216
I01
tp217
aa.