(lp0
(lp1
(dp2
S'action'
p3
cnumpy.core.multiarray
scalar
p4
(cnumpy
dtype
p5
(S'S4'
p6
I0
I1
tp7
Rp8
(I3
S'|'
p9
NNNI4
I1
I0
tp10
bS'walk'
p11
tp12
Rp13
sS'recipient'
p14
NsS'patient'
p15
NsS'goal'
p16
S'3420'
p17
sS'source'
p18
Nsa(dp19
g3
g4
(g5
(S'S5'
p20
I0
I1
tp21
Rp22
(I3
S'|'
p23
NNNI5
I1
I0
tp24
bS'bring'
p25
tp26
Rp27
sg14
g4
(g5
(S'S1'
p28
I0
I1
tp29
Rp30
(I3
S'|'
p31
NNNI1
I1
I0
tp32
bS'm'
p33
tp34
Rp35
sg15
g4
(g5
(S'S7'
p36
I0
I1
tp37
Rp38
(I3
S'|'
p39
NNNI7
I1
I0
tp40
bS'oidx_22'
p41
tp42
Rp43
sg16
Nsg18
Nsaa(lp44
(dp45
S'all'
p46
(lp47
S'go to the office on the right of david'
p48
asg15
(lp49
sg16
(lp50
S"the office to the right of david 's office"
p51
aS"go to david 's office"
p52
asg18
(lp53
sg3
(lp54
sg14
(lp55
sa(dp56
g46
(lp57
S'bring the cylinder mallory'
p58
asg15
(lp59
S'the peanuts'
p60
aS'the clear cylinder'
p61
asg16
(lp62
sg18
(lp63
sg3
(lp64
sg14
(lp65
saa(lp66
(g4
(g5
(S'S8'
p67
I0
I1
tp68
Rp69
(I3
S'|'
p70
NNNI8
I1
I0
tp71
bS'cylinder'
p72
tp73
Rp74
I2
I1
tp75
a(g4
(g5
(S'S4'
p76
I0
I1
tp77
Rp78
(I3
S'|'
p79
NNNI4
I1
I0
tp80
bS'bean'
p81
tp82
Rp83
I10
I0
tp84
a(g83
I3
I0
tp85
a(g83
I27
I0
tp86
a(g83
I7
I0
tp87
a(g83
I18
I0
tp88
a(g83
I2
I0
tp89
a(g83
I20
I0
tp90
a(g83
I17
I0
tp91
a(g4
(g5
(S'S9'
p92
I0
I1
tp93
Rp94
(I3
S'|'
p95
NNNI9
I1
I0
tp96
bS'rectangle'
p97
tp98
Rp99
I10
I0
tp100
a(g99
I3
I0
tp101
a(g99
I27
I0
tp102
a(g99
I7
I0
tp103
a(g99
I18
I0
tp104
a(g99
I2
I0
tp105
a(g99
I20
I0
tp106
a(g99
I17
I0
tp107
a(g4
(g5
(S'S4'
p108
I0
I1
tp109
Rp110
(I3
S'|'
p111
NNNI4
I1
I0
tp112
bS'long'
p113
tp114
Rp115
I20
I1
tp116
a(g4
(g5
(S'S5'
p117
I0
I1
tp118
Rp119
(I3
S'|'
p120
NNNI5
I1
I0
tp121
bS'spice'
p122
tp123
Rp124
I10
I0
tp125
a(g124
I3
I0
tp126
a(g124
I27
I0
tp127
a(g124
I7
I0
tp128
a(g124
I18
I0
tp129
a(g124
I2
I0
tp130
a(g124
I20
I0
tp131
a(g124
I17
I0
tp132
a(g4
(g5
(S'S8'
p133
I0
I1
tp134
Rp135
(I3
S'|'
p136
NNNI8
I1
I0
tp137
bS'pringles'
p138
tp139
Rp140
I10
I0
tp141
a(g140
I3
I0
tp142
a(g140
I27
I0
tp143
a(g140
I7
I0
tp144
a(g140
I18
I0
tp145
a(g140
I2
I0
tp146
a(g140
I20
I0
tp147
a(g140
I17
I0
tp148
a(g4
(g5
(S'S6'
p149
I0
I1
tp150
Rp151
(I3
S'|'
p152
NNNI6
I1
I0
tp153
bS'yellow'
p154
tp155
Rp156
I10
I0
tp157
a(g156
I3
I0
tp158
a(g156
I27
I0
tp159
a(g156
I7
I0
tp160
a(g156
I18
I0
tp161
a(g156
I2
I0
tp162
a(g156
I20
I0
tp163
a(g156
I17
I0
tp164
a(g4
(g5
(S'S5'
p165
I0
I1
tp166
Rp167
(I3
S'|'
p168
NNNI5
I1
I0
tp169
bS'tower'
p170
tp171
Rp172
I10
I0
tp173
a(g172
I3
I0
tp174
a(g172
I27
I0
tp175
a(g172
I7
I0
tp176
a(g172
I18
I0
tp177
a(g172
I2
I0
tp178
a(g172
I20
I0
tp179
a(g172
I17
I0
tp180
a(g4
(g5
(S'S4'
p181
I0
I1
tp182
Rp183
(I3
S'|'
p184
NNNI4
I1
I0
tp185
bS'blue'
p186
tp187
Rp188
I18
I1
tp189
a(g4
(g5
(S'S5'
p190
I0
I1
tp191
Rp192
(I3
S'|'
p193
NNNI5
I1
I0
tp194
bS'clear'
p195
tp196
Rp197
I10
I0
tp198
a(g197
I3
I0
tp199
a(g197
I27
I0
tp200
a(g197
I7
I0
tp201
a(g197
I18
I0
tp202
a(g197
I2
I0
tp203
a(g197
I20
I0
tp204
a(g197
I17
I0
tp205
aa(lp206
(S'peanuts'
p207
S'bean'
p208
I00
tp209
a(g207
S'peaches'
p210
I00
tp211
a(g207
S'beans'
p212
I00
tp213
aa.