(lp0
(lp1
(dp2
S'action'
p3
cnumpy.core.multiarray
scalar
p4
(cnumpy
dtype
p5
(S'S4'
p6
I0
I1
tp7
Rp8
(I3
S'|'
p9
NNNI4
I1
I0
tp10
bS'walk'
p11
tp12
Rp13
sS'recipient'
p14
NsS'patient'
p15
NsS'goal'
p16
S'3510'
p17
sS'source'
p18
Nsa(dp19
g3
g4
(g5
(S'S5'
p20
I0
I1
tp21
Rp22
(I3
S'|'
p23
NNNI5
I1
I0
tp24
bS'bring'
p25
tp26
Rp27
sg14
g4
(g5
(S'S1'
p28
I0
I1
tp29
Rp30
(I3
S'|'
p31
NNNI1
I1
I0
tp32
bS'p'
p33
tp34
Rp35
sg15
S'oidx_13'
p36
sg16
Nsg18
Nsaa(lp37
(dp38
S'all'
p39
(lp40
S"go to walter ward 's office"
p41
asg15
(lp42
sg16
(lp43
S"go to bob brown 's office"
p44
asg18
(lp45
sg3
(lp46
sg14
(lp47
sa(dp48
g39
(lp49
S'give the pills to peggy parker'
p50
asg15
(lp51
S'the bottle of pills'
p52
asg16
(lp53
sg18
(lp54
sg3
(lp55
sg14
(lp56
S'peggy parker'
p57
asaa(lp58
(g4
(g5
(S'S6'
p59
I0
I1
tp60
Rp61
(I3
S'|'
p62
NNNI6
I1
I0
tp63
bS'yellow'
p64
tp65
Rp66
I10
I0
tp67
a(g66
I3
I0
tp68
a(g66
I27
I0
tp69
a(g66
I7
I0
tp70
a(g66
I18
I0
tp71
a(g66
I2
I0
tp72
a(g66
I20
I0
tp73
a(g66
I17
I0
tp74
a(g4
(g5
(S'S9'
p75
I0
I1
tp76
Rp77
(I3
S'|'
p78
NNNI9
I1
I0
tp79
bS'rectangle'
p80
tp81
Rp82
I10
I0
tp83
a(g82
I3
I0
tp84
a(g82
I27
I0
tp85
a(g82
I7
I0
tp86
a(g82
I18
I0
tp87
a(g82
I2
I0
tp88
a(g82
I20
I0
tp89
a(g82
I17
I0
tp90
a(g4
(g5
(S'S5'
p91
I0
I1
tp92
Rp93
(I3
S'|'
p94
NNNI5
I1
I0
tp95
bS'clear'
p96
tp97
Rp98
I10
I0
tp99
a(g98
I3
I0
tp100
a(g98
I27
I0
tp101
a(g98
I7
I0
tp102
a(g98
I18
I0
tp103
a(g98
I2
I0
tp104
a(g98
I20
I0
tp105
a(g98
I17
I0
tp106
a(g4
(g5
(S'S8'
p107
I0
I1
tp108
Rp109
(I3
S'|'
p110
NNNI8
I1
I0
tp111
bS'pringles'
p112
tp113
Rp114
I20
I1
tp115
a(g4
(g5
(S'S5'
p116
I0
I1
tp117
Rp118
(I3
S'|'
p119
NNNI5
I1
I0
tp120
bS'block'
p121
tp122
Rp123
I10
I0
tp124
a(g123
I3
I0
tp125
a(g123
I27
I0
tp126
a(g123
I7
I0
tp127
a(g123
I18
I0
tp128
a(g123
I2
I0
tp129
a(g123
I20
I0
tp130
a(g123
I17
I0
tp131
a(g4
(g5
(S'S8'
p132
I0
I1
tp133
Rp134
(I3
S'|'
p135
NNNI8
I1
I0
tp136
bS'cylinder'
p137
tp138
Rp139
I3
I1
tp140
a(g4
(g5
(S'S8'
p141
I0
I1
tp142
Rp143
(I3
S'|'
p144
NNNI8
I1
I0
tp145
bS'cylinder'
p146
tp147
Rp148
I27
I0
tp149
a(g4
(g5
(S'S8'
p150
I0
I1
tp151
Rp152
(I3
S'|'
p153
NNNI8
I1
I0
tp154
bS'cylinder'
p155
tp156
Rp157
I3
I1
tp158
a(g4
(g5
(S'S8'
p159
I0
I1
tp160
Rp161
(I3
S'|'
p162
NNNI8
I1
I0
tp163
bS'cylinder'
p164
tp165
Rp166
I27
I0
tp167
a(g4
(g5
(S'S8'
p168
I0
I1
tp169
Rp170
(I3
S'|'
p171
NNNI8
I1
I0
tp172
bS'cylinder'
p173
tp174
Rp175
I20
I1
tp176
aa(lp177
(S'bottle'
p178
S'coffee'
p179
I00
tp180
a(g178
S'container'
p181
I00
tp182
a(g178
S'cylinder'
p183
I01
tp184
aa.