(lp0
(lp1
(dp2
S'action'
p3
cnumpy.core.multiarray
scalar
p4
(cnumpy
dtype
p5
(S'S4'
p6
I0
I1
tp7
Rp8
(I3
S'|'
p9
NNNI4
I1
I0
tp10
bS'walk'
p11
tp12
Rp13
sS'recipient'
p14
NsS'patient'
p15
NsS'goal'
p16
g4
(g5
(S'S4'
p17
I0
I1
tp18
Rp19
(I3
S'|'
p20
NNNI4
I1
I0
tp21
bS'3422'
p22
tp23
Rp24
sS'source'
p25
Nsa(dp26
g3
g4
(g5
(S'S5'
p27
I0
I1
tp28
Rp29
(I3
S'|'
p30
NNNI5
I1
I0
tp31
bS'bring'
p32
tp33
Rp34
sg14
g4
(g5
(S'S1'
p35
I0
I1
tp36
Rp37
(I3
S'|'
p38
NNNI1
I1
I0
tp39
bS'p'
p40
tp41
Rp42
sg15
S'oidx_11'
p43
sg16
Nsg25
Nsaa(lp44
(dp45
S'all'
p46
(lp47
S"go to walter 's office"
p48
asg15
(lp49
sg16
(lp50
sg25
(lp51
sg3
(lp52
sg14
(lp53
sa(dp54
g46
(lp55
S'give the yellow can to peggy'
p56
asg15
(lp57
S'yellow can'
p58
aS'yellow can'
p59
aS'yellow can'
p60
asg16
(lp61
sg25
(lp62
sg3
(lp63
sg14
(lp64
saa(lp65
(g4
(g5
(S'S9'
p66
I0
I1
tp67
Rp68
(I3
S'|'
p69
NNNI9
I1
I0
tp70
bS'container'
p71
tp72
Rp73
I10
I0
tp74
a(g73
I3
I0
tp75
a(g73
I27
I0
tp76
a(g73
I7
I0
tp77
a(g73
I18
I0
tp78
a(g73
I2
I0
tp79
a(g73
I20
I0
tp80
a(g73
I17
I0
tp81
a(g4
(g5
(S'S8'
p82
I0
I1
tp83
Rp84
(I3
S'|'
p85
NNNI8
I1
I0
tp86
bS'metallic'
p87
tp88
Rp89
I2
I1
tp90
a(g4
(g5
(S'S6'
p91
I0
I1
tp92
Rp93
(I3
S'|'
p94
NNNI6
I1
I0
tp95
bS'yellow'
p96
tp97
Rp98
I2
I1
tp99
a(g4
(g5
(S'S6'
p100
I0
I1
tp101
Rp102
(I3
S'|'
p103
NNNI6
I1
I0
tp104
bS'column'
p105
tp106
Rp107
I20
I1
tp108
a(g4
(g5
(S'S3'
p109
I0
I1
tp110
Rp111
(I3
S'|'
p112
NNNI3
I1
I0
tp113
bS'can'
p114
tp115
Rp116
I10
I1
tp117
a(g4
(g5
(S'S6'
p118
I0
I1
tp119
Rp120
(I3
S'|'
p121
NNNI6
I1
I0
tp122
bS'yellow'
p123
tp124
Rp125
I7
I0
tp126
a(g4
(g5
(S'S3'
p127
I0
I1
tp128
Rp129
(I3
S'|'
p130
NNNI3
I1
I0
tp131
bS'can'
p132
tp133
Rp134
I3
I0
tp135
a(g4
(g5
(S'S3'
p136
I0
I1
tp137
Rp138
(I3
S'|'
p139
NNNI3
I1
I0
tp140
bS'can'
p141
tp142
Rp143
I2
I1
tp144
a(g4
(g5
(S'S6'
p145
I0
I1
tp146
Rp147
(I3
S'|'
p148
NNNI6
I1
I0
tp149
bS'yellow'
p150
tp151
Rp152
I10
I0
tp153
a(g152
I3
I0
tp154
a(g152
I27
I0
tp155
a(g152
I7
I0
tp156
a(g152
I18
I0
tp157
a(g152
I2
I0
tp158
a(g152
I20
I0
tp159
a(g152
I17
I0
tp160
a(g4
(g5
(S'S3'
p161
I0
I1
tp162
Rp163
(I3
S'|'
p164
NNNI3
I1
I0
tp165
bS'can'
p166
tp167
Rp168
I7
I0
tp169
aa(lp170
a.