(lp0
(lp1
(dp2
S'action'
p3
cnumpy.core.multiarray
scalar
p4
(cnumpy
dtype
p5
(S'S4'
p6
I0
I1
tp7
Rp8
(I3
S'|'
p9
NNNI4
I1
I0
tp10
bS'walk'
p11
tp12
Rp13
sS'recipient'
p14
NsS'patient'
p15
NsS'goal'
p16
g4
(g5
(S'S4'
p17
I0
I1
tp18
Rp19
(I3
S'|'
p20
NNNI4
I1
I0
tp21
bS'3512'
p22
tp23
Rp24
sS'source'
p25
Nsaa(lp26
(dp27
S'all'
p28
(lp29
S"go to the pod that is three rooms to the left of richard rogue 's office"
p30
asg15
(lp31
sg16
(lp32
S"go to the pod located three rooms to the left of richard rogue 's office"
p33
aS"go to richard rogue 's office then go to the pod next to the nearest conference room"
p34
aS'go to the office of richard rogue secretary then go to the pod next to the nearest conference room'
p35
aS'go to the office of richard rogue secretary then go three rooms to the left'
p36
aS'go to the office of richard rogue secretary'
p37
aS"go to richard rogue 's office then go three rooms to the left"
p38
aS"go to richard rogue 's office"
p39
asg25
(lp40
sg3
(lp41
sg14
(lp42
saa(lp43
(g4
(g5
(S'S4'
p44
I0
I1
tp45
Rp46
(I3
S'|'
p47
NNNI4
I1
I0
tp48
bS'long'
p49
tp50
Rp51
I3
I1
tp52
a(g4
(g5
(S'S5'
p53
I0
I1
tp54
Rp55
(I3
S'|'
p56
NNNI5
I1
I0
tp57
bS'white'
p58
tp59
Rp60
I10
I0
tp61
a(g60
I3
I0
tp62
a(g60
I27
I0
tp63
a(g60
I7
I0
tp64
a(g60
I18
I0
tp65
a(g60
I2
I0
tp66
a(g60
I20
I0
tp67
a(g60
I17
I0
tp68
a(g4
(g5
(S'S5'
p69
I0
I1
tp70
Rp71
(I3
S'|'
p72
NNNI5
I1
I0
tp73
bS'tower'
p74
tp75
Rp76
I10
I0
tp77
a(g76
I3
I0
tp78
a(g76
I27
I0
tp79
a(g76
I7
I0
tp80
a(g76
I18
I0
tp81
a(g76
I2
I0
tp82
a(g76
I20
I0
tp83
a(g76
I17
I0
tp84
a(g4
(g5
(S'S4'
p85
I0
I1
tp86
Rp87
(I3
S'|'
p88
NNNI4
I1
I0
tp89
bS'long'
p90
tp91
Rp92
I27
I0
tp93
a(g4
(g5
(S'S5'
p94
I0
I1
tp95
Rp96
(I3
S'|'
p97
NNNI5
I1
I0
tp98
bS'empty'
p99
tp100
Rp101
I10
I0
tp102
a(g101
I3
I0
tp103
a(g101
I27
I0
tp104
a(g101
I7
I0
tp105
a(g101
I18
I0
tp106
a(g101
I2
I0
tp107
a(g101
I20
I0
tp108
a(g101
I17
I0
tp109
aa(lp110
(S'is'
p111
S'can'
p112
I00
tp113
aa.