(lp0
(lp1
(dp2
S'action'
p3
cnumpy.core.multiarray
scalar
p4
(cnumpy
dtype
p5
(S'S4'
p6
I0
I1
tp7
Rp8
(I3
S'|'
p9
NNNI4
I1
I0
tp10
bS'move'
p11
tp12
Rp13
sS'recipient'
p14
NsS'patient'
p15
S'oidx_22'
p16
sS'goal'
p17
g4
(g5
(S'S4'
p18
I0
I1
tp19
Rp20
(I3
S'|'
p21
NNNI4
I1
I0
tp22
bS'3436'
p23
tp24
Rp25
sS'source'
p26
S'3504'
p27
saa(lp28
(dp29
S'all'
p30
(lp31
S'you need to go to the lab'
p32
asg15
(lp33
sg17
(lp34
S'lab'
p35
aS'lab across from dr sybil smalt'
p36
aS'lab'
p37
aS'lab'
p38
aS'lab'
p39
aS'lab'
p40
aS'to the lab'
p41
asg26
(lp42
S'from the lab'
p43
asg3
(lp44
sg14
(lp45
saa(lp46
(g4
(g5
(S'S5'
p47
I0
I1
tp48
Rp49
(I3
S'|'
p50
NNNI5
I1
I0
tp51
bS'peach'
p52
tp53
Rp54
I10
I0
tp55
a(g54
I3
I0
tp56
a(g54
I27
I0
tp57
a(g54
I7
I0
tp58
a(g54
I18
I0
tp59
a(g54
I2
I0
tp60
a(g54
I20
I0
tp61
a(g54
I17
I0
tp62
a(g4
(g5
(S'S5'
p63
I0
I1
tp64
Rp65
(I3
S'|'
p66
NNNI5
I1
I0
tp67
bS'empty'
p68
tp69
Rp70
I10
I0
tp71
a(g70
I3
I0
tp72
a(g70
I27
I0
tp73
a(g70
I7
I0
tp74
a(g70
I18
I0
tp75
a(g70
I2
I0
tp76
a(g70
I20
I0
tp77
a(g70
I17
I0
tp78
a(g4
(g5
(S'S8'
p79
I0
I1
tp80
Rp81
(I3
S'|'
p82
NNNI8
I1
I0
tp83
bS'pringles'
p84
tp85
Rp86
I10
I0
tp87
a(g86
I3
I0
tp88
a(g86
I27
I0
tp89
a(g86
I7
I0
tp90
a(g86
I18
I0
tp91
a(g86
I2
I0
tp92
a(g86
I20
I0
tp93
a(g86
I17
I0
tp94
a(g4
(g5
(S'S5'
p95
I0
I1
tp96
Rp97
(I3
S'|'
p98
NNNI5
I1
I0
tp99
bS'white'
p100
tp101
Rp102
I10
I0
tp103
a(g102
I3
I0
tp104
a(g102
I27
I0
tp105
a(g102
I7
I0
tp106
a(g102
I18
I0
tp107
a(g102
I2
I0
tp108
a(g102
I20
I0
tp109
a(g102
I17
I0
tp110
a(g4
(g5
(S'S3'
p111
I0
I1
tp112
Rp113
(I3
S'|'
p114
NNNI3
I1
I0
tp115
bS'can'
p116
tp117
Rp118
I2
I1
tp119
aa(lp120
a.