(lp0
(lp1
(dp2
S'action'
p3
cnumpy.core.multiarray
scalar
p4
(cnumpy
dtype
p5
(S'S4'
p6
I0
I1
tp7
Rp8
(I3
S'|'
p9
NNNI4
I1
I0
tp10
bS'walk'
p11
tp12
Rp13
sS'recipient'
p14
NsS'patient'
p15
NsS'goal'
p16
g4
(g5
(S'S4'
p17
I0
I1
tp18
Rp19
(I3
S'|'
p20
NNNI4
I1
I0
tp21
bS'3504'
p22
tp23
Rp24
sS'source'
p25
Nsa(dp26
g3
g4
(g5
(S'S5'
p27
I0
I1
tp28
Rp29
(I3
S'|'
p30
NNNI5
I1
I0
tp31
bS'bring'
p32
tp33
Rp34
sg14
g4
(g5
(S'S1'
p35
I0
I1
tp36
Rp37
(I3
S'|'
p38
NNNI1
I1
I0
tp39
bS'h'
p40
tp41
Rp42
sg15
g4
(g5
(S'S7'
p43
I0
I1
tp44
Rp45
(I3
S'|'
p46
NNNI7
I1
I0
tp47
bS'oidx_11'
p48
tp49
Rp50
sg16
Nsg25
Nsa(dp51
g3
g4
(g5
(S'S4'
p52
I0
I1
tp53
Rp54
(I3
S'|'
p55
NNNI4
I1
I0
tp56
bS'move'
p57
tp58
Rp59
sg14
Nsg15
g4
(g5
(S'S7'
p60
I0
I1
tp61
Rp62
(I3
S'|'
p63
NNNI7
I1
I0
tp64
bS'oidx_13'
p65
tp66
Rp67
sg16
g4
(g5
(S'S4'
p68
I0
I1
tp69
Rp70
(I3
S'|'
p71
NNNI4
I1
I0
tp72
bS'3402'
p73
tp74
Rp75
sg25
g4
(g5
(S'S4'
p76
I0
I1
tp77
Rp78
(I3
S'|'
p79
NNNI4
I1
I0
tp80
bS'3422'
p81
tp82
Rp83
saa(lp84
(dp85
S'all'
p86
(lp87
S"go to the pod next to mallory maroon 's office"
p88
asg15
(lp89
sg16
(lp90
sg25
(lp91
sg3
(lp92
sg14
(lp93
sa(dp94
g86
(lp95
S'bring the empty can to heidi hughes'
p96
asg15
(lp97
S'the empty can'
p98
aS'the empty can'
p99
aS'the empty can of peaches'
p100
aS'the empty can'
p101
asg16
(lp102
sg25
(lp103
sg3
(lp104
sg14
(lp105
S'doctor heidi hughes'
p106
asa(dp107
g86
(lp108
S'bring the pringles from walter ward to heidi hughes'
p109
asg15
(lp110
S'the pringles can'
p111
aS'the pringles can'
p112
aS'the pringles'
p113
asg16
(lp114
S'doctor heidi hughes office'
p115
asg25
(lp116
S"from walter ward 's office to heidi hughes office"
p117
aS"walter ward supervisor 's office"
p118
aS"walter ward supervisor 's office"
p119
asg3
(lp120
sg14
(lp121
saa(lp122
(g4
(g5
(S'S5'
p123
I0
I1
tp124
Rp125
(I3
S'|'
p126
NNNI5
I1
I0
tp127
bS'white'
p128
tp129
Rp130
I10
I0
tp131
a(g130
I3
I0
tp132
a(g130
I27
I0
tp133
a(g130
I7
I0
tp134
a(g130
I18
I0
tp135
a(g130
I2
I0
tp136
a(g130
I20
I0
tp137
a(g130
I17
I0
tp138
a(g4
(g5
(S'S5'
p139
I0
I1
tp140
Rp141
(I3
S'|'
p142
NNNI5
I1
I0
tp143
bS'empty'
p144
tp145
Rp146
I10
I0
tp147
a(g146
I3
I0
tp148
a(g146
I27
I0
tp149
a(g146
I7
I0
tp150
a(g146
I18
I0
tp151
a(g146
I2
I0
tp152
a(g146
I20
I0
tp153
a(g146
I17
I0
tp154
a(g4
(g5
(S'S3'
p155
I0
I1
tp156
Rp157
(I3
S'|'
p158
NNNI3
I1
I0
tp159
bS'can'
p160
tp161
Rp162
I10
I1
tp163
a(g4
(g5
(S'S6'
p164
I0
I1
tp165
Rp166
(I3
S'|'
p167
NNNI6
I1
I0
tp168
bS'coffee'
p169
tp170
Rp171
I2
I1
tp172
a(g4
(g5
(S'S3'
p173
I0
I1
tp174
Rp175
(I3
S'|'
p176
NNNI3
I1
I0
tp177
bS'can'
p178
tp179
Rp180
I10
I0
tp181
a(g4
(g5
(S'S3'
p182
I0
I1
tp183
Rp184
(I3
S'|'
p185
NNNI3
I1
I0
tp186
bS'can'
p187
tp188
Rp189
I10
I1
tp190
a(g4
(g5
(S'S3'
p191
I0
I1
tp192
Rp193
(I3
S'|'
p194
NNNI3
I1
I0
tp195
bS'can'
p196
tp197
Rp198
I2
I0
tp199
a(g4
(g5
(S'S3'
p200
I0
I1
tp201
Rp202
(I3
S'|'
p203
NNNI3
I1
I0
tp204
bS'can'
p205
tp206
Rp207
I10
I1
tp208
a(g4
(g5
(S'S3'
p209
I0
I1
tp210
Rp211
(I3
S'|'
p212
NNNI3
I1
I0
tp213
bS'can'
p214
tp215
Rp216
I2
I0
tp217
a(g4
(g5
(S'S3'
p218
I0
I1
tp219
Rp220
(I3
S'|'
p221
NNNI3
I1
I0
tp222
bS'can'
p223
tp224
Rp225
I10
I1
tp226
a(g4
(g5
(S'S8'
p227
I0
I1
tp228
Rp229
(I3
S'|'
p230
NNNI8
I1
I0
tp231
bS'metallic'
p232
tp233
Rp234
I10
I0
tp235
a(g234
I3
I0
tp236
a(g234
I27
I0
tp237
a(g234
I7
I0
tp238
a(g234
I18
I0
tp239
a(g234
I2
I0
tp240
a(g234
I20
I0
tp241
a(g234
I17
I0
tp242
a(g4
(g5
(S'S6'
p243
I0
I1
tp244
Rp245
(I3
S'|'
p246
NNNI6
I1
I0
tp247
bS'column'
p248
tp249
Rp250
I20
I1
tp251
a(g4
(g5
(S'S5'
p252
I0
I1
tp253
Rp254
(I3
S'|'
p255
NNNI5
I1
I0
tp256
bS'block'
p257
tp258
Rp259
I10
I0
tp260
a(g259
I3
I0
tp261
a(g259
I27
I0
tp262
a(g259
I7
I0
tp263
a(g259
I18
I0
tp264
a(g259
I2
I0
tp265
a(g259
I20
I0
tp266
a(g259
I17
I0
tp267
a(g4
(g5
(S'S8'
p268
I0
I1
tp269
Rp270
(I3
S'|'
p271
NNNI8
I1
I0
tp272
bS'pringles'
p273
tp274
Rp275
I10
I0
tp276
a(g275
I3
I0
tp277
a(g275
I27
I0
tp278
a(g275
I7
I0
tp279
a(g275
I18
I0
tp280
a(g275
I2
I0
tp281
a(g275
I20
I0
tp282
a(g275
I17
I0
tp283
a(g4
(g5
(S'S5'
p284
I0
I1
tp285
Rp286
(I3
S'|'
p287
NNNI5
I1
I0
tp288
bS'spice'
p289
tp290
Rp291
I10
I0
tp292
a(g291
I3
I0
tp293
a(g291
I27
I0
tp294
a(g291
I7
I0
tp295
a(g291
I18
I0
tp296
a(g291
I2
I0
tp297
a(g291
I20
I0
tp298
a(g291
I17
I0
tp299
aa(lp300
a.