(lp0
(lp1
(dp2
S'action'
p3
cnumpy.core.multiarray
scalar
p4
(cnumpy
dtype
p5
(S'S4'
p6
I0
I1
tp7
Rp8
(I3
S'|'
p9
NNNI4
I1
I0
tp10
bS'move'
p11
tp12
Rp13
sS'recipient'
p14
NsS'patient'
p15
S'oidx_28'
p16
sS'goal'
p17
S'3420'
p18
sS'source'
p19
S'3410'
p20
sa(dp21
g3
g4
(g5
(S'S5'
p22
I0
I1
tp23
Rp24
(I3
S'|'
p25
NNNI5
I1
I0
tp26
bS'bring'
p27
tp28
Rp29
sg14
S'm'
p30
sg15
g16
sg17
Nsg19
Nsa(dp31
g3
g4
(g5
(S'S5'
p32
I0
I1
tp33
Rp34
(I3
S'|'
p35
NNNI5
I1
I0
tp36
bS'bring'
p37
tp38
Rp39
sg14
g30
sg15
g16
sg17
Nsg19
Nsaa(lp40
(dp41
S'all'
p42
(lp43
S'yes'
p44
asg15
(lp45
sg17
(lp46
S'yes'
p47
aS'yes'
p48
aS'yes'
p49
aS'no'
p50
aS'yes'
p51
aS'yes'
p52
aS'no'
p53
aS'yes'
p54
asg19
(lp55
S'no'
p56
asg3
(lp57
sg14
(lp58
sa(dp59
g42
(lp60
S'yes'
p61
asg15
(lp62
S'yes'
p63
aS'no'
p64
aS'yes'
p65
aS'yes'
p66
aS'yes'
p67
asg17
(lp68
sg19
(lp69
sg3
(lp70
sg14
(lp71
sa(dp72
g42
(lp73
S'yes'
p74
asg15
(lp75
S'yes'
p76
asg17
(lp77
sg19
(lp78
sg3
(lp79
sg14
(lp80
S'yes'
p81
aS'yes'
p82
aS'no'
p83
asaa(lp84
(g4
(g5
(S'S9'
p85
I0
I1
tp86
Rp87
(I3
S'|'
p88
NNNI9
I1
I0
tp89
bS'styrofoam'
p90
tp91
Rp92
I10
I0
tp93
a(g92
I3
I0
tp94
a(g92
I27
I0
tp95
a(g92
I7
I0
tp96
a(g92
I18
I0
tp97
a(g92
I2
I0
tp98
a(g92
I20
I0
tp99
a(g92
I17
I0
tp100
a(g4
(g5
(S'S5'
p101
I0
I1
tp102
Rp103
(I3
S'|'
p104
NNNI5
I1
I0
tp105
bS'spice'
p106
tp107
Rp108
I10
I0
tp109
a(g108
I3
I0
tp110
a(g108
I27
I0
tp111
a(g108
I7
I0
tp112
a(g108
I18
I0
tp113
a(g108
I2
I0
tp114
a(g108
I20
I0
tp115
a(g108
I17
I0
tp116
a(g4
(g5
(S'S4'
p117
I0
I1
tp118
Rp119
(I3
S'|'
p120
NNNI4
I1
I0
tp121
bS'bean'
p122
tp123
Rp124
I10
I0
tp125
a(g124
I3
I0
tp126
a(g124
I27
I0
tp127
a(g124
I7
I0
tp128
a(g124
I18
I0
tp129
a(g124
I2
I0
tp130
a(g124
I20
I0
tp131
a(g124
I17
I0
tp132
a(g4
(g5
(S'S5'
p133
I0
I1
tp134
Rp135
(I3
S'|'
p136
NNNI5
I1
I0
tp137
bS'peach'
p138
tp139
Rp140
I10
I0
tp141
a(g140
I3
I0
tp142
a(g140
I27
I0
tp143
a(g140
I7
I0
tp144
a(g140
I18
I0
tp145
a(g140
I2
I0
tp146
a(g140
I20
I0
tp147
a(g140
I17
I0
tp148
a(g4
(g5
(S'S5'
p149
I0
I1
tp150
Rp151
(I3
S'|'
p152
NNNI5
I1
I0
tp153
bS'empty'
p154
tp155
Rp156
I10
I0
tp157
a(g156
I3
I0
tp158
a(g156
I27
I0
tp159
a(g156
I7
I0
tp160
a(g156
I18
I0
tp161
a(g156
I2
I0
tp162
a(g156
I20
I0
tp163
a(g156
I17
I0
tp164
a(g4
(g5
(S'S6'
p165
I0
I1
tp166
Rp167
(I3
S'|'
p168
NNNI6
I1
I0
tp169
bS'coffee'
p170
tp171
Rp172
I10
I0
tp173
a(g172
I3
I0
tp174
a(g172
I27
I0
tp175
a(g172
I7
I0
tp176
a(g172
I18
I0
tp177
a(g172
I2
I0
tp178
a(g172
I20
I0
tp179
a(g172
I17
I0
tp180
a(g4
(g5
(S'S3'
p181
I0
I1
tp182
Rp183
(I3
S'|'
p184
NNNI3
I1
I0
tp185
bS'can'
p186
tp187
Rp188
I10
I0
tp189
a(g188
I3
I0
tp190
a(g188
I27
I0
tp191
a(g188
I7
I0
tp192
a(g188
I18
I0
tp193
a(g188
I2
I0
tp194
a(g188
I20
I0
tp195
a(g188
I17
I0
tp196
a(g4
(g5
(S'S5'
p197
I0
I1
tp198
Rp199
(I3
S'|'
p200
NNNI5
I1
I0
tp201
bS'block'
p202
tp203
Rp204
I10
I0
tp205
a(g204
I3
I0
tp206
a(g204
I27
I0
tp207
a(g204
I7
I0
tp208
a(g204
I18
I0
tp209
a(g204
I2
I0
tp210
a(g204
I20
I0
tp211
a(g204
I17
I0
tp212
a(g4
(g5
(S'S9'
p213
I0
I1
tp214
Rp215
(I3
S'|'
p216
NNNI9
I1
I0
tp217
bS'rectangle'
p218
tp219
Rp220
I10
I0
tp221
a(g220
I3
I0
tp222
a(g220
I27
I0
tp223
a(g220
I7
I0
tp224
a(g220
I18
I0
tp225
a(g220
I2
I0
tp226
a(g220
I20
I0
tp227
a(g220
I17
I0
tp228
a(g4
(g5
(S'S5'
p229
I0
I1
tp230
Rp231
(I3
S'|'
p232
NNNI5
I1
I0
tp233
bS'white'
p234
tp235
Rp236
I10
I0
tp237
a(g236
I3
I0
tp238
a(g236
I27
I0
tp239
a(g236
I7
I0
tp240
a(g236
I18
I0
tp241
a(g236
I2
I0
tp242
a(g236
I20
I0
tp243
a(g236
I17
I0
tp244
a(g4
(g5
(S'S5'
p245
I0
I1
tp246
Rp247
(I3
S'|'
p248
NNNI5
I1
I0
tp249
bS'clear'
p250
tp251
Rp252
I10
I0
tp253
a(g252
I3
I0
tp254
a(g252
I27
I0
tp255
a(g252
I7
I0
tp256
a(g252
I18
I0
tp257
a(g252
I2
I0
tp258
a(g252
I20
I0
tp259
a(g252
I17
I0
tp260
a(g4
(g5
(S'S5'
p261
I0
I1
tp262
Rp263
(I3
S'|'
p264
NNNI5
I1
I0
tp265
bS'tower'
p266
tp267
Rp268
I10
I0
tp269
a(g268
I3
I0
tp270
a(g268
I27
I0
tp271
a(g268
I7
I0
tp272
a(g268
I18
I0
tp273
a(g268
I2
I0
tp274
a(g268
I20
I0
tp275
a(g268
I17
I0
tp276
a(g4
(g5
(S'S8'
p277
I0
I1
tp278
Rp279
(I3
S'|'
p280
NNNI8
I1
I0
tp281
bS'metallic'
p282
tp283
Rp284
I10
I0
tp285
a(g284
I3
I0
tp286
a(g284
I27
I0
tp287
a(g284
I7
I0
tp288
a(g284
I18
I0
tp289
a(g284
I2
I0
tp290
a(g284
I20
I0
tp291
a(g284
I17
I0
tp292
a(g4
(g5
(S'S8'
p293
I0
I1
tp294
Rp295
(I3
S'|'
p296
NNNI8
I1
I0
tp297
bS'pringles'
p298
tp299
Rp300
I10
I0
tp301
a(g300
I3
I0
tp302
a(g300
I27
I0
tp303
a(g300
I7
I0
tp304
a(g300
I18
I0
tp305
a(g300
I2
I0
tp306
a(g300
I20
I0
tp307
a(g300
I17
I0
tp308
a(g4
(g5
(S'S9'
p309
I0
I1
tp310
Rp311
(I3
S'|'
p312
NNNI9
I1
I0
tp313
bS'container'
p314
tp315
Rp316
I10
I0
tp317
a(g316
I3
I0
tp318
a(g316
I27
I0
tp319
a(g316
I7
I0
tp320
a(g316
I18
I0
tp321
a(g316
I2
I0
tp322
a(g316
I20
I0
tp323
a(g316
I17
I0
tp324
aa(lp325
a.