(lp0
(lp1
(dp2
S'action'
p3
cnumpy.core.multiarray
scalar
p4
(cnumpy
dtype
p5
(S'S4'
p6
I0
I1
tp7
Rp8
(I3
S'|'
p9
NNNI4
I1
I0
tp10
bS'walk'
p11
tp12
Rp13
sS'recipient'
p14
NsS'patient'
p15
NsS'goal'
p16
S'3418'
p17
sS'source'
p18
Nsa(dp19
g3
g4
(g5
(S'S5'
p20
I0
I1
tp21
Rp22
(I3
S'|'
p23
NNNI5
I1
I0
tp24
bS'bring'
p25
tp26
Rp27
sg14
g4
(g5
(S'S1'
p28
I0
I1
tp29
Rp30
(I3
S'|'
p31
NNNI1
I1
I0
tp32
bS's'
p33
tp34
Rp35
sg15
S'oidx_11'
p36
sg16
Nsg18
Nsa(dp37
g3
g4
(g5
(S'S4'
p38
I0
I1
tp39
Rp40
(I3
S'|'
p41
NNNI4
I1
I0
tp42
bS'walk'
p43
tp44
Rp45
sg14
Nsg15
Nsg16
g4
(g5
(S'S4'
p46
I0
I1
tp47
Rp48
(I3
S'|'
p49
NNNI4
I1
I0
tp50
bS'3404'
p51
tp52
Rp53
sg18
Nsaa(lp54
(dp55
S'all'
p56
(lp57
S'go to office'
p58
asg15
(lp59
sg16
(lp60
S'go to office'
p61
aS'go to the office'
p62
aS'go to the office next to the conference'
p63
asg18
(lp64
sg3
(lp65
sg14
(lp66
sa(dp67
g56
(lp68
S'bring the can to sybil smalt'
p69
asg15
(lp70
S'find the can'
p71
aS'deliver the can'
p72
aS'deliver the can'
p73
aS'deliver the can'
p74
asg16
(lp75
sg18
(lp76
sg3
(lp77
sg14
(lp78
S'deliver the can to sybil smalt'
p79
asa(dp80
g56
(lp81
S"go to nancy nagel 's office"
p82
asg15
(lp83
sg16
(lp84
sg18
(lp85
sg3
(lp86
sg14
(lp87
saa(lp88
(g4
(g5
(S'S5'
p89
I0
I1
tp90
Rp91
(I3
S'|'
p92
NNNI5
I1
I0
tp93
bS'clear'
p94
tp95
Rp96
I10
I0
tp97
a(g96
I3
I0
tp98
a(g96
I27
I0
tp99
a(g96
I7
I0
tp100
a(g96
I18
I0
tp101
a(g96
I2
I0
tp102
a(g96
I20
I0
tp103
a(g96
I17
I0
tp104
a(g4
(g5
(S'S3'
p105
I0
I1
tp106
Rp107
(I3
S'|'
p108
NNNI3
I1
I0
tp109
bS'can'
p110
tp111
Rp112
I10
I1
tp113
a(g4
(g5
(S'S9'
p114
I0
I1
tp115
Rp116
(I3
S'|'
p117
NNNI9
I1
I0
tp118
bS'styrofoam'
p119
tp120
Rp121
I20
I1
tp122
a(g4
(g5
(S'S8'
p123
I0
I1
tp124
Rp125
(I3
S'|'
p126
NNNI8
I1
I0
tp127
bS'metallic'
p128
tp129
Rp130
I3
I1
tp131
a(g4
(g5
(S'S6'
p132
I0
I1
tp133
Rp134
(I3
S'|'
p135
NNNI6
I1
I0
tp136
bS'yellow'
p137
tp138
Rp139
I10
I0
tp140
a(g139
I3
I0
tp141
a(g139
I27
I0
tp142
a(g139
I7
I0
tp143
a(g139
I18
I0
tp144
a(g139
I2
I0
tp145
a(g139
I20
I0
tp146
a(g139
I17
I0
tp147
a(g4
(g5
(S'S3'
p148
I0
I1
tp149
Rp150
(I3
S'|'
p151
NNNI3
I1
I0
tp152
bS'can'
p153
tp154
Rp155
I2
I0
tp156
a(g4
(g5
(S'S3'
p157
I0
I1
tp158
Rp159
(I3
S'|'
p160
NNNI3
I1
I0
tp161
bS'can'
p162
tp163
Rp164
I2
I1
tp165
a(g4
(g5
(S'S3'
p166
I0
I1
tp167
Rp168
(I3
S'|'
p169
NNNI3
I1
I0
tp170
bS'can'
p171
tp172
Rp173
I20
I0
tp174
a(g4
(g5
(S'S3'
p175
I0
I1
tp176
Rp177
(I3
S'|'
p178
NNNI3
I1
I0
tp179
bS'can'
p180
tp181
Rp182
I10
I1
tp183
a(g4
(g5
(S'S3'
p184
I0
I1
tp185
Rp186
(I3
S'|'
p187
NNNI3
I1
I0
tp188
bS'can'
p189
tp190
Rp191
I27
I0
tp192
a(g4
(g5
(S'S4'
p193
I0
I1
tp194
Rp195
(I3
S'|'
p196
NNNI4
I1
I0
tp197
bS'bean'
p198
tp199
Rp200
I10
I0
tp201
a(g200
I3
I0
tp202
a(g200
I27
I0
tp203
a(g200
I7
I0
tp204
a(g200
I18
I0
tp205
a(g200
I2
I0
tp206
a(g200
I20
I0
tp207
a(g200
I17
I0
tp208
a(g4
(g5
(S'S3'
p209
I0
I1
tp210
Rp211
(I3
S'|'
p212
NNNI3
I1
I0
tp213
bS'can'
p214
tp215
Rp216
I10
I1
tp217
a(g4
(g5
(S'S3'
p218
I0
I1
tp219
Rp220
(I3
S'|'
p221
NNNI3
I1
I0
tp222
bS'can'
p223
tp224
Rp225
I20
I0
tp226
a(g4
(g5
(S'S8'
p227
I0
I1
tp228
Rp229
(I3
S'|'
p230
NNNI8
I1
I0
tp231
bS'cylinder'
p232
tp233
Rp234
I3
I1
tp235
a(g4
(g5
(S'S5'
p236
I0
I1
tp237
Rp238
(I3
S'|'
p239
NNNI5
I1
I0
tp240
bS'spice'
p241
tp242
Rp243
I10
I0
tp244
a(g243
I3
I0
tp245
a(g243
I27
I0
tp246
a(g243
I7
I0
tp247
a(g243
I18
I0
tp248
a(g243
I2
I0
tp249
a(g243
I20
I0
tp250
a(g243
I17
I0
tp251
aa(lp252
a.