(lp0
(lp1
(dp2
S'action'
p3
cnumpy.core.multiarray
scalar
p4
(cnumpy
dtype
p5
(S'S4'
p6
I0
I1
tp7
Rp8
(I3
S'|'
p9
NNNI4
I1
I0
tp10
bS'walk'
p11
tp12
Rp13
sS'recipient'
p14
NsS'patient'
p15
NsS'goal'
p16
g4
(g5
(S'S4'
p17
I0
I1
tp18
Rp19
(I3
S'|'
p20
NNNI4
I1
I0
tp21
bS'3514'
p22
tp23
Rp24
sS'source'
p25
Nsaa(lp26
(dp27
S'all'
p28
(lp29
S'go to the lounge'
p30
asg15
(lp31
sg16
(lp32
S'the lounge'
p33
asg25
(lp34
sg3
(lp35
sg14
(lp36
saa(lp37
(g4
(g5
(S'S9'
p38
I0
I1
tp39
Rp40
(I3
S'|'
p41
NNNI9
I1
I0
tp42
bS'container'
p43
tp44
Rp45
I2
I1
tp46
a(g4
(g5
(S'S5'
p47
I0
I1
tp48
Rp49
(I3
S'|'
p50
NNNI5
I1
I0
tp51
bS'white'
p52
tp53
Rp54
I10
I0
tp55
a(g54
I3
I0
tp56
a(g54
I27
I0
tp57
a(g54
I7
I0
tp58
a(g54
I18
I0
tp59
a(g54
I2
I0
tp60
a(g54
I20
I0
tp61
a(g54
I17
I0
tp62
a(g4
(g5
(S'S3'
p63
I0
I1
tp64
Rp65
(I3
S'|'
p66
NNNI3
I1
I0
tp67
bS'can'
p68
tp69
Rp70
I10
I0
tp71
a(g70
I3
I0
tp72
a(g70
I27
I0
tp73
a(g70
I7
I0
tp74
a(g70
I18
I0
tp75
a(g70
I2
I0
tp76
a(g70
I20
I0
tp77
a(g70
I17
I0
tp78
a(g4
(g5
(S'S6'
p79
I0
I1
tp80
Rp81
(I3
S'|'
p82
NNNI6
I1
I0
tp83
bS'column'
p84
tp85
Rp86
I20
I1
tp87
a(g4
(g5
(S'S9'
p88
I0
I1
tp89
Rp90
(I3
S'|'
p91
NNNI9
I1
I0
tp92
bS'styrofoam'
p93
tp94
Rp95
I10
I0
tp96
a(g95
I3
I0
tp97
a(g95
I27
I0
tp98
a(g95
I7
I0
tp99
a(g95
I18
I0
tp100
a(g95
I2
I0
tp101
a(g95
I20
I0
tp102
a(g95
I17
I0
tp103
aa(lp104
a.