(lp0
(lp1
(dp2
S'action'
p3
cnumpy.core.multiarray
scalar
p4
(cnumpy
dtype
p5
(S'S4'
p6
I0
I1
tp7
Rp8
(I3
S'|'
p9
NNNI4
I1
I0
tp10
bS'walk'
p11
tp12
Rp13
sS'recipient'
p14
NsS'patient'
p15
NsS'goal'
p16
g4
(g5
(S'S4'
p17
I0
I1
tp18
Rp19
(I3
S'|'
p20
NNNI4
I1
I0
tp21
bS'3418'
p22
tp23
Rp24
sS'source'
p25
Nsaa(lp26
(dp27
S'all'
p28
(lp29
S'travel to office next conference room'
p30
asg15
(lp31
sg16
(lp32
S'office next to conference room'
p33
aS'the office marked with the red x'
p34
aS'to the office next to the conference room'
p35
asg25
(lp36
sg3
(lp37
sg14
(lp38
saa(lp39
(g4
(g5
(S'S8'
p40
I0
I1
tp41
Rp42
(I3
S'|'
p43
NNNI8
I1
I0
tp44
bS'pringles'
p45
tp46
Rp47
I2
I1
tp48
a(g4
(g5
(S'S8'
p49
I0
I1
tp50
Rp51
(I3
S'|'
p52
NNNI8
I1
I0
tp53
bS'metallic'
p54
tp55
Rp56
I10
I0
tp57
a(g56
I3
I0
tp58
a(g56
I27
I0
tp59
a(g56
I7
I0
tp60
a(g56
I18
I0
tp61
a(g56
I2
I0
tp62
a(g56
I20
I0
tp63
a(g56
I17
I0
tp64
a(g4
(g5
(S'S4'
p65
I0
I1
tp66
Rp67
(I3
S'|'
p68
NNNI4
I1
I0
tp69
bS'blue'
p70
tp71
Rp72
I18
I1
tp73
a(g4
(g5
(S'S4'
p74
I0
I1
tp75
Rp76
(I3
S'|'
p77
NNNI4
I1
I0
tp78
bS'long'
p79
tp80
Rp81
I20
I1
tp82
a(g4
(g5
(S'S9'
p83
I0
I1
tp84
Rp85
(I3
S'|'
p86
NNNI9
I1
I0
tp87
bS'styrofoam'
p88
tp89
Rp90
I20
I1
tp91
aa(lp92
(S'red'
p93
S'white'
p94
I00
tp95
a(g93
S'yellow'
p96
I00
tp97
a(g93
S'blue'
p98
I00
tp99
aa.