(lp0
(lp1
(dp2
S'action'
p3
cnumpy.core.multiarray
scalar
p4
(cnumpy
dtype
p5
(S'S4'
p6
I0
I1
tp7
Rp8
(I3
S'|'
p9
NNNI4
I1
I0
tp10
bS'walk'
p11
tp12
Rp13
sS'recipient'
p14
NsS'patient'
p15
NsS'goal'
p16
S'3418'
p17
sS'source'
p18
Nsa(dp19
g3
g4
(g5
(S'S5'
p20
I0
I1
tp21
Rp22
(I3
S'|'
p23
NNNI5
I1
I0
tp24
bS'bring'
p25
tp26
Rp27
sg14
g4
(g5
(S'S1'
p28
I0
I1
tp29
Rp30
(I3
S'|'
p31
NNNI1
I1
I0
tp32
bS'n'
p33
tp34
Rp35
sg15
S'oidx_6'
p36
sg16
Nsg18
Nsa(dp37
g3
g4
(g5
(S'S4'
p38
I0
I1
tp39
Rp40
(I3
S'|'
p41
NNNI4
I1
I0
tp42
bS'walk'
p43
tp44
Rp45
sg14
Nsg15
Nsg16
S'3510'
p46
sg18
Nsaa(lp47
(dp48
S'all'
p49
(lp50
S'go to office b'
p51
asg15
(lp52
sg16
(lp53
S'go to b office'
p54
aS'colour'
p55
aS'colour yes'
p56
aS'to bring colour'
p57
asg18
(lp58
sg3
(lp59
sg14
(lp60
sa(dp61
g49
(lp62
S'take the box on the table'
p63
asg15
(lp64
S'deliver the white container to n'
p65
asg16
(lp66
sg18
(lp67
sg3
(lp68
sg14
(lp69
S'to nancy'
p70
asa(dp71
g49
(lp72
S'colour'
p73
asg15
(lp74
sg16
(lp75
S'deliver to nancy'
p76
aS'go to nancy office n'
p77
aS'yes'
p78
asg18
(lp79
sg3
(lp80
sg14
(lp81
saa(lp82
(g4
(g5
(S'S4'
p83
I0
I1
tp84
Rp85
(I3
S'|'
p86
NNNI4
I1
I0
tp87
bS'long'
p88
tp89
Rp90
I7
I1
tp91
a(g4
(g5
(S'S6'
p92
I0
I1
tp93
Rp94
(I3
S'|'
p95
NNNI6
I1
I0
tp96
bS'column'
p97
tp98
Rp99
I17
I1
tp100
a(g4
(g5
(S'S6'
p101
I0
I1
tp102
Rp103
(I3
S'|'
p104
NNNI6
I1
I0
tp105
bS'column'
p106
tp107
Rp108
I20
I0
tp109
a(g4
(g5
(S'S5'
p110
I0
I1
tp111
Rp112
(I3
S'|'
p113
NNNI5
I1
I0
tp114
bS'white'
p115
tp116
Rp117
I2
I1
tp118
a(g4
(g5
(S'S5'
p119
I0
I1
tp120
Rp121
(I3
S'|'
p122
NNNI5
I1
I0
tp123
bS'peach'
p124
tp125
Rp126
I20
I1
tp127
a(g4
(g5
(S'S4'
p128
I0
I1
tp129
Rp130
(I3
S'|'
p131
NNNI4
I1
I0
tp132
bS'bean'
p133
tp134
Rp135
I27
I1
tp136
a(g4
(g5
(S'S4'
p137
I0
I1
tp138
Rp139
(I3
S'|'
p140
NNNI4
I1
I0
tp141
bS'bean'
p142
tp143
Rp144
I27
I0
tp145
a(g4
(g5
(S'S9'
p146
I0
I1
tp147
Rp148
(I3
S'|'
p149
NNNI9
I1
I0
tp150
bS'container'
p151
tp152
Rp153
I27
I1
tp154
a(g4
(g5
(S'S4'
p155
I0
I1
tp156
Rp157
(I3
S'|'
p158
NNNI4
I1
I0
tp159
bS'bean'
p160
tp161
Rp162
I7
I1
tp163
a(g4
(g5
(S'S4'
p164
I0
I1
tp165
Rp166
(I3
S'|'
p167
NNNI4
I1
I0
tp168
bS'bean'
p169
tp170
Rp171
I7
I0
tp172
a(g4
(g5
(S'S5'
p173
I0
I1
tp174
Rp175
(I3
S'|'
p176
NNNI5
I1
I0
tp177
bS'block'
p178
tp179
Rp180
I2
I1
tp181
a(g4
(g5
(S'S5'
p182
I0
I1
tp183
Rp184
(I3
S'|'
p185
NNNI5
I1
I0
tp186
bS'block'
p187
tp188
Rp189
I10
I0
tp190
a(g4
(g5
(S'S6'
p191
I0
I1
tp192
Rp193
(I3
S'|'
p194
NNNI6
I1
I0
tp195
bS'coffee'
p196
tp197
Rp198
I10
I1
tp199
a(g4
(g5
(S'S6'
p200
I0
I1
tp201
Rp202
(I3
S'|'
p203
NNNI6
I1
I0
tp204
bS'yellow'
p205
tp206
Rp207
I10
I1
tp208
a(g4
(g5
(S'S4'
p209
I0
I1
tp210
Rp211
(I3
S'|'
p212
NNNI4
I1
I0
tp213
bS'bean'
p214
tp215
Rp216
I10
I1
tp217
aa(lp218
(S'box'
p219
S'container'
p220
I01
tp221
a(g33
S'bean'
p222
I01
tp223
aa.