(lp0
(lp1
(dp2
S'action'
p3
cnumpy.core.multiarray
scalar
p4
(cnumpy
dtype
p5
(S'S4'
p6
I0
I1
tp7
Rp8
(I3
S'|'
p9
NNNI4
I1
I0
tp10
bS'walk'
p11
tp12
Rp13
sS'recipient'
p14
NsS'patient'
p15
NsS'goal'
p16
S'3414b'
p17
sS'source'
p18
Nsa(dp19
g3
g4
(g5
(S'S4'
p20
I0
I1
tp21
Rp22
(I3
S'|'
p23
NNNI4
I1
I0
tp24
bS'walk'
p25
tp26
Rp27
sg14
Nsg15
Nsg16
S'3418'
p28
sg18
Nsa(dp29
g3
g4
(g5
(S'S4'
p30
I0
I1
tp31
Rp32
(I3
S'|'
p33
NNNI4
I1
I0
tp34
bS'move'
p35
tp36
Rp37
sg14
Nsg15
S'oidx_28'
p38
sg16
S'3516'
p39
sg18
S'3504'
p40
saa(lp41
(dp42
S'all'
p43
(lp44
S'yes'
p45
asg15
(lp46
sg16
(lp47
S'no'
p48
aS'yes'
p49
aS'yes'
p50
aS'yes office'
p51
aS'yes'
p52
aS'yes'
p53
asg18
(lp54
sg3
(lp55
sg14
(lp56
sa(dp57
g43
(lp58
S'yes'
p59
asg15
(lp60
sg16
(lp61
S'yes'
p62
aS'yes'
p63
aS'yes'
p64
aS'no'
p65
aS'yes'
p66
aS'office'
p67
aS'yes'
p68
aS'yes'
p69
aS'yes'
p70
aS'no'
p71
aS'yes'
p72
aS'yes'
p73
aS'no'
p74
aS'yes'
p75
aS'yes'
p76
aS'yes'
p77
asg18
(lp78
sg3
(lp79
sg14
(lp80
sa(dp81
g43
(lp82
S'yes'
p83
asg15
(lp84
sg16
(lp85
S'here'
p86
aS'here'
p87
asg18
(lp88
S'yes'
p89
asg3
(lp90
sg14
(lp91
saa(lp92
(g4
(g5
(S'S4'
p93
I0
I1
tp94
Rp95
(I3
S'|'
p96
NNNI4
I1
I0
tp97
bS'long'
p98
tp99
Rp100
I10
I1
tp101
a(g4
(g5
(S'S9'
p102
I0
I1
tp103
Rp104
(I3
S'|'
p105
NNNI9
I1
I0
tp106
bS'styrofoam'
p107
tp108
Rp109
I20
I1
tp110
a(g4
(g5
(S'S8'
p111
I0
I1
tp112
Rp113
(I3
S'|'
p114
NNNI8
I1
I0
tp115
bS'cylinder'
p116
tp117
Rp118
I3
I1
tp119
a(g4
(g5
(S'S8'
p120
I0
I1
tp121
Rp122
(I3
S'|'
p123
NNNI8
I1
I0
tp124
bS'cylinder'
p125
tp126
Rp127
I20
I0
tp128
a(g4
(g5
(S'S5'
p129
I0
I1
tp130
Rp131
(I3
S'|'
p132
NNNI5
I1
I0
tp133
bS'empty'
p134
tp135
Rp136
I27
I1
tp137
a(g4
(g5
(S'S4'
p138
I0
I1
tp139
Rp140
(I3
S'|'
p141
NNNI4
I1
I0
tp142
bS'bean'
p143
tp144
Rp145
I27
I1
tp146
a(g4
(g5
(S'S6'
p147
I0
I1
tp148
Rp149
(I3
S'|'
p150
NNNI6
I1
I0
tp151
bS'column'
p152
tp153
Rp154
I18
I1
tp155
a(g4
(g5
(S'S5'
p156
I0
I1
tp157
Rp158
(I3
S'|'
p159
NNNI5
I1
I0
tp160
bS'tower'
p161
tp162
Rp163
I17
I1
tp164
a(g4
(g5
(S'S8'
p165
I0
I1
tp166
Rp167
(I3
S'|'
p168
NNNI8
I1
I0
tp169
bS'cylinder'
p170
tp171
Rp172
I3
I1
tp173
a(g4
(g5
(S'S8'
p174
I0
I1
tp175
Rp176
(I3
S'|'
p177
NNNI8
I1
I0
tp178
bS'cylinder'
p179
tp180
Rp181
I3
I0
tp182
a(g4
(g5
(S'S5'
p183
I0
I1
tp184
Rp185
(I3
S'|'
p186
NNNI5
I1
I0
tp187
bS'tower'
p188
tp189
Rp190
I3
I0
tp191
a(g4
(g5
(S'S5'
p192
I0
I1
tp193
Rp194
(I3
S'|'
p195
NNNI5
I1
I0
tp196
bS'tower'
p197
tp198
Rp199
I3
I1
tp200
a(g4
(g5
(S'S4'
p201
I0
I1
tp202
Rp203
(I3
S'|'
p204
NNNI4
I1
I0
tp205
bS'bean'
p206
tp207
Rp208
I27
I0
tp209
a(g4
(g5
(S'S8'
p210
I0
I1
tp211
Rp212
(I3
S'|'
p213
NNNI8
I1
I0
tp214
bS'pringles'
p215
tp216
Rp217
I10
I1
tp218
a(g4
(g5
(S'S5'
p219
I0
I1
tp220
Rp221
(I3
S'|'
p222
NNNI5
I1
I0
tp223
bS'peach'
p224
tp225
Rp226
I10
I1
tp227
aa(lp228
a.