(lp0
(lp1
(dp2
S'action'
p3
cnumpy.core.multiarray
scalar
p4
(cnumpy
dtype
p5
(S'S4'
p6
I0
I1
tp7
Rp8
(I3
S'|'
p9
NNNI4
I1
I0
tp10
bS'walk'
p11
tp12
Rp13
sS'recipient'
p14
NsS'patient'
p15
NsS'goal'
p16
S'3516'
p17
sS'source'
p18
Nsa(dp19
g3
g4
(g5
(S'S5'
p20
I0
I1
tp21
Rp22
(I3
S'|'
p23
NNNI5
I1
I0
tp24
bS'bring'
p25
tp26
Rp27
sg14
g4
(g5
(S'S1'
p28
I0
I1
tp29
Rp30
(I3
S'|'
p31
NNNI1
I1
I0
tp32
bS'n'
p33
tp34
Rp35
sg15
S'oidx_22'
p36
sg16
Nsg18
Nsa(dp37
g3
g4
(g5
(S'S4'
p38
I0
I1
tp39
Rp40
(I3
S'|'
p41
NNNI4
I1
I0
tp42
bS'move'
p43
tp44
Rp45
sg14
Nsg15
g4
(g5
(S'S7'
p46
I0
I1
tp47
Rp48
(I3
S'|'
p49
NNNI7
I1
I0
tp50
bS'oidx_26'
p51
tp52
Rp53
sg16
g4
(g5
(S'S4'
p54
I0
I1
tp55
Rp56
(I3
S'|'
p57
NNNI4
I1
I0
tp58
bS'3508'
p59
tp60
Rp61
sg18
g4
(g5
(S'S4'
p62
I0
I1
tp63
Rp64
(I3
S'|'
p65
NNNI4
I1
I0
tp66
bS'3422'
p67
tp68
Rp69
saa(lp70
(dp71
S'all'
p72
(lp73
S'go to the conference room'
p74
asg15
(lp75
sg16
(lp76
S'conference room'
p77
aS'conference room by lounge'
p78
aS'conference'
p79
aS'conference'
p80
asg18
(lp81
sg3
(lp82
sg14
(lp83
sa(dp84
g72
(lp85
S'take the container to dr nancy nagel'
p86
asg15
(lp87
S'container'
p88
aS'container'
p89
aS'container'
p90
aS'container'
p91
asg16
(lp92
sg18
(lp93
sg3
(lp94
sg14
(lp95
S'dr nancy nagel'
p96
asa(dp97
g72
(lp98
S"take the can from walter ward 's office to peggy parker 's office"
p99
asg15
(lp100
S'can'
p101
aS'can'
p102
aS'can'
p103
asg16
(lp104
sg18
(lp105
sg3
(lp106
sg14
(lp107
saa(lp108
(g4
(g5
(S'S5'
p109
I0
I1
tp110
Rp111
(I3
S'|'
p112
NNNI5
I1
I0
tp113
bS'empty'
p114
tp115
Rp116
I3
I1
tp117
a(g4
(g5
(S'S3'
p118
I0
I1
tp119
Rp120
(I3
S'|'
p121
NNNI3
I1
I0
tp122
bS'can'
p123
tp124
Rp125
I2
I1
tp126
a(g4
(g5
(S'S9'
p127
I0
I1
tp128
Rp129
(I3
S'|'
p130
NNNI9
I1
I0
tp131
bS'container'
p132
tp133
Rp134
I2
I1
tp135
a(g4
(g5
(S'S4'
p136
I0
I1
tp137
Rp138
(I3
S'|'
p139
NNNI4
I1
I0
tp140
bS'bean'
p141
tp142
Rp143
I10
I0
tp144
a(g143
I3
I0
tp145
a(g143
I27
I0
tp146
a(g143
I7
I0
tp147
a(g143
I18
I0
tp148
a(g143
I2
I0
tp149
a(g143
I20
I0
tp150
a(g143
I17
I0
tp151
a(g4
(g5
(S'S8'
p152
I0
I1
tp153
Rp154
(I3
S'|'
p155
NNNI8
I1
I0
tp156
bS'pringles'
p157
tp158
Rp159
I10
I0
tp160
a(g159
I3
I0
tp161
a(g159
I27
I0
tp162
a(g159
I7
I0
tp163
a(g159
I18
I0
tp164
a(g159
I2
I0
tp165
a(g159
I20
I0
tp166
a(g159
I17
I0
tp167
a(g4
(g5
(S'S9'
p168
I0
I1
tp169
Rp170
(I3
S'|'
p171
NNNI9
I1
I0
tp172
bS'container'
p173
tp174
Rp175
I27
I0
tp176
a(g4
(g5
(S'S9'
p177
I0
I1
tp178
Rp179
(I3
S'|'
p180
NNNI9
I1
I0
tp181
bS'container'
p182
tp183
Rp184
I2
I1
tp185
a(g4
(g5
(S'S9'
p186
I0
I1
tp187
Rp188
(I3
S'|'
p189
NNNI9
I1
I0
tp190
bS'container'
p191
tp192
Rp193
I20
I0
tp194
a(g4
(g5
(S'S9'
p195
I0
I1
tp196
Rp197
(I3
S'|'
p198
NNNI9
I1
I0
tp199
bS'container'
p200
tp201
Rp202
I10
I1
tp203
a(g4
(g5
(S'S9'
p204
I0
I1
tp205
Rp206
(I3
S'|'
p207
NNNI9
I1
I0
tp208
bS'rectangle'
p209
tp210
Rp211
I10
I0
tp212
a(g211
I3
I0
tp213
a(g211
I27
I0
tp214
a(g211
I7
I0
tp215
a(g211
I18
I0
tp216
a(g211
I2
I0
tp217
a(g211
I20
I0
tp218
a(g211
I17
I0
tp219
a(g4
(g5
(S'S3'
p220
I0
I1
tp221
Rp222
(I3
S'|'
p223
NNNI3
I1
I0
tp224
bS'can'
p225
tp226
Rp227
I20
I0
tp228
a(g4
(g5
(S'S3'
p229
I0
I1
tp230
Rp231
(I3
S'|'
p232
NNNI3
I1
I0
tp233
bS'can'
p234
tp235
Rp236
I2
I1
tp237
a(g4
(g5
(S'S3'
p238
I0
I1
tp239
Rp240
(I3
S'|'
p241
NNNI3
I1
I0
tp242
bS'can'
p243
tp244
Rp245
I27
I0
tp246
a(g4
(g5
(S'S3'
p247
I0
I1
tp248
Rp249
(I3
S'|'
p250
NNNI3
I1
I0
tp251
bS'can'
p252
tp253
Rp254
I2
I1
tp255
a(g4
(g5
(S'S3'
p256
I0
I1
tp257
Rp258
(I3
S'|'
p259
NNNI3
I1
I0
tp260
bS'can'
p261
tp262
Rp263
I3
I0
tp264
aa(lp265
a.