(lp0
(lp1
(dp2
S'action'
p3
cnumpy.core.multiarray
scalar
p4
(cnumpy
dtype
p5
(S'S4'
p6
I0
I1
tp7
Rp8
(I3
S'|'
p9
NNNI4
I1
I0
tp10
bS'walk'
p11
tp12
Rp13
sS'recipient'
p14
NsS'patient'
p15
NsS'goal'
p16
S'3520'
p17
sS'source'
p18
Nsaa(lp19
(dp20
S'all'
p21
(lp22
S'locate the kitchen'
p23
asg15
(lp24
sg16
(lp25
S'lab'
p26
aS'to the lab across the hall from bob'
p27
aS'the lab'
p28
aS'the middle room'
p29
aS'the center room'
p30
aS'the 4th room to the left in the center'
p31
aS'the 15th room'
p32
aS'the 22nd room'
p33
aS'the 23rd room'
p34
aS'the 1st lab room'
p35
aS'the last lab room'
p36
aS'left'
p37
aS'the 4th center room'
p38
aS'the middle room'
p39
aS'the lab'
p40
aS'the other lab'
p41
aS'the center room'
p42
aS'the room across from bob'
p43
aS'the room near the kitchen'
p44
asg18
(lp45
sg3
(lp46
sg14
(lp47
saa(lp48
(g4
(g5
(S'S6'
p49
I0
I1
tp50
Rp51
(I3
S'|'
p52
NNNI6
I1
I0
tp53
bS'yellow'
p54
tp55
Rp56
I10
I0
tp57
a(g56
I3
I0
tp58
a(g56
I27
I0
tp59
a(g56
I7
I0
tp60
a(g56
I18
I0
tp61
a(g56
I2
I0
tp62
a(g56
I20
I0
tp63
a(g56
I17
I0
tp64
a(g4
(g5
(S'S5'
p65
I0
I1
tp66
Rp67
(I3
S'|'
p68
NNNI5
I1
I0
tp69
bS'block'
p70
tp71
Rp72
I10
I0
tp73
a(g72
I3
I0
tp74
a(g72
I27
I0
tp75
a(g72
I7
I0
tp76
a(g72
I18
I0
tp77
a(g72
I2
I0
tp78
a(g72
I20
I0
tp79
a(g72
I17
I0
tp80
a(g4
(g5
(S'S5'
p81
I0
I1
tp82
Rp83
(I3
S'|'
p84
NNNI5
I1
I0
tp85
bS'tower'
p86
tp87
Rp88
I10
I0
tp89
a(g88
I3
I0
tp90
a(g88
I27
I0
tp91
a(g88
I7
I0
tp92
a(g88
I18
I0
tp93
a(g88
I2
I0
tp94
a(g88
I20
I0
tp95
a(g88
I17
I0
tp96
a(g4
(g5
(S'S8'
p97
I0
I1
tp98
Rp99
(I3
S'|'
p100
NNNI8
I1
I0
tp101
bS'cylinder'
p102
tp103
Rp104
I20
I1
tp105
a(g4
(g5
(S'S4'
p106
I0
I1
tp107
Rp108
(I3
S'|'
p109
NNNI4
I1
I0
tp110
bS'bean'
p111
tp112
Rp113
I10
I1
tp114
aa(lp115
a.