(lp0
(lp1
(dp2
S'action'
p3
cnumpy.core.multiarray
scalar
p4
(cnumpy
dtype
p5
(S'S4'
p6
I0
I1
tp7
Rp8
(I3
S'|'
p9
NNNI4
I1
I0
tp10
bS'walk'
p11
tp12
Rp13
sS'recipient'
p14
NsS'patient'
p15
NsS'goal'
p16
S'3508'
p17
sS'source'
p18
Nsa(dp19
g3
g4
(g5
(S'S4'
p20
I0
I1
tp21
Rp22
(I3
S'|'
p23
NNNI4
I1
I0
tp24
bS'walk'
p25
tp26
Rp27
sg14
Nsg15
Nsg16
g17
sg18
Nsa(dp28
g3
g4
(g5
(S'S5'
p29
I0
I1
tp30
Rp31
(I3
S'|'
p32
NNNI5
I1
I0
tp33
bS'bring'
p34
tp35
Rp36
sg14
S'd'
p37
sg15
S'oidx_28'
p38
sg16
Nsg18
Nsaa(lp39
(dp40
S'all'
p41
(lp42
S'yes'
p43
asg15
(lp44
sg16
(lp45
S'lab'
p46
aS'yes lab'
p47
aS'go to lab'
p48
aS'sorry you go to office'
p49
aS'yes'
p50
aS'kitchen'
p51
asg18
(lp52
sg3
(lp53
sg14
(lp54
sa(dp55
g41
(lp56
S'yes office'
p57
asg15
(lp58
sg16
(lp59
S'ofice'
p60
aS'lab'
p61
asg18
(lp62
sg3
(lp63
sg14
(lp64
sa(dp65
g41
(lp66
S'office'
p67
asg15
(lp68
S'yes'
p69
aS'yes'
p70
asg16
(lp71
sg18
(lp72
sg3
(lp73
sg14
(lp74
saa(lp75
(g4
(g5
(S'S6'
p76
I0
I1
tp77
Rp78
(I3
S'|'
p79
NNNI6
I1
I0
tp80
bS'yellow'
p81
tp82
Rp83
I3
I1
tp84
a(g4
(g5
(S'S8'
p85
I0
I1
tp86
Rp87
(I3
S'|'
p88
NNNI8
I1
I0
tp89
bS'pringles'
p90
tp91
Rp92
I2
I1
tp93
a(g4
(g5
(S'S8'
p94
I0
I1
tp95
Rp96
(I3
S'|'
p97
NNNI8
I1
I0
tp98
bS'metallic'
p99
tp100
Rp101
I10
I1
tp102
a(g4
(g5
(S'S4'
p103
I0
I1
tp104
Rp105
(I3
S'|'
p106
NNNI4
I1
I0
tp107
bS'bean'
p108
tp109
Rp110
I10
I1
tp111
a(g4
(g5
(S'S8'
p112
I0
I1
tp113
Rp114
(I3
S'|'
p115
NNNI8
I1
I0
tp116
bS'cylinder'
p117
tp118
Rp119
I10
I0
tp120
a(g119
I3
I0
tp121
a(g119
I27
I0
tp122
a(g119
I7
I0
tp123
a(g119
I18
I0
tp124
a(g119
I2
I0
tp125
a(g119
I20
I0
tp126
a(g119
I17
I0
tp127
a(g4
(g5
(S'S5'
p128
I0
I1
tp129
Rp130
(I3
S'|'
p131
NNNI5
I1
I0
tp132
bS'white'
p133
tp134
Rp135
I17
I1
tp136
a(g4
(g5
(S'S9'
p137
I0
I1
tp138
Rp139
(I3
S'|'
p140
NNNI9
I1
I0
tp141
bS'rectangle'
p142
tp143
Rp144
I17
I1
tp145
a(g4
(g5
(S'S9'
p146
I0
I1
tp147
Rp148
(I3
S'|'
p149
NNNI9
I1
I0
tp150
bS'styrofoam'
p151
tp152
Rp153
I7
I1
tp154
a(g4
(g5
(S'S5'
p155
I0
I1
tp156
Rp157
(I3
S'|'
p158
NNNI5
I1
I0
tp159
bS'block'
p160
tp161
Rp162
I10
I0
tp163
a(g162
I3
I0
tp164
a(g162
I27
I0
tp165
a(g162
I7
I0
tp166
a(g162
I18
I0
tp167
a(g162
I2
I0
tp168
a(g162
I20
I0
tp169
a(g162
I17
I0
tp170
a(g4
(g5
(S'S9'
p171
I0
I1
tp172
Rp173
(I3
S'|'
p174
NNNI9
I1
I0
tp175
bS'container'
p176
tp177
Rp178
I10
I1
tp179
a(g4
(g5
(S'S4'
p180
I0
I1
tp181
Rp182
(I3
S'|'
p183
NNNI4
I1
I0
tp184
bS'long'
p185
tp186
Rp187
I10
I1
tp188
a(g4
(g5
(S'S5'
p189
I0
I1
tp190
Rp191
(I3
S'|'
p192
NNNI5
I1
I0
tp193
bS'clear'
p194
tp195
Rp196
I3
I1
tp197
a(g4
(g5
(S'S3'
p198
I0
I1
tp199
Rp200
(I3
S'|'
p201
NNNI3
I1
I0
tp202
bS'can'
p203
tp204
Rp205
I7
I1
tp206
a(g4
(g5
(S'S5'
p207
I0
I1
tp208
Rp209
(I3
S'|'
p210
NNNI5
I1
I0
tp211
bS'tower'
p212
tp213
Rp214
I20
I1
tp215
a(g4
(g5
(S'S8'
p216
I0
I1
tp217
Rp218
(I3
S'|'
p219
NNNI8
I1
I0
tp220
bS'metallic'
p221
tp222
Rp223
I17
I0
tp224
aa(lp225
(S'you'
p226
S'can'
p227
I01
tp228
aa.