(lp0
(lp1
(dp2
S'action'
p3
cnumpy.core.multiarray
scalar
p4
(cnumpy
dtype
p5
(S'S4'
p6
I0
I1
tp7
Rp8
(I3
S'|'
p9
NNNI4
I1
I0
tp10
bS'walk'
p11
tp12
Rp13
sS'recipient'
p14
NsS'patient'
p15
NsS'goal'
p16
S'3404'
p17
sS'source'
p18
Nsa(dp19
g3
g4
(g5
(S'S5'
p20
I0
I1
tp21
Rp22
(I3
S'|'
p23
NNNI5
I1
I0
tp24
bS'bring'
p25
tp26
Rp27
sg14
S'w'
p28
sg15
S'oidx_25'
p29
sg16
Nsg18
Nsa(dp30
g3
g4
(g5
(S'S4'
p31
I0
I1
tp32
Rp33
(I3
S'|'
p34
NNNI4
I1
I0
tp35
bS'walk'
p36
tp37
Rp38
sg14
Nsg15
Nsg16
S'3424'
p39
sg18
Nsaa(lp40
(dp41
S'all'
p42
(lp43
S'go'
p44
asg15
(lp45
sg16
(lp46
S'yes'
p47
aS'r'
p48
asg18
(lp49
sg3
(lp50
sg14
(lp51
sa(dp52
g42
(lp53
S'm'
p54
asg15
(lp55
S'yes'
p56
asg16
(lp57
sg18
(lp58
sg3
(lp59
sg14
(lp60
S'yes'
p61
asa(dp62
g42
(lp63
S'go'
p64
asg15
(lp65
sg16
(lp66
S'go'
p67
aS'yes'
p68
aS'office'
p69
asg18
(lp70
sg3
(lp71
sg14
(lp72
saa(lp73
(g4
(g5
(S'S5'
p74
I0
I1
tp75
Rp76
(I3
S'|'
p77
NNNI5
I1
I0
tp78
bS'empty'
p79
tp80
Rp81
I7
I1
tp82
a(g4
(g5
(S'S5'
p83
I0
I1
tp84
Rp85
(I3
S'|'
p86
NNNI5
I1
I0
tp87
bS'clear'
p88
tp89
Rp90
I7
I1
tp91
a(g4
(g5
(S'S8'
p92
I0
I1
tp93
Rp94
(I3
S'|'
p95
NNNI8
I1
I0
tp96
bS'pringles'
p97
tp98
Rp99
I7
I1
tp100
a(g4
(g5
(S'S5'
p101
I0
I1
tp102
Rp103
(I3
S'|'
p104
NNNI5
I1
I0
tp105
bS'block'
p106
tp107
Rp108
I17
I1
tp109
a(g4
(g5
(S'S8'
p110
I0
I1
tp111
Rp112
(I3
S'|'
p113
NNNI8
I1
I0
tp114
bS'cylinder'
p115
tp116
Rp117
I10
I1
tp118
a(g4
(g5
(S'S8'
p119
I0
I1
tp120
Rp121
(I3
S'|'
p122
NNNI8
I1
I0
tp123
bS'pringles'
p124
tp125
Rp126
I10
I0
tp127
a(g4
(g5
(S'S5'
p128
I0
I1
tp129
Rp130
(I3
S'|'
p131
NNNI5
I1
I0
tp132
bS'clear'
p133
tp134
Rp135
I10
I0
tp136
a(g4
(g5
(S'S9'
p137
I0
I1
tp138
Rp139
(I3
S'|'
p140
NNNI9
I1
I0
tp141
bS'rectangle'
p142
tp143
Rp144
I17
I1
tp145
a(g4
(g5
(S'S5'
p146
I0
I1
tp147
Rp148
(I3
S'|'
p149
NNNI5
I1
I0
tp150
bS'white'
p151
tp152
Rp153
I10
I1
tp154
a(g4
(g5
(S'S5'
p155
I0
I1
tp156
Rp157
(I3
S'|'
p158
NNNI5
I1
I0
tp159
bS'clear'
p160
tp161
Rp162
I17
I1
tp163
a(g4
(g5
(S'S5'
p164
I0
I1
tp165
Rp166
(I3
S'|'
p167
NNNI5
I1
I0
tp168
bS'block'
p169
tp170
Rp171
I17
I0
tp172
a(g4
(g5
(S'S5'
p173
I0
I1
tp174
Rp175
(I3
S'|'
p176
NNNI5
I1
I0
tp177
bS'white'
p178
tp179
Rp180
I17
I0
tp181
a(g4
(g5
(S'S5'
p182
I0
I1
tp183
Rp184
(I3
S'|'
p185
NNNI5
I1
I0
tp186
bS'white'
p187
tp188
Rp189
I20
I1
tp190
a(g4
(g5
(S'S3'
p191
I0
I1
tp192
Rp193
(I3
S'|'
p194
NNNI3
I1
I0
tp195
bS'can'
p196
tp197
Rp198
I2
I1
tp199
a(g4
(g5
(S'S5'
p200
I0
I1
tp201
Rp202
(I3
S'|'
p203
NNNI5
I1
I0
tp204
bS'tower'
p205
tp206
Rp207
I20
I1
tp208
aa(lp209
(g54
S'metallic'
p210
I01
tp211
aa.