(lp0
(lp1
(dp2
S'action'
p3
cnumpy.core.multiarray
scalar
p4
(cnumpy
dtype
p5
(S'S4'
p6
I0
I1
tp7
Rp8
(I3
S'|'
p9
NNNI4
I1
I0
tp10
bS'walk'
p11
tp12
Rp13
sS'recipient'
p14
NsS'patient'
p15
NsS'goal'
p16
S'3414'
p17
sS'source'
p18
Nsa(dp19
g3
g4
(g5
(S'S5'
p20
I0
I1
tp21
Rp22
(I3
S'|'
p23
NNNI5
I1
I0
tp24
bS'bring'
p25
tp26
Rp27
sg14
g4
(g5
(S'S1'
p28
I0
I1
tp29
Rp30
(I3
S'|'
p31
NNNI1
I1
I0
tp32
bS'p'
p33
tp34
Rp35
sg15
g4
(g5
(S'S7'
p36
I0
I1
tp37
Rp38
(I3
S'|'
p39
NNNI7
I1
I0
tp40
bS'oidx_25'
p41
tp42
Rp43
sg16
Nsg18
Nsa(dp44
g3
g4
(g5
(S'S4'
p45
I0
I1
tp46
Rp47
(I3
S'|'
p48
NNNI4
I1
I0
tp49
bS'move'
p50
tp51
Rp52
sg14
Nsg15
S'oidx_22'
p53
sg16
g4
(g5
(S'S4'
p54
I0
I1
tp55
Rp56
(I3
S'|'
p57
NNNI4
I1
I0
tp58
bS'3518'
p59
tp60
Rp61
sg18
S'3432'
p62
saa(lp63
(dp64
S'all'
p65
(lp66
S'go to the lab'
p67
asg15
(lp68
sg16
(lp69
S'the lab'
p70
aS'lab'
p71
aS'go to the lab'
p72
aS'lab'
p73
aS'lab'
p74
aS'lab'
p75
aS'lab'
p76
asg18
(lp77
sg3
(lp78
sg14
(lp79
sa(dp80
g65
(lp81
S'give the can to peggy parker'
p82
asg15
(lp83
S'can'
p84
aS'can'
p85
aS'can'
p86
aS'the can'
p87
aS'big can'
p88
aS'can'
p89
aS'can'
p90
aS'empty can'
p91
aS'give the can to peggy parker'
p92
asg16
(lp93
sg18
(lp94
sg3
(lp95
sg14
(lp96
S'peggy parker'
p97
asa(dp98
g65
(lp99
S'go to dr sybil smalt get the pepper take it to the pod'
p100
asg15
(lp101
sg16
(lp102
S'the pod'
p103
aS'the pod'
p104
aS'the pod'
p105
asg18
(lp106
S"dr sybil smalt 's office"
p107
asg3
(lp108
sg14
(lp109
saa(lp110
(g4
(g5
(S'S9'
p111
I0
I1
tp112
Rp113
(I3
S'|'
p114
NNNI9
I1
I0
tp115
bS'rectangle'
p116
tp117
Rp118
I10
I0
tp119
a(g118
I3
I0
tp120
a(g118
I27
I0
tp121
a(g118
I7
I0
tp122
a(g118
I18
I0
tp123
a(g118
I2
I0
tp124
a(g118
I20
I0
tp125
a(g118
I17
I0
tp126
a(g4
(g5
(S'S5'
p127
I0
I1
tp128
Rp129
(I3
S'|'
p130
NNNI5
I1
I0
tp131
bS'tower'
p132
tp133
Rp134
I7
I1
tp135
a(g4
(g5
(S'S6'
p136
I0
I1
tp137
Rp138
(I3
S'|'
p139
NNNI6
I1
I0
tp140
bS'coffee'
p141
tp142
Rp143
I10
I0
tp144
a(g143
I3
I0
tp145
a(g143
I27
I0
tp146
a(g143
I7
I0
tp147
a(g143
I18
I0
tp148
a(g143
I2
I0
tp149
a(g143
I20
I0
tp150
a(g143
I17
I0
tp151
a(g4
(g5
(S'S5'
p152
I0
I1
tp153
Rp154
(I3
S'|'
p155
NNNI5
I1
I0
tp156
bS'empty'
p157
tp158
Rp159
I10
I0
tp160
a(g159
I3
I0
tp161
a(g159
I27
I0
tp162
a(g159
I7
I0
tp163
a(g159
I18
I0
tp164
a(g159
I2
I0
tp165
a(g159
I20
I0
tp166
a(g159
I17
I0
tp167
a(g4
(g5
(S'S5'
p168
I0
I1
tp169
Rp170
(I3
S'|'
p171
NNNI5
I1
I0
tp172
bS'block'
p173
tp174
Rp175
I10
I0
tp176
a(g175
I3
I0
tp177
a(g175
I27
I0
tp178
a(g175
I7
I0
tp179
a(g175
I18
I0
tp180
a(g175
I2
I0
tp181
a(g175
I20
I0
tp182
a(g175
I17
I0
tp183
a(g4
(g5
(S'S3'
p184
I0
I1
tp185
Rp186
(I3
S'|'
p187
NNNI3
I1
I0
tp188
bS'can'
p189
tp190
Rp191
I2
I1
tp192
a(g4
(g5
(S'S3'
p193
I0
I1
tp194
Rp195
(I3
S'|'
p196
NNNI3
I1
I0
tp197
bS'can'
p198
tp199
Rp200
I7
I0
tp201
a(g4
(g5
(S'S3'
p202
I0
I1
tp203
Rp204
(I3
S'|'
p205
NNNI3
I1
I0
tp206
bS'can'
p207
tp208
Rp209
I2
I1
tp210
a(g4
(g5
(S'S3'
p211
I0
I1
tp212
Rp213
(I3
S'|'
p214
NNNI3
I1
I0
tp215
bS'can'
p216
tp217
Rp218
I17
I0
tp219
a(g4
(g5
(S'S3'
p220
I0
I1
tp221
Rp222
(I3
S'|'
p223
NNNI3
I1
I0
tp224
bS'can'
p225
tp226
Rp227
I2
I1
tp228
a(g4
(g5
(S'S9'
p229
I0
I1
tp230
Rp231
(I3
S'|'
p232
NNNI9
I1
I0
tp233
bS'styrofoam'
p234
tp235
Rp236
I10
I0
tp237
a(g236
I3
I0
tp238
a(g236
I27
I0
tp239
a(g236
I7
I0
tp240
a(g236
I18
I0
tp241
a(g236
I2
I0
tp242
a(g236
I20
I0
tp243
a(g236
I17
I0
tp244
a(g4
(g5
(S'S5'
p245
I0
I1
tp246
Rp247
(I3
S'|'
p248
NNNI5
I1
I0
tp249
bS'white'
p250
tp251
Rp252
I10
I0
tp253
a(g252
I3
I0
tp254
a(g252
I27
I0
tp255
a(g252
I7
I0
tp256
a(g252
I18
I0
tp257
a(g252
I2
I0
tp258
a(g252
I20
I0
tp259
a(g252
I17
I0
tp260
a(g4
(g5
(S'S6'
p261
I0
I1
tp262
Rp263
(I3
S'|'
p264
NNNI6
I1
I0
tp265
bS'yellow'
p266
tp267
Rp268
I10
I0
tp269
a(g268
I3
I0
tp270
a(g268
I27
I0
tp271
a(g268
I7
I0
tp272
a(g268
I18
I0
tp273
a(g268
I2
I0
tp274
a(g268
I20
I0
tp275
a(g268
I17
I0
tp276
a(g4
(g5
(S'S9'
p277
I0
I1
tp278
Rp279
(I3
S'|'
p280
NNNI9
I1
I0
tp281
bS'container'
p282
tp283
Rp284
I18
I1
tp285
a(g4
(g5
(S'S5'
p286
I0
I1
tp287
Rp288
(I3
S'|'
p289
NNNI5
I1
I0
tp290
bS'spice'
p291
tp292
Rp293
I10
I0
tp294
a(g293
I3
I0
tp295
a(g293
I27
I0
tp296
a(g293
I7
I0
tp297
a(g293
I18
I0
tp298
a(g293
I2
I0
tp299
a(g293
I20
I0
tp300
a(g293
I17
I0
tp301
aa(lp302
a.