(lp0
(lp1
(dp2
S'action'
p3
cnumpy.core.multiarray
scalar
p4
(cnumpy
dtype
p5
(S'S4'
p6
I0
I1
tp7
Rp8
(I3
S'|'
p9
NNNI4
I1
I0
tp10
bS'walk'
p11
tp12
Rp13
sS'recipient'
p14
NsS'patient'
p15
NsS'goal'
p16
g4
(g5
(S'S4'
p17
I0
I1
tp18
Rp19
(I3
S'|'
p20
NNNI4
I1
I0
tp21
bS'3510'
p22
tp23
Rp24
sS'source'
p25
Nsa(dp26
g3
g4
(g5
(S'S4'
p27
I0
I1
tp28
Rp29
(I3
S'|'
p30
NNNI4
I1
I0
tp31
bS'walk'
p32
tp33
Rp34
sg14
Nsg15
Nsg16
g4
(g5
(S'S4'
p35
I0
I1
tp36
Rp37
(I3
S'|'
p38
NNNI4
I1
I0
tp39
bS'3402'
p40
tp41
Rp42
sg25
Nsa(dp43
g3
g4
(g5
(S'S4'
p44
I0
I1
tp45
Rp46
(I3
S'|'
p47
NNNI4
I1
I0
tp48
bS'move'
p49
tp50
Rp51
sg14
Nsg15
S'oidx_12'
p52
sg16
S'3506'
p53
sg25
S'3516'
p54
saa(lp55
(dp56
S'all'
p57
(lp58
S"go to robert bob brown 's office"
p59
asg15
(lp60
sg16
(lp61
sg25
(lp62
sg3
(lp63
sg14
(lp64
sa(dp65
g57
(lp66
S'grab the styrofoam and take it to dr heidi hughes'
p67
asg15
(lp68
sg16
(lp69
S'dr heidi hughes office'
p70
asg25
(lp71
sg3
(lp72
sg14
(lp73
sa(dp74
g57
(lp75
S"go to mallory mal maroon 's office"
p76
asg15
(lp77
S'a cylinder'
p78
aS'a white cylinder'
p79
asg16
(lp80
S'to mallory mal maroon'
p81
asg25
(lp82
S'move it to the lab'
p83
asg3
(lp84
sg14
(lp85
saa(lp86
(g4
(g5
(S'S9'
p87
I0
I1
tp88
Rp89
(I3
S'|'
p90
NNNI9
I1
I0
tp91
bS'styrofoam'
p92
tp93
Rp94
I10
I0
tp95
a(g94
I3
I0
tp96
a(g94
I27
I0
tp97
a(g94
I7
I0
tp98
a(g94
I18
I0
tp99
a(g94
I2
I0
tp100
a(g94
I20
I0
tp101
a(g94
I17
I0
tp102
a(g4
(g5
(S'S5'
p103
I0
I1
tp104
Rp105
(I3
S'|'
p106
NNNI5
I1
I0
tp107
bS'spice'
p108
tp109
Rp110
I10
I0
tp111
a(g110
I3
I0
tp112
a(g110
I27
I0
tp113
a(g110
I7
I0
tp114
a(g110
I18
I0
tp115
a(g110
I2
I0
tp116
a(g110
I20
I0
tp117
a(g110
I17
I0
tp118
a(g4
(g5
(S'S6'
p119
I0
I1
tp120
Rp121
(I3
S'|'
p122
NNNI6
I1
I0
tp123
bS'column'
p124
tp125
Rp126
I10
I0
tp127
a(g126
I3
I0
tp128
a(g126
I27
I0
tp129
a(g126
I7
I0
tp130
a(g126
I18
I0
tp131
a(g126
I2
I0
tp132
a(g126
I20
I0
tp133
a(g126
I17
I0
tp134
a(g4
(g5
(S'S9'
p135
I0
I1
tp136
Rp137
(I3
S'|'
p138
NNNI9
I1
I0
tp139
bS'container'
p140
tp141
Rp142
I2
I1
tp143
a(g4
(g5
(S'S8'
p144
I0
I1
tp145
Rp146
(I3
S'|'
p147
NNNI8
I1
I0
tp148
bS'cylinder'
p149
tp150
Rp151
I20
I1
tp152
a(g4
(g5
(S'S8'
p153
I0
I1
tp154
Rp155
(I3
S'|'
p156
NNNI8
I1
I0
tp157
bS'metallic'
p158
tp159
Rp160
I10
I0
tp161
a(g160
I3
I0
tp162
a(g160
I27
I0
tp163
a(g160
I7
I0
tp164
a(g160
I18
I0
tp165
a(g160
I2
I0
tp166
a(g160
I20
I0
tp167
a(g160
I17
I0
tp168
a(g4
(g5
(S'S5'
p169
I0
I1
tp170
Rp171
(I3
S'|'
p172
NNNI5
I1
I0
tp173
bS'tower'
p174
tp175
Rp176
I10
I0
tp177
a(g176
I3
I0
tp178
a(g176
I27
I0
tp179
a(g176
I7
I0
tp180
a(g176
I18
I0
tp181
a(g176
I2
I0
tp182
a(g176
I20
I0
tp183
a(g176
I17
I0
tp184
a(g4
(g5
(S'S5'
p185
I0
I1
tp186
Rp187
(I3
S'|'
p188
NNNI5
I1
I0
tp189
bS'clear'
p190
tp191
Rp192
I10
I0
tp193
a(g192
I3
I0
tp194
a(g192
I27
I0
tp195
a(g192
I7
I0
tp196
a(g192
I18
I0
tp197
a(g192
I2
I0
tp198
a(g192
I20
I0
tp199
a(g192
I17
I0
tp200
a(g4
(g5
(S'S4'
p201
I0
I1
tp202
Rp203
(I3
S'|'
p204
NNNI4
I1
I0
tp205
bS'long'
p206
tp207
Rp208
I3
I1
tp209
a(g4
(g5
(S'S4'
p210
I0
I1
tp211
Rp212
(I3
S'|'
p213
NNNI4
I1
I0
tp214
bS'long'
p215
tp216
Rp217
I27
I0
tp218
a(g4
(g5
(S'S4'
p219
I0
I1
tp220
Rp221
(I3
S'|'
p222
NNNI4
I1
I0
tp223
bS'bean'
p224
tp225
Rp226
I10
I0
tp227
a(g226
I3
I0
tp228
a(g226
I27
I0
tp229
a(g226
I7
I0
tp230
a(g226
I18
I0
tp231
a(g226
I2
I0
tp232
a(g226
I20
I0
tp233
a(g226
I17
I0
tp234
a(g4
(g5
(S'S3'
p235
I0
I1
tp236
Rp237
(I3
S'|'
p238
NNNI3
I1
I0
tp239
bS'can'
p240
tp241
Rp242
I7
I1
tp243
a(g4
(g5
(S'S6'
p244
I0
I1
tp245
Rp246
(I3
S'|'
p247
NNNI6
I1
I0
tp248
bS'coffee'
p249
tp250
Rp251
I10
I0
tp252
a(g251
I3
I0
tp253
a(g251
I27
I0
tp254
a(g251
I7
I0
tp255
a(g251
I18
I0
tp256
a(g251
I2
I0
tp257
a(g251
I20
I0
tp258
a(g251
I17
I0
tp259
a(g4
(g5
(S'S8'
p260
I0
I1
tp261
Rp262
(I3
S'|'
p263
NNNI8
I1
I0
tp264
bS'cylinder'
p265
tp266
Rp267
I27
I0
tp268
a(g4
(g5
(S'S5'
p269
I0
I1
tp270
Rp271
(I3
S'|'
p272
NNNI5
I1
I0
tp273
bS'peach'
p274
tp275
Rp276
I10
I0
tp277
a(g276
I3
I0
tp278
a(g276
I27
I0
tp279
a(g276
I7
I0
tp280
a(g276
I18
I0
tp281
a(g276
I2
I0
tp282
a(g276
I20
I0
tp283
a(g276
I17
I0
tp284
aa(lp285
a.