(lp0
(lp1
(dp2
S'action'
p3
cnumpy.core.multiarray
scalar
p4
(cnumpy
dtype
p5
(S'S4'
p6
I0
I1
tp7
Rp8
(I3
S'|'
p9
NNNI4
I1
I0
tp10
bS'walk'
p11
tp12
Rp13
sS'recipient'
p14
NsS'patient'
p15
NsS'goal'
p16
g4
(g5
(S'S4'
p17
I0
I1
tp18
Rp19
(I3
S'|'
p20
NNNI4
I1
I0
tp21
bS'3508'
p22
tp23
Rp24
sS'source'
p25
Nsa(dp26
g3
g4
(g5
(S'S5'
p27
I0
I1
tp28
Rp29
(I3
S'|'
p30
NNNI5
I1
I0
tp31
bS'bring'
p32
tp33
Rp34
sg14
S'h'
p35
sg15
S'oidx_26'
p36
sg16
Nsg25
Nsa(dp37
g3
g4
(g5
(S'S5'
p38
I0
I1
tp39
Rp40
(I3
S'|'
p41
NNNI5
I1
I0
tp42
bS'bring'
p43
tp44
Rp45
sg14
g4
(g5
(S'S1'
p46
I0
I1
tp47
Rp48
(I3
S'|'
p49
NNNI1
I1
I0
tp50
bS'h'
p51
tp52
Rp53
sg15
S'oidx_28'
p54
sg16
Nsg25
Nsaa(lp55
(dp56
S'all'
p57
(lp58
S"go to peggy parker 's office"
p59
asg15
(lp60
sg16
(lp61
sg25
(lp62
sg3
(lp63
sg14
(lp64
sa(dp65
g57
(lp66
S'give this can of soda to dr heidi hughes'
p67
asg15
(lp68
S'soda can'
p69
aS'soda can'
p70
aS'soda can'
p71
aS'soda can'
p72
aS'soda can'
p73
aS'soda can'
p74
aS''
p75
aS'soda can'
p76
asg16
(lp77
sg25
(lp78
sg3
(lp79
sg14
(lp80
sa(dp81
g57
(lp82
S'pick up white tower from the office next to david daniel and deliver it to dr heidi hughes'
p83
asg15
(lp84
S'a white item from the office next to david daniel'
p85
aS'white tower'
p86
aS'foam tower'
p87
aS'foam tower'
p88
aS'foam tower'
p89
aS'foam tower'
p90
aS"foam tower located in the office next to david 's"
p91
aS"foam tower located in the office next to david 's"
p92
aS'foam tower'
p93
asg16
(lp94
sg25
(lp95
sg3
(lp96
sg14
(lp97
S'dr heidi hughes'
p98
aS'dr heidi hughes'
p99
asaa(lp100
(g4
(g5
(S'S5'
p101
I0
I1
tp102
Rp103
(I3
S'|'
p104
NNNI5
I1
I0
tp105
bS'tower'
p106
tp107
Rp108
I10
I0
tp109
a(g108
I3
I0
tp110
a(g108
I27
I0
tp111
a(g108
I7
I0
tp112
a(g108
I18
I0
tp113
a(g108
I2
I0
tp114
a(g108
I20
I0
tp115
a(g108
I17
I0
tp116
a(g4
(g5
(S'S3'
p117
I0
I1
tp118
Rp119
(I3
S'|'
p120
NNNI3
I1
I0
tp121
bS'can'
p122
tp123
Rp124
I2
I1
tp125
a(g4
(g5
(S'S4'
p126
I0
I1
tp127
Rp128
(I3
S'|'
p129
NNNI4
I1
I0
tp130
bS'long'
p131
tp132
Rp133
I3
I1
tp134
a(g4
(g5
(S'S3'
p135
I0
I1
tp136
Rp137
(I3
S'|'
p138
NNNI3
I1
I0
tp139
bS'can'
p140
tp141
Rp142
I27
I0
tp143
a(g4
(g5
(S'S9'
p144
I0
I1
tp145
Rp146
(I3
S'|'
p147
NNNI9
I1
I0
tp148
bS'rectangle'
p149
tp150
Rp151
I10
I0
tp152
a(g151
I3
I0
tp153
a(g151
I27
I0
tp154
a(g151
I7
I0
tp155
a(g151
I18
I0
tp156
a(g151
I2
I0
tp157
a(g151
I20
I0
tp158
a(g151
I17
I0
tp159
a(g4
(g5
(S'S3'
p160
I0
I1
tp161
Rp162
(I3
S'|'
p163
NNNI3
I1
I0
tp164
bS'can'
p165
tp166
Rp167
I2
I1
tp168
a(g4
(g5
(S'S3'
p169
I0
I1
tp170
Rp171
(I3
S'|'
p172
NNNI3
I1
I0
tp173
bS'can'
p174
tp175
Rp176
I20
I0
tp177
a(g4
(g5
(S'S3'
p178
I0
I1
tp179
Rp180
(I3
S'|'
p181
NNNI3
I1
I0
tp182
bS'can'
p183
tp184
Rp185
I2
I1
tp186
a(g4
(g5
(S'S3'
p187
I0
I1
tp188
Rp189
(I3
S'|'
p190
NNNI3
I1
I0
tp191
bS'can'
p192
tp193
Rp194
I17
I0
tp195
a(g4
(g5
(S'S3'
p196
I0
I1
tp197
Rp198
(I3
S'|'
p199
NNNI3
I1
I0
tp200
bS'can'
p201
tp202
Rp203
I7
I0
tp204
a(g4
(g5
(S'S8'
p205
I0
I1
tp206
Rp207
(I3
S'|'
p208
NNNI8
I1
I0
tp209
bS'metallic'
p210
tp211
Rp212
I10
I0
tp213
a(g212
I3
I0
tp214
a(g212
I27
I0
tp215
a(g212
I7
I0
tp216
a(g212
I18
I0
tp217
a(g212
I2
I0
tp218
a(g212
I20
I0
tp219
a(g212
I17
I0
tp220
a(g4
(g5
(S'S3'
p221
I0
I1
tp222
Rp223
(I3
S'|'
p224
NNNI3
I1
I0
tp225
bS'can'
p226
tp227
Rp228
I10
I1
tp229
a(g4
(g5
(S'S8'
p230
I0
I1
tp231
Rp232
(I3
S'|'
p233
NNNI8
I1
I0
tp234
bS'cylinder'
p235
tp236
Rp237
I20
I1
tp238
a(g4
(g5
(S'S5'
p239
I0
I1
tp240
Rp241
(I3
S'|'
p242
NNNI5
I1
I0
tp243
bS'white'
p244
tp245
Rp246
I10
I0
tp247
a(g246
I3
I0
tp248
a(g246
I27
I0
tp249
a(g246
I7
I0
tp250
a(g246
I18
I0
tp251
a(g246
I2
I0
tp252
a(g246
I20
I0
tp253
a(g246
I17
I0
tp254
a(g4
(g5
(S'S3'
p255
I0
I1
tp256
Rp257
(I3
S'|'
p258
NNNI3
I1
I0
tp259
bS'can'
p260
tp261
Rp262
I10
I1
tp263
aa(lp264
(S'soda'
p265
S'bean'
p266
I00
tp267
a(g265
S'coffee'
p268
I00
tp269
a(g265
S'peaches'
p270
I00
tp271
a(S'item'
p272
S'parker'
p273
I00
tp274
a(g272
S'container'
p275
I00
tp276
a(g272
S'column'
p277
I00
tp278
a(S'foam'
p279
S'cylinder'
p280
I00
tp281
a(g279
S'metallic'
p282
I00
tp283
aa.