(lp0
(lp1
(dp2
S'action'
p3
cnumpy.core.multiarray
scalar
p4
(cnumpy
dtype
p5
(S'S5'
p6
I0
I1
tp7
Rp8
(I3
S'|'
p9
NNNI5
I1
I0
tp10
bS'bring'
p11
tp12
Rp13
sS'recipient'
p14
S'm'
p15
sS'patient'
p16
S'oidx_12'
p17
sS'goal'
p18
NsS'source'
p19
Nsa(dp20
g3
g4
(g5
(S'S4'
p21
I0
I1
tp22
Rp23
(I3
S'|'
p24
NNNI4
I1
I0
tp25
bS'walk'
p26
tp27
Rp28
sg14
Nsg16
Nsg18
S'3512'
p29
sg19
Nsa(dp30
g3
g4
(g5
(S'S4'
p31
I0
I1
tp32
Rp33
(I3
S'|'
p34
NNNI4
I1
I0
tp35
bS'walk'
p36
tp37
Rp38
sg14
Nsg16
Nsg18
S'3424'
p39
sg19
Nsaa(lp40
(dp41
S'all'
p42
(lp43
S'yes'
p44
asg16
(lp45
S'no'
p46
asg18
(lp47
sg19
(lp48
sg3
(lp49
sg14
(lp50
S'yes'
p51
aS'no'
p52
asa(dp53
g42
(lp54
S'yes'
p55
asg16
(lp56
sg18
(lp57
S'no'
p58
aS'yes'
p59
aS'no'
p60
aS'yes'
p61
aS'no'
p62
aS'yes'
p63
aS'no'
p64
aS'yes'
p65
aS'no'
p66
aS'yes'
p67
aS'no'
p68
aS'yes'
p69
aS''
p70
ag70
ag70
ag70
ag70
ag70
ag70
ag70
ag70
ag70
aS'nio'
p71
aS'yes'
p72
aS'yes'
p73
aS'no'
p74
asg19
(lp75
sg3
(lp76
sg14
(lp77
sa(dp78
g42
(lp79
S'yes'
p80
asg16
(lp81
sg18
(lp82
S'no'
p83
aS'yes'
p84
aS'yes'
p85
aS'yes'
p86
aS'no'
p87
aS'no'
p88
aS'yes'
p89
aS'no'
p90
aS'yes'
p91
aS'no'
p92
aS'yes'
p93
aS'no'
p94
asg19
(lp95
sg3
(lp96
sg14
(lp97
saa(lp98
(g4
(g5
(S'S9'
p99
I0
I1
tp100
Rp101
(I3
S'|'
p102
NNNI9
I1
I0
tp103
bS'rectangle'
p104
tp105
Rp106
I10
I0
tp107
a(g106
I3
I0
tp108
a(g106
I27
I0
tp109
a(g106
I7
I0
tp110
a(g106
I18
I0
tp111
a(g106
I2
I0
tp112
a(g106
I20
I0
tp113
a(g106
I17
I0
tp114
a(g4
(g5
(S'S6'
p115
I0
I1
tp116
Rp117
(I3
S'|'
p118
NNNI6
I1
I0
tp119
bS'column'
p120
tp121
Rp122
I10
I0
tp123
a(g122
I3
I0
tp124
a(g122
I27
I0
tp125
a(g122
I7
I0
tp126
a(g122
I18
I0
tp127
a(g122
I2
I0
tp128
a(g122
I20
I0
tp129
a(g122
I17
I0
tp130
a(g4
(g5
(S'S6'
p131
I0
I1
tp132
Rp133
(I3
S'|'
p134
NNNI6
I1
I0
tp135
bS'yellow'
p136
tp137
Rp138
I10
I0
tp139
a(g138
I3
I0
tp140
a(g138
I27
I0
tp141
a(g138
I7
I0
tp142
a(g138
I18
I0
tp143
a(g138
I2
I0
tp144
a(g138
I20
I0
tp145
a(g138
I17
I0
tp146
a(g4
(g5
(S'S5'
p147
I0
I1
tp148
Rp149
(I3
S'|'
p150
NNNI5
I1
I0
tp151
bS'clear'
p152
tp153
Rp154
I10
I0
tp155
a(g154
I3
I0
tp156
a(g154
I27
I0
tp157
a(g154
I7
I0
tp158
a(g154
I18
I0
tp159
a(g154
I2
I0
tp160
a(g154
I20
I0
tp161
a(g154
I17
I0
tp162
a(g4
(g5
(S'S5'
p163
I0
I1
tp164
Rp165
(I3
S'|'
p166
NNNI5
I1
I0
tp167
bS'spice'
p168
tp169
Rp170
I10
I0
tp171
a(g170
I3
I0
tp172
a(g170
I27
I0
tp173
a(g170
I7
I0
tp174
a(g170
I18
I0
tp175
a(g170
I2
I0
tp176
a(g170
I20
I0
tp177
a(g170
I17
I0
tp178
a(g4
(g5
(S'S8'
p179
I0
I1
tp180
Rp181
(I3
S'|'
p182
NNNI8
I1
I0
tp183
bS'cylinder'
p184
tp185
Rp186
I10
I0
tp187
a(g186
I3
I0
tp188
a(g186
I27
I0
tp189
a(g186
I7
I0
tp190
a(g186
I18
I0
tp191
a(g186
I2
I0
tp192
a(g186
I20
I0
tp193
a(g186
I17
I0
tp194
a(g4
(g5
(S'S5'
p195
I0
I1
tp196
Rp197
(I3
S'|'
p198
NNNI5
I1
I0
tp199
bS'peach'
p200
tp201
Rp202
I10
I0
tp203
a(g202
I3
I0
tp204
a(g202
I27
I0
tp205
a(g202
I7
I0
tp206
a(g202
I18
I0
tp207
a(g202
I2
I0
tp208
a(g202
I20
I0
tp209
a(g202
I17
I0
tp210
a(g4
(g5
(S'S5'
p211
I0
I1
tp212
Rp213
(I3
S'|'
p214
NNNI5
I1
I0
tp215
bS'white'
p216
tp217
Rp218
I10
I0
tp219
a(g218
I3
I0
tp220
a(g218
I27
I0
tp221
a(g218
I7
I0
tp222
a(g218
I18
I0
tp223
a(g218
I2
I0
tp224
a(g218
I20
I0
tp225
a(g218
I17
I0
tp226
a(g4
(g5
(S'S4'
p227
I0
I1
tp228
Rp229
(I3
S'|'
p230
NNNI4
I1
I0
tp231
bS'blue'
p232
tp233
Rp234
I10
I0
tp235
a(g234
I3
I0
tp236
a(g234
I27
I0
tp237
a(g234
I7
I0
tp238
a(g234
I18
I0
tp239
a(g234
I2
I0
tp240
a(g234
I20
I0
tp241
a(g234
I17
I0
tp242
a(g4
(g5
(S'S9'
p243
I0
I1
tp244
Rp245
(I3
S'|'
p246
NNNI9
I1
I0
tp247
bS'container'
p248
tp249
Rp250
I10
I0
tp251
a(g250
I3
I0
tp252
a(g250
I27
I0
tp253
a(g250
I7
I0
tp254
a(g250
I18
I0
tp255
a(g250
I2
I0
tp256
a(g250
I20
I0
tp257
a(g250
I17
I0
tp258
a(g4
(g5
(S'S5'
p259
I0
I1
tp260
Rp261
(I3
S'|'
p262
NNNI5
I1
I0
tp263
bS'tower'
p264
tp265
Rp266
I10
I0
tp267
a(g266
I3
I0
tp268
a(g266
I27
I0
tp269
a(g266
I7
I0
tp270
a(g266
I18
I0
tp271
a(g266
I2
I0
tp272
a(g266
I20
I0
tp273
a(g266
I17
I0
tp274
a(g4
(g5
(S'S3'
p275
I0
I1
tp276
Rp277
(I3
S'|'
p278
NNNI3
I1
I0
tp279
bS'can'
p280
tp281
Rp282
I10
I0
tp283
a(g282
I3
I0
tp284
a(g282
I27
I0
tp285
a(g282
I7
I0
tp286
a(g282
I18
I0
tp287
a(g282
I2
I0
tp288
a(g282
I20
I0
tp289
a(g282
I17
I0
tp290
a(g4
(g5
(S'S8'
p291
I0
I1
tp292
Rp293
(I3
S'|'
p294
NNNI8
I1
I0
tp295
bS'pringles'
p296
tp297
Rp298
I10
I0
tp299
a(g298
I3
I0
tp300
a(g298
I27
I0
tp301
a(g298
I7
I0
tp302
a(g298
I18
I0
tp303
a(g298
I2
I0
tp304
a(g298
I20
I0
tp305
a(g298
I17
I0
tp306
a(g4
(g5
(S'S6'
p307
I0
I1
tp308
Rp309
(I3
S'|'
p310
NNNI6
I1
I0
tp311
bS'coffee'
p312
tp313
Rp314
I10
I0
tp315
a(g314
I3
I0
tp316
a(g314
I27
I0
tp317
a(g314
I7
I0
tp318
a(g314
I18
I0
tp319
a(g314
I2
I0
tp320
a(g314
I20
I0
tp321
a(g314
I17
I0
tp322
a(g4
(g5
(S'S5'
p323
I0
I1
tp324
Rp325
(I3
S'|'
p326
NNNI5
I1
I0
tp327
bS'block'
p328
tp329
Rp330
I10
I0
tp331
a(g330
I3
I0
tp332
a(g330
I27
I0
tp333
a(g330
I7
I0
tp334
a(g330
I18
I0
tp335
a(g330
I2
I0
tp336
a(g330
I20
I0
tp337
a(g330
I17
I0
tp338
aa(lp339
a.