(lp0
(lp1
(dp2
S'action'
p3
cnumpy.core.multiarray
scalar
p4
(cnumpy
dtype
p5
(S'S5'
p6
I0
I1
tp7
Rp8
(I3
S'|'
p9
NNNI5
I1
I0
tp10
bS'bring'
p11
tp12
Rp13
sS'recipient'
p14
S'h'
p15
sS'patient'
p16
S'oidx_11'
p17
sS'goal'
p18
NsS'source'
p19
Nsa(dp20
g3
g4
(g5
(S'S5'
p21
I0
I1
tp22
Rp23
(I3
S'|'
p24
NNNI5
I1
I0
tp25
bS'bring'
p26
tp27
Rp28
sg14
S'd'
p29
sg16
S'oidx_28'
p30
sg18
Nsg19
Nsa(dp31
g3
g4
(g5
(S'S5'
p32
I0
I1
tp33
Rp34
(I3
S'|'
p35
NNNI5
I1
I0
tp36
bS'bring'
p37
tp38
Rp39
sg14
g4
(g5
(S'S1'
p40
I0
I1
tp41
Rp42
(I3
S'|'
p43
NNNI1
I1
I0
tp44
bS's'
p45
tp46
Rp47
sg16
S'oidx_12'
p48
sg18
Nsg19
Nsaa(lp49
(dp50
S'all'
p51
(lp52
S'go and get some files from richard rogue the secretary'
p53
asg16
(lp54
S'a biro or a book'
p55
asg18
(lp56
sg19
(lp57
sg3
(lp58
sg14
(lp59
S'richard rogue secretary'
p60
asa(dp61
g51
(lp62
S'give this to dr sybil smalt'
p63
asg16
(lp64
S'can'
p65
aS'blue'
p66
asg18
(lp67
sg19
(lp68
sg3
(lp69
sg14
(lp70
sa(dp71
g51
(lp72
S'x'
p73
asg16
(lp74
S'blue'
p75
asg18
(lp76
sg19
(lp77
sg3
(lp78
sg14
(lp79
S'dr sybil smalt'
p80
asaa(lp81
(g4
(g5
(S'S4'
p82
I0
I1
tp83
Rp84
(I3
S'|'
p85
NNNI4
I1
I0
tp86
bS'book'
p87
tp88
Rp89
I10
I0
tp90
a(g89
I3
I0
tp91
a(g89
I27
I0
tp92
a(g89
I7
I0
tp93
a(g89
I18
I0
tp94
a(g89
I2
I0
tp95
a(g89
I20
I0
tp96
a(g89
I17
I0
tp97
a(g4
(g5
(S'S3'
p98
I0
I1
tp99
Rp100
(I3
S'|'
p101
NNNI3
I1
I0
tp102
bS'can'
p103
tp104
Rp105
I10
I1
tp106
a(g4
(g5
(S'S3'
p107
I0
I1
tp108
Rp109
(I3
S'|'
p110
NNNI3
I1
I0
tp111
bS'can'
p112
tp113
Rp114
I20
I0
tp115
a(g4
(g5
(S'S3'
p116
I0
I1
tp117
Rp118
(I3
S'|'
p119
NNNI3
I1
I0
tp120
bS'can'
p121
tp122
Rp123
I3
I1
tp124
a(g4
(g5
(S'S3'
p125
I0
I1
tp126
Rp127
(I3
S'|'
p128
NNNI3
I1
I0
tp129
bS'can'
p130
tp131
Rp132
I27
I0
tp133
a(g4
(g5
(S'S6'
p134
I0
I1
tp135
Rp136
(I3
S'|'
p137
NNNI6
I1
I0
tp138
bS'column'
p139
tp140
Rp141
I10
I1
tp142
a(g4
(g5
(S'S5'
p143
I0
I1
tp144
Rp145
(I3
S'|'
p146
NNNI5
I1
I0
tp147
bS'spice'
p148
tp149
Rp150
I10
I0
tp151
a(g150
I3
I0
tp152
a(g150
I27
I0
tp153
a(g150
I7
I0
tp154
a(g150
I18
I0
tp155
a(g150
I2
I0
tp156
a(g150
I20
I0
tp157
a(g150
I17
I0
tp158
a(g4
(g5
(S'S6'
p159
I0
I1
tp160
Rp161
(I3
S'|'
p162
NNNI6
I1
I0
tp163
bS'column'
p164
tp165
Rp166
I10
I1
tp167
a(g166
I3
I1
tp168
a(g166
I27
I1
tp169
a(g166
I7
I1
tp170
a(g166
I18
I1
tp171
a(g166
I2
I1
tp172
a(g166
I20
I1
tp173
a(g166
I17
I1
tp174
a(g4
(g5
(S'S4'
p175
I0
I1
tp176
Rp177
(I3
S'|'
p178
NNNI4
I1
I0
tp179
bS'blue'
p180
tp181
Rp182
I10
I1
tp183
a(g4
(g5
(S'S8'
p184
I0
I1
tp185
Rp186
(I3
S'|'
p187
NNNI8
I1
I0
tp188
bS'metallic'
p189
tp190
Rp191
I3
I1
tp192
a(g4
(g5
(S'S1'
p193
I0
I1
tp194
Rp195
(I3
S'|'
p196
NNNI1
I1
I0
tp197
bS'x'
p198
tp199
Rp200
I10
I0
tp201
a(g200
I3
I0
tp202
a(g200
I27
I0
tp203
a(g200
I7
I0
tp204
a(g200
I18
I0
tp205
a(g200
I2
I0
tp206
a(g200
I20
I0
tp207
a(g200
I17
I0
tp208
a(g4
(g5
(S'S9'
p209
I0
I1
tp210
Rp211
(I3
S'|'
p212
NNNI9
I1
I0
tp213
bS'container'
p214
tp215
Rp216
I10
I0
tp217
a(g216
I3
I0
tp218
a(g216
I27
I0
tp219
a(g216
I7
I0
tp220
a(g216
I18
I0
tp221
a(g216
I2
I0
tp222
a(g216
I20
I0
tp223
a(g216
I17
I0
tp224
a(g4
(g5
(S'S4'
p225
I0
I1
tp226
Rp227
(I3
S'|'
p228
NNNI4
I1
I0
tp229
bS'blue'
p230
tp231
Rp232
I18
I0
tp233
a(g4
(g5
(S'S4'
p234
I0
I1
tp235
Rp236
(I3
S'|'
p237
NNNI4
I1
I0
tp238
bS'blue'
p239
tp240
Rp241
I18
I1
tp242
a(g4
(g5
(S'S8'
p243
I0
I1
tp244
Rp245
(I3
S'|'
p246
NNNI8
I1
I0
tp247
bS'pringles'
p248
tp249
Rp250
I18
I1
tp251
aa(lp252
(S'files'
p253
S'container'
p254
I00
tp255
a(S'or'
p256
S'can'
p257
I01
tp258
a(S'book'
p259
S'coffee'
p260
I00
tp261
a(g259
S'column'
p262
I00
tp263
a(g73
S'metallic'
p264
I00
tp265
a(g73
S'cylinder'
p266
I00
tp267
aa.