(lp0
(lp1
(dp2
S'action'
p3
cnumpy.core.multiarray
scalar
p4
(cnumpy
dtype
p5
(S'S4'
p6
I0
I1
tp7
Rp8
(I3
S'|'
p9
NNNI4
I1
I0
tp10
bS'walk'
p11
tp12
Rp13
sS'recipient'
p14
NsS'patient'
p15
NsS'goal'
p16
g4
(g5
(S'S4'
p17
I0
I1
tp18
Rp19
(I3
S'|'
p20
NNNI4
I1
I0
tp21
bS'3504'
p22
tp23
Rp24
sS'source'
p25
Nsa(dp26
g3
g4
(g5
(S'S5'
p27
I0
I1
tp28
Rp29
(I3
S'|'
p30
NNNI5
I1
I0
tp31
bS'bring'
p32
tp33
Rp34
sg14
S'w'
p35
sg15
S'oidx_6'
p36
sg16
Nsg25
Nsaa(lp37
(dp38
S'all'
p39
(lp40
S"go to pod next to mallory 's office"
p41
asg15
(lp42
sg16
(lp43
S"pod next to mallory 's office"
p44
asg25
(lp45
sg3
(lp46
sg14
(lp47
sa(dp48
g39
(lp49
S'bring walter a bottle'
p50
asg15
(lp51
S'medicine bottle'
p52
aS'medicine bottle'
p53
aS'bottle'
p54
aS'a bottle with cap on'
p55
aS'bottle'
p56
aS'yes'
p57
aS'bottle'
p58
aS'a medicine bottle'
p59
aS'medicine bottle'
p60
aS'medicine bottle'
p61
aS'bottle'
p62
asg16
(lp63
sg25
(lp64
sg3
(lp65
sg14
(lp66
saa(lp67
(g4
(g5
(S'S8'
p68
I0
I1
tp69
Rp70
(I3
S'|'
p71
NNNI8
I1
I0
tp72
bS'metallic'
p73
tp74
Rp75
I10
I0
tp76
a(g75
I3
I0
tp77
a(g75
I27
I0
tp78
a(g75
I7
I0
tp79
a(g75
I18
I0
tp80
a(g75
I2
I0
tp81
a(g75
I20
I0
tp82
a(g75
I17
I0
tp83
a(g4
(g5
(S'S6'
p84
I0
I1
tp85
Rp86
(I3
S'|'
p87
NNNI6
I1
I0
tp88
bS'coffee'
p89
tp90
Rp91
I2
I1
tp92
a(g4
(g5
(S'S8'
p93
I0
I1
tp94
Rp95
(I3
S'|'
p96
NNNI8
I1
I0
tp97
bS'pringles'
p98
tp99
Rp100
I10
I0
tp101
a(g100
I3
I0
tp102
a(g100
I27
I0
tp103
a(g100
I7
I0
tp104
a(g100
I18
I0
tp105
a(g100
I2
I0
tp106
a(g100
I20
I0
tp107
a(g100
I17
I0
tp108
a(g4
(g5
(S'S5'
p109
I0
I1
tp110
Rp111
(I3
S'|'
p112
NNNI5
I1
I0
tp113
bS'spice'
p114
tp115
Rp116
I10
I0
tp117
a(g116
I3
I0
tp118
a(g116
I27
I0
tp119
a(g116
I7
I0
tp120
a(g116
I18
I0
tp121
a(g116
I2
I0
tp122
a(g116
I20
I0
tp123
a(g116
I17
I0
tp124
a(g4
(g5
(S'S5'
p125
I0
I1
tp126
Rp127
(I3
S'|'
p128
NNNI5
I1
I0
tp129
bS'white'
p130
tp131
Rp132
I10
I0
tp133
a(g132
I3
I0
tp134
a(g132
I27
I0
tp135
a(g132
I7
I0
tp136
a(g132
I18
I0
tp137
a(g132
I2
I0
tp138
a(g132
I20
I0
tp139
a(g132
I17
I0
tp140
a(g4
(g5
(S'S4'
p141
I0
I1
tp142
Rp143
(I3
S'|'
p144
NNNI4
I1
I0
tp145
bS'long'
p146
tp147
Rp148
I3
I1
tp149
a(g4
(g5
(S'S8'
p150
I0
I1
tp151
Rp152
(I3
S'|'
p153
NNNI8
I1
I0
tp154
bS'cylinder'
p155
tp156
Rp157
I20
I1
tp158
a(g4
(g5
(S'S4'
p159
I0
I1
tp160
Rp161
(I3
S'|'
p162
NNNI4
I1
I0
tp163
bS'bean'
p164
tp165
Rp166
I10
I0
tp167
a(g166
I3
I0
tp168
a(g166
I27
I0
tp169
a(g166
I7
I0
tp170
a(g166
I18
I0
tp171
a(g166
I2
I0
tp172
a(g166
I20
I0
tp173
a(g166
I17
I0
tp174
a(g4
(g5
(S'S4'
p175
I0
I1
tp176
Rp177
(I3
S'|'
p178
NNNI4
I1
I0
tp179
bS'blue'
p180
tp181
Rp182
I18
I1
tp183
a(g4
(g5
(S'S6'
p184
I0
I1
tp185
Rp186
(I3
S'|'
p187
NNNI6
I1
I0
tp188
bS'coffee'
p189
tp190
Rp191
I2
I0
tp192
aa(lp193
a.