(lp0
(lp1
(dp2
S'action'
p3
cnumpy.core.multiarray
scalar
p4
(cnumpy
dtype
p5
(S'S4'
p6
I0
I1
tp7
Rp8
(I3
S'|'
p9
NNNI4
I1
I0
tp10
bS'walk'
p11
tp12
Rp13
sS'recipient'
p14
NsS'patient'
p15
NsS'goal'
p16
g4
(g5
(S'S4'
p17
I0
I1
tp18
Rp19
(I3
S'|'
p20
NNNI4
I1
I0
tp21
bS'3520'
p22
tp23
Rp24
sS'source'
p25
Nsa(dp26
g3
g4
(g5
(S'S5'
p27
I0
I1
tp28
Rp29
(I3
S'|'
p30
NNNI5
I1
I0
tp31
bS'bring'
p32
tp33
Rp34
sg14
g4
(g5
(S'S1'
p35
I0
I1
tp36
Rp37
(I3
S'|'
p38
NNNI1
I1
I0
tp39
bS'h'
p40
tp41
Rp42
sg15
g4
(g5
(S'S7'
p43
I0
I1
tp44
Rp45
(I3
S'|'
p46
NNNI7
I1
I0
tp47
bS'oidx_28'
p48
tp49
Rp50
sg16
Nsg25
Nsa(dp51
g3
g4
(g5
(S'S4'
p52
I0
I1
tp53
Rp54
(I3
S'|'
p55
NNNI4
I1
I0
tp56
bS'move'
p57
tp58
Rp59
sg14
Nsg15
g4
(g5
(S'S7'
p60
I0
I1
tp61
Rp62
(I3
S'|'
p63
NNNI7
I1
I0
tp64
bS'oidx_28'
p65
tp66
Rp67
sg16
g4
(g5
(S'S4'
p68
I0
I1
tp69
Rp70
(I3
S'|'
p71
NNNI4
I1
I0
tp72
bS'3512'
p73
tp74
Rp75
sg25
g4
(g5
(S'S4'
p76
I0
I1
tp77
Rp78
(I3
S'|'
p79
NNNI4
I1
I0
tp80
bS'3404'
p81
tp82
Rp83
saa(lp84
(dp85
S'all'
p86
(lp87
S'go to the kitchen'
p88
asg15
(lp89
sg16
(lp90
sg25
(lp91
sg3
(lp92
sg14
(lp93
sa(dp94
g86
(lp95
S'take the white styrofome tower to dr heidi hughes'
p96
asg15
(lp97
S'a white styrofoam tower'
p98
aS'a white styrofoam tower'
p99
aS'a white styrofoam tower'
p100
asg16
(lp101
sg25
(lp102
sg3
(lp103
sg14
(lp104
S'dr heidi hughes'
p105
asa(dp106
g86
(lp107
S'take the white styrofoam tower to the office next to the lounge'
p108
asg15
(lp109
S'the white styrofoam toewr'
p110
aS'the white styrofoam tower'
p111
aS'move the white styrofoam tower'
p112
aS'a white styrofoam tower'
p113
asg16
(lp114
S'yes'
p115
aS'to richard rogue secretary office'
p116
aS'to richard rogue secretary office'
p117
asg25
(lp118
S"dr nancy nagel 's office"
p119
aS'yes'
p120
aS'from dr nancy nagel office'
p121
asg3
(lp122
sg14
(lp123
saa(lp124
(g4
(g5
(S'S5'
p125
I0
I1
tp126
Rp127
(I3
S'|'
p128
NNNI5
I1
I0
tp129
bS'clear'
p130
tp131
Rp132
I10
I0
tp133
a(g132
I3
I0
tp134
a(g132
I27
I0
tp135
a(g132
I7
I0
tp136
a(g132
I18
I0
tp137
a(g132
I2
I0
tp138
a(g132
I20
I0
tp139
a(g132
I17
I0
tp140
a(g4
(g5
(S'S6'
p141
I0
I1
tp142
Rp143
(I3
S'|'
p144
NNNI6
I1
I0
tp145
bS'coffee'
p146
tp147
Rp148
I2
I1
tp149
a(g4
(g5
(S'S3'
p150
I0
I1
tp151
Rp152
(I3
S'|'
p153
NNNI3
I1
I0
tp154
bS'can'
p155
tp156
Rp157
I2
I1
tp158
a(g4
(g5
(S'S5'
p159
I0
I1
tp160
Rp161
(I3
S'|'
p162
NNNI5
I1
I0
tp163
bS'empty'
p164
tp165
Rp166
I10
I0
tp167
a(g166
I3
I0
tp168
a(g166
I27
I0
tp169
a(g166
I7
I0
tp170
a(g166
I18
I0
tp171
a(g166
I2
I0
tp172
a(g166
I20
I0
tp173
a(g166
I17
I0
tp174
a(g4
(g5
(S'S3'
p175
I0
I1
tp176
Rp177
(I3
S'|'
p178
NNNI3
I1
I0
tp179
bS'can'
p180
tp181
Rp182
I27
I0
tp183
a(g4
(g5
(S'S9'
p184
I0
I1
tp185
Rp186
(I3
S'|'
p187
NNNI9
I1
I0
tp188
bS'styrofoam'
p189
tp190
Rp191
I20
I1
tp192
a(g4
(g5
(S'S9'
p193
I0
I1
tp194
Rp195
(I3
S'|'
p196
NNNI9
I1
I0
tp197
bS'styrofoam'
p198
tp199
Rp200
I3
I0
tp201
a(g4
(g5
(S'S5'
p202
I0
I1
tp203
Rp204
(I3
S'|'
p205
NNNI5
I1
I0
tp206
bS'tower'
p207
tp208
Rp209
I20
I1
tp210
a(g4
(g5
(S'S9'
p211
I0
I1
tp212
Rp213
(I3
S'|'
p214
NNNI9
I1
I0
tp215
bS'styrofoam'
p216
tp217
Rp218
I20
I1
tp219
a(g4
(g5
(S'S9'
p220
I0
I1
tp221
Rp222
(I3
S'|'
p223
NNNI9
I1
I0
tp224
bS'styrofoam'
p225
tp226
Rp227
I3
I0
tp228
a(g4
(g5
(S'S6'
p229
I0
I1
tp230
Rp231
(I3
S'|'
p232
NNNI6
I1
I0
tp233
bS'yellow'
p234
tp235
Rp236
I10
I0
tp237
a(g236
I3
I0
tp238
a(g236
I27
I0
tp239
a(g236
I7
I0
tp240
a(g236
I18
I0
tp241
a(g236
I2
I0
tp242
a(g236
I20
I0
tp243
a(g236
I17
I0
tp244
a(g4
(g5
(S'S5'
p245
I0
I1
tp246
Rp247
(I3
S'|'
p248
NNNI5
I1
I0
tp249
bS'white'
p250
tp251
Rp252
I10
I0
tp253
a(g252
I3
I0
tp254
a(g252
I27
I0
tp255
a(g252
I7
I0
tp256
a(g252
I18
I0
tp257
a(g252
I2
I0
tp258
a(g252
I20
I0
tp259
a(g252
I17
I0
tp260
a(g4
(g5
(S'S9'
p261
I0
I1
tp262
Rp263
(I3
S'|'
p264
NNNI9
I1
I0
tp265
bS'styrofoam'
p266
tp267
Rp268
I20
I1
tp269
a(g4
(g5
(S'S8'
p270
I0
I1
tp271
Rp272
(I3
S'|'
p273
NNNI8
I1
I0
tp274
bS'pringles'
p275
tp276
Rp277
I10
I0
tp278
a(g277
I3
I0
tp279
a(g277
I27
I0
tp280
a(g277
I7
I0
tp281
a(g277
I18
I0
tp282
a(g277
I2
I0
tp283
a(g277
I20
I0
tp284
a(g277
I17
I0
tp285
a(g4
(g5
(S'S4'
p286
I0
I1
tp287
Rp288
(I3
S'|'
p289
NNNI4
I1
I0
tp290
bS'bean'
p291
tp292
Rp293
I10
I0
tp294
a(g293
I3
I0
tp295
a(g293
I27
I0
tp296
a(g293
I7
I0
tp297
a(g293
I18
I0
tp298
a(g293
I2
I0
tp299
a(g293
I20
I0
tp300
a(g293
I17
I0
tp301
aa(lp302
a.