(lp0
(lp1
(dp2
S'action'
p3
cnumpy.core.multiarray
scalar
p4
(cnumpy
dtype
p5
(S'S4'
p6
I0
I1
tp7
Rp8
(I3
S'|'
p9
NNNI4
I1
I0
tp10
bS'walk'
p11
tp12
Rp13
sS'recipient'
p14
NsS'patient'
p15
NsS'goal'
p16
g4
(g5
(S'S4'
p17
I0
I1
tp18
Rp19
(I3
S'|'
p20
NNNI4
I1
I0
tp21
bS'3520'
p22
tp23
Rp24
sS'source'
p25
Nsa(dp26
g3
g4
(g5
(S'S5'
p27
I0
I1
tp28
Rp29
(I3
S'|'
p30
NNNI5
I1
I0
tp31
bS'bring'
p32
tp33
Rp34
sg14
S'p'
p35
sg15
S'oidx_6'
p36
sg16
Nsg25
Nsa(dp37
g3
g4
(g5
(S'S5'
p38
I0
I1
tp39
Rp40
(I3
S'|'
p41
NNNI5
I1
I0
tp42
bS'bring'
p43
tp44
Rp45
sg14
S's'
p46
sg15
S'oidx_26'
p47
sg16
Nsg25
Nsaa(lp48
(dp49
S'all'
p50
(lp51
S'go to the kitchen'
p52
asg15
(lp53
sg16
(lp54
S'go to the kitchen'
p55
asg25
(lp56
sg3
(lp57
sg14
(lp58
sa(dp59
g50
(lp60
S'take the pill bottle to walter ward'
p61
asg15
(lp62
S'the pill bottle'
p63
aS'the pills'
p64
asg16
(lp65
sg25
(lp66
sg3
(lp67
sg14
(lp68
sa(dp69
g50
(lp70
S'take the styrofoam from mallory mal maroon to the pod'
p71
asg15
(lp72
S'deliver the styrofoam'
p73
aS'no'
p74
aS'no'
p75
aS'nothing'
p76
aS'styrofoam'
p77
asg16
(lp78
sg25
(lp79
sg3
(lp80
sg14
(lp81
saa(lp82
(g4
(g5
(S'S6'
p83
I0
I1
tp84
Rp85
(I3
S'|'
p86
NNNI6
I1
I0
tp87
bS'column'
p88
tp89
Rp90
I10
I0
tp91
a(g90
I3
I0
tp92
a(g90
I27
I0
tp93
a(g90
I7
I0
tp94
a(g90
I18
I0
tp95
a(g90
I2
I0
tp96
a(g90
I20
I0
tp97
a(g90
I17
I0
tp98
a(g4
(g5
(S'S4'
p99
I0
I1
tp100
Rp101
(I3
S'|'
p102
NNNI4
I1
I0
tp103
bS'blue'
p104
tp105
Rp106
I18
I1
tp107
a(g4
(g5
(S'S9'
p108
I0
I1
tp109
Rp110
(I3
S'|'
p111
NNNI9
I1
I0
tp112
bS'styrofoam'
p113
tp114
Rp115
I10
I0
tp116
a(g115
I3
I0
tp117
a(g115
I27
I0
tp118
a(g115
I7
I0
tp119
a(g115
I18
I0
tp120
a(g115
I2
I0
tp121
a(g115
I20
I0
tp122
a(g115
I17
I0
tp123
a(g4
(g5
(S'S5'
p124
I0
I1
tp125
Rp126
(I3
S'|'
p127
NNNI5
I1
I0
tp128
bS'spice'
p129
tp130
Rp131
I10
I0
tp132
a(g131
I3
I0
tp133
a(g131
I27
I0
tp134
a(g131
I7
I0
tp135
a(g131
I18
I0
tp136
a(g131
I2
I0
tp137
a(g131
I20
I0
tp138
a(g131
I17
I0
tp139
a(g4
(g5
(S'S5'
p140
I0
I1
tp141
Rp142
(I3
S'|'
p143
NNNI5
I1
I0
tp144
bS'block'
p145
tp146
Rp147
I10
I0
tp148
a(g147
I3
I0
tp149
a(g147
I27
I0
tp150
a(g147
I7
I0
tp151
a(g147
I18
I0
tp152
a(g147
I2
I0
tp153
a(g147
I20
I0
tp154
a(g147
I17
I0
tp155
a(g4
(g5
(S'S6'
p156
I0
I1
tp157
Rp158
(I3
S'|'
p159
NNNI6
I1
I0
tp160
bS'coffee'
p161
tp162
Rp163
I10
I0
tp164
a(g163
I3
I0
tp165
a(g163
I27
I0
tp166
a(g163
I7
I0
tp167
a(g163
I18
I0
tp168
a(g163
I2
I0
tp169
a(g163
I20
I0
tp170
a(g163
I17
I0
tp171
a(g4
(g5
(S'S4'
p172
I0
I1
tp173
Rp174
(I3
S'|'
p175
NNNI4
I1
I0
tp176
bS'bean'
p177
tp178
Rp179
I10
I0
tp180
a(g179
I3
I0
tp181
a(g179
I27
I0
tp182
a(g179
I7
I0
tp183
a(g179
I18
I0
tp184
a(g179
I2
I0
tp185
a(g179
I20
I0
tp186
a(g179
I17
I0
tp187
a(g4
(g5
(S'S5'
p188
I0
I1
tp189
Rp190
(I3
S'|'
p191
NNNI5
I1
I0
tp192
bS'empty'
p193
tp194
Rp195
I10
I0
tp196
a(g195
I3
I0
tp197
a(g195
I27
I0
tp198
a(g195
I7
I0
tp199
a(g195
I18
I0
tp200
a(g195
I2
I0
tp201
a(g195
I20
I0
tp202
a(g195
I17
I0
tp203
a(g4
(g5
(S'S5'
p204
I0
I1
tp205
Rp206
(I3
S'|'
p207
NNNI5
I1
I0
tp208
bS'tower'
p209
tp210
Rp211
I10
I0
tp212
a(g211
I3
I0
tp213
a(g211
I27
I0
tp214
a(g211
I7
I0
tp215
a(g211
I18
I0
tp216
a(g211
I2
I0
tp217
a(g211
I20
I0
tp218
a(g211
I17
I0
tp219
a(g4
(g5
(S'S8'
p220
I0
I1
tp221
Rp222
(I3
S'|'
p223
NNNI8
I1
I0
tp224
bS'pringles'
p225
tp226
Rp227
I10
I0
tp228
a(g227
I3
I0
tp229
a(g227
I27
I0
tp230
a(g227
I7
I0
tp231
a(g227
I18
I0
tp232
a(g227
I2
I0
tp233
a(g227
I20
I0
tp234
a(g227
I17
I0
tp235
a(g4
(g5
(S'S3'
p236
I0
I1
tp237
Rp238
(I3
S'|'
p239
NNNI3
I1
I0
tp240
bS'can'
p241
tp242
Rp243
I2
I1
tp244
a(g4
(g5
(S'S8'
p245
I0
I1
tp246
Rp247
(I3
S'|'
p248
NNNI8
I1
I0
tp249
bS'metallic'
p250
tp251
Rp252
I10
I0
tp253
a(g252
I3
I0
tp254
a(g252
I27
I0
tp255
a(g252
I7
I0
tp256
a(g252
I18
I0
tp257
a(g252
I2
I0
tp258
a(g252
I20
I0
tp259
a(g252
I17
I0
tp260
a(g4
(g5
(S'S9'
p261
I0
I1
tp262
Rp263
(I3
S'|'
p264
NNNI9
I1
I0
tp265
bS'rectangle'
p266
tp267
Rp268
I10
I0
tp269
a(g268
I3
I0
tp270
a(g268
I27
I0
tp271
a(g268
I7
I0
tp272
a(g268
I18
I0
tp273
a(g268
I2
I0
tp274
a(g268
I20
I0
tp275
a(g268
I17
I0
tp276
a(g4
(g5
(S'S5'
p277
I0
I1
tp278
Rp279
(I3
S'|'
p280
NNNI5
I1
I0
tp281
bS'clear'
p282
tp283
Rp284
I10
I0
tp285
a(g284
I3
I0
tp286
a(g284
I27
I0
tp287
a(g284
I7
I0
tp288
a(g284
I18
I0
tp289
a(g284
I2
I0
tp290
a(g284
I20
I0
tp291
a(g284
I17
I0
tp292
a(g4
(g5
(S'S4'
p293
I0
I1
tp294
Rp295
(I3
S'|'
p296
NNNI4
I1
I0
tp297
bS'long'
p298
tp299
Rp300
I3
I1
tp301
aa(lp302
a.