(lp0
(lp1
(dp2
S'action'
p3
cnumpy.core.multiarray
scalar
p4
(cnumpy
dtype
p5
(S'S4'
p6
I0
I1
tp7
Rp8
(I3
S'|'
p9
NNNI4
I1
I0
tp10
bS'walk'
p11
tp12
Rp13
sS'recipient'
p14
NsS'patient'
p15
NsS'goal'
p16
S'3436'
p17
sS'source'
p18
Nsa(dp19
g3
g4
(g5
(S'S4'
p20
I0
I1
tp21
Rp22
(I3
S'|'
p23
NNNI4
I1
I0
tp24
bS'walk'
p25
tp26
Rp27
sg14
Nsg15
Nsg16
S'3432'
p28
sg18
Nsa(dp29
g3
g4
(g5
(S'S4'
p30
I0
I1
tp31
Rp32
(I3
S'|'
p33
NNNI4
I1
I0
tp34
bS'walk'
p35
tp36
Rp37
sg14
Nsg15
Nsg16
S'3402'
p38
sg18
Nsaa(lp39
(dp40
S'all'
p41
(lp42
S'go to lab'
p43
asg15
(lp44
sg16
(lp45
S'lounge'
p46
asg18
(lp47
sg3
(lp48
sg14
(lp49
sa(dp50
g41
(lp51
S''
p52
asg15
(lp53
sg16
(lp54
S'p'
p55
asg18
(lp56
sg3
(lp57
sg14
(lp58
sa(dp59
g41
(lp60
S'pod'
p61
asg15
(lp62
sg16
(lp63
S'conference'
p64
asg18
(lp65
sg3
(lp66
sg14
(lp67
saa(lp68
(g4
(g5
(S'S9'
p69
I0
I1
tp70
Rp71
(I3
S'|'
p72
NNNI9
I1
I0
tp73
bS'container'
p74
tp75
Rp76
I10
I0
tp77
a(g76
I3
I0
tp78
a(g76
I27
I0
tp79
a(g76
I7
I0
tp80
a(g76
I18
I0
tp81
a(g76
I2
I0
tp82
a(g76
I20
I0
tp83
a(g76
I17
I0
tp84
a(g4
(g5
(S'S6'
p85
I0
I1
tp86
Rp87
(I3
S'|'
p88
NNNI6
I1
I0
tp89
bS'column'
p90
tp91
Rp92
I10
I0
tp93
a(g92
I3
I0
tp94
a(g92
I27
I0
tp95
a(g92
I7
I0
tp96
a(g92
I18
I0
tp97
a(g92
I2
I0
tp98
a(g92
I20
I0
tp99
a(g92
I17
I0
tp100
a(g4
(g5
(S'S5'
p101
I0
I1
tp102
Rp103
(I3
S'|'
p104
NNNI5
I1
I0
tp105
bS'white'
p106
tp107
Rp108
I17
I1
tp109
a(g4
(g5
(S'S9'
p110
I0
I1
tp111
Rp112
(I3
S'|'
p113
NNNI9
I1
I0
tp114
bS'rectangle'
p115
tp116
Rp117
I2
I1
tp118
a(g4
(g5
(S'S8'
p119
I0
I1
tp120
Rp121
(I3
S'|'
p122
NNNI8
I1
I0
tp123
bS'pringles'
p124
tp125
Rp126
I18
I1
tp127
a(g4
(g5
(S'S5'
p128
I0
I1
tp129
Rp130
(I3
S'|'
p131
NNNI5
I1
I0
tp132
bS'empty'
p133
tp134
Rp135
I27
I1
tp136
a(g4
(g5
(S'S5'
p137
I0
I1
tp138
Rp139
(I3
S'|'
p140
NNNI5
I1
I0
tp141
bS'block'
p142
tp143
Rp144
I7
I1
tp145
a(g4
(g5
(S'S5'
p146
I0
I1
tp147
Rp148
(I3
S'|'
p149
NNNI5
I1
I0
tp150
bS'empty'
p151
tp152
Rp153
I18
I0
tp154
a(g4
(g5
(S'S5'
p155
I0
I1
tp156
Rp157
(I3
S'|'
p158
NNNI5
I1
I0
tp159
bS'empty'
p160
tp161
Rp162
I3
I1
tp163
a(g4
(g5
(S'S8'
p164
I0
I1
tp165
Rp166
(I3
S'|'
p167
NNNI8
I1
I0
tp168
bS'cylinder'
p169
tp170
Rp171
I20
I1
tp172
a(g4
(g5
(S'S8'
p173
I0
I1
tp174
Rp175
(I3
S'|'
p176
NNNI8
I1
I0
tp177
bS'cylinder'
p178
tp179
Rp180
I3
I0
tp181
a(g4
(g5
(S'S3'
p182
I0
I1
tp183
Rp184
(I3
S'|'
p185
NNNI3
I1
I0
tp186
bS'can'
p187
tp188
Rp189
I2
I1
tp190
a(g4
(g5
(S'S6'
p191
I0
I1
tp192
Rp193
(I3
S'|'
p194
NNNI6
I1
I0
tp195
bS'yellow'
p196
tp197
Rp198
I3
I1
tp199
a(g4
(g5
(S'S5'
p200
I0
I1
tp201
Rp202
(I3
S'|'
p203
NNNI5
I1
I0
tp204
bS'block'
p205
tp206
Rp207
I7
I0
tp208
a(g4
(g5
(S'S4'
p209
I0
I1
tp210
Rp211
(I3
S'|'
p212
NNNI4
I1
I0
tp213
bS'long'
p214
tp215
Rp216
I20
I1
tp217
aa(lp218
(g55
S'column'
p219
I01
tp220
aa.