(lp0
(lp1
(dp2
S'action'
p3
cnumpy.core.multiarray
scalar
p4
(cnumpy
dtype
p5
(S'S4'
p6
I0
I1
tp7
Rp8
(I3
S'|'
p9
NNNI4
I1
I0
tp10
bS'walk'
p11
tp12
Rp13
sS'recipient'
p14
NsS'patient'
p15
NsS'goal'
p16
S'3510'
p17
sS'source'
p18
Nsa(dp19
g3
g4
(g5
(S'S5'
p20
I0
I1
tp21
Rp22
(I3
S'|'
p23
NNNI5
I1
I0
tp24
bS'bring'
p25
tp26
Rp27
sg14
S'd'
p28
sg15
g4
(g5
(S'S7'
p29
I0
I1
tp30
Rp31
(I3
S'|'
p32
NNNI7
I1
I0
tp33
bS'oidx_11'
p34
tp35
Rp36
sg16
Nsg18
Nsaa(lp37
(dp38
S'all'
p39
(lp40
S"go to bob brown 's office"
p41
asg15
(lp42
sg16
(lp43
S'go to office b'
p44
asg18
(lp45
sg3
(lp46
sg14
(lp47
sa(dp48
g39
(lp49
S'give the can to person d dave daniel'
p50
asg15
(lp51
S'a metal can'
p52
aS'a can'
p53
aS'a can'
p54
aS'a yellow can'
p55
asg16
(lp56
sg18
(lp57
sg3
(lp58
sg14
(lp59
saa(lp60
(g4
(g5
(S'S3'
p61
I0
I1
tp62
Rp63
(I3
S'|'
p64
NNNI3
I1
I0
tp65
bS'can'
p66
tp67
Rp68
I2
I1
tp69
a(g4
(g5
(S'S9'
p70
I0
I1
tp71
Rp72
(I3
S'|'
p73
NNNI9
I1
I0
tp74
bS'container'
p75
tp76
Rp77
I10
I0
tp78
a(g77
I3
I0
tp79
a(g77
I27
I0
tp80
a(g77
I7
I0
tp81
a(g77
I18
I0
tp82
a(g77
I2
I0
tp83
a(g77
I20
I0
tp84
a(g77
I17
I0
tp85
a(g4
(g5
(S'S4'
p86
I0
I1
tp87
Rp88
(I3
S'|'
p89
NNNI4
I1
I0
tp90
bS'bean'
p91
tp92
Rp93
I10
I0
tp94
a(g93
I3
I0
tp95
a(g93
I27
I0
tp96
a(g93
I7
I0
tp97
a(g93
I18
I0
tp98
a(g93
I2
I0
tp99
a(g93
I20
I0
tp100
a(g93
I17
I0
tp101
a(g4
(g5
(S'S5'
p102
I0
I1
tp103
Rp104
(I3
S'|'
p105
NNNI5
I1
I0
tp106
bS'clear'
p107
tp108
Rp109
I10
I0
tp110
a(g109
I3
I0
tp111
a(g109
I27
I0
tp112
a(g109
I7
I0
tp113
a(g109
I18
I0
tp114
a(g109
I2
I0
tp115
a(g109
I20
I0
tp116
a(g109
I17
I0
tp117
a(g4
(g5
(S'S5'
p118
I0
I1
tp119
Rp120
(I3
S'|'
p121
NNNI5
I1
I0
tp122
bS'white'
p123
tp124
Rp125
I10
I0
tp126
a(g125
I3
I0
tp127
a(g125
I27
I0
tp128
a(g125
I7
I0
tp129
a(g125
I18
I0
tp130
a(g125
I2
I0
tp131
a(g125
I20
I0
tp132
a(g125
I17
I0
tp133
a(g4
(g5
(S'S3'
p134
I0
I1
tp135
Rp136
(I3
S'|'
p137
NNNI3
I1
I0
tp138
bS'can'
p139
tp140
Rp141
I20
I0
tp142
a(g4
(g5
(S'S3'
p143
I0
I1
tp144
Rp145
(I3
S'|'
p146
NNNI3
I1
I0
tp147
bS'can'
p148
tp149
Rp150
I10
I0
tp151
a(g150
I3
I0
tp152
a(g150
I27
I0
tp153
a(g150
I7
I0
tp154
a(g150
I18
I0
tp155
a(g150
I2
I0
tp156
a(g150
I20
I0
tp157
a(g150
I17
I0
tp158
a(g4
(g5
(S'S8'
p159
I0
I1
tp160
Rp161
(I3
S'|'
p162
NNNI8
I1
I0
tp163
bS'metallic'
p164
tp165
Rp166
I10
I1
tp167
a(g4
(g5
(S'S8'
p168
I0
I1
tp169
Rp170
(I3
S'|'
p171
NNNI8
I1
I0
tp172
bS'metallic'
p173
tp174
Rp175
I20
I0
tp176
a(g4
(g5
(S'S8'
p177
I0
I1
tp178
Rp179
(I3
S'|'
p180
NNNI8
I1
I0
tp181
bS'metallic'
p182
tp183
Rp184
I10
I1
tp185
aa(lp186
(S'metal'
p187
S'container'
p188
I00
tp189
a(g187
S'yellow'
p190
I00
tp191
a(g187
S'metallic'
p192
I01
tp193
aa.