(lp0
(lp1
(dp2
S'action'
p3
cnumpy.core.multiarray
scalar
p4
(cnumpy
dtype
p5
(S'S4'
p6
I0
I1
tp7
Rp8
(I3
S'|'
p9
NNNI4
I1
I0
tp10
bS'walk'
p11
tp12
Rp13
sS'recipient'
p14
NsS'patient'
p15
NsS'goal'
p16
g4
(g5
(S'S4'
p17
I0
I1
tp18
Rp19
(I3
S'|'
p20
NNNI4
I1
I0
tp21
bS'3512'
p22
tp23
Rp24
sS'source'
p25
Nsaa(lp26
(dp27
S'all'
p28
(lp29
S"go to richard rogue 's office"
p30
asg15
(lp31
sg16
(lp32
sg25
(lp33
sg3
(lp34
sg14
(lp35
saa(lp36
(g4
(g5
(S'S9'
p37
I0
I1
tp38
Rp39
(I3
S'|'
p40
NNNI9
I1
I0
tp41
bS'rectangle'
p42
tp43
Rp44
I10
I0
tp45
a(g44
I3
I0
tp46
a(g44
I27
I0
tp47
a(g44
I7
I0
tp48
a(g44
I18
I0
tp49
a(g44
I2
I0
tp50
a(g44
I20
I0
tp51
a(g44
I17
I0
tp52
a(g4
(g5
(S'S3'
p53
I0
I1
tp54
Rp55
(I3
S'|'
p56
NNNI3
I1
I0
tp57
bS'can'
p58
tp59
Rp60
I10
I1
tp61
a(g4
(g5
(S'S8'
p62
I0
I1
tp63
Rp64
(I3
S'|'
p65
NNNI8
I1
I0
tp66
bS'pringles'
p67
tp68
Rp69
I10
I0
tp70
a(g69
I3
I0
tp71
a(g69
I27
I0
tp72
a(g69
I7
I0
tp73
a(g69
I18
I0
tp74
a(g69
I2
I0
tp75
a(g69
I20
I0
tp76
a(g69
I17
I0
tp77
a(g4
(g5
(S'S5'
p78
I0
I1
tp79
Rp80
(I3
S'|'
p81
NNNI5
I1
I0
tp82
bS'tower'
p83
tp84
Rp85
I10
I0
tp86
a(g85
I3
I0
tp87
a(g85
I27
I0
tp88
a(g85
I7
I0
tp89
a(g85
I18
I0
tp90
a(g85
I2
I0
tp91
a(g85
I20
I0
tp92
a(g85
I17
I0
tp93
a(g4
(g5
(S'S4'
p94
I0
I1
tp95
Rp96
(I3
S'|'
p97
NNNI4
I1
I0
tp98
bS'bean'
p99
tp100
Rp101
I10
I0
tp102
a(g101
I3
I0
tp103
a(g101
I27
I0
tp104
a(g101
I7
I0
tp105
a(g101
I18
I0
tp106
a(g101
I2
I0
tp107
a(g101
I20
I0
tp108
a(g101
I17
I0
tp109
aa(lp110
a.