(lp0
(lp1
(dp2
S'action'
p3
cnumpy.core.multiarray
scalar
p4
(cnumpy
dtype
p5
(S'S4'
p6
I0
I1
tp7
Rp8
(I3
S'|'
p9
NNNI4
I1
I0
tp10
bS'walk'
p11
tp12
Rp13
sS'recipient'
p14
NsS'patient'
p15
NsS'goal'
p16
g4
(g5
(S'S4'
p17
I0
I1
tp18
Rp19
(I3
S'|'
p20
NNNI4
I1
I0
tp21
bS'3402'
p22
tp23
Rp24
sS'source'
p25
Nsa(dp26
g3
g4
(g5
(S'S5'
p27
I0
I1
tp28
Rp29
(I3
S'|'
p30
NNNI5
I1
I0
tp31
bS'bring'
p32
tp33
Rp34
sg14
g4
(g5
(S'S1'
p35
I0
I1
tp36
Rp37
(I3
S'|'
p38
NNNI1
I1
I0
tp39
bS's'
p40
tp41
Rp42
sg15
S'oidx_11'
p43
sg16
Nsg25
Nsa(dp44
g3
g4
(g5
(S'S4'
p45
I0
I1
tp46
Rp47
(I3
S'|'
p48
NNNI4
I1
I0
tp49
bS'walk'
p50
tp51
Rp52
sg14
Nsg15
Nsg16
g4
(g5
(S'S4'
p53
I0
I1
tp54
Rp55
(I3
S'|'
p56
NNNI4
I1
I0
tp57
bS'3402'
p58
tp59
Rp60
sg25
Nsaa(lp61
(dp62
S'all'
p63
(lp64
S'go the the office'
p65
asg15
(lp66
sg16
(lp67
S'dr heidi hughes office'
p68
asg25
(lp69
sg3
(lp70
sg14
(lp71
sa(dp72
g63
(lp73
S'give the can to dr sybil smalt'
p74
asg15
(lp75
S'deliver the can to dr sybil smalt'
p76
asg16
(lp77
sg25
(lp78
sg3
(lp79
sg14
(lp80
sa(dp81
g63
(lp82
S'go to dr heidi hughes office'
p83
asg15
(lp84
sg16
(lp85
sg25
(lp86
sg3
(lp87
sg14
(lp88
saa(lp89
(g4
(g5
(S'S3'
p90
I0
I1
tp91
Rp92
(I3
S'|'
p93
NNNI3
I1
I0
tp94
bS'can'
p95
tp96
Rp97
I10
I0
tp98
a(g97
I3
I0
tp99
a(g97
I27
I0
tp100
a(g97
I7
I0
tp101
a(g97
I18
I0
tp102
a(g97
I2
I0
tp103
a(g97
I20
I0
tp104
a(g97
I17
I0
tp105
a(g4
(g5
(S'S8'
p106
I0
I1
tp107
Rp108
(I3
S'|'
p109
NNNI8
I1
I0
tp110
bS'pringles'
p111
tp112
Rp113
I2
I1
tp114
a(g4
(g5
(S'S6'
p115
I0
I1
tp116
Rp117
(I3
S'|'
p118
NNNI6
I1
I0
tp119
bS'coffee'
p120
tp121
Rp122
I17
I1
tp123
a(g4
(g5
(S'S8'
p124
I0
I1
tp125
Rp126
(I3
S'|'
p127
NNNI8
I1
I0
tp128
bS'metallic'
p129
tp130
Rp131
I10
I0
tp132
a(g131
I3
I0
tp133
a(g131
I27
I0
tp134
a(g131
I7
I0
tp135
a(g131
I18
I0
tp136
a(g131
I2
I0
tp137
a(g131
I20
I0
tp138
a(g131
I17
I0
tp139
a(g4
(g5
(S'S6'
p140
I0
I1
tp141
Rp142
(I3
S'|'
p143
NNNI6
I1
I0
tp144
bS'column'
p145
tp146
Rp147
I10
I0
tp148
a(g147
I3
I0
tp149
a(g147
I27
I0
tp150
a(g147
I7
I0
tp151
a(g147
I18
I0
tp152
a(g147
I2
I0
tp153
a(g147
I20
I0
tp154
a(g147
I17
I0
tp155
a(g4
(g5
(S'S9'
p156
I0
I1
tp157
Rp158
(I3
S'|'
p159
NNNI9
I1
I0
tp160
bS'container'
p161
tp162
Rp163
I2
I1
tp164
a(g4
(g5
(S'S8'
p165
I0
I1
tp166
Rp167
(I3
S'|'
p168
NNNI8
I1
I0
tp169
bS'cylinder'
p170
tp171
Rp172
I10
I0
tp173
a(g172
I3
I0
tp174
a(g172
I27
I0
tp175
a(g172
I7
I0
tp176
a(g172
I18
I0
tp177
a(g172
I2
I0
tp178
a(g172
I20
I0
tp179
a(g172
I17
I0
tp180
a(g4
(g5
(S'S4'
p181
I0
I1
tp182
Rp183
(I3
S'|'
p184
NNNI4
I1
I0
tp185
bS'bean'
p186
tp187
Rp188
I10
I0
tp189
a(g188
I3
I0
tp190
a(g188
I27
I0
tp191
a(g188
I7
I0
tp192
a(g188
I18
I0
tp193
a(g188
I2
I0
tp194
a(g188
I20
I0
tp195
a(g188
I17
I0
tp196
a(g4
(g5
(S'S5'
p197
I0
I1
tp198
Rp199
(I3
S'|'
p200
NNNI5
I1
I0
tp201
bS'spice'
p202
tp203
Rp204
I10
I0
tp205
a(g204
I3
I0
tp206
a(g204
I27
I0
tp207
a(g204
I7
I0
tp208
a(g204
I18
I0
tp209
a(g204
I2
I0
tp210
a(g204
I20
I0
tp211
a(g204
I17
I0
tp212
a(g4
(g5
(S'S9'
p213
I0
I1
tp214
Rp215
(I3
S'|'
p216
NNNI9
I1
I0
tp217
bS'container'
p218
tp219
Rp220
I7
I0
tp221
a(g4
(g5
(S'S8'
p222
I0
I1
tp223
Rp224
(I3
S'|'
p225
NNNI8
I1
I0
tp226
bS'pringles'
p227
tp228
Rp229
I18
I0
tp230
a(g4
(g5
(S'S4'
p231
I0
I1
tp232
Rp233
(I3
S'|'
p234
NNNI4
I1
I0
tp235
bS'blue'
p236
tp237
Rp238
I18
I1
tp239
a(g4
(g5
(S'S4'
p240
I0
I1
tp241
Rp242
(I3
S'|'
p243
NNNI4
I1
I0
tp244
bS'long'
p245
tp246
Rp247
I3
I1
tp248
a(g4
(g5
(S'S4'
p249
I0
I1
tp250
Rp251
(I3
S'|'
p252
NNNI4
I1
I0
tp253
bS'long'
p254
tp255
Rp256
I2
I0
tp257
a(g4
(g5
(S'S8'
p258
I0
I1
tp259
Rp260
(I3
S'|'
p261
NNNI8
I1
I0
tp262
bS'pringles'
p263
tp264
Rp265
I2
I1
tp266
aa(lp267
a.