(lp0
(lp1
(dp2
S'action'
p3
cnumpy.core.multiarray
scalar
p4
(cnumpy
dtype
p5
(S'S4'
p6
I0
I1
tp7
Rp8
(I3
S'|'
p9
NNNI4
I1
I0
tp10
bS'walk'
p11
tp12
Rp13
sS'recipient'
p14
NsS'patient'
p15
NsS'goal'
p16
S'3512'
p17
sS'source'
p18
Nsa(dp19
g3
g4
(g5
(S'S5'
p20
I0
I1
tp21
Rp22
(I3
S'|'
p23
NNNI5
I1
I0
tp24
bS'bring'
p25
tp26
Rp27
sg14
S'h'
p28
sg15
g4
(g5
(S'S7'
p29
I0
I1
tp30
Rp31
(I3
S'|'
p32
NNNI7
I1
I0
tp33
bS'oidx_26'
p34
tp35
Rp36
sg16
Nsg18
Nsaa(lp37
(dp38
S'all'
p39
(lp40
S'go to the office'
p41
asg15
(lp42
sg16
(lp43
S'the office'
p44
aS'go to the office'
p45
aS'go to dr sybil smalt'
p46
asg18
(lp47
sg3
(lp48
sg14
(lp49
sa(dp50
g39
(lp51
S'take the object and give it to dr sybil smalt'
p52
asg15
(lp53
S'a can'
p54
aS'a soda can'
p55
aS'a container'
p56
asg16
(lp57
sg18
(lp58
sg3
(lp59
sg14
(lp60
saa(lp61
(g4
(g5
(S'S5'
p62
I0
I1
tp63
Rp64
(I3
S'|'
p65
NNNI5
I1
I0
tp66
bS'peach'
p67
tp68
Rp69
I10
I0
tp70
a(g69
I3
I0
tp71
a(g69
I27
I0
tp72
a(g69
I7
I0
tp73
a(g69
I18
I0
tp74
a(g69
I2
I0
tp75
a(g69
I20
I0
tp76
a(g69
I17
I0
tp77
a(g4
(g5
(S'S4'
p78
I0
I1
tp79
Rp80
(I3
S'|'
p81
NNNI4
I1
I0
tp82
bS'blue'
p83
tp84
Rp85
I10
I0
tp86
a(g85
I3
I0
tp87
a(g85
I27
I0
tp88
a(g85
I7
I0
tp89
a(g85
I18
I0
tp90
a(g85
I2
I0
tp91
a(g85
I20
I0
tp92
a(g85
I17
I0
tp93
a(g4
(g5
(S'S8'
p94
I0
I1
tp95
Rp96
(I3
S'|'
p97
NNNI8
I1
I0
tp98
bS'pringles'
p99
tp100
Rp101
I2
I1
tp102
a(g4
(g5
(S'S6'
p103
I0
I1
tp104
Rp105
(I3
S'|'
p106
NNNI6
I1
I0
tp107
bS'yellow'
p108
tp109
Rp110
I10
I0
tp111
a(g110
I3
I0
tp112
a(g110
I27
I0
tp113
a(g110
I7
I0
tp114
a(g110
I18
I0
tp115
a(g110
I2
I0
tp116
a(g110
I20
I0
tp117
a(g110
I17
I0
tp118
a(g4
(g5
(S'S5'
p119
I0
I1
tp120
Rp121
(I3
S'|'
p122
NNNI5
I1
I0
tp123
bS'empty'
p124
tp125
Rp126
I2
I1
tp127
a(g4
(g5
(S'S3'
p128
I0
I1
tp129
Rp130
(I3
S'|'
p131
NNNI3
I1
I0
tp132
bS'can'
p133
tp134
Rp135
I10
I0
tp136
a(g135
I3
I0
tp137
a(g135
I27
I0
tp138
a(g135
I7
I0
tp139
a(g135
I18
I0
tp140
a(g135
I2
I0
tp141
a(g135
I20
I0
tp142
a(g135
I17
I0
tp143
a(g4
(g5
(S'S5'
p144
I0
I1
tp145
Rp146
(I3
S'|'
p147
NNNI5
I1
I0
tp148
bS'spice'
p149
tp150
Rp151
I10
I0
tp152
a(g151
I3
I0
tp153
a(g151
I27
I0
tp154
a(g151
I7
I0
tp155
a(g151
I18
I0
tp156
a(g151
I2
I0
tp157
a(g151
I20
I0
tp158
a(g151
I17
I0
tp159
a(g4
(g5
(S'S8'
p160
I0
I1
tp161
Rp162
(I3
S'|'
p163
NNNI8
I1
I0
tp164
bS'cylinder'
p165
tp166
Rp167
I18
I1
tp168
a(g4
(g5
(S'S6'
p169
I0
I1
tp170
Rp171
(I3
S'|'
p172
NNNI6
I1
I0
tp173
bS'coffee'
p174
tp175
Rp176
I10
I0
tp177
a(g176
I3
I0
tp178
a(g176
I27
I0
tp179
a(g176
I7
I0
tp180
a(g176
I18
I0
tp181
a(g176
I2
I0
tp182
a(g176
I20
I0
tp183
a(g176
I17
I0
tp184
a(g4
(g5
(S'S9'
p185
I0
I1
tp186
Rp187
(I3
S'|'
p188
NNNI9
I1
I0
tp189
bS'rectangle'
p190
tp191
Rp192
I10
I0
tp193
a(g192
I3
I0
tp194
a(g192
I27
I0
tp195
a(g192
I7
I0
tp196
a(g192
I18
I0
tp197
a(g192
I2
I0
tp198
a(g192
I20
I0
tp199
a(g192
I17
I0
tp200
aa(lp201
(S'object'
p202
S'container'
p203
I01
tp204
a(S'soda'
p205
S'bean'
p206
I00
tp207
a(g205
S'coffee'
p208
I01
tp209
aa.