(lp0
(lp1
(dp2
S'action'
p3
cnumpy.core.multiarray
scalar
p4
(cnumpy
dtype
p5
(S'S4'
p6
I0
I1
tp7
Rp8
(I3
S'|'
p9
NNNI4
I1
I0
tp10
bS'walk'
p11
tp12
Rp13
sS'recipient'
p14
NsS'patient'
p15
NsS'goal'
p16
S'3424'
p17
sS'source'
p18
Nsa(dp19
g3
g4
(g5
(S'S5'
p20
I0
I1
tp21
Rp22
(I3
S'|'
p23
NNNI5
I1
I0
tp24
bS'bring'
p25
tp26
Rp27
sg14
g4
(g5
(S'S1'
p28
I0
I1
tp29
Rp30
(I3
S'|'
p31
NNNI1
I1
I0
tp32
bS'b'
p33
tp34
Rp35
sg15
g4
(g5
(S'S7'
p36
I0
I1
tp37
Rp38
(I3
S'|'
p39
NNNI7
I1
I0
tp40
bS'oidx_22'
p41
tp42
Rp43
sg16
Nsg18
Nsa(dp44
g3
g4
(g5
(S'S4'
p45
I0
I1
tp46
Rp47
(I3
S'|'
p48
NNNI4
I1
I0
tp49
bS'move'
p50
tp51
Rp52
sg14
Nsg15
g4
(g5
(S'S6'
p53
I0
I1
tp54
Rp55
(I3
S'|'
p56
NNNI6
I1
I0
tp57
bS'oidx_6'
p58
tp59
Rp60
sg16
g4
(g5
(S'S4'
p61
I0
I1
tp62
Rp63
(I3
S'|'
p64
NNNI4
I1
I0
tp65
bS'3416'
p66
tp67
Rp68
sg18
g4
(g5
(S'S4'
p69
I0
I1
tp70
Rp71
(I3
S'|'
p72
NNNI4
I1
I0
tp73
bS'3418'
p74
tp75
Rp76
saa(lp77
(dp78
S'all'
p79
(lp80
S'move to pod beside the conference room'
p81
asg15
(lp82
sg16
(lp83
S'pod'
p84
asg18
(lp85
sg3
(lp86
sg14
(lp87
sa(dp88
g79
(lp89
S'give robert bob brown the plastic container'
p90
asg15
(lp91
S'a plastic container'
p92
aS'a plastic container with a red lid'
p93
asg16
(lp94
sg18
(lp95
sg3
(lp96
sg14
(lp97
sa(dp98
g79
(lp99
S'move the plastic container to the conference room'
p100
asg15
(lp101
S'a plastic container'
p102
aS'a white plastic container'
p103
aS'a white medical plastic container'
p104
aS'a small white plastic container'
p105
aS'the small plastic container'
p106
asg16
(lp107
S'to conference'
p108
aS'to conference'
p109
aS'to conference'
p110
aS'from office to conference'
p111
aS'from office next door to conference on the left side'
p112
aS'from office to conference'
p113
aS'office'
p114
asg18
(lp115
S'no'
p116
aS'to another conference'
p117
aS'no'
p118
aS'from office to conference'
p119
aS'yes'
p120
aS'yes'
p121
aS'empty office'
p122
aS'office'
p123
aS'office'
p124
aS'next door'
p125
aS'next door on the left'
p126
aS'next door on the right'
p127
aS'the first office on the right'
p128
aS'the fifth office on the right'
p129
aS'office in the middle'
p130
aS'office in the left'
p131
aS'office in the middle left'
p132
aS'office in the upper left'
p133
asg3
(lp134
sg14
(lp135
saa(lp136
(g4
(g5
(S'S5'
p137
I0
I1
tp138
Rp139
(I3
S'|'
p140
NNNI5
I1
I0
tp141
bS'spice'
p142
tp143
Rp144
I10
I0
tp145
a(g144
I3
I0
tp146
a(g144
I27
I0
tp147
a(g144
I7
I0
tp148
a(g144
I18
I0
tp149
a(g144
I2
I0
tp150
a(g144
I20
I0
tp151
a(g144
I17
I0
tp152
a(g4
(g5
(S'S6'
p153
I0
I1
tp154
Rp155
(I3
S'|'
p156
NNNI6
I1
I0
tp157
bS'column'
p158
tp159
Rp160
I7
I1
tp161
a(g4
(g5
(S'S5'
p162
I0
I1
tp163
Rp164
(I3
S'|'
p165
NNNI5
I1
I0
tp166
bS'peach'
p167
tp168
Rp169
I10
I0
tp170
a(g169
I3
I0
tp171
a(g169
I27
I0
tp172
a(g169
I7
I0
tp173
a(g169
I18
I0
tp174
a(g169
I2
I0
tp175
a(g169
I20
I0
tp176
a(g169
I17
I0
tp177
a(g4
(g5
(S'S5'
p178
I0
I1
tp179
Rp180
(I3
S'|'
p181
NNNI5
I1
I0
tp182
bS'tower'
p183
tp184
Rp185
I3
I1
tp186
a(g4
(g5
(S'S9'
p187
I0
I1
tp188
Rp189
(I3
S'|'
p190
NNNI9
I1
I0
tp191
bS'styrofoam'
p192
tp193
Rp194
I20
I1
tp195
a(g4
(g5
(S'S9'
p196
I0
I1
tp197
Rp198
(I3
S'|'
p199
NNNI9
I1
I0
tp200
bS'container'
p201
tp202
Rp203
I2
I1
tp204
a(g4
(g5
(S'S9'
p205
I0
I1
tp206
Rp207
(I3
S'|'
p208
NNNI9
I1
I0
tp209
bS'container'
p210
tp211
Rp212
I3
I0
tp213
a(g4
(g5
(S'S9'
p214
I0
I1
tp215
Rp216
(I3
S'|'
p217
NNNI9
I1
I0
tp218
bS'container'
p219
tp220
Rp221
I10
I1
tp222
a(g4
(g5
(S'S9'
p223
I0
I1
tp224
Rp225
(I3
S'|'
p226
NNNI9
I1
I0
tp227
bS'container'
p228
tp229
Rp230
I20
I0
tp231
a(g4
(g5
(S'S9'
p232
I0
I1
tp233
Rp234
(I3
S'|'
p235
NNNI9
I1
I0
tp236
bS'container'
p237
tp238
Rp239
I18
I1
tp240
a(g4
(g5
(S'S9'
p241
I0
I1
tp242
Rp243
(I3
S'|'
p244
NNNI9
I1
I0
tp245
bS'container'
p246
tp247
Rp248
I27
I0
tp249
a(g4
(g5
(S'S9'
p250
I0
I1
tp251
Rp252
(I3
S'|'
p253
NNNI9
I1
I0
tp254
bS'container'
p255
tp256
Rp257
I2
I1
tp258
a(g4
(g5
(S'S9'
p259
I0
I1
tp260
Rp261
(I3
S'|'
p262
NNNI9
I1
I0
tp263
bS'container'
p264
tp265
Rp266
I3
I0
tp267
a(g4
(g5
(S'S9'
p268
I0
I1
tp269
Rp270
(I3
S'|'
p271
NNNI9
I1
I0
tp272
bS'container'
p273
tp274
Rp275
I10
I1
tp276
a(g4
(g5
(S'S9'
p277
I0
I1
tp278
Rp279
(I3
S'|'
p280
NNNI9
I1
I0
tp281
bS'container'
p282
tp283
Rp284
I20
I0
tp285
aa(lp286
(S'beside'
p287
S'empty'
p288
I00
tp289
a(S'plastic'
p290
S'container'
p291
I01
tp292
a(S'red'
p293
S'white'
p294
I01
tp295
a(S'lid'
p296
g291
I01
tp297
a(S'small'
p298
g294
I01
tp299
aa.