(lp0
(lp1
(dp2
S'action'
p3
cnumpy.core.multiarray
scalar
p4
(cnumpy
dtype
p5
(S'S5'
p6
I0
I1
tp7
Rp8
(I3
S'|'
p9
NNNI5
I1
I0
tp10
bS'bring'
p11
tp12
Rp13
sS'recipient'
p14
S'd'
p15
sS'patient'
p16
S'oidx_11'
p17
sS'goal'
p18
NsS'source'
p19
Nsa(dp20
g3
g4
(g5
(S'S4'
p21
I0
I1
tp22
Rp23
(I3
S'|'
p24
NNNI4
I1
I0
tp25
bS'move'
p26
tp27
Rp28
sg14
Nsg16
g17
sg18
S'3510'
p29
sg19
S'3418'
p30
sa(dp31
g3
g4
(g5
(S'S4'
p32
I0
I1
tp33
Rp34
(I3
S'|'
p35
NNNI4
I1
I0
tp36
bS'walk'
p37
tp38
Rp39
sg14
Nsg16
Nsg18
S'3406'
p40
sg19
Nsaa(lp41
(dp42
S'all'
p43
(lp44
S''
p45
asg16
(lp46
S'lounge'
p47
asg18
(lp48
sg19
(lp49
sg3
(lp50
sg14
(lp51
S'yes'
p52
asa(dp53
g43
(lp54
S'yes'
p55
asg16
(lp56
sg18
(lp57
S'no'
p58
asg19
(lp59
S'yes'
p60
asg3
(lp61
sg14
(lp62
sa(dp63
g43
(lp64
S'lab'
p65
asg16
(lp66
sg18
(lp67
S'yes'
p68
aS'no'
p69
aS'lab'
p70
aS'yes'
p71
aS'yes'
p72
aS'yes'
p73
aS'yes'
p74
aS'yes'
p75
aS'yes'
p76
aS'yes'
p77
aS'yes'
p78
aS'yes'
p79
aS'yes'
p80
aS'yes'
p81
asg19
(lp82
sg3
(lp83
sg14
(lp84
saa(lp85
(g4
(g5
(S'S8'
p86
I0
I1
tp87
Rp88
(I3
S'|'
p89
NNNI8
I1
I0
tp90
bS'metallic'
p91
tp92
Rp93
I17
I1
tp94
a(g4
(g5
(S'S4'
p95
I0
I1
tp96
Rp97
(I3
S'|'
p98
NNNI4
I1
I0
tp99
bS'bean'
p100
tp101
Rp102
I10
I1
tp103
a(g4
(g5
(S'S6'
p104
I0
I1
tp105
Rp106
(I3
S'|'
p107
NNNI6
I1
I0
tp108
bS'column'
p109
tp110
Rp111
I17
I1
tp112
a(g4
(g5
(S'S4'
p113
I0
I1
tp114
Rp115
(I3
S'|'
p116
NNNI4
I1
I0
tp117
bS'bean'
p118
tp119
Rp120
I17
I0
tp121
a(g4
(g5
(S'S9'
p122
I0
I1
tp123
Rp124
(I3
S'|'
p125
NNNI9
I1
I0
tp126
bS'rectangle'
p127
tp128
Rp129
I17
I1
tp130
a(g4
(g5
(S'S8'
p131
I0
I1
tp132
Rp133
(I3
S'|'
p134
NNNI8
I1
I0
tp135
bS'metallic'
p136
tp137
Rp138
I7
I0
tp139
a(g4
(g5
(S'S5'
p140
I0
I1
tp141
Rp142
(I3
S'|'
p143
NNNI5
I1
I0
tp144
bS'clear'
p145
tp146
Rp147
I18
I1
tp148
a(g4
(g5
(S'S8'
p149
I0
I1
tp150
Rp151
(I3
S'|'
p152
NNNI8
I1
I0
tp153
bS'metallic'
p154
tp155
Rp156
I18
I1
tp157
a(g4
(g5
(S'S4'
p158
I0
I1
tp159
Rp160
(I3
S'|'
p161
NNNI4
I1
I0
tp162
bS'long'
p163
tp164
Rp165
I18
I1
tp166
a(g4
(g5
(S'S5'
p167
I0
I1
tp168
Rp169
(I3
S'|'
p170
NNNI5
I1
I0
tp171
bS'white'
p172
tp173
Rp174
I7
I1
tp175
a(g4
(g5
(S'S8'
p176
I0
I1
tp177
Rp178
(I3
S'|'
p179
NNNI8
I1
I0
tp180
bS'cylinder'
p181
tp182
Rp183
I7
I1
tp184
a(g4
(g5
(S'S8'
p185
I0
I1
tp186
Rp187
(I3
S'|'
p188
NNNI8
I1
I0
tp189
bS'cylinder'
p190
tp191
Rp192
I7
I0
tp193
a(g4
(g5
(S'S5'
p194
I0
I1
tp195
Rp196
(I3
S'|'
p197
NNNI5
I1
I0
tp198
bS'tower'
p199
tp200
Rp201
I20
I1
tp202
a(g4
(g5
(S'S8'
p203
I0
I1
tp204
Rp205
(I3
S'|'
p206
NNNI8
I1
I0
tp207
bS'cylinder'
p208
tp209
Rp210
I20
I1
tp211
a(g4
(g5
(S'S5'
p212
I0
I1
tp213
Rp214
(I3
S'|'
p215
NNNI5
I1
I0
tp216
bS'white'
p217
tp218
Rp219
I27
I0
tp220
aa(lp221
a.