(lp0
(lp1
(dp2
S'action'
p3
cnumpy.core.multiarray
scalar
p4
(cnumpy
dtype
p5
(S'S4'
p6
I0
I1
tp7
Rp8
(I3
S'|'
p9
NNNI4
I1
I0
tp10
bS'walk'
p11
tp12
Rp13
sS'recipient'
p14
NsS'patient'
p15
NsS'goal'
p16
S'3520'
p17
sS'source'
p18
Nsa(dp19
g3
g4
(g5
(S'S5'
p20
I0
I1
tp21
Rp22
(I3
S'|'
p23
NNNI5
I1
I0
tp24
bS'bring'
p25
tp26
Rp27
sg14
g4
(g5
(S'S1'
p28
I0
I1
tp29
Rp30
(I3
S'|'
p31
NNNI1
I1
I0
tp32
bS'r'
p33
tp34
Rp35
sg15
g4
(g5
(S'S7'
p36
I0
I1
tp37
Rp38
(I3
S'|'
p39
NNNI7
I1
I0
tp40
bS'oidx_11'
p41
tp42
Rp43
sg16
Nsg18
Nsa(dp44
g3
g4
(g5
(S'S4'
p45
I0
I1
tp46
Rp47
(I3
S'|'
p48
NNNI4
I1
I0
tp49
bS'walk'
p50
tp51
Rp52
sg14
Nsg15
Nsg16
g4
(g5
(S'S4'
p53
I0
I1
tp54
Rp55
(I3
S'|'
p56
NNNI4
I1
I0
tp57
bS'3422'
p58
tp59
Rp60
sg18
Nsaa(lp61
(dp62
S'all'
p63
(lp64
S'make coffee'
p65
asg15
(lp66
sg16
(lp67
S'the kitchen'
p68
asg18
(lp69
sg3
(lp70
sg14
(lp71
sa(dp72
g63
(lp73
S'go give richard the can'
p74
asg15
(lp75
S'give richard the can of peaches'
p76
aS'a yellow can'
p77
aS'a yellow can'
p78
asg16
(lp79
sg18
(lp80
sg3
(lp81
sg14
(lp82
sa(dp83
g63
(lp84
S"take the tylenol from walter 's office to dave 's office"
p85
asg15
(lp86
sg16
(lp87
S"walter 's office"
p88
asg18
(lp89
sg3
(lp90
sg14
(lp91
saa(lp92
(g4
(g5
(S'S4'
p93
I0
I1
tp94
Rp95
(I3
S'|'
p96
NNNI4
I1
I0
tp97
bS'bean'
p98
tp99
Rp100
I2
I1
tp101
a(g4
(g5
(S'S5'
p102
I0
I1
tp103
Rp104
(I3
S'|'
p105
NNNI5
I1
I0
tp106
bS'tower'
p107
tp108
Rp109
I10
I0
tp110
a(g109
I3
I0
tp111
a(g109
I27
I0
tp112
a(g109
I7
I0
tp113
a(g109
I18
I0
tp114
a(g109
I2
I0
tp115
a(g109
I20
I0
tp116
a(g109
I17
I0
tp117
a(g4
(g5
(S'S4'
p118
I0
I1
tp119
Rp120
(I3
S'|'
p121
NNNI4
I1
I0
tp122
bS'bean'
p123
tp124
Rp125
I18
I0
tp126
a(g4
(g5
(S'S6'
p127
I0
I1
tp128
Rp129
(I3
S'|'
p130
NNNI6
I1
I0
tp131
bS'coffee'
p132
tp133
Rp134
I10
I0
tp135
a(g134
I3
I0
tp136
a(g134
I27
I0
tp137
a(g134
I7
I0
tp138
a(g134
I18
I0
tp139
a(g134
I2
I0
tp140
a(g134
I20
I0
tp141
a(g134
I17
I0
tp142
a(g4
(g5
(S'S3'
p143
I0
I1
tp144
Rp145
(I3
S'|'
p146
NNNI3
I1
I0
tp147
bS'can'
p148
tp149
Rp150
I10
I1
tp151
a(g4
(g5
(S'S3'
p152
I0
I1
tp153
Rp154
(I3
S'|'
p155
NNNI3
I1
I0
tp156
bS'can'
p157
tp158
Rp159
I3
I0
tp160
a(g4
(g5
(S'S3'
p161
I0
I1
tp162
Rp163
(I3
S'|'
p164
NNNI3
I1
I0
tp165
bS'can'
p166
tp167
Rp168
I10
I0
tp169
a(g168
I3
I0
tp170
a(g168
I27
I0
tp171
a(g168
I7
I0
tp172
a(g168
I18
I0
tp173
a(g168
I2
I0
tp174
a(g168
I20
I0
tp175
a(g168
I17
I0
tp176
a(g4
(g5
(S'S4'
p177
I0
I1
tp178
Rp179
(I3
S'|'
p180
NNNI4
I1
I0
tp181
bS'long'
p182
tp183
Rp184
I3
I1
tp185
a(g4
(g5
(S'S9'
p186
I0
I1
tp187
Rp188
(I3
S'|'
p189
NNNI9
I1
I0
tp190
bS'rectangle'
p191
tp192
Rp193
I10
I0
tp194
a(g193
I3
I0
tp195
a(g193
I27
I0
tp196
a(g193
I7
I0
tp197
a(g193
I18
I0
tp198
a(g193
I2
I0
tp199
a(g193
I20
I0
tp200
a(g193
I17
I0
tp201
a(g4
(g5
(S'S5'
p202
I0
I1
tp203
Rp204
(I3
S'|'
p205
NNNI5
I1
I0
tp206
bS'spice'
p207
tp208
Rp209
I10
I0
tp210
a(g209
I3
I0
tp211
a(g209
I27
I0
tp212
a(g209
I7
I0
tp213
a(g209
I18
I0
tp214
a(g209
I2
I0
tp215
a(g209
I20
I0
tp216
a(g209
I17
I0
tp217
a(g4
(g5
(S'S8'
p218
I0
I1
tp219
Rp220
(I3
S'|'
p221
NNNI8
I1
I0
tp222
bS'metallic'
p223
tp224
Rp225
I10
I0
tp226
a(g225
I3
I0
tp227
a(g225
I27
I0
tp228
a(g225
I7
I0
tp229
a(g225
I18
I0
tp230
a(g225
I2
I0
tp231
a(g225
I20
I0
tp232
a(g225
I17
I0
tp233
a(g4
(g5
(S'S5'
p234
I0
I1
tp235
Rp236
(I3
S'|'
p237
NNNI5
I1
I0
tp238
bS'white'
p239
tp240
Rp241
I10
I0
tp242
a(g241
I3
I0
tp243
a(g241
I27
I0
tp244
a(g241
I7
I0
tp245
a(g241
I18
I0
tp246
a(g241
I2
I0
tp247
a(g241
I20
I0
tp248
a(g241
I17
I0
tp249
a(g4
(g5
(S'S9'
p250
I0
I1
tp251
Rp252
(I3
S'|'
p253
NNNI9
I1
I0
tp254
bS'styrofoam'
p255
tp256
Rp257
I20
I1
tp258
a(g4
(g5
(S'S6'
p259
I0
I1
tp260
Rp261
(I3
S'|'
p262
NNNI6
I1
I0
tp263
bS'yellow'
p264
tp265
Rp266
I10
I0
tp267
a(g266
I3
I0
tp268
a(g266
I27
I0
tp269
a(g266
I7
I0
tp270
a(g266
I18
I0
tp271
a(g266
I2
I0
tp272
a(g266
I20
I0
tp273
a(g266
I17
I0
tp274
a(g4
(g5
(S'S8'
p275
I0
I1
tp276
Rp277
(I3
S'|'
p278
NNNI8
I1
I0
tp279
bS'pringles'
p280
tp281
Rp282
I10
I0
tp283
a(g282
I3
I0
tp284
a(g282
I27
I0
tp285
a(g282
I7
I0
tp286
a(g282
I18
I0
tp287
a(g282
I2
I0
tp288
a(g282
I20
I0
tp289
a(g282
I17
I0
tp290
aa(lp291
a.