(lp0
(lp1
(dp2
S'action'
p3
cnumpy.core.multiarray
scalar
p4
(cnumpy
dtype
p5
(S'S4'
p6
I0
I1
tp7
Rp8
(I3
S'|'
p9
NNNI4
I1
I0
tp10
bS'walk'
p11
tp12
Rp13
sS'recipient'
p14
NsS'patient'
p15
NsS'goal'
p16
g4
(g5
(S'S4'
p17
I0
I1
tp18
Rp19
(I3
S'|'
p20
NNNI4
I1
I0
tp21
bS'3518'
p22
tp23
Rp24
sS'source'
p25
Nsa(dp26
g3
g4
(g5
(S'S5'
p27
I0
I1
tp28
Rp29
(I3
S'|'
p30
NNNI5
I1
I0
tp31
bS'bring'
p32
tp33
Rp34
sg14
g4
(g5
(S'S1'
p35
I0
I1
tp36
Rp37
(I3
S'|'
p38
NNNI1
I1
I0
tp39
bS'h'
p40
tp41
Rp42
sg15
S'oidx_26'
p43
sg16
Nsg25
Nsaa(lp44
(dp45
S'all'
p46
(lp47
S'go to the pod in the bottom right corner'
p48
asg15
(lp49
sg16
(lp50
S'the pod in the bottom right corner'
p51
aS'the pod across from the lab'
p52
aS'the pod'
p53
aS'pod'
p54
aS'under the lab'
p55
aS'the bottom pod'
p56
aS'the pod'
p57
asg25
(lp58
sg3
(lp59
sg14
(lp60
sa(dp61
g46
(lp62
S'give the can to hughes'
p63
asg15
(lp64
sg16
(lp65
sg25
(lp66
sg3
(lp67
sg14
(lp68
S'hughes'
p69
aS'hughes'
p70
aS'dr heidi hughes'
p71
asaa(lp72
(g4
(g5
(S'S8'
p73
I0
I1
tp74
Rp75
(I3
S'|'
p76
NNNI8
I1
I0
tp77
bS'cylinder'
p78
tp79
Rp80
I3
I1
tp81
a(g4
(g5
(S'S8'
p82
I0
I1
tp83
Rp84
(I3
S'|'
p85
NNNI8
I1
I0
tp86
bS'cylinder'
p87
tp88
Rp89
I27
I0
tp90
a(g4
(g5
(S'S3'
p91
I0
I1
tp92
Rp93
(I3
S'|'
p94
NNNI3
I1
I0
tp95
bS'can'
p96
tp97
Rp98
I10
I1
tp99
a(g4
(g5
(S'S4'
p100
I0
I1
tp101
Rp102
(I3
S'|'
p103
NNNI4
I1
I0
tp104
bS'blue'
p105
tp106
Rp107
I18
I1
tp108
a(g4
(g5
(S'S6'
p109
I0
I1
tp110
Rp111
(I3
S'|'
p112
NNNI6
I1
I0
tp113
bS'column'
p114
tp115
Rp116
I3
I1
tp117
a(g4
(g5
(S'S3'
p118
I0
I1
tp119
Rp120
(I3
S'|'
p121
NNNI3
I1
I0
tp122
bS'can'
p123
tp124
Rp125
I20
I0
tp126
a(g4
(g5
(S'S3'
p127
I0
I1
tp128
Rp129
(I3
S'|'
p130
NNNI3
I1
I0
tp131
bS'can'
p132
tp133
Rp134
I3
I1
tp135
a(g4
(g5
(S'S3'
p136
I0
I1
tp137
Rp138
(I3
S'|'
p139
NNNI3
I1
I0
tp140
bS'can'
p141
tp142
Rp143
I27
I0
tp144
a(g4
(g5
(S'S3'
p145
I0
I1
tp146
Rp147
(I3
S'|'
p148
NNNI3
I1
I0
tp149
bS'can'
p150
tp151
Rp152
I10
I1
tp153
a(g4
(g5
(S'S3'
p154
I0
I1
tp155
Rp156
(I3
S'|'
p157
NNNI3
I1
I0
tp158
bS'can'
p159
tp160
Rp161
I18
I0
tp162
aa(lp163
a.