(lp0
(lp1
(dp2
S'action'
p3
cnumpy.core.multiarray
scalar
p4
(cnumpy
dtype
p5
(S'S4'
p6
I0
I1
tp7
Rp8
(I3
S'|'
p9
NNNI4
I1
I0
tp10
bS'walk'
p11
tp12
Rp13
sS'recipient'
p14
NsS'patient'
p15
NsS'goal'
p16
g4
(g5
(S'S4'
p17
I0
I1
tp18
Rp19
(I3
S'|'
p20
NNNI4
I1
I0
tp21
bS'3422'
p22
tp23
Rp24
sS'source'
p25
Nsa(dp26
g3
g4
(g5
(S'S5'
p27
I0
I1
tp28
Rp29
(I3
S'|'
p30
NNNI5
I1
I0
tp31
bS'bring'
p32
tp33
Rp34
sg14
g4
(g5
(S'S1'
p35
I0
I1
tp36
Rp37
(I3
S'|'
p38
NNNI1
I1
I0
tp39
bS'h'
p40
tp41
Rp42
sg15
S'oidx_13'
p43
sg16
Nsg25
Nsa(dp44
g3
g4
(g5
(S'S4'
p45
I0
I1
tp46
Rp47
(I3
S'|'
p48
NNNI4
I1
I0
tp49
bS'move'
p50
tp51
Rp52
sg14
Nsg15
g4
(g5
(S'S7'
p53
I0
I1
tp54
Rp55
(I3
S'|'
p56
NNNI7
I1
I0
tp57
bS'oidx_11'
p58
tp59
Rp60
sg16
g4
(g5
(S'S4'
p61
I0
I1
tp62
Rp63
(I3
S'|'
p64
NNNI4
I1
I0
tp65
bS'3508'
p66
tp67
Rp68
sg25
g4
(g5
(S'S4'
p69
I0
I1
tp70
Rp71
(I3
S'|'
p72
NNNI4
I1
I0
tp73
bS'3432'
p74
tp75
Rp76
saa(lp77
(dp78
S'all'
p79
(lp80
S"go to walter ward 's office"
p81
asg15
(lp82
sg16
(lp83
sg25
(lp84
sg3
(lp85
sg14
(lp86
sa(dp87
g79
(lp88
S'take the blue pringles container to dr heidi hughes'
p89
asg15
(lp90
S'a blue pringles container'
p91
aS'a pringles container'
p92
asg16
(lp93
sg25
(lp94
sg3
(lp95
sg14
(lp96
S'to dr heidi hughes'
p97
asa(dp98
g79
(lp99
S"move an object from the office by the lab to peggy parker 's office"
p100
asg15
(lp101
S'a peaches container'
p102
aS'a peaches container'
p103
aS'a yellow container for peaches'
p104
aS'a yellow container'
p105
asg16
(lp106
S"move the peaches container from the office between dr sybil smalt 's office and the lab"
p107
aS"move the peaches container from the office between dr sybil smalt 's office and the lab to peggy parker 's office"
p108
aS'yes'
p109
aS"to peggy parker 's office"
p110
asg25
(lp111
S"the office next to dr sybil smalt 's office"
p112
aS"move it to peggy parker 's office"
p113
aS"move it from the office between dr sybil smalt 's office and the lab"
p114
aS"to peggy parker 's office"
p115
aS"from the office between dr sybil smalt 's office and the lab"
p116
asg3
(lp117
sg14
(lp118
saa(lp119
(g4
(g5
(S'S8'
p120
I0
I1
tp121
Rp122
(I3
S'|'
p123
NNNI8
I1
I0
tp124
bS'cylinder'
p125
tp126
Rp127
I20
I1
tp128
a(g4
(g5
(S'S5'
p129
I0
I1
tp130
Rp131
(I3
S'|'
p132
NNNI5
I1
I0
tp133
bS'peach'
p134
tp135
Rp136
I10
I0
tp137
a(g136
I3
I0
tp138
a(g136
I27
I0
tp139
a(g136
I7
I0
tp140
a(g136
I18
I0
tp141
a(g136
I2
I0
tp142
a(g136
I20
I0
tp143
a(g136
I17
I0
tp144
a(g4
(g5
(S'S5'
p145
I0
I1
tp146
Rp147
(I3
S'|'
p148
NNNI5
I1
I0
tp149
bS'white'
p150
tp151
Rp152
I10
I1
tp153
a(g4
(g5
(S'S8'
p154
I0
I1
tp155
Rp156
(I3
S'|'
p157
NNNI8
I1
I0
tp158
bS'metallic'
p159
tp160
Rp161
I10
I0
tp162
a(g161
I3
I0
tp163
a(g161
I27
I0
tp164
a(g161
I7
I0
tp165
a(g161
I18
I0
tp166
a(g161
I2
I0
tp167
a(g161
I20
I0
tp168
a(g161
I17
I0
tp169
a(g4
(g5
(S'S9'
p170
I0
I1
tp171
Rp172
(I3
S'|'
p173
NNNI9
I1
I0
tp174
bS'container'
p175
tp176
Rp177
I17
I1
tp178
a(g4
(g5
(S'S4'
p179
I0
I1
tp180
Rp181
(I3
S'|'
p182
NNNI4
I1
I0
tp183
bS'blue'
p184
tp185
Rp186
I18
I1
tp187
a(g4
(g5
(S'S9'
p188
I0
I1
tp189
Rp190
(I3
S'|'
p191
NNNI9
I1
I0
tp192
bS'container'
p193
tp194
Rp195
I2
I0
tp196
a(g4
(g5
(S'S8'
p197
I0
I1
tp198
Rp199
(I3
S'|'
p200
NNNI8
I1
I0
tp201
bS'pringles'
p202
tp203
Rp204
I10
I0
tp205
a(g204
I3
I0
tp206
a(g204
I27
I0
tp207
a(g204
I7
I0
tp208
a(g204
I18
I0
tp209
a(g204
I2
I0
tp210
a(g204
I20
I0
tp211
a(g204
I17
I0
tp212
a(g4
(g5
(S'S9'
p213
I0
I1
tp214
Rp215
(I3
S'|'
p216
NNNI9
I1
I0
tp217
bS'container'
p218
tp219
Rp220
I2
I1
tp221
a(g4
(g5
(S'S4'
p222
I0
I1
tp223
Rp224
(I3
S'|'
p225
NNNI4
I1
I0
tp226
bS'blue'
p227
tp228
Rp229
I2
I0
tp230
a(g4
(g5
(S'S5'
p231
I0
I1
tp232
Rp233
(I3
S'|'
p234
NNNI5
I1
I0
tp235
bS'tower'
p236
tp237
Rp238
I10
I0
tp239
a(g238
I3
I0
tp240
a(g238
I27
I0
tp241
a(g238
I7
I0
tp242
a(g238
I18
I0
tp243
a(g238
I2
I0
tp244
a(g238
I20
I0
tp245
a(g238
I17
I0
tp246
a(g4
(g5
(S'S5'
p247
I0
I1
tp248
Rp249
(I3
S'|'
p250
NNNI5
I1
I0
tp251
bS'white'
p252
tp253
Rp254
I17
I0
tp255
a(g4
(g5
(S'S4'
p256
I0
I1
tp257
Rp258
(I3
S'|'
p259
NNNI4
I1
I0
tp260
bS'blue'
p261
tp262
Rp263
I18
I1
tp264
a(g4
(g5
(S'S5'
p265
I0
I1
tp266
Rp267
(I3
S'|'
p268
NNNI5
I1
I0
tp269
bS'spice'
p270
tp271
Rp272
I10
I0
tp273
a(g272
I3
I0
tp274
a(g272
I27
I0
tp275
a(g272
I7
I0
tp276
a(g272
I18
I0
tp277
a(g272
I2
I0
tp278
a(g272
I20
I0
tp279
a(g272
I17
I0
tp280
a(g4
(g5
(S'S4'
p281
I0
I1
tp282
Rp283
(I3
S'|'
p284
NNNI4
I1
I0
tp285
bS'bean'
p286
tp287
Rp288
I2
I1
tp289
aa(lp290
a.