(lp0
(lp1
(dp2
S'action'
p3
cnumpy.core.multiarray
scalar
p4
(cnumpy
dtype
p5
(S'S4'
p6
I0
I1
tp7
Rp8
(I3
S'|'
p9
NNNI4
I1
I0
tp10
bS'walk'
p11
tp12
Rp13
sS'recipient'
p14
NsS'patient'
p15
NsS'goal'
p16
g4
(g5
(S'S4'
p17
I0
I1
tp18
Rp19
(I3
S'|'
p20
NNNI4
I1
I0
tp21
bS'3418'
p22
tp23
Rp24
sS'source'
p25
Nsa(dp26
g3
g4
(g5
(S'S5'
p27
I0
I1
tp28
Rp29
(I3
S'|'
p30
NNNI5
I1
I0
tp31
bS'bring'
p32
tp33
Rp34
sg14
g4
(g5
(S'S1'
p35
I0
I1
tp36
Rp37
(I3
S'|'
p38
NNNI1
I1
I0
tp39
bS'b'
p40
tp41
Rp42
sg15
g4
(g5
(S'S7'
p43
I0
I1
tp44
Rp45
(I3
S'|'
p46
NNNI7
I1
I0
tp47
bS'oidx_12'
p48
tp49
Rp50
sg16
Nsg25
Nsaa(lp51
(dp52
S'all'
p53
(lp54
S"go to office next to david 's office"
p55
asg15
(lp56
sg16
(lp57
S"go to office next to david 's office"
p58
asg25
(lp59
sg3
(lp60
sg14
(lp61
sa(dp62
g53
(lp63
S'give robert a container of wipes'
p64
asg15
(lp65
S'a container'
p66
aS'container'
p67
aS'container'
p68
aS'container'
p69
aS'a container of wipes'
p70
asg16
(lp71
sg25
(lp72
sg3
(lp73
sg14
(lp74
S'robert'
p75
asaa(lp76
(g4
(g5
(S'S6'
p77
I0
I1
tp78
Rp79
(I3
S'|'
p80
NNNI6
I1
I0
tp81
bS'coffee'
p82
tp83
Rp84
I2
I1
tp85
a(g4
(g5
(S'S9'
p86
I0
I1
tp87
Rp88
(I3
S'|'
p89
NNNI9
I1
I0
tp90
bS'container'
p91
tp92
Rp93
I2
I1
tp94
a(g4
(g5
(S'S5'
p95
I0
I1
tp96
Rp97
(I3
S'|'
p98
NNNI5
I1
I0
tp99
bS'clear'
p100
tp101
Rp102
I10
I0
tp103
a(g102
I3
I0
tp104
a(g102
I27
I0
tp105
a(g102
I7
I0
tp106
a(g102
I18
I0
tp107
a(g102
I2
I0
tp108
a(g102
I20
I0
tp109
a(g102
I17
I0
tp110
a(g4
(g5
(S'S4'
p111
I0
I1
tp112
Rp113
(I3
S'|'
p114
NNNI4
I1
I0
tp115
bS'long'
p116
tp117
Rp118
I3
I1
tp119
a(g4
(g5
(S'S9'
p120
I0
I1
tp121
Rp122
(I3
S'|'
p123
NNNI9
I1
I0
tp124
bS'container'
p125
tp126
Rp127
I27
I0
tp128
a(g4
(g5
(S'S9'
p129
I0
I1
tp130
Rp131
(I3
S'|'
p132
NNNI9
I1
I0
tp133
bS'container'
p134
tp135
Rp136
I2
I1
tp137
a(g4
(g5
(S'S4'
p138
I0
I1
tp139
Rp140
(I3
S'|'
p141
NNNI4
I1
I0
tp142
bS'long'
p143
tp144
Rp145
I3
I0
tp146
a(g4
(g5
(S'S9'
p147
I0
I1
tp148
Rp149
(I3
S'|'
p150
NNNI9
I1
I0
tp151
bS'container'
p152
tp153
Rp154
I27
I0
tp155
a(g4
(g5
(S'S9'
p156
I0
I1
tp157
Rp158
(I3
S'|'
p159
NNNI9
I1
I0
tp160
bS'container'
p161
tp162
Rp163
I2
I1
tp164
a(g4
(g5
(S'S4'
p165
I0
I1
tp166
Rp167
(I3
S'|'
p168
NNNI4
I1
I0
tp169
bS'bean'
p170
tp171
Rp172
I10
I0
tp173
a(g172
I3
I0
tp174
a(g172
I27
I0
tp175
a(g172
I7
I0
tp176
a(g172
I18
I0
tp177
a(g172
I2
I0
tp178
a(g172
I20
I0
tp179
a(g172
I17
I0
tp180
aa(lp181
a.