(lp0
(lp1
(dp2
S'action'
p3
cnumpy.core.multiarray
scalar
p4
(cnumpy
dtype
p5
(S'S5'
p6
I0
I1
tp7
Rp8
(I3
S'|'
p9
NNNI5
I1
I0
tp10
bS'bring'
p11
tp12
Rp13
sS'recipient'
p14
S'w'
p15
sS'patient'
p16
S'oidx_26'
p17
sS'goal'
p18
NsS'source'
p19
Nsa(dp20
g3
g4
(g5
(S'S4'
p21
I0
I1
tp22
Rp23
(I3
S'|'
p24
NNNI4
I1
I0
tp25
bS'move'
p26
tp27
Rp28
sg14
Nsg16
S'oidx_11'
p29
sg18
S'3508'
p30
sg19
S'3506'
p31
sa(dp32
g3
g4
(g5
(S'S5'
p33
I0
I1
tp34
Rp35
(I3
S'|'
p36
NNNI5
I1
I0
tp37
bS'bring'
p38
tp39
Rp40
sg14
S'p'
p41
sg16
g17
sg18
Nsg19
Nsaa(lp42
(dp43
S'all'
p44
(lp45
S'hi'
p46
asg16
(lp47
S'ok'
p48
aS'color'
p49
asg18
(lp50
sg19
(lp51
sg3
(lp52
sg14
(lp53
sa(dp54
g44
(lp55
S'yes'
p56
asg16
(lp57
S'color'
p58
asg18
(lp59
sg19
(lp60
S'yes'
p61
aS'yes'
p62
asg3
(lp63
sg14
(lp64
sa(dp65
g44
(lp66
S'yes'
p67
asg16
(lp68
S'yes'
p69
aS'yes'
p70
asg18
(lp71
sg19
(lp72
sg3
(lp73
sg14
(lp74
saa(lp75
(g4
(g5
(S'S9'
p76
I0
I1
tp77
Rp78
(I3
S'|'
p79
NNNI9
I1
I0
tp80
bS'styrofoam'
p81
tp82
Rp83
I17
I1
tp84
a(g4
(g5
(S'S5'
p85
I0
I1
tp86
Rp87
(I3
S'|'
p88
NNNI5
I1
I0
tp89
bS'spice'
p90
tp91
Rp92
I27
I1
tp93
a(g4
(g5
(S'S5'
p94
I0
I1
tp95
Rp96
(I3
S'|'
p97
NNNI5
I1
I0
tp98
bS'spice'
p99
tp100
Rp101
I17
I0
tp102
a(g4
(g5
(S'S6'
p103
I0
I1
tp104
Rp105
(I3
S'|'
p106
NNNI6
I1
I0
tp107
bS'column'
p108
tp109
Rp110
I27
I1
tp111
a(g4
(g5
(S'S5'
p112
I0
I1
tp113
Rp114
(I3
S'|'
p115
NNNI5
I1
I0
tp116
bS'spice'
p117
tp118
Rp119
I27
I1
tp120
a(g4
(g5
(S'S5'
p121
I0
I1
tp122
Rp123
(I3
S'|'
p124
NNNI5
I1
I0
tp125
bS'spice'
p126
tp127
Rp128
I18
I0
tp129
a(g4
(g5
(S'S5'
p130
I0
I1
tp131
Rp132
(I3
S'|'
p133
NNNI5
I1
I0
tp134
bS'empty'
p135
tp136
Rp137
I2
I1
tp138
a(g4
(g5
(S'S8'
p139
I0
I1
tp140
Rp141
(I3
S'|'
p142
NNNI8
I1
I0
tp143
bS'metallic'
p144
tp145
Rp146
I7
I1
tp147
a(g4
(g5
(S'S8'
p148
I0
I1
tp149
Rp150
(I3
S'|'
p151
NNNI8
I1
I0
tp152
bS'metallic'
p153
tp154
Rp155
I27
I0
tp156
a(g4
(g5
(S'S8'
p157
I0
I1
tp158
Rp159
(I3
S'|'
p160
NNNI8
I1
I0
tp161
bS'pringles'
p162
tp163
Rp164
I17
I1
tp165
a(g4
(g5
(S'S6'
p166
I0
I1
tp167
Rp168
(I3
S'|'
p169
NNNI6
I1
I0
tp170
bS'column'
p171
tp172
Rp173
I27
I0
tp174
a(g4
(g5
(S'S9'
p175
I0
I1
tp176
Rp177
(I3
S'|'
p178
NNNI9
I1
I0
tp179
bS'rectangle'
p180
tp181
Rp182
I7
I1
tp183
a(g4
(g5
(S'S9'
p184
I0
I1
tp185
Rp186
(I3
S'|'
p187
NNNI9
I1
I0
tp188
bS'styrofoam'
p189
tp190
Rp191
I3
I0
tp192
a(g4
(g5
(S'S5'
p193
I0
I1
tp194
Rp195
(I3
S'|'
p196
NNNI5
I1
I0
tp197
bS'spice'
p198
tp199
Rp200
I17
I1
tp201
a(g4
(g5
(S'S4'
p202
I0
I1
tp203
Rp204
(I3
S'|'
p205
NNNI4
I1
I0
tp206
bS'long'
p207
tp208
Rp209
I10
I1
tp210
aa(lp211
(g46
S'coffee'
p212
I00
tp213
a(g48
S'coffie'
p214
I00
tp215
a(g49
S'white'
p216
I01
tp217
aa.