(lp0
(lp1
(dp2
S'action'
p3
cnumpy.core.multiarray
scalar
p4
(cnumpy
dtype
p5
(S'S4'
p6
I0
I1
tp7
Rp8
(I3
S'|'
p9
NNNI4
I1
I0
tp10
bS'walk'
p11
tp12
Rp13
sS'recipient'
p14
NsS'patient'
p15
NsS'goal'
p16
S'3520'
p17
sS'source'
p18
Nsa(dp19
g3
g4
(g5
(S'S5'
p20
I0
I1
tp21
Rp22
(I3
S'|'
p23
NNNI5
I1
I0
tp24
bS'bring'
p25
tp26
Rp27
sg14
S'w'
p28
sg15
S'oidx_6'
p29
sg16
Nsg18
Nsaa(lp30
(dp31
S'all'
p32
(lp33
S'enter the building on the right side'
p34
asg15
(lp35
sg16
(lp36
S'the kitchen'
p37
asg18
(lp38
sg3
(lp39
sg14
(lp40
sa(dp41
g32
(lp42
S'give mallory mal maroon a white styrofoam tower'
p43
asg15
(lp44
S'white styrofoam tower'
p45
aS'white tower'
p46
aS'different person'
p47
aS'deliver it to m'
p48
aS'deliver it to different person'
p49
aS'nothing'
p50
aS'no'
p51
aS'no'
p52
asg16
(lp53
sg18
(lp54
sg3
(lp55
sg14
(lp56
saa(lp57
(g4
(g5
(S'S5'
p58
I0
I1
tp59
Rp60
(I3
S'|'
p61
NNNI5
I1
I0
tp62
bS'peach'
p63
tp64
Rp65
I10
I0
tp66
a(g65
I3
I0
tp67
a(g65
I27
I0
tp68
a(g65
I7
I0
tp69
a(g65
I18
I0
tp70
a(g65
I2
I0
tp71
a(g65
I20
I0
tp72
a(g65
I17
I0
tp73
a(g4
(g5
(S'S5'
p74
I0
I1
tp75
Rp76
(I3
S'|'
p77
NNNI5
I1
I0
tp78
bS'white'
p79
tp80
Rp81
I10
I0
tp82
a(g81
I3
I0
tp83
a(g81
I27
I0
tp84
a(g81
I7
I0
tp85
a(g81
I18
I0
tp86
a(g81
I2
I0
tp87
a(g81
I20
I0
tp88
a(g81
I17
I0
tp89
a(g4
(g5
(S'S5'
p90
I0
I1
tp91
Rp92
(I3
S'|'
p93
NNNI5
I1
I0
tp94
bS'tower'
p95
tp96
Rp97
I3
I1
tp98
a(g4
(g5
(S'S9'
p99
I0
I1
tp100
Rp101
(I3
S'|'
p102
NNNI9
I1
I0
tp103
bS'styrofoam'
p104
tp105
Rp106
I20
I1
tp107
a(g4
(g5
(S'S5'
p108
I0
I1
tp109
Rp110
(I3
S'|'
p111
NNNI5
I1
I0
tp112
bS'tower'
p113
tp114
Rp115
I27
I0
tp116
a(g4
(g5
(S'S5'
p117
I0
I1
tp118
Rp119
(I3
S'|'
p120
NNNI5
I1
I0
tp121
bS'tower'
p122
tp123
Rp124
I3
I1
tp125
a(g4
(g5
(S'S9'
p126
I0
I1
tp127
Rp128
(I3
S'|'
p129
NNNI9
I1
I0
tp130
bS'styrofoam'
p131
tp132
Rp133
I27
I0
tp134
a(g4
(g5
(S'S5'
p135
I0
I1
tp136
Rp137
(I3
S'|'
p138
NNNI5
I1
I0
tp139
bS'tower'
p140
tp141
Rp142
I27
I0
tp143
a(g4
(g5
(S'S9'
p144
I0
I1
tp145
Rp146
(I3
S'|'
p147
NNNI9
I1
I0
tp148
bS'styrofoam'
p149
tp150
Rp151
I20
I1
tp152
a(g4
(g5
(S'S5'
p153
I0
I1
tp154
Rp155
(I3
S'|'
p156
NNNI5
I1
I0
tp157
bS'tower'
p158
tp159
Rp160
I3
I1
tp161
aa(lp162
a.