(lp0
(lp1
(dp2
S'action'
p3
cnumpy.core.multiarray
scalar
p4
(cnumpy
dtype
p5
(S'S4'
p6
I0
I1
tp7
Rp8
(I3
S'|'
p9
NNNI4
I1
I0
tp10
bS'walk'
p11
tp12
Rp13
sS'recipient'
p14
NsS'patient'
p15
NsS'goal'
p16
g4
(g5
(S'S4'
p17
I0
I1
tp18
Rp19
(I3
S'|'
p20
NNNI4
I1
I0
tp21
bS'3430'
p22
tp23
Rp24
sS'source'
p25
Nsa(dp26
g3
g4
(g5
(S'S4'
p27
I0
I1
tp28
Rp29
(I3
S'|'
p30
NNNI4
I1
I0
tp31
bS'move'
p32
tp33
Rp34
sg14
Nsg15
S'oidx_25'
p35
sg16
S'3422'
p36
sg25
S'3414a'
p37
sa(dp38
g3
g4
(g5
(S'S4'
p39
I0
I1
tp40
Rp41
(I3
S'|'
p42
NNNI4
I1
I0
tp43
bS'walk'
p44
tp45
Rp46
sg14
Nsg15
Nsg16
S'3416'
p47
sg25
Nsaa(lp48
(dp49
S'all'
p50
(lp51
S'go to the office where dr sybil smalt is at'
p52
asg15
(lp53
sg16
(lp54
S'the office of dr sybil smalt'
p55
asg25
(lp56
sg3
(lp57
sg14
(lp58
sa(dp59
g50
(lp60
S'find the peach can'
p61
asg15
(lp62
S'the can'
p63
asg16
(lp64
sg25
(lp65
S''
p66
asg3
(lp67
sg14
(lp68
sa(dp69
g50
(lp70
S'move to the conference room'
p71
asg15
(lp72
sg16
(lp73
S'conference room'
p74
asg25
(lp75
sg3
(lp76
sg14
(lp77
saa(lp78
(g4
(g5
(S'S5'
p79
I0
I1
tp80
Rp81
(I3
S'|'
p82
NNNI5
I1
I0
tp83
bS'block'
p84
tp85
Rp86
I10
I0
tp87
a(g86
I3
I0
tp88
a(g86
I27
I0
tp89
a(g86
I7
I0
tp90
a(g86
I18
I0
tp91
a(g86
I2
I0
tp92
a(g86
I20
I0
tp93
a(g86
I17
I0
tp94
a(g4
(g5
(S'S6'
p95
I0
I1
tp96
Rp97
(I3
S'|'
p98
NNNI6
I1
I0
tp99
bS'column'
p100
tp101
Rp102
I10
I0
tp103
a(g102
I3
I0
tp104
a(g102
I27
I0
tp105
a(g102
I7
I0
tp106
a(g102
I18
I0
tp107
a(g102
I2
I0
tp108
a(g102
I20
I0
tp109
a(g102
I17
I0
tp110
a(g4
(g5
(S'S5'
p111
I0
I1
tp112
Rp113
(I3
S'|'
p114
NNNI5
I1
I0
tp115
bS'white'
p116
tp117
Rp118
I10
I0
tp119
a(g118
I3
I0
tp120
a(g118
I27
I0
tp121
a(g118
I7
I0
tp122
a(g118
I18
I0
tp123
a(g118
I2
I0
tp124
a(g118
I20
I0
tp125
a(g118
I17
I0
tp126
a(g4
(g5
(S'S4'
p127
I0
I1
tp128
Rp129
(I3
S'|'
p130
NNNI4
I1
I0
tp131
bS'blue'
p132
tp133
Rp134
I18
I1
tp135
a(g4
(g5
(S'S6'
p136
I0
I1
tp137
Rp138
(I3
S'|'
p139
NNNI6
I1
I0
tp140
bS'coffee'
p141
tp142
Rp143
I2
I1
tp144
a(g4
(g5
(S'S3'
p145
I0
I1
tp146
Rp147
(I3
S'|'
p148
NNNI3
I1
I0
tp149
bS'can'
p150
tp151
Rp152
I2
I1
tp153
a(g4
(g5
(S'S3'
p154
I0
I1
tp155
Rp156
(I3
S'|'
p157
NNNI3
I1
I0
tp158
bS'can'
p159
tp160
Rp161
I17
I0
tp162
a(g4
(g5
(S'S5'
p163
I0
I1
tp164
Rp165
(I3
S'|'
p166
NNNI5
I1
I0
tp167
bS'peach'
p168
tp169
Rp170
I10
I0
tp171
a(g170
I3
I0
tp172
a(g170
I27
I0
tp173
a(g170
I7
I0
tp174
a(g170
I18
I0
tp175
a(g170
I2
I0
tp176
a(g170
I20
I0
tp177
a(g170
I17
I0
tp178
a(g4
(g5
(S'S3'
p179
I0
I1
tp180
Rp181
(I3
S'|'
p182
NNNI3
I1
I0
tp183
bS'can'
p184
tp185
Rp186
I2
I1
tp187
a(g4
(g5
(S'S3'
p188
I0
I1
tp189
Rp190
(I3
S'|'
p191
NNNI3
I1
I0
tp192
bS'can'
p193
tp194
Rp195
I17
I0
tp196
a(g4
(g5
(S'S8'
p197
I0
I1
tp198
Rp199
(I3
S'|'
p200
NNNI8
I1
I0
tp201
bS'metallic'
p202
tp203
Rp204
I10
I1
tp205
a(g4
(g5
(S'S4'
p206
I0
I1
tp207
Rp208
(I3
S'|'
p209
NNNI4
I1
I0
tp210
bS'long'
p211
tp212
Rp213
I3
I1
tp214
a(g4
(g5
(S'S4'
p215
I0
I1
tp216
Rp217
(I3
S'|'
p218
NNNI4
I1
I0
tp219
bS'long'
p220
tp221
Rp222
I27
I0
tp223
a(g4
(g5
(S'S3'
p224
I0
I1
tp225
Rp226
(I3
S'|'
p227
NNNI3
I1
I0
tp228
bS'can'
p229
tp230
Rp231
I2
I1
tp232
a(g4
(g5
(S'S9'
p233
I0
I1
tp234
Rp235
(I3
S'|'
p236
NNNI9
I1
I0
tp237
bS'container'
p238
tp239
Rp240
I2
I1
tp241
aa(lp242
a.