(lp0
(lp1
(dp2
S'action'
p3
cnumpy.core.multiarray
scalar
p4
(cnumpy
dtype
p5
(S'S4'
p6
I0
I1
tp7
Rp8
(I3
S'|'
p9
NNNI4
I1
I0
tp10
bS'walk'
p11
tp12
Rp13
sS'recipient'
p14
NsS'patient'
p15
NsS'goal'
p16
g4
(g5
(S'S4'
p17
I0
I1
tp18
Rp19
(I3
S'|'
p20
NNNI4
I1
I0
tp21
bS'3422'
p22
tp23
Rp24
sS'source'
p25
Nsa(dp26
g3
g4
(g5
(S'S5'
p27
I0
I1
tp28
Rp29
(I3
S'|'
p30
NNNI5
I1
I0
tp31
bS'bring'
p32
tp33
Rp34
sg14
S'w'
p35
sg15
g4
(g5
(S'S7'
p36
I0
I1
tp37
Rp38
(I3
S'|'
p39
NNNI7
I1
I0
tp40
bS'oidx_28'
p41
tp42
Rp43
sg16
Nsg25
Nsa(dp44
g3
g4
(g5
(S'S5'
p45
I0
I1
tp46
Rp47
(I3
S'|'
p48
NNNI5
I1
I0
tp49
bS'bring'
p50
tp51
Rp52
sg14
g4
(g5
(S'S1'
p53
I0
I1
tp54
Rp55
(I3
S'|'
p56
NNNI1
I1
I0
tp57
bS'p'
p58
tp59
Rp60
sg15
S'oidx_25'
p61
sg16
Nsg25
Nsaa(lp62
(dp63
S'all'
p64
(lp65
S"go to walter ward 's office"
p66
asg15
(lp67
sg16
(lp68
sg25
(lp69
sg3
(lp70
sg14
(lp71
sa(dp72
g64
(lp73
S'take the object to the supervisor'
p74
asg15
(lp75
S'the long white object'
p76
aS'the tall white rectangular object'
p77
aS'the white thing'
p78
asg16
(lp79
sg25
(lp80
sg3
(lp81
sg14
(lp82
S'w'
p83
asa(dp84
g64
(lp85
S'take the grey container to p'
p86
asg15
(lp87
S'the grey object'
p88
aS'the grey object'
p89
aS'the grey cylinder'
p90
aS'the short grey cylinder'
p91
asg16
(lp92
sg25
(lp93
sg3
(lp94
sg14
(lp95
S'they grey item similar to that'
p96
aS'peggy'
p97
asaa(lp98
(g4
(g5
(S'S5'
p99
I0
I1
tp100
Rp101
(I3
S'|'
p102
NNNI5
I1
I0
tp103
bS'peach'
p104
tp105
Rp106
I10
I0
tp107
a(g106
I3
I0
tp108
a(g106
I27
I0
tp109
a(g106
I7
I0
tp110
a(g106
I18
I0
tp111
a(g106
I2
I0
tp112
a(g106
I20
I0
tp113
a(g106
I17
I0
tp114
a(g4
(g5
(S'S8'
p115
I0
I1
tp116
Rp117
(I3
S'|'
p118
NNNI8
I1
I0
tp119
bS'metallic'
p120
tp121
Rp122
I10
I0
tp123
a(g122
I3
I0
tp124
a(g122
I27
I0
tp125
a(g122
I7
I0
tp126
a(g122
I18
I0
tp127
a(g122
I2
I0
tp128
a(g122
I20
I0
tp129
a(g122
I17
I0
tp130
a(g4
(g5
(S'S4'
p131
I0
I1
tp132
Rp133
(I3
S'|'
p134
NNNI4
I1
I0
tp135
bS'long'
p136
tp137
Rp138
I3
I1
tp139
a(g4
(g5
(S'S6'
p140
I0
I1
tp141
Rp142
(I3
S'|'
p143
NNNI6
I1
I0
tp144
bS'coffee'
p145
tp146
Rp147
I10
I0
tp148
a(g147
I3
I0
tp149
a(g147
I27
I0
tp150
a(g147
I7
I0
tp151
a(g147
I18
I0
tp152
a(g147
I2
I0
tp153
a(g147
I20
I0
tp154
a(g147
I17
I0
tp155
a(g4
(g5
(S'S5'
p156
I0
I1
tp157
Rp158
(I3
S'|'
p159
NNNI5
I1
I0
tp160
bS'block'
p161
tp162
Rp163
I10
I0
tp164
a(g163
I3
I0
tp165
a(g163
I27
I0
tp166
a(g163
I7
I0
tp167
a(g163
I18
I0
tp168
a(g163
I2
I0
tp169
a(g163
I20
I0
tp170
a(g163
I17
I0
tp171
a(g4
(g5
(S'S5'
p172
I0
I1
tp173
Rp174
(I3
S'|'
p175
NNNI5
I1
I0
tp176
bS'white'
p177
tp178
Rp179
I10
I0
tp180
a(g179
I3
I0
tp181
a(g179
I27
I0
tp182
a(g179
I7
I0
tp183
a(g179
I18
I0
tp184
a(g179
I2
I0
tp185
a(g179
I20
I0
tp186
a(g179
I17
I0
tp187
a(g4
(g5
(S'S4'
p188
I0
I1
tp189
Rp190
(I3
S'|'
p191
NNNI4
I1
I0
tp192
bS'long'
p193
tp194
Rp195
I18
I0
tp196
a(g4
(g5
(S'S4'
p197
I0
I1
tp198
Rp199
(I3
S'|'
p200
NNNI4
I1
I0
tp201
bS'long'
p202
tp203
Rp204
I3
I1
tp205
a(g4
(g5
(S'S4'
p206
I0
I1
tp207
Rp208
(I3
S'|'
p209
NNNI4
I1
I0
tp210
bS'long'
p211
tp212
Rp213
I2
I0
tp214
a(g4
(g5
(S'S4'
p215
I0
I1
tp216
Rp217
(I3
S'|'
p218
NNNI4
I1
I0
tp219
bS'long'
p220
tp221
Rp222
I7
I1
tp223
a(g4
(g5
(S'S6'
p224
I0
I1
tp225
Rp226
(I3
S'|'
p227
NNNI6
I1
I0
tp228
bS'column'
p229
tp230
Rp231
I20
I1
tp232
a(g4
(g5
(S'S8'
p233
I0
I1
tp234
Rp235
(I3
S'|'
p236
NNNI8
I1
I0
tp237
bS'cylinder'
p238
tp239
Rp240
I3
I1
tp241
a(g4
(g5
(S'S4'
p242
I0
I1
tp243
Rp244
(I3
S'|'
p245
NNNI4
I1
I0
tp246
bS'blue'
p247
tp248
Rp249
I18
I1
tp250
a(g4
(g5
(S'S4'
p251
I0
I1
tp252
Rp253
(I3
S'|'
p254
NNNI4
I1
I0
tp255
bS'bean'
p256
tp257
Rp258
I10
I0
tp259
a(g258
I3
I0
tp260
a(g258
I27
I0
tp261
a(g258
I7
I0
tp262
a(g258
I18
I0
tp263
a(g258
I2
I0
tp264
a(g258
I20
I0
tp265
a(g258
I17
I0
tp266
a(g4
(g5
(S'S8'
p267
I0
I1
tp268
Rp269
(I3
S'|'
p270
NNNI8
I1
I0
tp271
bS'pringles'
p272
tp273
Rp274
I10
I0
tp275
a(g274
I3
I0
tp276
a(g274
I27
I0
tp277
a(g274
I7
I0
tp278
a(g274
I18
I0
tp279
a(g274
I2
I0
tp280
a(g274
I20
I0
tp281
a(g274
I17
I0
tp282
aa(lp283
(S'tall'
p284
S'tower'
p285
I00
tp286
a(g284
S'white'
p287
I00
tp288
a(g284
S'long'
p289
I01
tp290
a(S'rectangular'
p291
S'blue'
p292
I00
tp293
a(g291
S'metallic'
p294
I00
tp295
a(S'short'
p296
g289
I00
tp297
aa.