(lp0
(lp1
(dp2
S'action'
p3
cnumpy.core.multiarray
scalar
p4
(cnumpy
dtype
p5
(S'S5'
p6
I0
I1
tp7
Rp8
(I3
S'|'
p9
NNNI5
I1
I0
tp10
bS'bring'
p11
tp12
Rp13
sS'recipient'
p14
g4
(g5
(S'S1'
p15
I0
I1
tp16
Rp17
(I3
S'|'
p18
NNNI1
I1
I0
tp19
bS'b'
p20
tp21
Rp22
sS'patient'
p23
S'oidx_22'
p24
sS'goal'
p25
NsS'source'
p26
Nsaa(lp27
(dp28
S'all'
p29
(lp30
S'there is no problem listed'
p31
asg23
(lp32
S'documents'
p33
aS'coffee'
p34
aS'coffee'
p35
asg25
(lp36
sg26
(lp37
sg3
(lp38
sg14
(lp39
S'bob'
p40
aS'bob'
p41
aS'bob'
p42
aS'bob'
p43
aS'robert'
p44
asaa(lp45
(g4
(g5
(S'S3'
p46
I0
I1
tp47
Rp48
(I3
S'|'
p49
NNNI3
I1
I0
tp50
bS'can'
p51
tp52
Rp53
I2
I1
tp54
a(g4
(g5
(S'S9'
p55
I0
I1
tp56
Rp57
(I3
S'|'
p58
NNNI9
I1
I0
tp59
bS'styrofoam'
p60
tp61
Rp62
I20
I1
tp63
a(g4
(g5
(S'S6'
p64
I0
I1
tp65
Rp66
(I3
S'|'
p67
NNNI6
I1
I0
tp68
bS'yellow'
p69
tp70
Rp71
I10
I0
tp72
a(g71
I3
I0
tp73
a(g71
I27
I0
tp74
a(g71
I7
I0
tp75
a(g71
I18
I0
tp76
a(g71
I2
I0
tp77
a(g71
I20
I0
tp78
a(g71
I17
I0
tp79
a(g4
(g5
(S'S6'
p80
I0
I1
tp81
Rp82
(I3
S'|'
p83
NNNI6
I1
I0
tp84
bS'coffee'
p85
tp86
Rp87
I2
I1
tp88
a(g4
(g5
(S'S8'
p89
I0
I1
tp90
Rp91
(I3
S'|'
p92
NNNI8
I1
I0
tp93
bS'metallic'
p94
tp95
Rp96
I10
I0
tp97
a(g96
I3
I0
tp98
a(g96
I27
I0
tp99
a(g96
I7
I0
tp100
a(g96
I18
I0
tp101
a(g96
I2
I0
tp102
a(g96
I20
I0
tp103
a(g96
I17
I0
tp104
aa(lp105
a.