(lp0
(lp1
(dp2
S'action'
p3
cnumpy.core.multiarray
scalar
p4
(cnumpy
dtype
p5
(S'S4'
p6
I0
I1
tp7
Rp8
(I3
S'|'
p9
NNNI4
I1
I0
tp10
bS'walk'
p11
tp12
Rp13
sS'recipient'
p14
NsS'patient'
p15
NsS'goal'
p16
S'3510'
p17
sS'source'
p18
Nsa(dp19
g3
g4
(g5
(S'S5'
p20
I0
I1
tp21
Rp22
(I3
S'|'
p23
NNNI5
I1
I0
tp24
bS'bring'
p25
tp26
Rp27
sg14
g4
(g5
(S'S1'
p28
I0
I1
tp29
Rp30
(I3
S'|'
p31
NNNI1
I1
I0
tp32
bS'h'
p33
tp34
Rp35
sg15
g4
(g5
(S'S7'
p36
I0
I1
tp37
Rp38
(I3
S'|'
p39
NNNI7
I1
I0
tp40
bS'oidx_22'
p41
tp42
Rp43
sg16
Nsg18
Nsa(dp44
g3
g4
(g5
(S'S5'
p45
I0
I1
tp46
Rp47
(I3
S'|'
p48
NNNI5
I1
I0
tp49
bS'bring'
p50
tp51
Rp52
sg14
g4
(g5
(S'S1'
p53
I0
I1
tp54
Rp55
(I3
S'|'
p56
NNNI1
I1
I0
tp57
bS's'
p58
tp59
Rp60
sg15
g4
(g5
(S'S7'
p61
I0
I1
tp62
Rp63
(I3
S'|'
p64
NNNI7
I1
I0
tp65
bS'oidx_26'
p66
tp67
Rp68
sg16
Nsg18
Nsaa(lp69
(dp70
S'all'
p71
(lp72
S'go to lab'
p73
asg15
(lp74
sg16
(lp75
S'lounge'
p76
aS"bob 's office"
p77
asg18
(lp78
sg3
(lp79
sg14
(lp80
sa(dp81
g71
(lp82
S'get jar and take it to dr heidi hughes office'
p83
asg15
(lp84
S'get jar and take it to dr heidi hughes office'
p85
aS'get jar and take it to h'
p86
aS'jar'
p87
aS'jar'
p88
aS'jar'
p89
asg16
(lp90
sg18
(lp91
sg3
(lp92
sg14
(lp93
S'dr heidi hughes'
p94
aS'dr heidi hughes'
p95
asa(dp96
g71
(lp97
S'take can to office next to dr sybil smalt office'
p98
asg15
(lp99
S'soda can'
p100
aS'soda can'
p101
aS'can'
p102
aS'can'
p103
aS'a can of soda'
p104
aS'move something somewhere'
p105
aS'take a soda can to an empty office'
p106
aS'soda can'
p107
aS'a can'
p108
asg16
(lp109
sg18
(lp110
sg3
(lp111
sg14
(lp112
S'dr sybil smalt'
p113
asaa(lp114
(g4
(g5
(S'S6'
p115
I0
I1
tp116
Rp117
(I3
S'|'
p118
NNNI6
I1
I0
tp119
bS'coffee'
p120
tp121
Rp122
I2
I1
tp123
a(g4
(g5
(S'S3'
p124
I0
I1
tp125
Rp126
(I3
S'|'
p127
NNNI3
I1
I0
tp128
bS'can'
p129
tp130
Rp131
I10
I1
tp132
a(g4
(g5
(S'S5'
p133
I0
I1
tp134
Rp135
(I3
S'|'
p136
NNNI5
I1
I0
tp137
bS'block'
p138
tp139
Rp140
I10
I0
tp141
a(g140
I3
I0
tp142
a(g140
I27
I0
tp143
a(g140
I7
I0
tp144
a(g140
I18
I0
tp145
a(g140
I2
I0
tp146
a(g140
I20
I0
tp147
a(g140
I17
I0
tp148
a(g4
(g5
(S'S8'
p149
I0
I1
tp150
Rp151
(I3
S'|'
p152
NNNI8
I1
I0
tp153
bS'pringles'
p154
tp155
Rp156
I10
I0
tp157
a(g156
I3
I0
tp158
a(g156
I27
I0
tp159
a(g156
I7
I0
tp160
a(g156
I18
I0
tp161
a(g156
I2
I0
tp162
a(g156
I20
I0
tp163
a(g156
I17
I0
tp164
a(g4
(g5
(S'S8'
p165
I0
I1
tp166
Rp167
(I3
S'|'
p168
NNNI8
I1
I0
tp169
bS'metallic'
p170
tp171
Rp172
I10
I0
tp173
a(g172
I3
I0
tp174
a(g172
I27
I0
tp175
a(g172
I7
I0
tp176
a(g172
I18
I0
tp177
a(g172
I2
I0
tp178
a(g172
I20
I0
tp179
a(g172
I17
I0
tp180
a(g4
(g5
(S'S5'
p181
I0
I1
tp182
Rp183
(I3
S'|'
p184
NNNI5
I1
I0
tp185
bS'tower'
p186
tp187
Rp188
I10
I0
tp189
a(g188
I3
I0
tp190
a(g188
I27
I0
tp191
a(g188
I7
I0
tp192
a(g188
I18
I0
tp193
a(g188
I2
I0
tp194
a(g188
I20
I0
tp195
a(g188
I17
I0
tp196
a(g4
(g5
(S'S6'
p197
I0
I1
tp198
Rp199
(I3
S'|'
p200
NNNI6
I1
I0
tp201
bS'yellow'
p202
tp203
Rp204
I10
I0
tp205
a(g204
I3
I0
tp206
a(g204
I27
I0
tp207
a(g204
I7
I0
tp208
a(g204
I18
I0
tp209
a(g204
I2
I0
tp210
a(g204
I20
I0
tp211
a(g204
I17
I0
tp212
a(g4
(g5
(S'S5'
p213
I0
I1
tp214
Rp215
(I3
S'|'
p216
NNNI5
I1
I0
tp217
bS'spice'
p218
tp219
Rp220
I10
I0
tp221
a(g220
I3
I0
tp222
a(g220
I27
I0
tp223
a(g220
I7
I0
tp224
a(g220
I18
I0
tp225
a(g220
I2
I0
tp226
a(g220
I20
I0
tp227
a(g220
I17
I0
tp228
a(g4
(g5
(S'S9'
p229
I0
I1
tp230
Rp231
(I3
S'|'
p232
NNNI9
I1
I0
tp233
bS'rectangle'
p234
tp235
Rp236
I10
I0
tp237
a(g236
I3
I0
tp238
a(g236
I27
I0
tp239
a(g236
I7
I0
tp240
a(g236
I18
I0
tp241
a(g236
I2
I0
tp242
a(g236
I20
I0
tp243
a(g236
I17
I0
tp244
a(g4
(g5
(S'S3'
p245
I0
I1
tp246
Rp247
(I3
S'|'
p248
NNNI3
I1
I0
tp249
bS'can'
p250
tp251
Rp252
I2
I0
tp253
a(g4
(g5
(S'S3'
p254
I0
I1
tp255
Rp256
(I3
S'|'
p257
NNNI3
I1
I0
tp258
bS'can'
p259
tp260
Rp261
I10
I0
tp262
a(g261
I3
I0
tp263
a(g261
I27
I0
tp264
a(g261
I7
I0
tp265
a(g261
I18
I0
tp266
a(g261
I2
I0
tp267
a(g261
I20
I0
tp268
a(g261
I17
I0
tp269
a(g4
(g5
(S'S8'
p270
I0
I1
tp271
Rp272
(I3
S'|'
p273
NNNI8
I1
I0
tp274
bS'cylinder'
p275
tp276
Rp277
I3
I1
tp278
a(g4
(g5
(S'S5'
p279
I0
I1
tp280
Rp281
(I3
S'|'
p282
NNNI5
I1
I0
tp283
bS'empty'
p284
tp285
Rp286
I10
I0
tp287
a(g286
I3
I0
tp288
a(g286
I27
I0
tp289
a(g286
I7
I0
tp290
a(g286
I18
I0
tp291
a(g286
I2
I0
tp292
a(g286
I20
I0
tp293
a(g286
I17
I0
tp294
a(g4
(g5
(S'S9'
p295
I0
I1
tp296
Rp297
(I3
S'|'
p298
NNNI9
I1
I0
tp299
bS'styrofoam'
p300
tp301
Rp302
I20
I1
tp303
a(g4
(g5
(S'S4'
p304
I0
I1
tp305
Rp306
(I3
S'|'
p307
NNNI4
I1
I0
tp308
bS'blue'
p309
tp310
Rp311
I18
I1
tp312
aa(lp313
(S'jar'
p314
S'container'
p315
I01
tp316
aa.