(lp0
(lp1
(dp2
S'action'
p3
cnumpy.core.multiarray
scalar
p4
(cnumpy
dtype
p5
(S'S5'
p6
I0
I1
tp7
Rp8
(I3
S'|'
p9
NNNI5
I1
I0
tp10
bS'bring'
p11
tp12
Rp13
sS'recipient'
p14
S'w'
p15
sS'patient'
p16
S'oidx_12'
p17
sS'goal'
p18
NsS'source'
p19
Nsa(dp20
g3
g4
(g5
(S'S5'
p21
I0
I1
tp22
Rp23
(I3
S'|'
p24
NNNI5
I1
I0
tp25
bS'bring'
p26
tp27
Rp28
sg14
S'n'
p29
sg16
g4
(g5
(S'S7'
p30
I0
I1
tp31
Rp32
(I3
S'|'
p33
NNNI7
I1
I0
tp34
bS'oidx_12'
p35
tp36
Rp37
sg18
Nsg19
Nsaa(lp38
(dp39
S'all'
p40
(lp41
S'exit the lab turn right end of hall turn left and enter the office between the conference room and david daniels office'
p42
asg16
(lp43
S'a writing pen'
p44
asg18
(lp45
sg19
(lp46
sg3
(lp47
sg14
(lp48
S'to the office of walter ward'
p49
asa(dp50
g40
(lp51
S'take the can to the office of david daniel'
p52
asg16
(lp53
S'an empty can with a yellow label'
p54
aS'the empty can'
p55
aS'the can'
p56
asg18
(lp57
sg19
(lp58
sg3
(lp59
sg14
(lp60
saa(lp61
(g4
(g5
(S'S5'
p62
I0
I1
tp63
Rp64
(I3
S'|'
p65
NNNI5
I1
I0
tp66
bS'white'
p67
tp68
Rp69
I10
I0
tp70
a(g69
I3
I0
tp71
a(g69
I27
I0
tp72
a(g69
I7
I0
tp73
a(g69
I18
I0
tp74
a(g69
I2
I0
tp75
a(g69
I20
I0
tp76
a(g69
I17
I0
tp77
a(g4
(g5
(S'S5'
p78
I0
I1
tp79
Rp80
(I3
S'|'
p81
NNNI5
I1
I0
tp82
bS'spice'
p83
tp84
Rp85
I10
I0
tp86
a(g85
I3
I0
tp87
a(g85
I27
I0
tp88
a(g85
I7
I0
tp89
a(g85
I18
I0
tp90
a(g85
I2
I0
tp91
a(g85
I20
I0
tp92
a(g85
I17
I0
tp93
a(g4
(g5
(S'S5'
p94
I0
I1
tp95
Rp96
(I3
S'|'
p97
NNNI5
I1
I0
tp98
bS'tower'
p99
tp100
Rp101
I10
I0
tp102
a(g101
I3
I0
tp103
a(g101
I27
I0
tp104
a(g101
I7
I0
tp105
a(g101
I18
I0
tp106
a(g101
I2
I0
tp107
a(g101
I20
I0
tp108
a(g101
I17
I0
tp109
a(g4
(g5
(S'S5'
p110
I0
I1
tp111
Rp112
(I3
S'|'
p113
NNNI5
I1
I0
tp114
bS'clear'
p115
tp116
Rp117
I10
I0
tp118
a(g117
I3
I0
tp119
a(g117
I27
I0
tp120
a(g117
I7
I0
tp121
a(g117
I18
I0
tp122
a(g117
I2
I0
tp123
a(g117
I20
I0
tp124
a(g117
I17
I0
tp125
a(g4
(g5
(S'S6'
p126
I0
I1
tp127
Rp128
(I3
S'|'
p129
NNNI6
I1
I0
tp130
bS'coffee'
p131
tp132
Rp133
I10
I0
tp134
a(g133
I3
I0
tp135
a(g133
I27
I0
tp136
a(g133
I7
I0
tp137
a(g133
I18
I0
tp138
a(g133
I2
I0
tp139
a(g133
I20
I0
tp140
a(g133
I17
I0
tp141
a(g4
(g5
(S'S5'
p142
I0
I1
tp143
Rp144
(I3
S'|'
p145
NNNI5
I1
I0
tp146
bS'empty'
p147
tp148
Rp149
I10
I0
tp150
a(g149
I3
I0
tp151
a(g149
I27
I0
tp152
a(g149
I7
I0
tp153
a(g149
I18
I0
tp154
a(g149
I2
I0
tp155
a(g149
I20
I0
tp156
a(g149
I17
I0
tp157
a(g4
(g5
(S'S3'
p158
I0
I1
tp159
Rp160
(I3
S'|'
p161
NNNI3
I1
I0
tp162
bS'can'
p163
tp164
Rp165
I7
I1
tp166
a(g4
(g5
(S'S6'
p167
I0
I1
tp168
Rp169
(I3
S'|'
p170
NNNI6
I1
I0
tp171
bS'yellow'
p172
tp173
Rp174
I2
I1
tp175
a(g4
(g5
(S'S3'
p176
I0
I1
tp177
Rp178
(I3
S'|'
p179
NNNI3
I1
I0
tp180
bS'can'
p181
tp182
Rp183
I3
I0
tp184
a(g4
(g5
(S'S6'
p185
I0
I1
tp186
Rp187
(I3
S'|'
p188
NNNI6
I1
I0
tp189
bS'yellow'
p190
tp191
Rp192
I27
I0
tp193
aa(lp194
a.