(lp0
(lp1
(dp2
S'action'
p3
cnumpy.core.multiarray
scalar
p4
(cnumpy
dtype
p5
(S'S5'
p6
I0
I1
tp7
Rp8
(I3
S'|'
p9
NNNI5
I1
I0
tp10
bS'bring'
p11
tp12
Rp13
sS'recipient'
p14
g4
(g5
(S'S1'
p15
I0
I1
tp16
Rp17
(I3
S'|'
p18
NNNI1
I1
I0
tp19
bS'p'
p20
tp21
Rp22
sS'patient'
p23
S'oidx_11'
p24
sS'goal'
p25
NsS'source'
p26
Nsaa(lp27
(dp28
S'all'
p29
(lp30
S'turn right'
p31
asg23
(lp32
S'peggy parker'
p33
asg25
(lp34
sg26
(lp35
sg3
(lp36
sg14
(lp37
S'peggy parker'
p38
asaa(lp39
(g4
(g5
(S'S8'
p40
I0
I1
tp41
Rp42
(I3
S'|'
p43
NNNI8
I1
I0
tp44
bS'pringles'
p45
tp46
Rp47
I10
I0
tp48
a(g47
I3
I0
tp49
a(g47
I27
I0
tp50
a(g47
I7
I0
tp51
a(g47
I18
I0
tp52
a(g47
I2
I0
tp53
a(g47
I20
I0
tp54
a(g47
I17
I0
tp55
a(g4
(g5
(S'S5'
p56
I0
I1
tp57
Rp58
(I3
S'|'
p59
NNNI5
I1
I0
tp60
bS'block'
p61
tp62
Rp63
I10
I0
tp64
a(g63
I3
I0
tp65
a(g63
I27
I0
tp66
a(g63
I7
I0
tp67
a(g63
I18
I0
tp68
a(g63
I2
I0
tp69
a(g63
I20
I0
tp70
a(g63
I17
I0
tp71
a(g4
(g5
(S'S6'
p72
I0
I1
tp73
Rp74
(I3
S'|'
p75
NNNI6
I1
I0
tp76
bS'coffee'
p77
tp78
Rp79
I10
I0
tp80
a(g79
I3
I0
tp81
a(g79
I27
I0
tp82
a(g79
I7
I0
tp83
a(g79
I18
I0
tp84
a(g79
I2
I0
tp85
a(g79
I20
I0
tp86
a(g79
I17
I0
tp87
a(g4
(g5
(S'S6'
p88
I0
I1
tp89
Rp90
(I3
S'|'
p91
NNNI6
I1
I0
tp92
bS'column'
p93
tp94
Rp95
I3
I1
tp96
a(g4
(g5
(S'S6'
p97
I0
I1
tp98
Rp99
(I3
S'|'
p100
NNNI6
I1
I0
tp101
bS'yellow'
p102
tp103
Rp104
I10
I0
tp105
a(g104
I3
I0
tp106
a(g104
I27
I0
tp107
a(g104
I7
I0
tp108
a(g104
I18
I0
tp109
a(g104
I2
I0
tp110
a(g104
I20
I0
tp111
a(g104
I17
I0
tp112
aa(lp113
a.