(lp0
(lp1
(dp2
S'action'
p3
cnumpy.core.multiarray
scalar
p4
(cnumpy
dtype
p5
(S'S4'
p6
I0
I1
tp7
Rp8
(I3
S'|'
p9
NNNI4
I1
I0
tp10
bS'walk'
p11
tp12
Rp13
sS'recipient'
p14
NsS'patient'
p15
NsS'goal'
p16
S'3406'
p17
sS'source'
p18
Nsa(dp19
g3
g4
(g5
(S'S4'
p20
I0
I1
tp21
Rp22
(I3
S'|'
p23
NNNI4
I1
I0
tp24
bS'walk'
p25
tp26
Rp27
sg14
Nsg15
Nsg16
g4
(g5
(S'S4'
p28
I0
I1
tp29
Rp30
(I3
S'|'
p31
NNNI4
I1
I0
tp32
bS'3404'
p33
tp34
Rp35
sg18
Nsa(dp36
g3
g4
(g5
(S'S4'
p37
I0
I1
tp38
Rp39
(I3
S'|'
p40
NNNI4
I1
I0
tp41
bS'walk'
p42
tp43
Rp44
sg14
Nsg15
Nsg16
g4
(g5
(S'S4'
p45
I0
I1
tp46
Rp47
(I3
S'|'
p48
NNNI4
I1
I0
tp49
bS'3422'
p50
tp51
Rp52
sg18
Nsaa(lp53
(dp54
S'all'
p55
(lp56
S'go to lounge'
p57
asg15
(lp58
sg16
(lp59
S'lounge'
p60
asg18
(lp61
sg3
(lp62
sg14
(lp63
sa(dp64
g55
(lp65
S'grab object'
p66
asg15
(lp67
sg16
(lp68
S'to dr nancy nagel'
p69
aS'to the office of nancy nagel'
p70
asg18
(lp71
sg3
(lp72
sg14
(lp73
sa(dp74
g55
(lp75
S"go to walter ward 's office"
p76
asg15
(lp77
sg16
(lp78
sg18
(lp79
sg3
(lp80
sg14
(lp81
saa(lp82
(g4
(g5
(S'S6'
p83
I0
I1
tp84
Rp85
(I3
S'|'
p86
NNNI6
I1
I0
tp87
bS'column'
p88
tp89
Rp90
I3
I1
tp91
a(g4
(g5
(S'S6'
p92
I0
I1
tp93
Rp94
(I3
S'|'
p95
NNNI6
I1
I0
tp96
bS'yellow'
p97
tp98
Rp99
I27
I1
tp100
a(g4
(g5
(S'S6'
p101
I0
I1
tp102
Rp103
(I3
S'|'
p104
NNNI6
I1
I0
tp105
bS'coffee'
p106
tp107
Rp108
I10
I0
tp109
a(g108
I3
I0
tp110
a(g108
I27
I0
tp111
a(g108
I7
I0
tp112
a(g108
I18
I0
tp113
a(g108
I2
I0
tp114
a(g108
I20
I0
tp115
a(g108
I17
I0
tp116
a(g4
(g5
(S'S5'
p117
I0
I1
tp118
Rp119
(I3
S'|'
p120
NNNI5
I1
I0
tp121
bS'peach'
p122
tp123
Rp124
I10
I0
tp125
a(g124
I3
I0
tp126
a(g124
I27
I0
tp127
a(g124
I7
I0
tp128
a(g124
I18
I0
tp129
a(g124
I2
I0
tp130
a(g124
I20
I0
tp131
a(g124
I17
I0
tp132
a(g4
(g5
(S'S8'
p133
I0
I1
tp134
Rp135
(I3
S'|'
p136
NNNI8
I1
I0
tp137
bS'metallic'
p138
tp139
Rp140
I3
I1
tp141
a(g4
(g5
(S'S8'
p142
I0
I1
tp143
Rp144
(I3
S'|'
p145
NNNI8
I1
I0
tp146
bS'pringles'
p147
tp148
Rp149
I10
I0
tp150
a(g149
I3
I0
tp151
a(g149
I27
I0
tp152
a(g149
I7
I0
tp153
a(g149
I18
I0
tp154
a(g149
I2
I0
tp155
a(g149
I20
I0
tp156
a(g149
I17
I0
tp157
a(g4
(g5
(S'S5'
p158
I0
I1
tp159
Rp160
(I3
S'|'
p161
NNNI5
I1
I0
tp162
bS'spice'
p163
tp164
Rp165
I10
I0
tp166
a(g165
I3
I0
tp167
a(g165
I27
I0
tp168
a(g165
I7
I0
tp169
a(g165
I18
I0
tp170
a(g165
I2
I0
tp171
a(g165
I20
I0
tp172
a(g165
I17
I0
tp173
a(g4
(g5
(S'S5'
p174
I0
I1
tp175
Rp176
(I3
S'|'
p177
NNNI5
I1
I0
tp178
bS'clear'
p179
tp180
Rp181
I10
I0
tp182
a(g181
I3
I0
tp183
a(g181
I27
I0
tp184
a(g181
I7
I0
tp185
a(g181
I18
I0
tp186
a(g181
I2
I0
tp187
a(g181
I20
I0
tp188
a(g181
I17
I0
tp189
a(g4
(g5
(S'S5'
p190
I0
I1
tp191
Rp192
(I3
S'|'
p193
NNNI5
I1
I0
tp194
bS'white'
p195
tp196
Rp197
I10
I0
tp198
a(g197
I3
I0
tp199
a(g197
I27
I0
tp200
a(g197
I7
I0
tp201
a(g197
I18
I0
tp202
a(g197
I2
I0
tp203
a(g197
I20
I0
tp204
a(g197
I17
I0
tp205
a(g4
(g5
(S'S6'
p206
I0
I1
tp207
Rp208
(I3
S'|'
p209
NNNI6
I1
I0
tp210
bS'yellow'
p211
tp212
Rp213
I7
I0
tp214
a(g4
(g5
(S'S9'
p215
I0
I1
tp216
Rp217
(I3
S'|'
p218
NNNI9
I1
I0
tp219
bS'styrofoam'
p220
tp221
Rp222
I10
I0
tp223
a(g222
I3
I0
tp224
a(g222
I27
I0
tp225
a(g222
I7
I0
tp226
a(g222
I18
I0
tp227
a(g222
I2
I0
tp228
a(g222
I20
I0
tp229
a(g222
I17
I0
tp230
a(g4
(g5
(S'S6'
p231
I0
I1
tp232
Rp233
(I3
S'|'
p234
NNNI6
I1
I0
tp235
bS'column'
p236
tp237
Rp238
I27
I0
tp239
a(g4
(g5
(S'S6'
p240
I0
I1
tp241
Rp242
(I3
S'|'
p243
NNNI6
I1
I0
tp244
bS'column'
p245
tp246
Rp247
I3
I1
tp248
a(g4
(g5
(S'S4'
p249
I0
I1
tp250
Rp251
(I3
S'|'
p252
NNNI4
I1
I0
tp253
bS'long'
p254
tp255
Rp256
I10
I0
tp257
a(g256
I3
I0
tp258
a(g256
I27
I0
tp259
a(g256
I7
I0
tp260
a(g256
I18
I0
tp261
a(g256
I2
I0
tp262
a(g256
I20
I0
tp263
a(g256
I17
I0
tp264
a(g4
(g5
(S'S4'
p265
I0
I1
tp266
Rp267
(I3
S'|'
p268
NNNI4
I1
I0
tp269
bS'blue'
p270
tp271
Rp272
I18
I1
tp273
aa(lp274
a.