(lp0
(lp1
(dp2
S'action'
p3
cnumpy.core.multiarray
scalar
p4
(cnumpy
dtype
p5
(S'S4'
p6
I0
I1
tp7
Rp8
(I3
S'|'
p9
NNNI4
I1
I0
tp10
bS'walk'
p11
tp12
Rp13
sS'recipient'
p14
NsS'patient'
p15
NsS'goal'
p16
S'3406'
p17
sS'source'
p18
Nsa(dp19
g3
g4
(g5
(S'S5'
p20
I0
I1
tp21
Rp22
(I3
S'|'
p23
NNNI5
I1
I0
tp24
bS'bring'
p25
tp26
Rp27
sg14
g4
(g5
(S'S1'
p28
I0
I1
tp29
Rp30
(I3
S'|'
p31
NNNI1
I1
I0
tp32
bS'b'
p33
tp34
Rp35
sg15
g4
(g5
(S'S7'
p36
I0
I1
tp37
Rp38
(I3
S'|'
p39
NNNI7
I1
I0
tp40
bS'oidx_22'
p41
tp42
Rp43
sg16
Nsg18
Nsa(dp44
g3
g4
(g5
(S'S4'
p45
I0
I1
tp46
Rp47
(I3
S'|'
p48
NNNI4
I1
I0
tp49
bS'move'
p50
tp51
Rp52
sg14
Nsg15
g4
(g5
(S'S7'
p53
I0
I1
tp54
Rp55
(I3
S'|'
p56
NNNI7
I1
I0
tp57
bS'oidx_28'
p58
tp59
Rp60
sg16
g4
(g5
(S'S4'
p61
I0
I1
tp62
Rp63
(I3
S'|'
p64
NNNI4
I1
I0
tp65
bS'3422'
p66
tp67
Rp68
sg18
g4
(g5
(S'S4'
p69
I0
I1
tp70
Rp71
(I3
S'|'
p72
NNNI4
I1
I0
tp73
bS'3520'
p74
tp75
Rp76
saa(lp77
(dp78
S'all'
p79
(lp80
S'go to the lounge'
p81
asg15
(lp82
sg16
(lp83
S'lounge'
p84
asg18
(lp85
sg3
(lp86
sg14
(lp87
sa(dp88
g79
(lp89
S'bring the clear container with red top to bob'
p90
asg15
(lp91
S'the container with red top'
p92
aS'the container with red top'
p93
asg16
(lp94
sg18
(lp95
sg3
(lp96
sg14
(lp97
sa(dp98
g79
(lp99
S'deliver the white styrofoam from the kitchen to walter ward'
p100
asg15
(lp101
S'white srofoam'
p102
aS'white styrofoam'
p103
aS'white styrofoam'
p104
aS'white styrofoam'
p105
aS'styrofoam'
p106
aS'styrofoam'
p107
aS'styrofoam'
p108
aS'styrofoam'
p109
asg16
(lp110
S'walter'
p111
aS"walter 's office"
p112
asg18
(lp113
S'from the kitchen to walter'
p114
aS'kitchen'
p115
asg3
(lp116
sg14
(lp117
saa(lp118
(g4
(g5
(S'S5'
p119
I0
I1
tp120
Rp121
(I3
S'|'
p122
NNNI5
I1
I0
tp123
bS'tower'
p124
tp125
Rp126
I10
I0
tp127
a(g126
I3
I0
tp128
a(g126
I27
I0
tp129
a(g126
I7
I0
tp130
a(g126
I18
I0
tp131
a(g126
I2
I0
tp132
a(g126
I20
I0
tp133
a(g126
I17
I0
tp134
a(g4
(g5
(S'S5'
p135
I0
I1
tp136
Rp137
(I3
S'|'
p138
NNNI5
I1
I0
tp139
bS'clear'
p140
tp141
Rp142
I10
I0
tp143
a(g142
I3
I0
tp144
a(g142
I27
I0
tp145
a(g142
I7
I0
tp146
a(g142
I18
I0
tp147
a(g142
I2
I0
tp148
a(g142
I20
I0
tp149
a(g142
I17
I0
tp150
a(g4
(g5
(S'S6'
p151
I0
I1
tp152
Rp153
(I3
S'|'
p154
NNNI6
I1
I0
tp155
bS'coffee'
p156
tp157
Rp158
I10
I0
tp159
a(g158
I3
I0
tp160
a(g158
I27
I0
tp161
a(g158
I7
I0
tp162
a(g158
I18
I0
tp163
a(g158
I2
I0
tp164
a(g158
I20
I0
tp165
a(g158
I17
I0
tp166
a(g4
(g5
(S'S8'
p167
I0
I1
tp168
Rp169
(I3
S'|'
p170
NNNI8
I1
I0
tp171
bS'cylinder'
p172
tp173
Rp174
I20
I1
tp175
a(g4
(g5
(S'S5'
p176
I0
I1
tp177
Rp178
(I3
S'|'
p179
NNNI5
I1
I0
tp180
bS'peach'
p181
tp182
Rp183
I2
I1
tp184
a(g4
(g5
(S'S9'
p185
I0
I1
tp186
Rp187
(I3
S'|'
p188
NNNI9
I1
I0
tp189
bS'container'
p190
tp191
Rp192
I2
I1
tp193
a(g4
(g5
(S'S3'
p194
I0
I1
tp195
Rp196
(I3
S'|'
p197
NNNI3
I1
I0
tp198
bS'red'
p199
tp200
Rp201
I7
I1
tp202
a(g4
(g5
(S'S9'
p203
I0
I1
tp204
Rp205
(I3
S'|'
p206
NNNI9
I1
I0
tp207
bS'container'
p208
tp209
Rp210
I27
I0
tp211
a(g4
(g5
(S'S3'
p212
I0
I1
tp213
Rp214
(I3
S'|'
p215
NNNI3
I1
I0
tp216
bS'red'
p217
tp218
Rp219
I17
I0
tp220
a(g4
(g5
(S'S3'
p221
I0
I1
tp222
Rp223
(I3
S'|'
p224
NNNI3
I1
I0
tp225
bS'red'
p226
tp227
Rp228
I7
I1
tp229
a(g4
(g5
(S'S6'
p230
I0
I1
tp231
Rp232
(I3
S'|'
p233
NNNI6
I1
I0
tp234
bS'yellow'
p235
tp236
Rp237
I10
I0
tp238
a(g237
I3
I0
tp239
a(g237
I27
I0
tp240
a(g237
I7
I0
tp241
a(g237
I18
I0
tp242
a(g237
I2
I0
tp243
a(g237
I20
I0
tp244
a(g237
I17
I0
tp245
a(g4
(g5
(S'S5'
p246
I0
I1
tp247
Rp248
(I3
S'|'
p249
NNNI5
I1
I0
tp250
bS'white'
p251
tp252
Rp253
I10
I0
tp254
a(g253
I3
I0
tp255
a(g253
I27
I0
tp256
a(g253
I7
I0
tp257
a(g253
I18
I0
tp258
a(g253
I2
I0
tp259
a(g253
I20
I0
tp260
a(g253
I17
I0
tp261
a(g4
(g5
(S'S9'
p262
I0
I1
tp263
Rp264
(I3
S'|'
p265
NNNI9
I1
I0
tp266
bS'container'
p267
tp268
Rp269
I2
I1
tp270
a(g4
(g5
(S'S3'
p271
I0
I1
tp272
Rp273
(I3
S'|'
p274
NNNI3
I1
I0
tp275
bS'can'
p276
tp277
Rp278
I2
I1
tp279
a(g4
(g5
(S'S9'
p280
I0
I1
tp281
Rp282
(I3
S'|'
p283
NNNI9
I1
I0
tp284
bS'styrofoam'
p285
tp286
Rp287
I10
I0
tp288
a(g287
I3
I0
tp289
a(g287
I27
I0
tp290
a(g287
I7
I0
tp291
a(g287
I18
I0
tp292
a(g287
I2
I0
tp293
a(g287
I20
I0
tp294
a(g287
I17
I0
tp295
aa(lp296
(S'red'
p297
S'white'
p298
I00
tp299
a(g297
S'yellow'
p300
I00
tp301
a(g297
S'blue'
p302
I00
tp303
aa.