(lp0
(lp1
(dp2
S'action'
p3
cnumpy.core.multiarray
scalar
p4
(cnumpy
dtype
p5
(S'S4'
p6
I0
I1
tp7
Rp8
(I3
S'|'
p9
NNNI4
I1
I0
tp10
bS'walk'
p11
tp12
Rp13
sS'recipient'
p14
NsS'patient'
p15
NsS'goal'
p16
g4
(g5
(S'S4'
p17
I0
I1
tp18
Rp19
(I3
S'|'
p20
NNNI4
I1
I0
tp21
bS'3516'
p22
tp23
Rp24
sS'source'
p25
Nsa(dp26
g3
g4
(g5
(S'S5'
p27
I0
I1
tp28
Rp29
(I3
S'|'
p30
NNNI5
I1
I0
tp31
bS'bring'
p32
tp33
Rp34
sg14
g4
(g5
(S'S1'
p35
I0
I1
tp36
Rp37
(I3
S'|'
p38
NNNI1
I1
I0
tp39
bS'n'
p40
tp41
Rp42
sg15
S'oidx_13'
p43
sg16
Nsg25
Nsa(dp44
g3
g4
(g5
(S'S4'
p45
I0
I1
tp46
Rp47
(I3
S'|'
p48
NNNI4
I1
I0
tp49
bS'move'
p50
tp51
Rp52
sg14
Nsg15
S'oidx_25'
p53
sg16
g4
(g5
(S'S4'
p54
I0
I1
tp55
Rp56
(I3
S'|'
p57
NNNI4
I1
I0
tp58
bS'3420'
p59
tp60
Rp61
sg25
g4
(g5
(S'S4'
p62
I0
I1
tp63
Rp64
(I3
S'|'
p65
NNNI4
I1
I0
tp66
bS'3404'
p67
tp68
Rp69
saa(lp70
(dp71
S'all'
p72
(lp73
S'go to the north conference room'
p74
asg15
(lp75
sg16
(lp76
S'go to the south conference room'
p77
asg25
(lp78
sg3
(lp79
sg14
(lp80
sa(dp81
g72
(lp82
S'give the blue cylinder to nancy'
p83
asg15
(lp84
S'blue can'
p85
aS'blue cylinder'
p86
aS'blue canister'
p87
aS'blue container'
p88
aS'blue container'
p89
aS'chip container'
p90
aS'blue cylinder'
p91
aS'blue cylinder'
p92
aS'blue container'
p93
aS'chip container'
p94
aS'blue can'
p95
aS'tall can'
p96
aS'long container'
p97
aS'food container'
p98
aS'blue chip cylinder'
p99
aS'snack cylinder'
p100
asg16
(lp101
sg25
(lp102
sg3
(lp103
sg14
(lp104
sa(dp105
g72
(lp106
S'take the spices from nancy to david'
p107
asg15
(lp108
S'spice can'
p109
aS'cylinder of spices'
p110
aS'small container'
p111
aS'short container'
p112
aS'container of spices'
p113
aS'silver cylinder'
p114
asg16
(lp115
S'david'
p116
aS'the office of david'
p117
asg25
(lp118
S'nancy'
p119
aS'the office of nancy'
p120
asg3
(lp121
sg14
(lp122
saa(lp123
(g4
(g5
(S'S3'
p124
I0
I1
tp125
Rp126
(I3
S'|'
p127
NNNI3
I1
I0
tp128
bS'can'
p129
tp130
Rp131
I2
I1
tp132
a(g4
(g5
(S'S9'
p133
I0
I1
tp134
Rp135
(I3
S'|'
p136
NNNI9
I1
I0
tp137
bS'styrofoam'
p138
tp139
Rp140
I20
I1
tp141
a(g4
(g5
(S'S8'
p142
I0
I1
tp143
Rp144
(I3
S'|'
p145
NNNI8
I1
I0
tp146
bS'metallic'
p147
tp148
Rp149
I10
I0
tp150
a(g149
I3
I0
tp151
a(g149
I27
I0
tp152
a(g149
I7
I0
tp153
a(g149
I18
I0
tp154
a(g149
I2
I0
tp155
a(g149
I20
I0
tp156
a(g149
I17
I0
tp157
a(g4
(g5
(S'S5'
p158
I0
I1
tp159
Rp160
(I3
S'|'
p161
NNNI5
I1
I0
tp162
bS'tower'
p163
tp164
Rp165
I10
I0
tp166
a(g165
I3
I0
tp167
a(g165
I27
I0
tp168
a(g165
I7
I0
tp169
a(g165
I18
I0
tp170
a(g165
I2
I0
tp171
a(g165
I20
I0
tp172
a(g165
I17
I0
tp173
a(g4
(g5
(S'S4'
p174
I0
I1
tp175
Rp176
(I3
S'|'
p177
NNNI4
I1
I0
tp178
bS'long'
p179
tp180
Rp181
I3
I1
tp182
a(g4
(g5
(S'S8'
p183
I0
I1
tp184
Rp185
(I3
S'|'
p186
NNNI8
I1
I0
tp187
bS'cylinder'
p188
tp189
Rp190
I20
I1
tp191
a(g4
(g5
(S'S8'
p192
I0
I1
tp193
Rp194
(I3
S'|'
p195
NNNI8
I1
I0
tp196
bS'cylinder'
p197
tp198
Rp199
I27
I0
tp200
a(g4
(g5
(S'S8'
p201
I0
I1
tp202
Rp203
(I3
S'|'
p204
NNNI8
I1
I0
tp205
bS'cylinder'
p206
tp207
Rp208
I18
I1
tp209
a(g4
(g5
(S'S8'
p210
I0
I1
tp211
Rp212
(I3
S'|'
p213
NNNI8
I1
I0
tp214
bS'cylinder'
p215
tp216
Rp217
I17
I1
tp218
a(g4
(g5
(S'S8'
p219
I0
I1
tp220
Rp221
(I3
S'|'
p222
NNNI8
I1
I0
tp223
bS'cylinder'
p224
tp225
Rp226
I3
I1
tp227
a(g4
(g5
(S'S9'
p228
I0
I1
tp229
Rp230
(I3
S'|'
p231
NNNI9
I1
I0
tp232
bS'rectangle'
p233
tp234
Rp235
I10
I0
tp236
a(g235
I3
I0
tp237
a(g235
I27
I0
tp238
a(g235
I7
I0
tp239
a(g235
I18
I0
tp240
a(g235
I2
I0
tp241
a(g235
I20
I0
tp242
a(g235
I17
I0
tp243
a(g4
(g5
(S'S6'
p244
I0
I1
tp245
Rp246
(I3
S'|'
p247
NNNI6
I1
I0
tp248
bS'yellow'
p249
tp250
Rp251
I10
I0
tp252
a(g251
I3
I0
tp253
a(g251
I27
I0
tp254
a(g251
I7
I0
tp255
a(g251
I18
I0
tp256
a(g251
I2
I0
tp257
a(g251
I20
I0
tp258
a(g251
I17
I0
tp259
a(g4
(g5
(S'S5'
p260
I0
I1
tp261
Rp262
(I3
S'|'
p263
NNNI5
I1
I0
tp264
bS'clear'
p265
tp266
Rp267
I10
I0
tp268
a(g267
I3
I0
tp269
a(g267
I27
I0
tp270
a(g267
I7
I0
tp271
a(g267
I18
I0
tp272
a(g267
I2
I0
tp273
a(g267
I20
I0
tp274
a(g267
I17
I0
tp275
a(g4
(g5
(S'S4'
p276
I0
I1
tp277
Rp278
(I3
S'|'
p279
NNNI4
I1
I0
tp280
bS'blue'
p281
tp282
Rp283
I18
I1
tp284
a(g4
(g5
(S'S4'
p285
I0
I1
tp286
Rp287
(I3
S'|'
p288
NNNI4
I1
I0
tp289
bS'long'
p290
tp291
Rp292
I27
I0
tp293
aa(lp294
(S'canister'
p295
S'container'
p296
I01
tp297
a(S'tall'
p298
S'tower'
p299
I00
tp300
a(g298
S'white'
p301
I00
tp302
a(g298
S'long'
p303
I01
tp304
a(S'food'
p305
S'coffee'
p306
I00
tp307
a(g305
S'spices'
p308
I00
tp309
a(S'snack'
p310
S'bean'
p311
I00
tp312
a(g310
g306
I00
tp313
a(g310
g295
I00
tp314
a(S'small'
p315
g301
I00
tp316
a(S'short'
p317
g303
I00
tp318
a(S'silver'
p319
g301
I00
tp320
a(g319
S'blue'
p321
I00
tp322
a(g319
S'metallic'
p323
I01
tp324
aa.