(lp0
(lp1
(dp2
S'action'
p3
cnumpy.core.multiarray
scalar
p4
(cnumpy
dtype
p5
(S'S4'
p6
I0
I1
tp7
Rp8
(I3
S'|'
p9
NNNI4
I1
I0
tp10
bS'walk'
p11
tp12
Rp13
sS'recipient'
p14
NsS'patient'
p15
NsS'goal'
p16
g4
(g5
(S'S4'
p17
I0
I1
tp18
Rp19
(I3
S'|'
p20
NNNI4
I1
I0
tp21
bS'3420'
p22
tp23
Rp24
sS'source'
p25
Nsaa(lp26
(dp27
S'all'
p28
(lp29
S'go to office'
p30
asg15
(lp31
sg16
(lp32
S'office'
p33
aS'office d'
p34
aS'd'
p35
aS"dave 's office"
p36
aS"go to dave 's office d"
p37
aS"david dave daniel 's office"
p38
asg25
(lp39
sg3
(lp40
sg14
(lp41
saa(lp42
(g4
(g5
(S'S9'
p43
I0
I1
tp44
Rp45
(I3
S'|'
p46
NNNI9
I1
I0
tp47
bS'styrofoam'
p48
tp49
Rp50
I20
I1
tp51
a(g4
(g5
(S'S8'
p52
I0
I1
tp53
Rp54
(I3
S'|'
p55
NNNI8
I1
I0
tp56
bS'cylinder'
p57
tp58
Rp59
I20
I1
tp60
a(g4
(g5
(S'S5'
p61
I0
I1
tp62
Rp63
(I3
S'|'
p64
NNNI5
I1
I0
tp65
bS'empty'
p66
tp67
Rp68
I10
I0
tp69
a(g68
I3
I0
tp70
a(g68
I27
I0
tp71
a(g68
I7
I0
tp72
a(g68
I18
I0
tp73
a(g68
I2
I0
tp74
a(g68
I20
I0
tp75
a(g68
I17
I0
tp76
a(g4
(g5
(S'S4'
p77
I0
I1
tp78
Rp79
(I3
S'|'
p80
NNNI4
I1
I0
tp81
bS'long'
p82
tp83
Rp84
I10
I0
tp85
a(g84
I3
I0
tp86
a(g84
I27
I0
tp87
a(g84
I7
I0
tp88
a(g84
I18
I0
tp89
a(g84
I2
I0
tp90
a(g84
I20
I0
tp91
a(g84
I17
I0
tp92
a(g4
(g5
(S'S4'
p93
I0
I1
tp94
Rp95
(I3
S'|'
p96
NNNI4
I1
I0
tp97
bS'blue'
p98
tp99
Rp100
I18
I1
tp101
aa(lp102
a.