(lp0
(lp1
(dp2
S'action'
p3
cnumpy.core.multiarray
scalar
p4
(cnumpy
dtype
p5
(S'S4'
p6
I0
I1
tp7
Rp8
(I3
S'|'
p9
NNNI4
I1
I0
tp10
bS'walk'
p11
tp12
Rp13
sS'recipient'
p14
NsS'patient'
p15
NsS'goal'
p16
S'3518'
p17
sS'source'
p18
Nsa(dp19
g3
g4
(g5
(S'S5'
p20
I0
I1
tp21
Rp22
(I3
S'|'
p23
NNNI5
I1
I0
tp24
bS'bring'
p25
tp26
Rp27
sg14
g4
(g5
(S'S1'
p28
I0
I1
tp29
Rp30
(I3
S'|'
p31
NNNI1
I1
I0
tp32
bS'n'
p33
tp34
Rp35
sg15
g4
(g5
(S'S7'
p36
I0
I1
tp37
Rp38
(I3
S'|'
p39
NNNI7
I1
I0
tp40
bS'oidx_26'
p41
tp42
Rp43
sg16
Nsg18
Nsaa(lp44
(dp45
S'all'
p46
(lp47
S'go to pod next to conference'
p48
asg15
(lp49
sg16
(lp50
S'pod next to conference'
p51
aS'go to pod'
p52
aS'pod'
p53
aS'pod'
p54
aS'go to pod'
p55
asg18
(lp56
sg3
(lp57
sg14
(lp58
sa(dp59
g46
(lp60
S'take can to nancy'
p61
asg15
(lp62
S'soda can'
p63
aS'a can'
p64
aS'can'
p65
aS'a drink'
p66
aS'soda can'
p67
aS'soda can'
p68
aS'soda can'
p69
aS'a pop can'
p70
aS'a can of soda'
p71
asg16
(lp72
sg18
(lp73
sg3
(lp74
sg14
(lp75
saa(lp76
(g4
(g5
(S'S8'
p77
I0
I1
tp78
Rp79
(I3
S'|'
p80
NNNI8
I1
I0
tp81
bS'pringles'
p82
tp83
Rp84
I10
I0
tp85
a(g84
I3
I0
tp86
a(g84
I27
I0
tp87
a(g84
I7
I0
tp88
a(g84
I18
I0
tp89
a(g84
I2
I0
tp90
a(g84
I20
I0
tp91
a(g84
I17
I0
tp92
a(g4
(g5
(S'S4'
p93
I0
I1
tp94
Rp95
(I3
S'|'
p96
NNNI4
I1
I0
tp97
bS'long'
p98
tp99
Rp100
I10
I0
tp101
a(g100
I3
I0
tp102
a(g100
I27
I0
tp103
a(g100
I7
I0
tp104
a(g100
I18
I0
tp105
a(g100
I2
I0
tp106
a(g100
I20
I0
tp107
a(g100
I17
I0
tp108
a(g4
(g5
(S'S5'
p109
I0
I1
tp110
Rp111
(I3
S'|'
p112
NNNI5
I1
I0
tp113
bS'empty'
p114
tp115
Rp116
I3
I1
tp117
a(g4
(g5
(S'S4'
p118
I0
I1
tp119
Rp120
(I3
S'|'
p121
NNNI4
I1
I0
tp122
bS'bean'
p123
tp124
Rp125
I2
I1
tp126
a(g4
(g5
(S'S3'
p127
I0
I1
tp128
Rp129
(I3
S'|'
p130
NNNI3
I1
I0
tp131
bS'can'
p132
tp133
Rp134
I2
I1
tp135
a(g4
(g5
(S'S5'
p136
I0
I1
tp137
Rp138
(I3
S'|'
p139
NNNI5
I1
I0
tp140
bS'clear'
p141
tp142
Rp143
I10
I0
tp144
a(g143
I3
I0
tp145
a(g143
I27
I0
tp146
a(g143
I7
I0
tp147
a(g143
I18
I0
tp148
a(g143
I2
I0
tp149
a(g143
I20
I0
tp150
a(g143
I17
I0
tp151
a(g4
(g5
(S'S6'
p152
I0
I1
tp153
Rp154
(I3
S'|'
p155
NNNI6
I1
I0
tp156
bS'yellow'
p157
tp158
Rp159
I10
I0
tp160
a(g159
I3
I0
tp161
a(g159
I27
I0
tp162
a(g159
I7
I0
tp163
a(g159
I18
I0
tp164
a(g159
I2
I0
tp165
a(g159
I20
I0
tp166
a(g159
I17
I0
tp167
a(g4
(g5
(S'S9'
p168
I0
I1
tp169
Rp170
(I3
S'|'
p171
NNNI9
I1
I0
tp172
bS'container'
p173
tp174
Rp175
I7
I1
tp176
a(g4
(g5
(S'S8'
p177
I0
I1
tp178
Rp179
(I3
S'|'
p180
NNNI8
I1
I0
tp181
bS'cylinder'
p182
tp183
Rp184
I3
I1
tp185
a(g4
(g5
(S'S9'
p186
I0
I1
tp187
Rp188
(I3
S'|'
p189
NNNI9
I1
I0
tp190
bS'container'
p191
tp192
Rp193
I27
I0
tp194
aa(lp195
a.