(lp0
(lp1
(dp2
S'action'
p3
cnumpy.core.multiarray
scalar
p4
(cnumpy
dtype
p5
(S'S4'
p6
I0
I1
tp7
Rp8
(I3
S'|'
p9
NNNI4
I1
I0
tp10
bS'walk'
p11
tp12
Rp13
sS'recipient'
p14
NsS'patient'
p15
NsS'goal'
p16
S'3508'
p17
sS'source'
p18
Nsa(dp19
g3
g4
(g5
(S'S5'
p20
I0
I1
tp21
Rp22
(I3
S'|'
p23
NNNI5
I1
I0
tp24
bS'bring'
p25
tp26
Rp27
sg14
g4
(g5
(S'S1'
p28
I0
I1
tp29
Rp30
(I3
S'|'
p31
NNNI1
I1
I0
tp32
bS'b'
p33
tp34
Rp35
sg15
g4
(g5
(S'S7'
p36
I0
I1
tp37
Rp38
(I3
S'|'
p39
NNNI7
I1
I0
tp40
bS'oidx_22'
p41
tp42
Rp43
sg16
Nsg18
Nsa(dp44
g3
g4
(g5
(S'S4'
p45
I0
I1
tp46
Rp47
(I3
S'|'
p48
NNNI4
I1
I0
tp49
bS'walk'
p50
tp51
Rp52
sg14
Nsg15
Nsg16
S'3416'
p53
sg18
Nsaa(lp54
(dp55
S'all'
p56
(lp57
S'find dr sybil smalt in the office'
p58
asg15
(lp59
sg16
(lp60
S'the office'
p61
aS'the office'
p62
aS'the 6th office'
p63
aS'go to dr sybil smalt'
p64
aS'office'
p65
aS'printer'
p66
asg18
(lp67
sg3
(lp68
sg14
(lp69
sa(dp70
g56
(lp71
S'give robert bob brown the object'
p72
asg15
(lp73
S'a container'
p74
asg16
(lp75
sg18
(lp76
sg3
(lp77
sg14
(lp78
sa(dp79
g56
(lp80
S'deliver object from conference to printer'
p81
asg15
(lp82
sg16
(lp83
S'conference'
p84
aS'conference'
p85
aS'go to the conference'
p86
aS'printwe'
p87
asg18
(lp88
sg3
(lp89
sg14
(lp90
saa(lp91
(g4
(g5
(S'S5'
p92
I0
I1
tp93
Rp94
(I3
S'|'
p95
NNNI5
I1
I0
tp96
bS'peach'
p97
tp98
Rp99
I10
I0
tp100
a(g99
I3
I0
tp101
a(g99
I27
I0
tp102
a(g99
I7
I0
tp103
a(g99
I18
I0
tp104
a(g99
I2
I0
tp105
a(g99
I20
I0
tp106
a(g99
I17
I0
tp107
a(g4
(g5
(S'S8'
p108
I0
I1
tp109
Rp110
(I3
S'|'
p111
NNNI8
I1
I0
tp112
bS'cylinder'
p113
tp114
Rp115
I3
I1
tp116
a(g4
(g5
(S'S4'
p117
I0
I1
tp118
Rp119
(I3
S'|'
p120
NNNI4
I1
I0
tp121
bS'long'
p122
tp123
Rp124
I3
I1
tp125
a(g4
(g5
(S'S4'
p126
I0
I1
tp127
Rp128
(I3
S'|'
p129
NNNI4
I1
I0
tp130
bS'blue'
p131
tp132
Rp133
I18
I1
tp134
a(g4
(g5
(S'S8'
p135
I0
I1
tp136
Rp137
(I3
S'|'
p138
NNNI8
I1
I0
tp139
bS'metallic'
p140
tp141
Rp142
I10
I0
tp143
a(g142
I3
I0
tp144
a(g142
I27
I0
tp145
a(g142
I7
I0
tp146
a(g142
I18
I0
tp147
a(g142
I2
I0
tp148
a(g142
I20
I0
tp149
a(g142
I17
I0
tp150
a(g4
(g5
(S'S9'
p151
I0
I1
tp152
Rp153
(I3
S'|'
p154
NNNI9
I1
I0
tp155
bS'container'
p156
tp157
Rp158
I10
I1
tp159
a(g4
(g5
(S'S9'
p160
I0
I1
tp161
Rp162
(I3
S'|'
p163
NNNI9
I1
I0
tp164
bS'container'
p165
tp166
Rp167
I3
I0
tp168
a(g4
(g5
(S'S9'
p169
I0
I1
tp170
Rp171
(I3
S'|'
p172
NNNI9
I1
I0
tp173
bS'container'
p174
tp175
Rp176
I18
I1
tp177
a(g4
(g5
(S'S9'
p178
I0
I1
tp179
Rp180
(I3
S'|'
p181
NNNI9
I1
I0
tp182
bS'container'
p183
tp184
Rp185
I27
I0
tp186
a(g4
(g5
(S'S5'
p187
I0
I1
tp188
Rp189
(I3
S'|'
p190
NNNI5
I1
I0
tp191
bS'spice'
p192
tp193
Rp194
I10
I0
tp195
a(g194
I3
I0
tp196
a(g194
I27
I0
tp197
a(g194
I7
I0
tp198
a(g194
I18
I0
tp199
a(g194
I2
I0
tp200
a(g194
I20
I0
tp201
a(g194
I17
I0
tp202
a(g4
(g5
(S'S9'
p203
I0
I1
tp204
Rp205
(I3
S'|'
p206
NNNI9
I1
I0
tp207
bS'container'
p208
tp209
Rp210
I2
I1
tp211
a(g4
(g5
(S'S5'
p212
I0
I1
tp213
Rp214
(I3
S'|'
p215
NNNI5
I1
I0
tp216
bS'white'
p217
tp218
Rp219
I10
I0
tp220
a(g219
I3
I0
tp221
a(g219
I27
I0
tp222
a(g219
I7
I0
tp223
a(g219
I18
I0
tp224
a(g219
I2
I0
tp225
a(g219
I20
I0
tp226
a(g219
I17
I0
tp227
a(g4
(g5
(S'S9'
p228
I0
I1
tp229
Rp230
(I3
S'|'
p231
NNNI9
I1
I0
tp232
bS'container'
p233
tp234
Rp235
I20
I0
tp236
a(g4
(g5
(S'S3'
p237
I0
I1
tp238
Rp239
(I3
S'|'
p240
NNNI3
I1
I0
tp241
bS'can'
p242
tp243
Rp244
I2
I1
tp245
a(g4
(g5
(S'S5'
p246
I0
I1
tp247
Rp248
(I3
S'|'
p249
NNNI5
I1
I0
tp250
bS'tower'
p251
tp252
Rp253
I7
I1
tp254
aa(lp255
(S'brown'
p256
S'white'
p257
I00
tp258
a(g256
S'yellow'
p259
I00
tp260
a(g256
S'blue'
p261
I00
tp262
a(S'object'
p263
S'container'
p264
I01
tp265
aa.