(lp0
(lp1
(dp2
S'action'
p3
cnumpy.core.multiarray
scalar
p4
(cnumpy
dtype
p5
(S'S4'
p6
I0
I1
tp7
Rp8
(I3
S'|'
p9
NNNI4
I1
I0
tp10
bS'walk'
p11
tp12
Rp13
sS'recipient'
p14
NsS'patient'
p15
NsS'goal'
p16
S'3414b'
p17
sS'source'
p18
Nsa(dp19
g3
g4
(g5
(S'S5'
p20
I0
I1
tp21
Rp22
(I3
S'|'
p23
NNNI5
I1
I0
tp24
bS'bring'
p25
tp26
Rp27
sg14
S's'
p28
sg15
S'oidx_13'
p29
sg16
Nsg18
Nsa(dp30
g3
g4
(g5
(S'S4'
p31
I0
I1
tp32
Rp33
(I3
S'|'
p34
NNNI4
I1
I0
tp35
bS'walk'
p36
tp37
Rp38
sg14
Nsg15
Nsg16
g4
(g5
(S'S4'
p39
I0
I1
tp40
Rp41
(I3
S'|'
p42
NNNI4
I1
I0
tp43
bS'3516'
p44
tp45
Rp46
sg18
Nsaa(lp47
(dp48
S'all'
p49
(lp50
S'go straight'
p51
asg15
(lp52
sg16
(lp53
S'office'
p54
aS'yes'
p55
aS'yes go lab'
p56
aS'yes,you go to lab'
p57
asg18
(lp58
sg3
(lp59
sg14
(lp60
sa(dp61
g49
(lp62
S'yes'
p63
asg15
(lp64
S'm'
p65
aS'yes'
p66
asg16
(lp67
sg18
(lp68
sg3
(lp69
sg14
(lp70
sa(dp71
g49
(lp72
S'pod'
p73
asg15
(lp74
sg16
(lp75
S'office'
p76
aS'go to office'
p77
aS'yes'
p78
aS'you are in lab than go to kitchen'
p79
aS'yes'
p80
aS'conference'
p81
aS'go to conference hall'
p82
asg18
(lp83
sg3
(lp84
sg14
(lp85
saa(lp86
(g4
(g5
(S'S4'
p87
I0
I1
tp88
Rp89
(I3
S'|'
p90
NNNI4
I1
I0
tp91
bS'long'
p92
tp93
Rp94
I10
I1
tp95
a(g4
(g5
(S'S5'
p96
I0
I1
tp97
Rp98
(I3
S'|'
p99
NNNI5
I1
I0
tp100
bS'peach'
p101
tp102
Rp103
I17
I1
tp104
a(g4
(g5
(S'S6'
p105
I0
I1
tp106
Rp107
(I3
S'|'
p108
NNNI6
I1
I0
tp109
bS'coffee'
p110
tp111
Rp112
I2
I1
tp113
a(g4
(g5
(S'S9'
p114
I0
I1
tp115
Rp116
(I3
S'|'
p117
NNNI9
I1
I0
tp118
bS'container'
p119
tp120
Rp121
I10
I0
tp122
a(g121
I3
I0
tp123
a(g121
I27
I0
tp124
a(g121
I7
I0
tp125
a(g121
I18
I0
tp126
a(g121
I2
I0
tp127
a(g121
I20
I0
tp128
a(g121
I17
I0
tp129
a(g4
(g5
(S'S5'
p130
I0
I1
tp131
Rp132
(I3
S'|'
p133
NNNI5
I1
I0
tp134
bS'block'
p135
tp136
Rp137
I10
I0
tp138
a(g137
I3
I0
tp139
a(g137
I27
I0
tp140
a(g137
I7
I0
tp141
a(g137
I18
I0
tp142
a(g137
I2
I0
tp143
a(g137
I20
I0
tp144
a(g137
I17
I0
tp145
a(g4
(g5
(S'S8'
p146
I0
I1
tp147
Rp148
(I3
S'|'
p149
NNNI8
I1
I0
tp150
bS'cylinder'
p151
tp152
Rp153
I3
I1
tp154
a(g4
(g5
(S'S5'
p155
I0
I1
tp156
Rp157
(I3
S'|'
p158
NNNI5
I1
I0
tp159
bS'clear'
p160
tp161
Rp162
I7
I1
tp163
a(g4
(g5
(S'S5'
p164
I0
I1
tp165
Rp166
(I3
S'|'
p167
NNNI5
I1
I0
tp168
bS'spice'
p169
tp170
Rp171
I3
I1
tp172
a(g4
(g5
(S'S3'
p173
I0
I1
tp174
Rp175
(I3
S'|'
p176
NNNI3
I1
I0
tp177
bS'can'
p178
tp179
Rp180
I7
I1
tp181
a(g4
(g5
(S'S9'
p182
I0
I1
tp183
Rp184
(I3
S'|'
p185
NNNI9
I1
I0
tp186
bS'rectangle'
p187
tp188
Rp189
I27
I1
tp190
a(g4
(g5
(S'S4'
p191
I0
I1
tp192
Rp193
(I3
S'|'
p194
NNNI4
I1
I0
tp195
bS'blue'
p196
tp197
Rp198
I18
I1
tp199
a(g4
(g5
(S'S6'
p200
I0
I1
tp201
Rp202
(I3
S'|'
p203
NNNI6
I1
I0
tp204
bS'coffee'
p205
tp206
Rp207
I3
I0
tp208
a(g4
(g5
(S'S5'
p209
I0
I1
tp210
Rp211
(I3
S'|'
p212
NNNI5
I1
I0
tp213
bS'peach'
p214
tp215
Rp216
I2
I0
tp217
a(g4
(g5
(S'S8'
p218
I0
I1
tp219
Rp220
(I3
S'|'
p221
NNNI8
I1
I0
tp222
bS'pringles'
p223
tp224
Rp225
I10
I0
tp226
a(g225
I3
I0
tp227
a(g225
I27
I0
tp228
a(g225
I7
I0
tp229
a(g225
I18
I0
tp230
a(g225
I2
I0
tp231
a(g225
I20
I0
tp232
a(g225
I17
I0
tp233
a(g4
(g5
(S'S3'
p234
I0
I1
tp235
Rp236
(I3
S'|'
p237
NNNI3
I1
I0
tp238
bS'can'
p239
tp240
Rp241
I10
I1
tp242
a(g241
I3
I1
tp243
a(g241
I27
I1
tp244
a(g241
I7
I1
tp245
a(g241
I18
I1
tp246
a(g241
I2
I1
tp247
a(g241
I20
I1
tp248
a(g241
I17
I1
tp249
aa(lp250
(g65
S'metallic'
p251
I01
tp252
a(S'you'
p253
S'can'
p254
I01
tp255
a(S'are'
p256
g254
I01
tp257
aa.