(lp0
(lp1
(dp2
S'action'
p3
cnumpy.core.multiarray
scalar
p4
(cnumpy
dtype
p5
(S'S4'
p6
I0
I1
tp7
Rp8
(I3
S'|'
p9
NNNI4
I1
I0
tp10
bS'walk'
p11
tp12
Rp13
sS'recipient'
p14
NsS'patient'
p15
NsS'goal'
p16
S'3504'
p17
sS'source'
p18
Nsa(dp19
g3
g4
(g5
(S'S5'
p20
I0
I1
tp21
Rp22
(I3
S'|'
p23
NNNI5
I1
I0
tp24
bS'bring'
p25
tp26
Rp27
sg14
g4
(g5
(S'S1'
p28
I0
I1
tp29
Rp30
(I3
S'|'
p31
NNNI1
I1
I0
tp32
bS'p'
p33
tp34
Rp35
sg15
g4
(g5
(S'S7'
p36
I0
I1
tp37
Rp38
(I3
S'|'
p39
NNNI7
I1
I0
tp40
bS'oidx_26'
p41
tp42
Rp43
sg16
Nsg18
Nsaa(lp44
(dp45
S'all'
p46
(lp47
S'go to the room in between m and p'
p48
asg15
(lp49
sg16
(lp50
S'go to the room in between the offices of mallory maroon and peggy parker'
p51
aS'go to the room adjacent from the printer'
p52
aS'go to the room adjacent from the printer on the left side'
p53
aS'go to the room adjacent from the printer on the left'
p54
aS'go to the pod room adjacent from the printer'
p55
asg18
(lp56
sg3
(lp57
sg14
(lp58
sa(dp59
g46
(lp60
S'give the can to peggy parker'
p61
asg15
(lp62
S'orange soda can'
p63
aS'soda can'
p64
aS'soda can'
p65
aS'empty soda can'
p66
aS'open soda can'
p67
aS'can'
p68
aS'soda can'
p69
aS'can on the desk'
p70
aS'the opened can on the desk'
p71
aS'the orange can'
p72
aS'soda'
p73
aS'soda'
p74
aS'soda'
p75
aS'the can'
p76
asg16
(lp77
sg18
(lp78
sg3
(lp79
sg14
(lp80
S'peggy parker'
p81
aS'peggy parker'
p82
asaa(lp83
(g4
(g5
(S'S3'
p84
I0
I1
tp85
Rp86
(I3
S'|'
p87
NNNI3
I1
I0
tp88
bS'can'
p89
tp90
Rp91
I10
I0
tp92
a(g91
I3
I0
tp93
a(g91
I27
I0
tp94
a(g91
I7
I0
tp95
a(g91
I18
I0
tp96
a(g91
I2
I0
tp97
a(g91
I20
I0
tp98
a(g91
I17
I0
tp99
a(g4
(g5
(S'S5'
p100
I0
I1
tp101
Rp102
(I3
S'|'
p103
NNNI5
I1
I0
tp104
bS'white'
p105
tp106
Rp107
I10
I0
tp108
a(g107
I3
I0
tp109
a(g107
I27
I0
tp110
a(g107
I7
I0
tp111
a(g107
I18
I0
tp112
a(g107
I2
I0
tp113
a(g107
I20
I0
tp114
a(g107
I17
I0
tp115
a(g4
(g5
(S'S5'
p116
I0
I1
tp117
Rp118
(I3
S'|'
p119
NNNI5
I1
I0
tp120
bS'block'
p121
tp122
Rp123
I10
I0
tp124
a(g123
I3
I0
tp125
a(g123
I27
I0
tp126
a(g123
I7
I0
tp127
a(g123
I18
I0
tp128
a(g123
I2
I0
tp129
a(g123
I20
I0
tp130
a(g123
I17
I0
tp131
a(g4
(g5
(S'S6'
p132
I0
I1
tp133
Rp134
(I3
S'|'
p135
NNNI6
I1
I0
tp136
bS'coffee'
p137
tp138
Rp139
I10
I0
tp140
a(g139
I3
I0
tp141
a(g139
I27
I0
tp142
a(g139
I7
I0
tp143
a(g139
I18
I0
tp144
a(g139
I2
I0
tp145
a(g139
I20
I0
tp146
a(g139
I17
I0
tp147
a(g4
(g5
(S'S9'
p148
I0
I1
tp149
Rp150
(I3
S'|'
p151
NNNI9
I1
I0
tp152
bS'container'
p153
tp154
Rp155
I2
I1
tp156
a(g4
(g5
(S'S8'
p157
I0
I1
tp158
Rp159
(I3
S'|'
p160
NNNI8
I1
I0
tp161
bS'pringles'
p162
tp163
Rp164
I10
I0
tp165
a(g164
I3
I0
tp166
a(g164
I27
I0
tp167
a(g164
I7
I0
tp168
a(g164
I18
I0
tp169
a(g164
I2
I0
tp170
a(g164
I20
I0
tp171
a(g164
I17
I0
tp172
a(g4
(g5
(S'S9'
p173
I0
I1
tp174
Rp175
(I3
S'|'
p176
NNNI9
I1
I0
tp177
bS'styrofoam'
p178
tp179
Rp180
I20
I1
tp181
a(g4
(g5
(S'S9'
p182
I0
I1
tp183
Rp184
(I3
S'|'
p185
NNNI9
I1
I0
tp186
bS'container'
p187
tp188
Rp189
I27
I0
tp190
a(g4
(g5
(S'S9'
p191
I0
I1
tp192
Rp193
(I3
S'|'
p194
NNNI9
I1
I0
tp195
bS'container'
p196
tp197
Rp198
I2
I1
tp199
a(g4
(g5
(S'S6'
p200
I0
I1
tp201
Rp202
(I3
S'|'
p203
NNNI6
I1
I0
tp204
bS'column'
p205
tp206
Rp207
I10
I0
tp208
a(g207
I3
I0
tp209
a(g207
I27
I0
tp210
a(g207
I7
I0
tp211
a(g207
I18
I0
tp212
a(g207
I2
I0
tp213
a(g207
I20
I0
tp214
a(g207
I17
I0
tp215
aa(lp216
(S'orange'
p217
S'white'
p218
I00
tp219
a(g217
S'yellow'
p220
I00
tp221
a(g217
S'blue'
p222
I00
tp223
aa.