(lp0
(lp1
(dp2
S'action'
p3
cnumpy.core.multiarray
scalar
p4
(cnumpy
dtype
p5
(S'S5'
p6
I0
I1
tp7
Rp8
(I3
S'|'
p9
NNNI5
I1
I0
tp10
bS'bring'
p11
tp12
Rp13
sS'recipient'
p14
S'n'
p15
sS'patient'
p16
g4
(g5
(S'S7'
p17
I0
I1
tp18
Rp19
(I3
S'|'
p20
NNNI7
I1
I0
tp21
bS'oidx_13'
p22
tp23
Rp24
sS'goal'
p25
NsS'source'
p26
Nsa(dp27
g3
g4
(g5
(S'S4'
p28
I0
I1
tp29
Rp30
(I3
S'|'
p31
NNNI4
I1
I0
tp32
bS'walk'
p33
tp34
Rp35
sg14
Nsg16
Nsg25
S'3520'
p36
sg26
Nsa(dp37
g3
g4
(g5
(S'S4'
p38
I0
I1
tp39
Rp40
(I3
S'|'
p41
NNNI4
I1
I0
tp42
bS'walk'
p43
tp44
Rp45
sg14
Nsg16
Nsg25
g4
(g5
(S'S4'
p46
I0
I1
tp47
Rp48
(I3
S'|'
p49
NNNI4
I1
I0
tp50
bS'3504'
p51
tp52
Rp53
sg26
Nsaa(lp54
(dp55
S'all'
p56
(lp57
S'go to the printer it is located between the pod and the lab'
p58
asg16
(lp59
S'deliver a piece of paper'
p60
aS'paper'
p61
aS'paper'
p62
aS'an orange'
p63
aS'paper'
p64
aS'pringles'
p65
aS'pringles'
p66
aS'pringles'
p67
aS'pringles'
p68
asg25
(lp69
sg26
(lp70
sg3
(lp71
sg14
(lp72
sa(dp73
g56
(lp74
S'bring the object to person m'
p75
asg16
(lp76
sg25
(lp77
S'kitchen'
p78
aS'go to the kitchen get the soda can and bring it to mallory mal maroon'
p79
aS'go to the kitchen'
p80
asg26
(lp81
sg3
(lp82
sg14
(lp83
sa(dp84
g56
(lp85
S'go to the pod'
p86
asg16
(lp87
sg25
(lp88
S'go to the pod'
p89
aS'go to the pod'
p90
aS'go to the pod between the two offices'
p91
asg26
(lp92
sg3
(lp93
sg14
(lp94
saa(lp95
(g4
(g5
(S'S5'
p96
I0
I1
tp97
Rp98
(I3
S'|'
p99
NNNI5
I1
I0
tp100
bS'piece'
p101
tp102
Rp103
I10
I0
tp104
a(g103
I3
I0
tp105
a(g103
I27
I0
tp106
a(g103
I7
I0
tp107
a(g103
I18
I0
tp108
a(g103
I2
I0
tp109
a(g103
I20
I0
tp110
a(g103
I17
I0
tp111
a(g4
(g5
(S'S5'
p112
I0
I1
tp113
Rp114
(I3
S'|'
p115
NNNI5
I1
I0
tp116
bS'white'
p117
tp118
Rp119
I10
I0
tp120
a(g119
I3
I0
tp121
a(g119
I27
I0
tp122
a(g119
I7
I0
tp123
a(g119
I18
I0
tp124
a(g119
I2
I0
tp125
a(g119
I20
I0
tp126
a(g119
I17
I0
tp127
a(g4
(g5
(S'S6'
p128
I0
I1
tp129
Rp130
(I3
S'|'
p131
NNNI6
I1
I0
tp132
bS'yellow'
p133
tp134
Rp135
I10
I0
tp136
a(g135
I3
I0
tp137
a(g135
I27
I0
tp138
a(g135
I7
I0
tp139
a(g135
I18
I0
tp140
a(g135
I2
I0
tp141
a(g135
I20
I0
tp142
a(g135
I17
I0
tp143
a(g4
(g5
(S'S4'
p144
I0
I1
tp145
Rp146
(I3
S'|'
p147
NNNI4
I1
I0
tp148
bS'bean'
p149
tp150
Rp151
I10
I0
tp152
a(g151
I3
I0
tp153
a(g151
I27
I0
tp154
a(g151
I7
I0
tp155
a(g151
I18
I0
tp156
a(g151
I2
I0
tp157
a(g151
I20
I0
tp158
a(g151
I17
I0
tp159
a(g4
(g5
(S'S8'
p160
I0
I1
tp161
Rp162
(I3
S'|'
p163
NNNI8
I1
I0
tp164
bS'metallic'
p165
tp166
Rp167
I10
I0
tp168
a(g167
I3
I0
tp169
a(g167
I27
I0
tp170
a(g167
I7
I0
tp171
a(g167
I18
I0
tp172
a(g167
I2
I0
tp173
a(g167
I20
I0
tp174
a(g167
I17
I0
tp175
a(g4
(g5
(S'S3'
p176
I0
I1
tp177
Rp178
(I3
S'|'
p179
NNNI3
I1
I0
tp180
bS'can'
p181
tp182
Rp183
I2
I1
tp184
a(g4
(g5
(S'S6'
p185
I0
I1
tp186
Rp187
(I3
S'|'
p188
NNNI6
I1
I0
tp189
bS'column'
p190
tp191
Rp192
I3
I1
tp193
a(g4
(g5
(S'S3'
p194
I0
I1
tp195
Rp196
(I3
S'|'
p197
NNNI3
I1
I0
tp198
bS'can'
p199
tp200
Rp201
I27
I0
tp202
a(g4
(g5
(S'S4'
p203
I0
I1
tp204
Rp205
(I3
S'|'
p206
NNNI4
I1
I0
tp207
bS'blue'
p208
tp209
Rp210
I18
I1
tp211
a(g4
(g5
(S'S5'
p212
I0
I1
tp213
Rp214
(I3
S'|'
p215
NNNI5
I1
I0
tp216
bS'tower'
p217
tp218
Rp219
I7
I1
tp220
a(g4
(g5
(S'S5'
p221
I0
I1
tp222
Rp223
(I3
S'|'
p224
NNNI5
I1
I0
tp225
bS'empty'
p226
tp227
Rp228
I10
I0
tp229
a(g228
I3
I0
tp230
a(g228
I27
I0
tp231
a(g228
I7
I0
tp232
a(g228
I18
I0
tp233
a(g228
I2
I0
tp234
a(g228
I20
I0
tp235
a(g228
I17
I0
tp236
a(g4
(g5
(S'S5'
p237
I0
I1
tp238
Rp239
(I3
S'|'
p240
NNNI5
I1
I0
tp241
bS'clear'
p242
tp243
Rp244
I10
I0
tp245
a(g244
I3
I0
tp246
a(g244
I27
I0
tp247
a(g244
I7
I0
tp248
a(g244
I18
I0
tp249
a(g244
I2
I0
tp250
a(g244
I20
I0
tp251
a(g244
I17
I0
tp252
a(g4
(g5
(S'S5'
p253
I0
I1
tp254
Rp255
(I3
S'|'
p256
NNNI5
I1
I0
tp257
bS'tower'
p258
tp259
Rp260
I27
I0
tp261
a(g4
(g5
(S'S9'
p262
I0
I1
tp263
Rp264
(I3
S'|'
p265
NNNI9
I1
I0
tp266
bS'styrofoam'
p267
tp268
Rp269
I20
I1
tp270
a(g4
(g5
(S'S3'
p271
I0
I1
tp272
Rp273
(I3
S'|'
p274
NNNI3
I1
I0
tp275
bS'can'
p276
tp277
Rp278
I2
I1
tp279
aa(lp280
(S'piece'
p281
S'tower'
p282
I00
tp283
a(g281
S'column'
p284
I00
tp285
a(g281
S'container'
p286
I00
tp287
a(S'orange'
p288
S'white'
p289
I00
tp290
a(g288
S'yellow'
p291
I00
tp292
a(g288
S'blue'
p293
I00
tp294
a(S'maroon'
p295
g289
I00
tp296
a(g295
S'refers'
p297
I00
tp298
a(g295
g293
I00
tp299
aa.