(lp0
(lp1
(dp2
S'action'
p3
cnumpy.core.multiarray
scalar
p4
(cnumpy
dtype
p5
(S'S4'
p6
I0
I1
tp7
Rp8
(I3
S'|'
p9
NNNI4
I1
I0
tp10
bS'walk'
p11
tp12
Rp13
sS'recipient'
p14
NsS'patient'
p15
NsS'goal'
p16
g4
(g5
(S'S4'
p17
I0
I1
tp18
Rp19
(I3
S'|'
p20
NNNI4
I1
I0
tp21
bS'3402'
p22
tp23
Rp24
sS'source'
p25
Nsa(dp26
g3
g4
(g5
(S'S5'
p27
I0
I1
tp28
Rp29
(I3
S'|'
p30
NNNI5
I1
I0
tp31
bS'bring'
p32
tp33
Rp34
sg14
S'm'
p35
sg15
S'oidx_11'
p36
sg16
Nsg25
Nsa(dp37
g3
g4
(g5
(S'S4'
p38
I0
I1
tp39
Rp40
(I3
S'|'
p41
NNNI4
I1
I0
tp42
bS'move'
p43
tp44
Rp45
sg14
Nsg15
S'oidx_28'
p46
sg16
g4
(g5
(S'S4'
p47
I0
I1
tp48
Rp49
(I3
S'|'
p50
NNNI4
I1
I0
tp51
bS'3436'
p52
tp53
Rp54
sg25
S'3512'
p55
saa(lp56
(dp57
S'all'
p58
(lp59
S"go to dr heidi hughes 's office"
p60
asg15
(lp61
sg16
(lp62
sg25
(lp63
sg3
(lp64
sg14
(lp65
sa(dp66
g58
(lp67
S'grab the bottle and give it to walter ward'
p68
asg15
(lp69
S'a white bottle'
p70
asg16
(lp71
sg25
(lp72
sg3
(lp73
sg14
(lp74
S'walter ward'
p75
asa(dp76
g58
(lp77
S'go to pink conference  take blue bottle and put it in green lab'
p78
asg15
(lp79
sg16
(lp80
S'to green lab'
p81
aS'to green lab'
p82
asg25
(lp83
S'to green lab'
p84
asg3
(lp85
sg14
(lp86
saa(lp87
(g4
(g5
(S'S5'
p88
I0
I1
tp89
Rp90
(I3
S'|'
p91
NNNI5
I1
I0
tp92
bS'white'
p93
tp94
Rp95
I10
I0
tp96
a(g95
I3
I0
tp97
a(g95
I27
I0
tp98
a(g95
I7
I0
tp99
a(g95
I18
I0
tp100
a(g95
I2
I0
tp101
a(g95
I20
I0
tp102
a(g95
I17
I0
tp103
a(g4
(g5
(S'S6'
p104
I0
I1
tp105
Rp106
(I3
S'|'
p107
NNNI6
I1
I0
tp108
bS'column'
p109
tp110
Rp111
I10
I0
tp112
a(g111
I3
I0
tp113
a(g111
I27
I0
tp114
a(g111
I7
I0
tp115
a(g111
I18
I0
tp116
a(g111
I2
I0
tp117
a(g111
I20
I0
tp118
a(g111
I17
I0
tp119
a(g4
(g5
(S'S5'
p120
I0
I1
tp121
Rp122
(I3
S'|'
p123
NNNI5
I1
I0
tp124
bS'block'
p125
tp126
Rp127
I10
I0
tp128
a(g127
I3
I0
tp129
a(g127
I27
I0
tp130
a(g127
I7
I0
tp131
a(g127
I18
I0
tp132
a(g127
I2
I0
tp133
a(g127
I20
I0
tp134
a(g127
I17
I0
tp135
a(g4
(g5
(S'S5'
p136
I0
I1
tp137
Rp138
(I3
S'|'
p139
NNNI5
I1
I0
tp140
bS'tower'
p141
tp142
Rp143
I10
I0
tp144
a(g143
I3
I0
tp145
a(g143
I27
I0
tp146
a(g143
I7
I0
tp147
a(g143
I18
I0
tp148
a(g143
I2
I0
tp149
a(g143
I20
I0
tp150
a(g143
I17
I0
tp151
a(g4
(g5
(S'S3'
p152
I0
I1
tp153
Rp154
(I3
S'|'
p155
NNNI3
I1
I0
tp156
bS'can'
p157
tp158
Rp159
I2
I1
tp160
a(g4
(g5
(S'S4'
p161
I0
I1
tp162
Rp163
(I3
S'|'
p164
NNNI4
I1
I0
tp165
bS'ward'
p166
tp167
Rp168
I10
I0
tp169
a(g168
I3
I0
tp170
a(g168
I27
I0
tp171
a(g168
I7
I0
tp172
a(g168
I18
I0
tp173
a(g168
I2
I0
tp174
a(g168
I20
I0
tp175
a(g168
I17
I0
tp176
a(g4
(g5
(S'S8'
p177
I0
I1
tp178
Rp179
(I3
S'|'
p180
NNNI8
I1
I0
tp181
bS'metallic'
p182
tp183
Rp184
I10
I0
tp185
a(g184
I3
I0
tp186
a(g184
I27
I0
tp187
a(g184
I7
I0
tp188
a(g184
I18
I0
tp189
a(g184
I2
I0
tp190
a(g184
I20
I0
tp191
a(g184
I17
I0
tp192
a(g4
(g5
(S'S4'
p193
I0
I1
tp194
Rp195
(I3
S'|'
p196
NNNI4
I1
I0
tp197
bS'blue'
p198
tp199
Rp200
I18
I1
tp201
a(g4
(g5
(S'S6'
p202
I0
I1
tp203
Rp204
(I3
S'|'
p205
NNNI6
I1
I0
tp206
bS'coffee'
p207
tp208
Rp209
I10
I0
tp210
a(g209
I3
I0
tp211
a(g209
I27
I0
tp212
a(g209
I7
I0
tp213
a(g209
I18
I0
tp214
a(g209
I2
I0
tp215
a(g209
I20
I0
tp216
a(g209
I17
I0
tp217
a(g4
(g5
(S'S4'
p218
I0
I1
tp219
Rp220
(I3
S'|'
p221
NNNI4
I1
I0
tp222
bS'blue'
p223
tp224
Rp225
I27
I0
tp226
a(g4
(g5
(S'S6'
p227
I0
I1
tp228
Rp229
(I3
S'|'
p230
NNNI6
I1
I0
tp231
bS'yellow'
p232
tp233
Rp234
I10
I0
tp235
a(g234
I3
I0
tp236
a(g234
I27
I0
tp237
a(g234
I7
I0
tp238
a(g234
I18
I0
tp239
a(g234
I2
I0
tp240
a(g234
I20
I0
tp241
a(g234
I17
I0
tp242
a(g4
(g5
(S'S8'
p243
I0
I1
tp244
Rp245
(I3
S'|'
p246
NNNI8
I1
I0
tp247
bS'cylinder'
p248
tp249
Rp250
I3
I1
tp251
a(g4
(g5
(S'S9'
p252
I0
I1
tp253
Rp254
(I3
S'|'
p255
NNNI9
I1
I0
tp256
bS'styrofoam'
p257
tp258
Rp259
I20
I1
tp260
a(g4
(g5
(S'S8'
p261
I0
I1
tp262
Rp263
(I3
S'|'
p264
NNNI8
I1
I0
tp265
bS'cylinder'
p266
tp267
Rp268
I27
I0
tp269
a(g4
(g5
(S'S4'
p270
I0
I1
tp271
Rp272
(I3
S'|'
p273
NNNI4
I1
I0
tp274
bS'bean'
p275
tp276
Rp277
I27
I1
tp278
aa(lp279
(S'ward'
p280
S'block'
p281
I00
tp282
a(S'pink'
p283
S'white'
p284
I00
tp285
a(g283
S'yellow'
p286
I00
tp287
a(g283
S'blue'
p288
I00
tp289
a(S'green'
p290
S'hughes'
p291
I00
tp292
a(g290
g286
I00
tp293
a(g290
g288
I00
tp294
aa.