(lp0
(lp1
(dp2
S'action'
p3
cnumpy.core.multiarray
scalar
p4
(cnumpy
dtype
p5
(S'S4'
p6
I0
I1
tp7
Rp8
(I3
S'|'
p9
NNNI4
I1
I0
tp10
bS'walk'
p11
tp12
Rp13
sS'recipient'
p14
NsS'patient'
p15
NsS'goal'
p16
S'3404'
p17
sS'source'
p18
Nsa(dp19
g3
g4
(g5
(S'S5'
p20
I0
I1
tp21
Rp22
(I3
S'|'
p23
NNNI5
I1
I0
tp24
bS'bring'
p25
tp26
Rp27
sg14
S'n'
p28
sg15
S'oidx_13'
p29
sg16
Nsg18
Nsa(dp30
g3
g4
(g5
(S'S5'
p31
I0
I1
tp32
Rp33
(I3
S'|'
p34
NNNI5
I1
I0
tp35
bS'bring'
p36
tp37
Rp38
sg14
S'r'
p39
sg15
S'oidx_22'
p40
sg16
Nsg18
Nsaa(lp41
(dp42
S'all'
p43
(lp44
S'yes'
p45
asg15
(lp46
sg16
(lp47
S'anywhere'
p48
aS'no'
p49
aS"it 's your choice"
p50
aS'as you like'
p51
aS'temple'
p52
aS'shop'
p53
aS'shopping'
p54
aS'cylinder'
p55
aS'house'
p56
aS'home'
p57
aS'school'
p58
aS'office'
p59
aS'lab'
p60
asg18
(lp61
sg3
(lp62
sg14
(lp63
sa(dp64
g43
(lp65
S'yes'
p66
asg15
(lp67
S'any object'
p68
aS'can'
p69
asg16
(lp70
sg18
(lp71
sg3
(lp72
sg14
(lp73
sa(dp74
g43
(lp75
S'yes'
p76
asg15
(lp77
S'bottle'
p78
asg16
(lp79
sg18
(lp80
sg3
(lp81
sg14
(lp82
S'me'
p83
asaa(lp84
(g4
(g5
(S'S9'
p85
I0
I1
tp86
Rp87
(I3
S'|'
p88
NNNI9
I1
I0
tp89
bS'styrofoam'
p90
tp91
Rp92
I10
I0
tp93
a(g92
I3
I0
tp94
a(g92
I27
I0
tp95
a(g92
I7
I0
tp96
a(g92
I18
I0
tp97
a(g92
I2
I0
tp98
a(g92
I20
I0
tp99
a(g92
I17
I0
tp100
a(g4
(g5
(S'S4'
p101
I0
I1
tp102
Rp103
(I3
S'|'
p104
NNNI4
I1
I0
tp105
bS'blue'
p106
tp107
Rp108
I18
I1
tp109
a(g4
(g5
(S'S8'
p110
I0
I1
tp111
Rp112
(I3
S'|'
p113
NNNI8
I1
I0
tp114
bS'cylinder'
p115
tp116
Rp117
I7
I1
tp118
a(g4
(g5
(S'S8'
p119
I0
I1
tp120
Rp121
(I3
S'|'
p122
NNNI8
I1
I0
tp123
bS'metallic'
p124
tp125
Rp126
I2
I1
tp127
a(g4
(g5
(S'S6'
p128
I0
I1
tp129
Rp130
(I3
S'|'
p131
NNNI6
I1
I0
tp132
bS'coffee'
p133
tp134
Rp135
I10
I0
tp136
a(g135
I3
I0
tp137
a(g135
I27
I0
tp138
a(g135
I7
I0
tp139
a(g135
I18
I0
tp140
a(g135
I2
I0
tp141
a(g135
I20
I0
tp142
a(g135
I17
I0
tp143
a(g4
(g5
(S'S3'
p144
I0
I1
tp145
Rp146
(I3
S'|'
p147
NNNI3
I1
I0
tp148
bS'can'
p149
tp150
Rp151
I17
I1
tp152
a(g4
(g5
(S'S5'
p153
I0
I1
tp154
Rp155
(I3
S'|'
p156
NNNI5
I1
I0
tp157
bS'tower'
p158
tp159
Rp160
I10
I0
tp161
a(g160
I3
I0
tp162
a(g160
I27
I0
tp163
a(g160
I7
I0
tp164
a(g160
I18
I0
tp165
a(g160
I2
I0
tp166
a(g160
I20
I0
tp167
a(g160
I17
I0
tp168
a(g4
(g5
(S'S9'
p169
I0
I1
tp170
Rp171
(I3
S'|'
p172
NNNI9
I1
I0
tp173
bS'rectangle'
p174
tp175
Rp176
I10
I0
tp177
a(g176
I3
I0
tp178
a(g176
I27
I0
tp179
a(g176
I7
I0
tp180
a(g176
I18
I0
tp181
a(g176
I2
I0
tp182
a(g176
I20
I0
tp183
a(g176
I17
I0
tp184
a(g4
(g5
(S'S5'
p185
I0
I1
tp186
Rp187
(I3
S'|'
p188
NNNI5
I1
I0
tp189
bS'peach'
p190
tp191
Rp192
I10
I0
tp193
a(g192
I3
I0
tp194
a(g192
I27
I0
tp195
a(g192
I7
I0
tp196
a(g192
I18
I0
tp197
a(g192
I2
I0
tp198
a(g192
I20
I0
tp199
a(g192
I17
I0
tp200
a(g4
(g5
(S'S4'
p201
I0
I1
tp202
Rp203
(I3
S'|'
p204
NNNI4
I1
I0
tp205
bS'long'
p206
tp207
Rp208
I10
I0
tp209
a(g208
I3
I0
tp210
a(g208
I27
I0
tp211
a(g208
I7
I0
tp212
a(g208
I18
I0
tp213
a(g208
I2
I0
tp214
a(g208
I20
I0
tp215
a(g208
I17
I0
tp216
a(g4
(g5
(S'S5'
p217
I0
I1
tp218
Rp219
(I3
S'|'
p220
NNNI5
I1
I0
tp221
bS'empty'
p222
tp223
Rp224
I10
I0
tp225
a(g224
I3
I0
tp226
a(g224
I27
I0
tp227
a(g224
I7
I0
tp228
a(g224
I18
I0
tp229
a(g224
I2
I0
tp230
a(g224
I20
I0
tp231
a(g224
I17
I0
tp232
a(g4
(g5
(S'S4'
p233
I0
I1
tp234
Rp235
(I3
S'|'
p236
NNNI4
I1
I0
tp237
bS'bean'
p238
tp239
Rp240
I10
I0
tp241
a(g240
I3
I0
tp242
a(g240
I27
I0
tp243
a(g240
I7
I0
tp244
a(g240
I18
I0
tp245
a(g240
I2
I0
tp246
a(g240
I20
I0
tp247
a(g240
I17
I0
tp248
a(g4
(g5
(S'S5'
p249
I0
I1
tp250
Rp251
(I3
S'|'
p252
NNNI5
I1
I0
tp253
bS'block'
p254
tp255
Rp256
I10
I0
tp257
a(g256
I3
I0
tp258
a(g256
I27
I0
tp259
a(g256
I7
I0
tp260
a(g256
I18
I0
tp261
a(g256
I2
I0
tp262
a(g256
I20
I0
tp263
a(g256
I17
I0
tp264
a(g4
(g5
(S'S3'
p265
I0
I1
tp266
Rp267
(I3
S'|'
p268
NNNI3
I1
I0
tp269
bS'can'
p270
tp271
Rp272
I10
I1
tp273
a(g272
I3
I1
tp274
a(g272
I27
I1
tp275
a(g272
I7
I1
tp276
a(g272
I18
I1
tp277
a(g272
I2
I1
tp278
a(g272
I20
I1
tp279
a(g272
I17
I1
tp280
a(g4
(g5
(S'S5'
p281
I0
I1
tp282
Rp283
(I3
S'|'
p284
NNNI5
I1
I0
tp285
bS'clear'
p286
tp287
Rp288
I10
I0
tp289
a(g288
I3
I0
tp290
a(g288
I27
I0
tp291
a(g288
I7
I0
tp292
a(g288
I18
I0
tp293
a(g288
I2
I0
tp294
a(g288
I20
I0
tp295
a(g288
I17
I0
tp296
aa(lp297
(S'object'
p298
S'container'
p299
I01
tp300
a(g78
S'coffee'
p301
I01
tp302
aa.