(lp0
(lp1
(dp2
S'action'
p3
cnumpy.core.multiarray
scalar
p4
(cnumpy
dtype
p5
(S'S4'
p6
I0
I1
tp7
Rp8
(I3
S'|'
p9
NNNI4
I1
I0
tp10
bS'move'
p11
tp12
Rp13
sS'recipient'
p14
NsS'patient'
p15
S'oidx_13'
p16
sS'goal'
p17
S'3510'
p18
sS'source'
p19
S'3424'
p20
sa(dp21
g3
g4
(g5
(S'S5'
p22
I0
I1
tp23
Rp24
(I3
S'|'
p25
NNNI5
I1
I0
tp26
bS'bring'
p27
tp28
Rp29
sg14
S'n'
p30
sg15
S'oidx_22'
p31
sg17
Nsg19
Nsaa(lp32
(dp33
S'all'
p34
(lp35
S''
p36
asg15
(lp37
S'yes'
p38
asg17
(lp39
sg19
(lp40
S'go to the red x'
p41
asg3
(lp42
sg14
(lp43
sa(dp44
g34
(lp45
S'get the object'
p46
asg15
(lp47
S'container'
p48
aS'container'
p49
asg17
(lp50
sg19
(lp51
sg3
(lp52
sg14
(lp53
saa(lp54
(g4
(g5
(S'S3'
p55
I0
I1
tp56
Rp57
(I3
S'|'
p58
NNNI3
I1
I0
tp59
bS'red'
p60
tp61
Rp62
I7
I1
tp63
a(g4
(g5
(S'S6'
p64
I0
I1
tp65
Rp66
(I3
S'|'
p67
NNNI6
I1
I0
tp68
bS'yellow'
p69
tp70
Rp71
I10
I1
tp72
a(g4
(g5
(S'S5'
p73
I0
I1
tp74
Rp75
(I3
S'|'
p76
NNNI5
I1
I0
tp77
bS'block'
p78
tp79
Rp80
I10
I0
tp81
a(g80
I3
I0
tp82
a(g80
I27
I0
tp83
a(g80
I7
I0
tp84
a(g80
I18
I0
tp85
a(g80
I2
I0
tp86
a(g80
I20
I0
tp87
a(g80
I17
I0
tp88
a(g4
(g5
(S'S5'
p89
I0
I1
tp90
Rp91
(I3
S'|'
p92
NNNI5
I1
I0
tp93
bS'tower'
p94
tp95
Rp96
I10
I0
tp97
a(g96
I3
I0
tp98
a(g96
I27
I0
tp99
a(g96
I7
I0
tp100
a(g96
I18
I0
tp101
a(g96
I2
I0
tp102
a(g96
I20
I0
tp103
a(g96
I17
I0
tp104
a(g4
(g5
(S'S8'
p105
I0
I1
tp106
Rp107
(I3
S'|'
p108
NNNI8
I1
I0
tp109
bS'cylinder'
p110
tp111
Rp112
I20
I1
tp113
a(g4
(g5
(S'S9'
p114
I0
I1
tp115
Rp116
(I3
S'|'
p117
NNNI9
I1
I0
tp118
bS'rectangle'
p119
tp120
Rp121
I10
I0
tp122
a(g121
I3
I0
tp123
a(g121
I27
I0
tp124
a(g121
I7
I0
tp125
a(g121
I18
I0
tp126
a(g121
I2
I0
tp127
a(g121
I20
I0
tp128
a(g121
I17
I0
tp129
a(g4
(g5
(S'S5'
p130
I0
I1
tp131
Rp132
(I3
S'|'
p133
NNNI5
I1
I0
tp134
bS'peach'
p135
tp136
Rp137
I10
I0
tp138
a(g137
I3
I0
tp139
a(g137
I27
I0
tp140
a(g137
I7
I0
tp141
a(g137
I18
I0
tp142
a(g137
I2
I0
tp143
a(g137
I20
I0
tp144
a(g137
I17
I0
tp145
a(g4
(g5
(S'S8'
p146
I0
I1
tp147
Rp148
(I3
S'|'
p149
NNNI8
I1
I0
tp150
bS'cylinder'
p151
tp152
Rp153
I20
I0
tp154
a(g4
(g5
(S'S8'
p155
I0
I1
tp156
Rp157
(I3
S'|'
p158
NNNI8
I1
I0
tp159
bS'pringles'
p160
tp161
Rp162
I10
I0
tp163
a(g162
I3
I0
tp164
a(g162
I27
I0
tp165
a(g162
I7
I0
tp166
a(g162
I18
I0
tp167
a(g162
I2
I0
tp168
a(g162
I20
I0
tp169
a(g162
I17
I0
tp170
a(g4
(g5
(S'S5'
p171
I0
I1
tp172
Rp173
(I3
S'|'
p174
NNNI5
I1
I0
tp175
bS'clear'
p176
tp177
Rp178
I10
I0
tp179
a(g178
I3
I0
tp180
a(g178
I27
I0
tp181
a(g178
I7
I0
tp182
a(g178
I18
I0
tp183
a(g178
I2
I0
tp184
a(g178
I20
I0
tp185
a(g178
I17
I0
tp186
aa(lp187
(S'red'
p188
S'white'
p189
I00
tp190
a(g188
S'yellow'
p191
I00
tp192
a(g188
S'blue'
p193
I00
tp194
a(S'object'
p195
S'container'
p196
I01
tp197
aa.