(lp0
(lp1
(dp2
S'action'
p3
cnumpy.core.multiarray
scalar
p4
(cnumpy
dtype
p5
(S'S4'
p6
I0
I1
tp7
Rp8
(I3
S'|'
p9
NNNI4
I1
I0
tp10
bS'walk'
p11
tp12
Rp13
sS'recipient'
p14
NsS'patient'
p15
NsS'goal'
p16
g4
(g5
(S'S4'
p17
I0
I1
tp18
Rp19
(I3
S'|'
p20
NNNI4
I1
I0
tp21
bS'3504'
p22
tp23
Rp24
sS'source'
p25
Nsaa(lp26
(dp27
S'all'
p28
(lp29
S"go to the pod next to peggy 's office"
p30
asg15
(lp31
sg16
(lp32
sg25
(lp33
sg3
(lp34
sg14
(lp35
saa(lp36
(g4
(g5
(S'S5'
p37
I0
I1
tp38
Rp39
(I3
S'|'
p40
NNNI5
I1
I0
tp41
bS'tower'
p42
tp43
Rp44
I10
I0
tp45
a(g44
I3
I0
tp46
a(g44
I27
I0
tp47
a(g44
I7
I0
tp48
a(g44
I18
I0
tp49
a(g44
I2
I0
tp50
a(g44
I20
I0
tp51
a(g44
I17
I0
tp52
a(g4
(g5
(S'S4'
p53
I0
I1
tp54
Rp55
(I3
S'|'
p56
NNNI4
I1
I0
tp57
bS'bean'
p58
tp59
Rp60
I2
I1
tp61
a(g4
(g5
(S'S8'
p62
I0
I1
tp63
Rp64
(I3
S'|'
p65
NNNI8
I1
I0
tp66
bS'metallic'
p67
tp68
Rp69
I2
I1
tp70
a(g4
(g5
(S'S6'
p71
I0
I1
tp72
Rp73
(I3
S'|'
p74
NNNI6
I1
I0
tp75
bS'column'
p76
tp77
Rp78
I10
I0
tp79
a(g78
I3
I0
tp80
a(g78
I27
I0
tp81
a(g78
I7
I0
tp82
a(g78
I18
I0
tp83
a(g78
I2
I0
tp84
a(g78
I20
I0
tp85
a(g78
I17
I0
tp86
a(g4
(g5
(S'S5'
p87
I0
I1
tp88
Rp89
(I3
S'|'
p90
NNNI5
I1
I0
tp91
bS'white'
p92
tp93
Rp94
I10
I0
tp95
a(g94
I3
I0
tp96
a(g94
I27
I0
tp97
a(g94
I7
I0
tp98
a(g94
I18
I0
tp99
a(g94
I2
I0
tp100
a(g94
I20
I0
tp101
a(g94
I17
I0
tp102
aa(lp103
a.