(lp0
(lp1
(dp2
S'action'
p3
cnumpy.core.multiarray
scalar
p4
(cnumpy
dtype
p5
(S'S4'
p6
I0
I1
tp7
Rp8
(I3
S'|'
p9
NNNI4
I1
I0
tp10
bS'walk'
p11
tp12
Rp13
sS'recipient'
p14
NsS'patient'
p15
NsS'goal'
p16
g4
(g5
(S'S4'
p17
I0
I1
tp18
Rp19
(I3
S'|'
p20
NNNI4
I1
I0
tp21
bS'3504'
p22
tp23
Rp24
sS'source'
p25
Nsa(dp26
g3
g4
(g5
(S'S5'
p27
I0
I1
tp28
Rp29
(I3
S'|'
p30
NNNI5
I1
I0
tp31
bS'bring'
p32
tp33
Rp34
sg14
S'd'
p35
sg15
g4
(g5
(S'S7'
p36
I0
I1
tp37
Rp38
(I3
S'|'
p39
NNNI7
I1
I0
tp40
bS'oidx_28'
p41
tp42
Rp43
sg16
Nsg25
Nsaa(lp44
(dp45
S'all'
p46
(lp47
S'move to the pod'
p48
asg15
(lp49
sg16
(lp50
S'to the pod'
p51
aS'to the left pod'
p52
aS'to the bottom left pod'
p53
asg25
(lp54
sg3
(lp55
sg14
(lp56
sa(dp57
g46
(lp58
S'take the styrofoam to david'
p59
asg15
(lp60
S'deliver the styrofoam'
p61
aS'the foam block'
p62
aS'the styrofoam'
p63
asg16
(lp64
sg25
(lp65
sg3
(lp66
sg14
(lp67
saa(lp68
(g4
(g5
(S'S4'
p69
I0
I1
tp70
Rp71
(I3
S'|'
p72
NNNI4
I1
I0
tp73
bS'long'
p74
tp75
Rp76
I3
I1
tp77
a(g4
(g5
(S'S6'
p78
I0
I1
tp79
Rp80
(I3
S'|'
p81
NNNI6
I1
I0
tp82
bS'column'
p83
tp84
Rp85
I3
I1
tp86
a(g4
(g5
(S'S4'
p87
I0
I1
tp88
Rp89
(I3
S'|'
p90
NNNI4
I1
I0
tp91
bS'blue'
p92
tp93
Rp94
I18
I1
tp95
a(g4
(g5
(S'S9'
p96
I0
I1
tp97
Rp98
(I3
S'|'
p99
NNNI9
I1
I0
tp100
bS'container'
p101
tp102
Rp103
I2
I1
tp104
a(g4
(g5
(S'S5'
p105
I0
I1
tp106
Rp107
(I3
S'|'
p108
NNNI5
I1
I0
tp109
bS'clear'
p110
tp111
Rp112
I10
I0
tp113
a(g112
I3
I0
tp114
a(g112
I27
I0
tp115
a(g112
I7
I0
tp116
a(g112
I18
I0
tp117
a(g112
I2
I0
tp118
a(g112
I20
I0
tp119
a(g112
I17
I0
tp120
a(g4
(g5
(S'S9'
p121
I0
I1
tp122
Rp123
(I3
S'|'
p124
NNNI9
I1
I0
tp125
bS'styrofoam'
p126
tp127
Rp128
I10
I0
tp129
a(g128
I3
I0
tp130
a(g128
I27
I0
tp131
a(g128
I7
I0
tp132
a(g128
I18
I0
tp133
a(g128
I2
I0
tp134
a(g128
I20
I0
tp135
a(g128
I17
I0
tp136
a(g4
(g5
(S'S8'
p137
I0
I1
tp138
Rp139
(I3
S'|'
p140
NNNI8
I1
I0
tp141
bS'cylinder'
p142
tp143
Rp144
I3
I1
tp145
a(g4
(g5
(S'S5'
p146
I0
I1
tp147
Rp148
(I3
S'|'
p149
NNNI5
I1
I0
tp150
bS'empty'
p151
tp152
Rp153
I3
I1
tp154
a(g4
(g5
(S'S4'
p155
I0
I1
tp156
Rp157
(I3
S'|'
p158
NNNI4
I1
I0
tp159
bS'bean'
p160
tp161
Rp162
I10
I0
tp163
a(g162
I3
I0
tp164
a(g162
I27
I0
tp165
a(g162
I7
I0
tp166
a(g162
I18
I0
tp167
a(g162
I2
I0
tp168
a(g162
I20
I0
tp169
a(g162
I17
I0
tp170
a(g4
(g5
(S'S5'
p171
I0
I1
tp172
Rp173
(I3
S'|'
p174
NNNI5
I1
I0
tp175
bS'tower'
p176
tp177
Rp178
I7
I1
tp179
aa(lp180
a.