(lp0
(lp1
(dp2
S'action'
p3
cnumpy.core.multiarray
scalar
p4
(cnumpy
dtype
p5
(S'S4'
p6
I0
I1
tp7
Rp8
(I3
S'|'
p9
NNNI4
I1
I0
tp10
bS'move'
p11
tp12
Rp13
sS'recipient'
p14
NsS'patient'
p15
S'oidx_28'
p16
sS'goal'
p17
S'3408'
p18
sS'source'
p19
S'3414b'
p20
saa(lp21
(dp22
S'all'
p23
(lp24
S'yes'
p25
asg15
(lp26
S'yes'
p27
aS'yes'
p28
aS'yes'
p29
aS'yes'
p30
asg17
(lp31
S'yes'
p32
asg19
(lp33
S'yes'
p34
asg3
(lp35
sg14
(lp36
saa(lp37
(g4
(g5
(S'S4'
p38
I0
I1
tp39
Rp40
(I3
S'|'
p41
NNNI4
I1
I0
tp42
bS'blue'
p43
tp44
Rp45
I3
I1
tp46
a(g4
(g5
(S'S4'
p47
I0
I1
tp48
Rp49
(I3
S'|'
p50
NNNI4
I1
I0
tp51
bS'blue'
p52
tp53
Rp54
I3
I0
tp55
a(g4
(g5
(S'S5'
p56
I0
I1
tp57
Rp58
(I3
S'|'
p59
NNNI5
I1
I0
tp60
bS'tower'
p61
tp62
Rp63
I3
I1
tp64
a(g4
(g5
(S'S6'
p65
I0
I1
tp66
Rp67
(I3
S'|'
p68
NNNI6
I1
I0
tp69
bS'yellow'
p70
tp71
Rp72
I3
I1
tp73
a(g4
(g5
(S'S5'
p74
I0
I1
tp75
Rp76
(I3
S'|'
p77
NNNI5
I1
I0
tp78
bS'spice'
p79
tp80
Rp81
I3
I1
tp82
aa(lp83
a.