(lp0
(lp1
(dp2
S'action'
p3
cnumpy.core.multiarray
scalar
p4
(cnumpy
dtype
p5
(S'S4'
p6
I0
I1
tp7
Rp8
(I3
S'|'
p9
NNNI4
I1
I0
tp10
bS'walk'
p11
tp12
Rp13
sS'recipient'
p14
NsS'patient'
p15
NsS'goal'
p16
S'3502'
p17
sS'source'
p18
Nsa(dp19
g3
g4
(g5
(S'S4'
p20
I0
I1
tp21
Rp22
(I3
S'|'
p23
NNNI4
I1
I0
tp24
bS'move'
p25
tp26
Rp27
sg14
Nsg15
S'oidx_11'
p28
sg16
S'3432'
p29
sg18
S'3506'
p30
sa(dp31
g3
g4
(g5
(S'S5'
p32
I0
I1
tp33
Rp34
(I3
S'|'
p35
NNNI5
I1
I0
tp36
bS'bring'
p37
tp38
Rp39
sg14
S'r'
p40
sg15
S'oidx_22'
p41
sg16
Nsg18
Nsaa(lp42
(dp43
S'all'
p44
(lp45
S'working'
p46
asg15
(lp47
sg16
(lp48
S'home'
p49
aS'house'
p50
aS'yes'
p51
aS'yes'
p52
aS'yes'
p53
aS'yes'
p54
aS'yes'
p55
aS'yes'
p56
aS'work'
p57
asg18
(lp58
sg3
(lp59
sg14
(lp60
sa(dp61
g44
(lp62
S'working'
p63
asg15
(lp64
S'yes'
p65
aS'yes'
p66
asg16
(lp67
sg18
(lp68
S'yes'
p69
aS'yes'
p70
asg3
(lp71
sg14
(lp72
sa(dp73
g44
(lp74
S'working'
p75
asg15
(lp76
S'yes'
p77
aS'yes'
p78
asg16
(lp79
sg18
(lp80
sg3
(lp81
sg14
(lp82
saa(lp83
(g4
(g5
(S'S5'
p84
I0
I1
tp85
Rp86
(I3
S'|'
p87
NNNI5
I1
I0
tp88
bS'empty'
p89
tp90
Rp91
I27
I1
tp92
a(g4
(g5
(S'S6'
p93
I0
I1
tp94
Rp95
(I3
S'|'
p96
NNNI6
I1
I0
tp97
bS'coffee'
p98
tp99
Rp100
I10
I1
tp101
a(g4
(g5
(S'S3'
p102
I0
I1
tp103
Rp104
(I3
S'|'
p105
NNNI3
I1
I0
tp106
bS'can'
p107
tp108
Rp109
I18
I1
tp110
a(g4
(g5
(S'S5'
p111
I0
I1
tp112
Rp113
(I3
S'|'
p114
NNNI5
I1
I0
tp115
bS'peach'
p116
tp117
Rp118
I7
I1
tp119
a(g4
(g5
(S'S9'
p120
I0
I1
tp121
Rp122
(I3
S'|'
p123
NNNI9
I1
I0
tp124
bS'rectangle'
p125
tp126
Rp127
I3
I1
tp128
a(g4
(g5
(S'S5'
p129
I0
I1
tp130
Rp131
(I3
S'|'
p132
NNNI5
I1
I0
tp133
bS'white'
p134
tp135
Rp136
I3
I1
tp137
a(g4
(g5
(S'S4'
p138
I0
I1
tp139
Rp140
(I3
S'|'
p141
NNNI4
I1
I0
tp142
bS'long'
p143
tp144
Rp145
I27
I1
tp146
a(g4
(g5
(S'S5'
p147
I0
I1
tp148
Rp149
(I3
S'|'
p150
NNNI5
I1
I0
tp151
bS'clear'
p152
tp153
Rp154
I3
I1
tp155
a(g4
(g5
(S'S3'
p156
I0
I1
tp157
Rp158
(I3
S'|'
p159
NNNI3
I1
I0
tp160
bS'can'
p161
tp162
Rp163
I7
I0
tp164
a(g4
(g5
(S'S4'
p165
I0
I1
tp166
Rp167
(I3
S'|'
p168
NNNI4
I1
I0
tp169
bS'long'
p170
tp171
Rp172
I18
I0
tp173
a(g4
(g5
(S'S5'
p174
I0
I1
tp175
Rp176
(I3
S'|'
p177
NNNI5
I1
I0
tp178
bS'tower'
p179
tp180
Rp181
I17
I1
tp182
a(g4
(g5
(S'S9'
p183
I0
I1
tp184
Rp185
(I3
S'|'
p186
NNNI9
I1
I0
tp187
bS'rectangle'
p188
tp189
Rp190
I27
I0
tp191
a(g4
(g5
(S'S6'
p192
I0
I1
tp193
Rp194
(I3
S'|'
p195
NNNI6
I1
I0
tp196
bS'column'
p197
tp198
Rp199
I2
I1
tp200
a(g4
(g5
(S'S5'
p201
I0
I1
tp202
Rp203
(I3
S'|'
p204
NNNI5
I1
I0
tp205
bS'tower'
p206
tp207
Rp208
I27
I0
tp209
a(g4
(g5
(S'S4'
p210
I0
I1
tp211
Rp212
(I3
S'|'
p213
NNNI4
I1
I0
tp214
bS'bean'
p215
tp216
Rp217
I7
I1
tp218
aa(lp219
a.