(lp0
(lp1
(dp2
S'action'
p3
cnumpy.core.multiarray
scalar
p4
(cnumpy
dtype
p5
(S'S5'
p6
I0
I1
tp7
Rp8
(I3
S'|'
p9
NNNI5
I1
I0
tp10
bS'bring'
p11
tp12
Rp13
sS'recipient'
p14
S'n'
p15
sS'patient'
p16
S'oidx_13'
p17
sS'goal'
p18
NsS'source'
p19
Nsa(dp20
g3
g4
(g5
(S'S4'
p21
I0
I1
tp22
Rp23
(I3
S'|'
p24
NNNI4
I1
I0
tp25
bS'walk'
p26
tp27
Rp28
sg14
Nsg16
Nsg18
S'3516'
p29
sg19
Nsa(dp30
g3
g4
(g5
(S'S4'
p31
I0
I1
tp32
Rp33
(I3
S'|'
p34
NNNI4
I1
I0
tp35
bS'move'
p36
tp37
Rp38
sg14
Nsg16
S'oidx_26'
p39
sg18
S'3504'
p40
sg19
S'3406'
p41
saa(lp42
(dp43
S'all'
p44
(lp45
S'hi'
p46
asg16
(lp47
S'yes'
p48
aS'yes'
p49
asg18
(lp50
sg19
(lp51
sg3
(lp52
sg14
(lp53
sa(dp54
g44
(lp55
S'go'
p56
asg16
(lp57
sg18
(lp58
S'kitchen'
p59
aS'office'
p60
asg19
(lp61
sg3
(lp62
sg14
(lp63
sa(dp64
g44
(lp65
S'yes'
p66
asg16
(lp67
S'office'
p68
asg18
(lp69
S'thank you'
p70
asg19
(lp71
S'yes'
p72
asg3
(lp73
sg14
(lp74
saa(lp75
(g4
(g5
(S'S6'
p76
I0
I1
tp77
Rp78
(I3
S'|'
p79
NNNI6
I1
I0
tp80
bS'coffee'
p81
tp82
Rp83
I17
I1
tp84
a(g4
(g5
(S'S9'
p85
I0
I1
tp86
Rp87
(I3
S'|'
p88
NNNI9
I1
I0
tp89
bS'styrofoam'
p90
tp91
Rp92
I3
I1
tp93
a(g4
(g5
(S'S5'
p94
I0
I1
tp95
Rp96
(I3
S'|'
p97
NNNI5
I1
I0
tp98
bS'peach'
p99
tp100
Rp101
I2
I1
tp102
a(g4
(g5
(S'S9'
p103
I0
I1
tp104
Rp105
(I3
S'|'
p106
NNNI9
I1
I0
tp107
bS'styrofoam'
p108
tp109
Rp110
I2
I0
tp111
a(g4
(g5
(S'S4'
p112
I0
I1
tp113
Rp114
(I3
S'|'
p115
NNNI4
I1
I0
tp116
bS'blue'
p117
tp118
Rp119
I7
I1
tp120
a(g4
(g5
(S'S9'
p121
I0
I1
tp122
Rp123
(I3
S'|'
p124
NNNI9
I1
I0
tp125
bS'rectangle'
p126
tp127
Rp128
I18
I1
tp129
a(g4
(g5
(S'S9'
p130
I0
I1
tp131
Rp132
(I3
S'|'
p133
NNNI9
I1
I0
tp134
bS'container'
p135
tp136
Rp137
I18
I1
tp138
a(g4
(g5
(S'S5'
p139
I0
I1
tp140
Rp141
(I3
S'|'
p142
NNNI5
I1
I0
tp143
bS'empty'
p144
tp145
Rp146
I27
I1
tp147
a(g4
(g5
(S'S8'
p148
I0
I1
tp149
Rp150
(I3
S'|'
p151
NNNI8
I1
I0
tp152
bS'metallic'
p153
tp154
Rp155
I27
I1
tp156
a(g4
(g5
(S'S9'
p157
I0
I1
tp158
Rp159
(I3
S'|'
p160
NNNI9
I1
I0
tp161
bS'rectangle'
p162
tp163
Rp164
I7
I0
tp165
a(g4
(g5
(S'S6'
p166
I0
I1
tp167
Rp168
(I3
S'|'
p169
NNNI6
I1
I0
tp170
bS'yellow'
p171
tp172
Rp173
I7
I1
tp174
a(g4
(g5
(S'S5'
p175
I0
I1
tp176
Rp177
(I3
S'|'
p178
NNNI5
I1
I0
tp179
bS'block'
p180
tp181
Rp182
I18
I1
tp183
a(g4
(g5
(S'S8'
p184
I0
I1
tp185
Rp186
(I3
S'|'
p187
NNNI8
I1
I0
tp188
bS'metallic'
p189
tp190
Rp191
I27
I0
tp192
a(g4
(g5
(S'S5'
p193
I0
I1
tp194
Rp195
(I3
S'|'
p196
NNNI5
I1
I0
tp197
bS'clear'
p198
tp199
Rp200
I27
I1
tp201
a(g4
(g5
(S'S5'
p202
I0
I1
tp203
Rp204
(I3
S'|'
p205
NNNI5
I1
I0
tp206
bS'tower'
p207
tp208
Rp209
I7
I1
tp210
aa(lp211
(g46
S'coffee'
p212
I01
tp213
a(S'you'
p214
S'can'
p215
I01
tp216
aa.