(lp0
(lp1
(dp2
S'action'
p3
cnumpy.core.multiarray
scalar
p4
(cnumpy
dtype
p5
(S'S4'
p6
I0
I1
tp7
Rp8
(I3
S'|'
p9
NNNI4
I1
I0
tp10
bS'walk'
p11
tp12
Rp13
sS'recipient'
p14
NsS'patient'
p15
NsS'goal'
p16
g4
(g5
(S'S4'
p17
I0
I1
tp18
Rp19
(I3
S'|'
p20
NNNI4
I1
I0
tp21
bS'3506'
p22
tp23
Rp24
sS'source'
p25
Nsa(dp26
g3
g4
(g5
(S'S5'
p27
I0
I1
tp28
Rp29
(I3
S'|'
p30
NNNI5
I1
I0
tp31
bS'bring'
p32
tp33
Rp34
sg14
g4
(g5
(S'S1'
p35
I0
I1
tp36
Rp37
(I3
S'|'
p38
NNNI1
I1
I0
tp39
bS'm'
p40
tp41
Rp42
sg15
S'oidx_26'
p43
sg16
Nsg25
Nsaa(lp44
(dp45
S'all'
p46
(lp47
S'you should go to the printer'
p48
asg15
(lp49
sg16
(lp50
sg25
(lp51
sg3
(lp52
sg14
(lp53
sa(dp54
g46
(lp55
S'grab mallory a red can of soda and hand it to her'
p56
asg15
(lp57
S'a red can of soda'
p58
asg16
(lp59
sg25
(lp60
sg3
(lp61
sg14
(lp62
S'mallory'
p63
asaa(lp64
(g4
(g5
(S'S5'
p65
I0
I1
tp66
Rp67
(I3
S'|'
p68
NNNI5
I1
I0
tp69
bS'empty'
p70
tp71
Rp72
I18
I1
tp73
a(g4
(g5
(S'S5'
p74
I0
I1
tp75
Rp76
(I3
S'|'
p77
NNNI5
I1
I0
tp78
bS'white'
p79
tp80
Rp81
I10
I1
tp82
a(g4
(g5
(S'S5'
p83
I0
I1
tp84
Rp85
(I3
S'|'
p86
NNNI5
I1
I0
tp87
bS'tower'
p88
tp89
Rp90
I3
I1
tp91
a(g4
(g5
(S'S5'
p92
I0
I1
tp93
Rp94
(I3
S'|'
p95
NNNI5
I1
I0
tp96
bS'spice'
p97
tp98
Rp99
I2
I1
tp100
a(g4
(g5
(S'S3'
p101
I0
I1
tp102
Rp103
(I3
S'|'
p104
NNNI3
I1
I0
tp105
bS'can'
p106
tp107
Rp108
I2
I1
tp109
a(g4
(g5
(S'S3'
p110
I0
I1
tp111
Rp112
(I3
S'|'
p113
NNNI3
I1
I0
tp114
bS'can'
p115
tp116
Rp117
I10
I1
tp118
a(g117
I3
I1
tp119
a(g117
I27
I1
tp120
a(g117
I7
I1
tp121
a(g117
I18
I1
tp122
a(g117
I2
I1
tp123
a(g117
I20
I1
tp124
a(g117
I17
I1
tp125
a(g4
(g5
(S'S3'
p126
I0
I1
tp127
Rp128
(I3
S'|'
p129
NNNI3
I1
I0
tp130
bS'red'
p131
tp132
Rp133
I7
I1
tp134
a(g4
(g5
(S'S3'
p135
I0
I1
tp136
Rp137
(I3
S'|'
p138
NNNI3
I1
I0
tp139
bS'red'
p140
tp141
Rp142
I27
I0
tp143
a(g4
(g5
(S'S3'
p144
I0
I1
tp145
Rp146
(I3
S'|'
p147
NNNI3
I1
I0
tp148
bS'red'
p149
tp150
Rp151
I20
I1
tp152
a(g4
(g5
(S'S3'
p153
I0
I1
tp154
Rp155
(I3
S'|'
p156
NNNI3
I1
I0
tp157
bS'red'
p158
tp159
Rp160
I3
I0
tp161
aa(lp162
(S'red'
p163
S'white'
p164
I00
tp165
a(g163
S'yellow'
p166
I00
tp167
a(g163
S'blue'
p168
I00
tp169
aa.