(lp0
(lp1
(dp2
S'action'
p3
cnumpy.core.multiarray
scalar
p4
(cnumpy
dtype
p5
(S'S4'
p6
I0
I1
tp7
Rp8
(I3
S'|'
p9
NNNI4
I1
I0
tp10
bS'walk'
p11
tp12
Rp13
sS'recipient'
p14
NsS'patient'
p15
NsS'goal'
p16
S'3516'
p17
sS'source'
p18
Nsaa(lp19
(dp20
S'all'
p21
(lp22
S'leave'
p23
asg15
(lp24
sg16
(lp25
S'to the conference room'
p26
asg18
(lp27
sg3
(lp28
sg14
(lp29
saa(lp30
(g4
(g5
(S'S8'
p31
I0
I1
tp32
Rp33
(I3
S'|'
p34
NNNI8
I1
I0
tp35
bS'cylinder'
p36
tp37
Rp38
I10
I0
tp39
a(g38
I3
I0
tp40
a(g38
I27
I0
tp41
a(g38
I7
I0
tp42
a(g38
I18
I0
tp43
a(g38
I2
I0
tp44
a(g38
I20
I0
tp45
a(g38
I17
I0
tp46
a(g4
(g5
(S'S5'
p47
I0
I1
tp48
Rp49
(I3
S'|'
p50
NNNI5
I1
I0
tp51
bS'peach'
p52
tp53
Rp54
I3
I1
tp55
a(g4
(g5
(S'S6'
p56
I0
I1
tp57
Rp58
(I3
S'|'
p59
NNNI6
I1
I0
tp60
bS'column'
p61
tp62
Rp63
I10
I0
tp64
a(g63
I3
I0
tp65
a(g63
I27
I0
tp66
a(g63
I7
I0
tp67
a(g63
I18
I0
tp68
a(g63
I2
I0
tp69
a(g63
I20
I0
tp70
a(g63
I17
I0
tp71
a(g4
(g5
(S'S5'
p72
I0
I1
tp73
Rp74
(I3
S'|'
p75
NNNI5
I1
I0
tp76
bS'spice'
p77
tp78
Rp79
I18
I1
tp80
a(g4
(g5
(S'S8'
p81
I0
I1
tp82
Rp83
(I3
S'|'
p84
NNNI8
I1
I0
tp85
bS'pringles'
p86
tp87
Rp88
I18
I1
tp89
aa(lp90
a.