(lp0
(lp1
(dp2
S'action'
p3
cnumpy.core.multiarray
scalar
p4
(cnumpy
dtype
p5
(S'S4'
p6
I0
I1
tp7
Rp8
(I3
S'|'
p9
NNNI4
I1
I0
tp10
bS'walk'
p11
tp12
Rp13
sS'recipient'
p14
NsS'patient'
p15
NsS'goal'
p16
S'3512'
p17
sS'source'
p18
Nsa(dp19
g3
g4
(g5
(S'S5'
p20
I0
I1
tp21
Rp22
(I3
S'|'
p23
NNNI5
I1
I0
tp24
bS'bring'
p25
tp26
Rp27
sg14
S'r'
p28
sg15
S'oidx_26'
p29
sg16
Nsg18
Nsa(dp30
g3
g4
(g5
(S'S4'
p31
I0
I1
tp32
Rp33
(I3
S'|'
p34
NNNI4
I1
I0
tp35
bS'move'
p36
tp37
Rp38
sg14
Nsg15
g29
sg16
S'3408'
p39
sg18
S'3406'
p40
saa(lp41
(dp42
S'all'
p43
(lp44
S'yes'
p45
asg15
(lp46
sg16
(lp47
S'no'
p48
aS'yes'
p49
aS'yes'
p50
aS'yes'
p51
aS'you go home'
p52
asg18
(lp53
sg3
(lp54
sg14
(lp55
sa(dp56
g43
(lp57
S'yes'
p58
asg15
(lp59
S'yes'
p60
asg16
(lp61
sg18
(lp62
sg3
(lp63
sg14
(lp64
S'yes'
p65
asa(dp66
g43
(lp67
S'yes'
p68
asg15
(lp69
S'yes'
p70
aS'no'
p71
asg16
(lp72
S'no'
p73
aS'yes'
p74
aS'yes'
p75
aS'no'
p76
aS'no'
p77
aS'no'
p78
asg18
(lp79
S'yes'
p80
asg3
(lp81
sg14
(lp82
saa(lp83
(g4
(g5
(S'S5'
p84
I0
I1
tp85
Rp86
(I3
S'|'
p87
NNNI5
I1
I0
tp88
bS'spice'
p89
tp90
Rp91
I10
I0
tp92
a(g91
I3
I0
tp93
a(g91
I27
I0
tp94
a(g91
I7
I0
tp95
a(g91
I18
I0
tp96
a(g91
I2
I0
tp97
a(g91
I20
I0
tp98
a(g91
I17
I0
tp99
a(g4
(g5
(S'S5'
p100
I0
I1
tp101
Rp102
(I3
S'|'
p103
NNNI5
I1
I0
tp104
bS'white'
p105
tp106
Rp107
I10
I0
tp108
a(g107
I3
I0
tp109
a(g107
I27
I0
tp110
a(g107
I7
I0
tp111
a(g107
I18
I0
tp112
a(g107
I2
I0
tp113
a(g107
I20
I0
tp114
a(g107
I17
I0
tp115
a(g4
(g5
(S'S8'
p116
I0
I1
tp117
Rp118
(I3
S'|'
p119
NNNI8
I1
I0
tp120
bS'cylinder'
p121
tp122
Rp123
I2
I1
tp124
a(g4
(g5
(S'S6'
p125
I0
I1
tp126
Rp127
(I3
S'|'
p128
NNNI6
I1
I0
tp129
bS'column'
p130
tp131
Rp132
I20
I1
tp133
a(g4
(g5
(S'S9'
p134
I0
I1
tp135
Rp136
(I3
S'|'
p137
NNNI9
I1
I0
tp138
bS'styrofoam'
p139
tp140
Rp141
I10
I0
tp142
a(g141
I3
I0
tp143
a(g141
I27
I0
tp144
a(g141
I7
I0
tp145
a(g141
I18
I0
tp146
a(g141
I2
I0
tp147
a(g141
I20
I0
tp148
a(g141
I17
I0
tp149
a(g4
(g5
(S'S5'
p150
I0
I1
tp151
Rp152
(I3
S'|'
p153
NNNI5
I1
I0
tp154
bS'tower'
p155
tp156
Rp157
I10
I0
tp158
a(g157
I3
I0
tp159
a(g157
I27
I0
tp160
a(g157
I7
I0
tp161
a(g157
I18
I0
tp162
a(g157
I2
I0
tp163
a(g157
I20
I0
tp164
a(g157
I17
I0
tp165
a(g4
(g5
(S'S8'
p166
I0
I1
tp167
Rp168
(I3
S'|'
p169
NNNI8
I1
I0
tp170
bS'metallic'
p171
tp172
Rp173
I7
I1
tp174
a(g4
(g5
(S'S6'
p175
I0
I1
tp176
Rp177
(I3
S'|'
p178
NNNI6
I1
I0
tp179
bS'column'
p180
tp181
Rp182
I27
I0
tp183
a(g4
(g5
(S'S8'
p184
I0
I1
tp185
Rp186
(I3
S'|'
p187
NNNI8
I1
I0
tp188
bS'pringles'
p189
tp190
Rp191
I3
I1
tp192
a(g4
(g5
(S'S4'
p193
I0
I1
tp194
Rp195
(I3
S'|'
p196
NNNI4
I1
I0
tp197
bS'blue'
p198
tp199
Rp200
I7
I1
tp201
a(g4
(g5
(S'S4'
p202
I0
I1
tp203
Rp204
(I3
S'|'
p205
NNNI4
I1
I0
tp206
bS'blue'
p207
tp208
Rp209
I27
I0
tp210
a(g4
(g5
(S'S4'
p211
I0
I1
tp212
Rp213
(I3
S'|'
p214
NNNI4
I1
I0
tp215
bS'blue'
p216
tp217
Rp218
I7
I1
tp219
a(g4
(g5
(S'S4'
p220
I0
I1
tp221
Rp222
(I3
S'|'
p223
NNNI4
I1
I0
tp224
bS'blue'
p225
tp226
Rp227
I18
I0
tp228
a(g4
(g5
(S'S9'
p229
I0
I1
tp230
Rp231
(I3
S'|'
p232
NNNI9
I1
I0
tp233
bS'container'
p234
tp235
Rp236
I10
I0
tp237
a(g236
I3
I0
tp238
a(g236
I27
I0
tp239
a(g236
I7
I0
tp240
a(g236
I18
I0
tp241
a(g236
I2
I0
tp242
a(g236
I20
I0
tp243
a(g236
I17
I0
tp244
a(g4
(g5
(S'S5'
p245
I0
I1
tp246
Rp247
(I3
S'|'
p248
NNNI5
I1
I0
tp249
bS'peach'
p250
tp251
Rp252
I27
I1
tp253
aa(lp254
a.