(lp0
(lp1
(dp2
S'action'
p3
cnumpy.core.multiarray
scalar
p4
(cnumpy
dtype
p5
(S'S4'
p6
I0
I1
tp7
Rp8
(I3
S'|'
p9
NNNI4
I1
I0
tp10
bS'walk'
p11
tp12
Rp13
sS'recipient'
p14
NsS'patient'
p15
NsS'goal'
p16
S'3404'
p17
sS'source'
p18
Nsaa(lp19
(dp20
S'all'
p21
(lp22
S"navigate to the lounge south of dr nancy nagel 's office"
p23
asg15
(lp24
sg16
(lp25
S'lounge'
p26
aS'lounge'
p27
aS'dr nancy nagel'
p28
aS"go to dr nancy nagel 's office"
p29
aS'go to office n'
p30
asg18
(lp31
sg3
(lp32
sg14
(lp33
saa(lp34
(g4
(g5
(S'S5'
p35
I0
I1
tp36
Rp37
(I3
S'|'
p38
NNNI5
I1
I0
tp39
bS'block'
p40
tp41
Rp42
I10
I0
tp43
a(g42
I3
I0
tp44
a(g42
I27
I0
tp45
a(g42
I7
I0
tp46
a(g42
I18
I0
tp47
a(g42
I2
I0
tp48
a(g42
I20
I0
tp49
a(g42
I17
I0
tp50
a(g4
(g5
(S'S9'
p51
I0
I1
tp52
Rp53
(I3
S'|'
p54
NNNI9
I1
I0
tp55
bS'styrofoam'
p56
tp57
Rp58
I20
I1
tp59
a(g4
(g5
(S'S5'
p60
I0
I1
tp61
Rp62
(I3
S'|'
p63
NNNI5
I1
I0
tp64
bS'white'
p65
tp66
Rp67
I10
I0
tp68
a(g67
I3
I0
tp69
a(g67
I27
I0
tp70
a(g67
I7
I0
tp71
a(g67
I18
I0
tp72
a(g67
I2
I0
tp73
a(g67
I20
I0
tp74
a(g67
I17
I0
tp75
a(g4
(g5
(S'S8'
p76
I0
I1
tp77
Rp78
(I3
S'|'
p79
NNNI8
I1
I0
tp80
bS'cylinder'
p81
tp82
Rp83
I3
I1
tp84
a(g4
(g5
(S'S6'
p85
I0
I1
tp86
Rp87
(I3
S'|'
p88
NNNI6
I1
I0
tp89
bS'coffee'
p90
tp91
Rp92
I10
I0
tp93
a(g92
I3
I0
tp94
a(g92
I27
I0
tp95
a(g92
I7
I0
tp96
a(g92
I18
I0
tp97
a(g92
I2
I0
tp98
a(g92
I20
I0
tp99
a(g92
I17
I0
tp100
aa(lp101
a.