(lp0
(lp1
(dp2
S'action'
p3
cnumpy.core.multiarray
scalar
p4
(cnumpy
dtype
p5
(S'S4'
p6
I0
I1
tp7
Rp8
(I3
S'|'
p9
NNNI4
I1
I0
tp10
bS'walk'
p11
tp12
Rp13
sS'recipient'
p14
NsS'patient'
p15
NsS'goal'
p16
S'3520'
p17
sS'source'
p18
Nsaa(lp19
(dp20
S'all'
p21
(lp22
S'open the office door,turn left walk to end and turn right twice then open first door on right and enter'
p23
asg15
(lp24
sg16
(lp25
S'kitchen'
p26
aS'kitchen'
p27
aS'kitchen'
p28
aS'to the kitchen'
p29
asg18
(lp30
sg3
(lp31
sg14
(lp32
saa(lp33
(g4
(g5
(S'S3'
p34
I0
I1
tp35
Rp36
(I3
S'|'
p37
NNNI3
I1
I0
tp38
bS'can'
p39
tp40
Rp41
I27
I1
tp42
a(g4
(g5
(S'S6'
p43
I0
I1
tp44
Rp45
(I3
S'|'
p46
NNNI6
I1
I0
tp47
bS'coffee'
p48
tp49
Rp50
I27
I1
tp51
a(g4
(g5
(S'S9'
p52
I0
I1
tp53
Rp54
(I3
S'|'
p55
NNNI9
I1
I0
tp56
bS'styrofoam'
p57
tp58
Rp59
I10
I0
tp60
a(g59
I3
I0
tp61
a(g59
I27
I0
tp62
a(g59
I7
I0
tp63
a(g59
I18
I0
tp64
a(g59
I2
I0
tp65
a(g59
I20
I0
tp66
a(g59
I17
I0
tp67
a(g4
(g5
(S'S4'
p68
I0
I1
tp69
Rp70
(I3
S'|'
p71
NNNI4
I1
I0
tp72
bS'blue'
p73
tp74
Rp75
I18
I1
tp76
a(g4
(g5
(S'S6'
p77
I0
I1
tp78
Rp79
(I3
S'|'
p80
NNNI6
I1
I0
tp81
bS'column'
p82
tp83
Rp84
I20
I1
tp85
aa(lp86
a.