(lp0
(lp1
(dp2
S'action'
p3
cnumpy.core.multiarray
scalar
p4
(cnumpy
dtype
p5
(S'S4'
p6
I0
I1
tp7
Rp8
(I3
S'|'
p9
NNNI4
I1
I0
tp10
bS'walk'
p11
tp12
Rp13
sS'recipient'
p14
NsS'patient'
p15
NsS'goal'
p16
g4
(g5
(S'S5'
p17
I0
I1
tp18
Rp19
(I3
S'|'
p20
NNNI5
I1
I0
tp21
bS'3414a'
p22
tp23
Rp24
sS'source'
p25
Nsa(dp26
g3
g4
(g5
(S'S5'
p27
I0
I1
tp28
Rp29
(I3
S'|'
p30
NNNI5
I1
I0
tp31
bS'bring'
p32
tp33
Rp34
sg14
S'r'
p35
sg15
S'oidx_25'
p36
sg16
Nsg25
Nsaa(lp37
(dp38
S'all'
p39
(lp40
S'go to the lab next to the printer'
p41
asg15
(lp42
sg16
(lp43
sg25
(lp44
sg3
(lp45
sg14
(lp46
sa(dp47
g39
(lp48
S'take this to richard rogue'
p49
asg15
(lp50
S'the object on the table'
p51
aS'the object on the table should be delivered to richard rogue secretary'
p52
aS'the object with the gray top'
p53
aS'the object on the table with the gray top'
p54
asg16
(lp55
sg25
(lp56
sg3
(lp57
sg14
(lp58
S'richard rogue'
p59
aS'richard rogue secretary'
p60
aS'richard rogue secretary'
p61
aS'richard rogue secretary'
p62
aS'richard rogue secretary'
p63
aS'richard rogue secretary'
p64
aS'richard rogue secretary'
p65
aS'richard rogue secretary'
p66
aS'richard rogue secretary'
p67
asaa(lp68
(g4
(g5
(S'S5'
p69
I0
I1
tp70
Rp71
(I3
S'|'
p72
NNNI5
I1
I0
tp73
bS'empty'
p74
tp75
Rp76
I10
I0
tp77
a(g76
I3
I0
tp78
a(g76
I27
I0
tp79
a(g76
I7
I0
tp80
a(g76
I18
I0
tp81
a(g76
I2
I0
tp82
a(g76
I20
I0
tp83
a(g76
I17
I0
tp84
a(g4
(g5
(S'S5'
p85
I0
I1
tp86
Rp87
(I3
S'|'
p88
NNNI5
I1
I0
tp89
bS'white'
p90
tp91
Rp92
I10
I0
tp93
a(g92
I3
I0
tp94
a(g92
I27
I0
tp95
a(g92
I7
I0
tp96
a(g92
I18
I0
tp97
a(g92
I2
I0
tp98
a(g92
I20
I0
tp99
a(g92
I17
I0
tp100
a(g4
(g5
(S'S9'
p101
I0
I1
tp102
Rp103
(I3
S'|'
p104
NNNI9
I1
I0
tp105
bS'rectangle'
p106
tp107
Rp108
I10
I0
tp109
a(g108
I3
I0
tp110
a(g108
I27
I0
tp111
a(g108
I7
I0
tp112
a(g108
I18
I0
tp113
a(g108
I2
I0
tp114
a(g108
I20
I0
tp115
a(g108
I17
I0
tp116
a(g4
(g5
(S'S3'
p117
I0
I1
tp118
Rp119
(I3
S'|'
p120
NNNI3
I1
I0
tp121
bS'can'
p122
tp123
Rp124
I2
I1
tp125
a(g4
(g5
(S'S5'
p126
I0
I1
tp127
Rp128
(I3
S'|'
p129
NNNI5
I1
I0
tp130
bS'clear'
p131
tp132
Rp133
I10
I0
tp134
a(g133
I3
I0
tp135
a(g133
I27
I0
tp136
a(g133
I7
I0
tp137
a(g133
I18
I0
tp138
a(g133
I2
I0
tp139
a(g133
I20
I0
tp140
a(g133
I17
I0
tp141
a(g4
(g5
(S'S8'
p142
I0
I1
tp143
Rp144
(I3
S'|'
p145
NNNI8
I1
I0
tp146
bS'cylinder'
p147
tp148
Rp149
I3
I1
tp150
a(g4
(g5
(S'S5'
p151
I0
I1
tp152
Rp153
(I3
S'|'
p154
NNNI5
I1
I0
tp155
bS'block'
p156
tp157
Rp158
I10
I0
tp159
a(g158
I3
I0
tp160
a(g158
I27
I0
tp161
a(g158
I7
I0
tp162
a(g158
I18
I0
tp163
a(g158
I2
I0
tp164
a(g158
I20
I0
tp165
a(g158
I17
I0
tp166
a(g4
(g5
(S'S8'
p167
I0
I1
tp168
Rp169
(I3
S'|'
p170
NNNI8
I1
I0
tp171
bS'pringles'
p172
tp173
Rp174
I10
I0
tp175
a(g174
I3
I0
tp176
a(g174
I27
I0
tp177
a(g174
I7
I0
tp178
a(g174
I18
I0
tp179
a(g174
I2
I0
tp180
a(g174
I20
I0
tp181
a(g174
I17
I0
tp182
a(g4
(g5
(S'S9'
p183
I0
I1
tp184
Rp185
(I3
S'|'
p186
NNNI9
I1
I0
tp187
bS'container'
p188
tp189
Rp190
I7
I1
tp191
a(g4
(g5
(S'S9'
p192
I0
I1
tp193
Rp194
(I3
S'|'
p195
NNNI9
I1
I0
tp196
bS'styrofoam'
p197
tp198
Rp199
I20
I1
tp200
aa(lp201
(S'gray'
p202
S'white'
p203
I00
tp204
a(g202
S'yellow'
p205
I00
tp206
a(g202
S'blue'
p207
I00
tp208
aa.