(lp0
(lp1
(dp2
S'action'
p3
cnumpy.core.multiarray
scalar
p4
(cnumpy
dtype
p5
(S'S4'
p6
I0
I1
tp7
Rp8
(I3
S'|'
p9
NNNI4
I1
I0
tp10
bS'walk'
p11
tp12
Rp13
sS'recipient'
p14
NsS'patient'
p15
NsS'goal'
p16
S'3406'
p17
sS'source'
p18
Nsa(dp19
g3
g4
(g5
(S'S5'
p20
I0
I1
tp21
Rp22
(I3
S'|'
p23
NNNI5
I1
I0
tp24
bS'bring'
p25
tp26
Rp27
sg14
S'b'
p28
sg15
g4
(g5
(S'S7'
p29
I0
I1
tp30
Rp31
(I3
S'|'
p32
NNNI7
I1
I0
tp33
bS'oidx_25'
p34
tp35
Rp36
sg16
Nsg18
Nsa(dp37
g3
g4
(g5
(S'S5'
p38
I0
I1
tp39
Rp40
(I3
S'|'
p41
NNNI5
I1
I0
tp42
bS'bring'
p43
tp44
Rp45
sg14
S'h'
p46
sg15
g4
(g5
(S'S7'
p47
I0
I1
tp48
Rp49
(I3
S'|'
p50
NNNI7
I1
I0
tp51
bS'oidx_28'
p52
tp53
Rp54
sg16
Nsg18
Nsaa(lp55
(dp56
S'all'
p57
(lp58
S'move to lounge'
p59
asg15
(lp60
sg16
(lp61
S'lounge'
p62
asg18
(lp63
sg3
(lp64
sg14
(lp65
sa(dp66
g57
(lp67
S'deliver to b'
p68
asg15
(lp69
S'pringles'
p70
aS'blue object'
p71
aS'object'
p72
aS'object'
p73
aS'object'
p74
asg16
(lp75
sg18
(lp76
sg3
(lp77
sg14
(lp78
S'b'
p79
asa(dp80
g57
(lp81
S'deliver'
p82
asg15
(lp83
S'column'
p84
aS'column'
p85
asg16
(lp86
sg18
(lp87
sg3
(lp88
sg14
(lp89
S'column'
p90
asaa(lp91
(g4
(g5
(S'S9'
p92
I0
I1
tp93
Rp94
(I3
S'|'
p95
NNNI9
I1
I0
tp96
bS'styrofoam'
p97
tp98
Rp99
I10
I0
tp100
a(g99
I3
I0
tp101
a(g99
I27
I0
tp102
a(g99
I7
I0
tp103
a(g99
I18
I0
tp104
a(g99
I2
I0
tp105
a(g99
I20
I0
tp106
a(g99
I17
I0
tp107
a(g4
(g5
(S'S5'
p108
I0
I1
tp109
Rp110
(I3
S'|'
p111
NNNI5
I1
I0
tp112
bS'spice'
p113
tp114
Rp115
I10
I1
tp116
a(g4
(g5
(S'S5'
p117
I0
I1
tp118
Rp119
(I3
S'|'
p120
NNNI5
I1
I0
tp121
bS'empty'
p122
tp123
Rp124
I18
I1
tp125
a(g4
(g5
(S'S5'
p126
I0
I1
tp127
Rp128
(I3
S'|'
p129
NNNI5
I1
I0
tp130
bS'tower'
p131
tp132
Rp133
I3
I1
tp134
a(g4
(g5
(S'S6'
p135
I0
I1
tp136
Rp137
(I3
S'|'
p138
NNNI6
I1
I0
tp139
bS'coffee'
p140
tp141
Rp142
I2
I1
tp143
a(g4
(g5
(S'S6'
p144
I0
I1
tp145
Rp146
(I3
S'|'
p147
NNNI6
I1
I0
tp148
bS'yellow'
p149
tp150
Rp151
I27
I1
tp152
a(g4
(g5
(S'S3'
p153
I0
I1
tp154
Rp155
(I3
S'|'
p156
NNNI3
I1
I0
tp157
bS'can'
p158
tp159
Rp160
I18
I1
tp161
a(g4
(g5
(S'S6'
p162
I0
I1
tp163
Rp164
(I3
S'|'
p165
NNNI6
I1
I0
tp166
bS'column'
p167
tp168
Rp169
I10
I0
tp170
a(g169
I3
I0
tp171
a(g169
I27
I0
tp172
a(g169
I7
I0
tp173
a(g169
I18
I0
tp174
a(g169
I2
I0
tp175
a(g169
I20
I0
tp176
a(g169
I17
I0
tp177
a(g4
(g5
(S'S6'
p178
I0
I1
tp179
Rp180
(I3
S'|'
p181
NNNI6
I1
I0
tp182
bS'yellow'
p183
tp184
Rp185
I2
I0
tp186
a(g4
(g5
(S'S8'
p187
I0
I1
tp188
Rp189
(I3
S'|'
p190
NNNI8
I1
I0
tp191
bS'pringles'
p192
tp193
Rp194
I2
I1
tp195
a(g4
(g5
(S'S5'
p196
I0
I1
tp197
Rp198
(I3
S'|'
p199
NNNI5
I1
I0
tp200
bS'peach'
p201
tp202
Rp203
I10
I0
tp204
a(g203
I3
I0
tp205
a(g203
I27
I0
tp206
a(g203
I7
I0
tp207
a(g203
I18
I0
tp208
a(g203
I2
I0
tp209
a(g203
I20
I0
tp210
a(g203
I17
I0
tp211
a(g4
(g5
(S'S5'
p212
I0
I1
tp213
Rp214
(I3
S'|'
p215
NNNI5
I1
I0
tp216
bS'white'
p217
tp218
Rp219
I10
I0
tp220
a(g219
I3
I0
tp221
a(g219
I27
I0
tp222
a(g219
I7
I0
tp223
a(g219
I18
I0
tp224
a(g219
I2
I0
tp225
a(g219
I20
I0
tp226
a(g219
I17
I0
tp227
a(g4
(g5
(S'S4'
p228
I0
I1
tp229
Rp230
(I3
S'|'
p231
NNNI4
I1
I0
tp232
bS'blue'
p233
tp234
Rp235
I18
I1
tp236
a(g4
(g5
(S'S6'
p237
I0
I1
tp238
Rp239
(I3
S'|'
p240
NNNI6
I1
I0
tp241
bS'coffee'
p242
tp243
Rp244
I2
I0
tp245
a(g4
(g5
(S'S4'
p246
I0
I1
tp247
Rp248
(I3
S'|'
p249
NNNI4
I1
I0
tp250
bS'long'
p251
tp252
Rp253
I3
I1
tp254
aa(lp255
(S'object'
p256
S'container'
p257
I01
tp258
aa.