(lp0
(lp1
(dp2
S'action'
p3
cnumpy.core.multiarray
scalar
p4
(cnumpy
dtype
p5
(S'S4'
p6
I0
I1
tp7
Rp8
(I3
S'|'
p9
NNNI4
I1
I0
tp10
bS'walk'
p11
tp12
Rp13
sS'recipient'
p14
NsS'patient'
p15
NsS'goal'
p16
S'3414b'
p17
sS'source'
p18
Nsa(dp19
g3
g4
(g5
(S'S4'
p20
I0
I1
tp21
Rp22
(I3
S'|'
p23
NNNI4
I1
I0
tp24
bS'walk'
p25
tp26
Rp27
sg14
Nsg15
Nsg16
S'3414a'
p28
sg18
Nsa(dp29
g3
g4
(g5
(S'S4'
p30
I0
I1
tp31
Rp32
(I3
S'|'
p33
NNNI4
I1
I0
tp34
bS'walk'
p35
tp36
Rp37
sg14
Nsg15
Nsg16
g4
(g5
(S'S4'
p38
I0
I1
tp39
Rp40
(I3
S'|'
p41
NNNI4
I1
I0
tp42
bS'3520'
p43
tp44
Rp45
sg18
Nsaa(lp46
(dp47
S'all'
p48
(lp49
S"go to the lab across from david daniel 's office"
p50
asg15
(lp51
sg16
(lp52
S'd office'
p53
aS'lab'
p54
aS'go to the lab'
p55
aS'go to the lab'
p56
asg18
(lp57
sg3
(lp58
sg14
(lp59
sa(dp60
g48
(lp61
S'go to the left'
p62
asg15
(lp63
sg16
(lp64
S'to the white table'
p65
aS'left'
p66
aS's'
p67
aS'here'
p68
aS'lab'
p69
aS'to the lab'
p70
asg18
(lp71
sg3
(lp72
sg14
(lp73
sa(dp74
g48
(lp75
S'go to the kitchen'
p76
asg15
(lp77
sg16
(lp78
sg18
(lp79
sg3
(lp80
sg14
(lp81
saa(lp82
(g4
(g5
(S'S5'
p83
I0
I1
tp84
Rp85
(I3
S'|'
p86
NNNI5
I1
I0
tp87
bS'empty'
p88
tp89
Rp90
I10
I0
tp91
a(g90
I3
I0
tp92
a(g90
I27
I0
tp93
a(g90
I7
I0
tp94
a(g90
I18
I0
tp95
a(g90
I2
I0
tp96
a(g90
I20
I0
tp97
a(g90
I17
I0
tp98
a(g4
(g5
(S'S4'
p99
I0
I1
tp100
Rp101
(I3
S'|'
p102
NNNI4
I1
I0
tp103
bS'long'
p104
tp105
Rp106
I20
I1
tp107
a(g4
(g5
(S'S8'
p108
I0
I1
tp109
Rp110
(I3
S'|'
p111
NNNI8
I1
I0
tp112
bS'pringles'
p113
tp114
Rp115
I10
I0
tp116
a(g115
I3
I0
tp117
a(g115
I27
I0
tp118
a(g115
I7
I0
tp119
a(g115
I18
I0
tp120
a(g115
I2
I0
tp121
a(g115
I20
I0
tp122
a(g115
I17
I0
tp123
a(g4
(g5
(S'S5'
p124
I0
I1
tp125
Rp126
(I3
S'|'
p127
NNNI5
I1
I0
tp128
bS'block'
p129
tp130
Rp131
I10
I0
tp132
a(g131
I3
I0
tp133
a(g131
I27
I0
tp134
a(g131
I7
I0
tp135
a(g131
I18
I0
tp136
a(g131
I2
I0
tp137
a(g131
I20
I0
tp138
a(g131
I17
I0
tp139
a(g4
(g5
(S'S8'
p140
I0
I1
tp141
Rp142
(I3
S'|'
p143
NNNI8
I1
I0
tp144
bS'metallic'
p145
tp146
Rp147
I2
I1
tp148
a(g4
(g5
(S'S5'
p149
I0
I1
tp150
Rp151
(I3
S'|'
p152
NNNI5
I1
I0
tp153
bS'white'
p154
tp155
Rp156
I10
I0
tp157
a(g156
I3
I0
tp158
a(g156
I27
I0
tp159
a(g156
I7
I0
tp160
a(g156
I18
I0
tp161
a(g156
I2
I0
tp162
a(g156
I20
I0
tp163
a(g156
I17
I0
tp164
a(g4
(g5
(S'S5'
p165
I0
I1
tp166
Rp167
(I3
S'|'
p168
NNNI5
I1
I0
tp169
bS'peach'
p170
tp171
Rp172
I10
I0
tp173
a(g172
I3
I0
tp174
a(g172
I27
I0
tp175
a(g172
I7
I0
tp176
a(g172
I18
I0
tp177
a(g172
I2
I0
tp178
a(g172
I20
I0
tp179
a(g172
I17
I0
tp180
a(g4
(g5
(S'S6'
p181
I0
I1
tp182
Rp183
(I3
S'|'
p184
NNNI6
I1
I0
tp185
bS'yellow'
p186
tp187
Rp188
I10
I0
tp189
a(g188
I3
I0
tp190
a(g188
I27
I0
tp191
a(g188
I7
I0
tp192
a(g188
I18
I0
tp193
a(g188
I2
I0
tp194
a(g188
I20
I0
tp195
a(g188
I17
I0
tp196
a(g4
(g5
(S'S6'
p197
I0
I1
tp198
Rp199
(I3
S'|'
p200
NNNI6
I1
I0
tp201
bS'column'
p202
tp203
Rp204
I10
I0
tp205
a(g204
I3
I0
tp206
a(g204
I27
I0
tp207
a(g204
I7
I0
tp208
a(g204
I18
I0
tp209
a(g204
I2
I0
tp210
a(g204
I20
I0
tp211
a(g204
I17
I0
tp212
a(g4
(g5
(S'S8'
p213
I0
I1
tp214
Rp215
(I3
S'|'
p216
NNNI8
I1
I0
tp217
bS'cylinder'
p218
tp219
Rp220
I3
I1
tp221
a(g4
(g5
(S'S8'
p222
I0
I1
tp223
Rp224
(I3
S'|'
p225
NNNI8
I1
I0
tp226
bS'cylinder'
p227
tp228
Rp229
I27
I0
tp230
a(g4
(g5
(S'S9'
p231
I0
I1
tp232
Rp233
(I3
S'|'
p234
NNNI9
I1
I0
tp235
bS'rectangle'
p236
tp237
Rp238
I10
I0
tp239
a(g238
I3
I0
tp240
a(g238
I27
I0
tp241
a(g238
I7
I0
tp242
a(g238
I18
I0
tp243
a(g238
I2
I0
tp244
a(g238
I20
I0
tp245
a(g238
I17
I0
tp246
a(g4
(g5
(S'S8'
p247
I0
I1
tp248
Rp249
(I3
S'|'
p250
NNNI8
I1
I0
tp251
bS'metallic'
p252
tp253
Rp254
I3
I0
tp255
a(g4
(g5
(S'S6'
p256
I0
I1
tp257
Rp258
(I3
S'|'
p259
NNNI6
I1
I0
tp260
bS'coffee'
p261
tp262
Rp263
I10
I0
tp264
a(g263
I3
I0
tp265
a(g263
I27
I0
tp266
a(g263
I7
I0
tp267
a(g263
I18
I0
tp268
a(g263
I2
I0
tp269
a(g263
I20
I0
tp270
a(g263
I17
I0
tp271
a(g4
(g5
(S'S9'
p272
I0
I1
tp273
Rp274
(I3
S'|'
p275
NNNI9
I1
I0
tp276
bS'container'
p277
tp278
Rp279
I2
I1
tp280
aa(lp281
a.