(lp0
(lp1
(dp2
S'action'
p3
cnumpy.core.multiarray
scalar
p4
(cnumpy
dtype
p5
(S'S4'
p6
I0
I1
tp7
Rp8
(I3
S'|'
p9
NNNI4
I1
I0
tp10
bS'walk'
p11
tp12
Rp13
sS'recipient'
p14
NsS'patient'
p15
NsS'goal'
p16
S'3432'
p17
sS'source'
p18
Nsaa(lp19
(dp20
S'all'
p21
(lp22
S'go to secretary office'
p23
asg15
(lp24
sg16
(lp25
S'secretary office'
p26
aS'office'
p27
aS'please go forward and turn right'
p28
aS'go forward and then turn right'
p29
aS'go forward'
p30
aS'turn right'
p31
aS'go see richard'
p32
asg18
(lp33
sg3
(lp34
sg14
(lp35
saa(lp36
(g4
(g5
(S'S4'
p37
I0
I1
tp38
Rp39
(I3
S'|'
p40
NNNI4
I1
I0
tp41
bS'bean'
p42
tp43
Rp44
I10
I0
tp45
a(g44
I3
I0
tp46
a(g44
I27
I0
tp47
a(g44
I7
I0
tp48
a(g44
I18
I0
tp49
a(g44
I2
I0
tp50
a(g44
I20
I0
tp51
a(g44
I17
I0
tp52
a(g4
(g5
(S'S6'
p53
I0
I1
tp54
Rp55
(I3
S'|'
p56
NNNI6
I1
I0
tp57
bS'coffee'
p58
tp59
Rp60
I2
I1
tp61
a(g4
(g5
(S'S8'
p62
I0
I1
tp63
Rp64
(I3
S'|'
p65
NNNI8
I1
I0
tp66
bS'cylinder'
p67
tp68
Rp69
I3
I1
tp70
a(g4
(g5
(S'S9'
p71
I0
I1
tp72
Rp73
(I3
S'|'
p74
NNNI9
I1
I0
tp75
bS'rectangle'
p76
tp77
Rp78
I10
I0
tp79
a(g78
I3
I0
tp80
a(g78
I27
I0
tp81
a(g78
I7
I0
tp82
a(g78
I18
I0
tp83
a(g78
I2
I0
tp84
a(g78
I20
I0
tp85
a(g78
I17
I0
tp86
a(g4
(g5
(S'S8'
p87
I0
I1
tp88
Rp89
(I3
S'|'
p90
NNNI8
I1
I0
tp91
bS'metallic'
p92
tp93
Rp94
I7
I1
tp95
aa(lp96
a.