(lp0
(lp1
(dp2
S'action'
p3
cnumpy.core.multiarray
scalar
p4
(cnumpy
dtype
p5
(S'S4'
p6
I0
I1
tp7
Rp8
(I3
S'|'
p9
NNNI4
I1
I0
tp10
bS'walk'
p11
tp12
Rp13
sS'recipient'
p14
NsS'patient'
p15
NsS'goal'
p16
g4
(g5
(S'S4'
p17
I0
I1
tp18
Rp19
(I3
S'|'
p20
NNNI4
I1
I0
tp21
bS'3520'
p22
tp23
Rp24
sS'source'
p25
Nsa(dp26
g3
g4
(g5
(S'S5'
p27
I0
I1
tp28
Rp29
(I3
S'|'
p30
NNNI5
I1
I0
tp31
bS'bring'
p32
tp33
Rp34
sg14
g4
(g5
(S'S1'
p35
I0
I1
tp36
Rp37
(I3
S'|'
p38
NNNI1
I1
I0
tp39
bS'n'
p40
tp41
Rp42
sg15
g4
(g5
(S'S7'
p43
I0
I1
tp44
Rp45
(I3
S'|'
p46
NNNI7
I1
I0
tp47
bS'oidx_13'
p48
tp49
Rp50
sg16
Nsg25
Nsa(dp51
g3
g4
(g5
(S'S4'
p52
I0
I1
tp53
Rp54
(I3
S'|'
p55
NNNI4
I1
I0
tp56
bS'move'
p57
tp58
Rp59
sg14
Nsg15
S'oidx_28'
p60
sg16
S'3402'
p61
sg25
S'3432'
p62
saa(lp63
(dp64
S'all'
p65
(lp66
S'go to the kitchen'
p67
asg15
(lp68
sg16
(lp69
sg25
(lp70
sg3
(lp71
sg14
(lp72
sa(dp73
g65
(lp74
S'take the pringles containter to dr nancy nagel'
p75
asg15
(lp76
S'the pringles container'
p77
aS'the blue container'
p78
aS'the tall blue container'
p79
aS'the blue cylinder'
p80
asg16
(lp81
sg25
(lp82
sg3
(lp83
sg14
(lp84
S'n'
p85
aS'nancy nagel'
p86
asa(dp87
g65
(lp88
S"take the coffee beans to the office next to david daniel 's office"
p89
asg15
(lp90
S'anything'
p91
asg16
(lp92
sg25
(lp93
S"take the coffee beans from the office next to david daniel 's office and bring them to the office next to the pod"
p94
aS'to the office next to the pod'
p95
aS"take the coffee beans from the office next to david daniel 's office and bring them to the office next to the pod"
p96
aS"take the coffee beans from the office next to david daniel 's office and bring them to the office next to the pod"
p97
aS'from the office to the office'
p98
aS'from the office to the office'
p99
aS"take the coffee beans from the office next to david daniel 's office and bring them to the office next to the pod"
p100
aS'office'
p101
asg3
(lp102
sg14
(lp103
saa(lp104
(g4
(g5
(S'S9'
p105
I0
I1
tp106
Rp107
(I3
S'|'
p108
NNNI9
I1
I0
tp109
bS'styrofoam'
p110
tp111
Rp112
I10
I0
tp113
a(g112
I3
I0
tp114
a(g112
I27
I0
tp115
a(g112
I7
I0
tp116
a(g112
I18
I0
tp117
a(g112
I2
I0
tp118
a(g112
I20
I0
tp119
a(g112
I17
I0
tp120
a(g4
(g5
(S'S6'
p121
I0
I1
tp122
Rp123
(I3
S'|'
p124
NNNI6
I1
I0
tp125
bS'coffee'
p126
tp127
Rp128
I10
I0
tp129
a(g128
I3
I0
tp130
a(g128
I27
I0
tp131
a(g128
I7
I0
tp132
a(g128
I18
I0
tp133
a(g128
I2
I0
tp134
a(g128
I20
I0
tp135
a(g128
I17
I0
tp136
a(g4
(g5
(S'S3'
p137
I0
I1
tp138
Rp139
(I3
S'|'
p140
NNNI3
I1
I0
tp141
bS'can'
p142
tp143
Rp144
I2
I1
tp145
a(g4
(g5
(S'S4'
p146
I0
I1
tp147
Rp148
(I3
S'|'
p149
NNNI4
I1
I0
tp150
bS'bean'
p151
tp152
Rp153
I10
I0
tp154
a(g153
I3
I0
tp155
a(g153
I27
I0
tp156
a(g153
I7
I0
tp157
a(g153
I18
I0
tp158
a(g153
I2
I0
tp159
a(g153
I20
I0
tp160
a(g153
I17
I0
tp161
a(g4
(g5
(S'S5'
p162
I0
I1
tp163
Rp164
(I3
S'|'
p165
NNNI5
I1
I0
tp166
bS'peach'
p167
tp168
Rp169
I10
I0
tp170
a(g169
I3
I0
tp171
a(g169
I27
I0
tp172
a(g169
I7
I0
tp173
a(g169
I18
I0
tp174
a(g169
I2
I0
tp175
a(g169
I20
I0
tp176
a(g169
I17
I0
tp177
a(g4
(g5
(S'S9'
p178
I0
I1
tp179
Rp180
(I3
S'|'
p181
NNNI9
I1
I0
tp182
bS'container'
p183
tp184
Rp185
I7
I1
tp186
a(g4
(g5
(S'S8'
p187
I0
I1
tp188
Rp189
(I3
S'|'
p190
NNNI8
I1
I0
tp191
bS'pringles'
p192
tp193
Rp194
I10
I0
tp195
a(g194
I3
I0
tp196
a(g194
I27
I0
tp197
a(g194
I7
I0
tp198
a(g194
I18
I0
tp199
a(g194
I2
I0
tp200
a(g194
I20
I0
tp201
a(g194
I17
I0
tp202
a(g4
(g5
(S'S9'
p203
I0
I1
tp204
Rp205
(I3
S'|'
p206
NNNI9
I1
I0
tp207
bS'container'
p208
tp209
Rp210
I3
I0
tp211
a(g4
(g5
(S'S9'
p212
I0
I1
tp213
Rp214
(I3
S'|'
p215
NNNI9
I1
I0
tp216
bS'container'
p217
tp218
Rp219
I2
I1
tp220
a(g4
(g5
(S'S9'
p221
I0
I1
tp222
Rp223
(I3
S'|'
p224
NNNI9
I1
I0
tp225
bS'container'
p226
tp227
Rp228
I20
I0
tp229
a(g4
(g5
(S'S6'
p230
I0
I1
tp231
Rp232
(I3
S'|'
p233
NNNI6
I1
I0
tp234
bS'column'
p235
tp236
Rp237
I3
I1
tp238
a(g4
(g5
(S'S5'
p239
I0
I1
tp240
Rp241
(I3
S'|'
p242
NNNI5
I1
I0
tp243
bS'block'
p244
tp245
Rp246
I10
I0
tp247
a(g246
I3
I0
tp248
a(g246
I27
I0
tp249
a(g246
I7
I0
tp250
a(g246
I18
I0
tp251
a(g246
I2
I0
tp252
a(g246
I20
I0
tp253
a(g246
I17
I0
tp254
a(g4
(g5
(S'S5'
p255
I0
I1
tp256
Rp257
(I3
S'|'
p258
NNNI5
I1
I0
tp259
bS'empty'
p260
tp261
Rp262
I10
I0
tp263
a(g262
I3
I0
tp264
a(g262
I27
I0
tp265
a(g262
I7
I0
tp266
a(g262
I18
I0
tp267
a(g262
I2
I0
tp268
a(g262
I20
I0
tp269
a(g262
I17
I0
tp270
a(g4
(g5
(S'S5'
p271
I0
I1
tp272
Rp273
(I3
S'|'
p274
NNNI5
I1
I0
tp275
bS'spice'
p276
tp277
Rp278
I10
I0
tp279
a(g278
I3
I0
tp280
a(g278
I27
I0
tp281
a(g278
I7
I0
tp282
a(g278
I18
I0
tp283
a(g278
I2
I0
tp284
a(g278
I20
I0
tp285
a(g278
I17
I0
tp286
a(g4
(g5
(S'S8'
p287
I0
I1
tp288
Rp289
(I3
S'|'
p290
NNNI8
I1
I0
tp291
bS'metallic'
p292
tp293
Rp294
I7
I1
tp295
aa(lp296
(S'tall'
p297
S'tower'
p298
I00
tp299
a(g297
S'white'
p300
I00
tp301
a(g297
S'long'
p302
I00
tp303
aa.