(lp0
(lp1
(dp2
S'action'
p3
cnumpy.core.multiarray
scalar
p4
(cnumpy
dtype
p5
(S'S4'
p6
I0
I1
tp7
Rp8
(I3
S'|'
p9
NNNI4
I1
I0
tp10
bS'walk'
p11
tp12
Rp13
sS'recipient'
p14
NsS'patient'
p15
NsS'goal'
p16
g4
(g5
(S'S4'
p17
I0
I1
tp18
Rp19
(I3
S'|'
p20
NNNI4
I1
I0
tp21
bS'3404'
p22
tp23
Rp24
sS'source'
p25
Nsaa(lp26
(dp27
S'all'
p28
(lp29
S"go to dave 's office"
p30
asg15
(lp31
sg16
(lp32
sg25
(lp33
sg3
(lp34
sg14
(lp35
saa(lp36
(g4
(g5
(S'S9'
p37
I0
I1
tp38
Rp39
(I3
S'|'
p40
NNNI9
I1
I0
tp41
bS'rectangle'
p42
tp43
Rp44
I10
I0
tp45
a(g44
I3
I0
tp46
a(g44
I27
I0
tp47
a(g44
I7
I0
tp48
a(g44
I18
I0
tp49
a(g44
I2
I0
tp50
a(g44
I20
I0
tp51
a(g44
I17
I0
tp52
a(g4
(g5
(S'S4'
p53
I0
I1
tp54
Rp55
(I3
S'|'
p56
NNNI4
I1
I0
tp57
bS'blue'
p58
tp59
Rp60
I18
I1
tp61
a(g4
(g5
(S'S5'
p62
I0
I1
tp63
Rp64
(I3
S'|'
p65
NNNI5
I1
I0
tp66
bS'white'
p67
tp68
Rp69
I10
I0
tp70
a(g69
I3
I0
tp71
a(g69
I27
I0
tp72
a(g69
I7
I0
tp73
a(g69
I18
I0
tp74
a(g69
I2
I0
tp75
a(g69
I20
I0
tp76
a(g69
I17
I0
tp77
a(g4
(g5
(S'S4'
p78
I0
I1
tp79
Rp80
(I3
S'|'
p81
NNNI4
I1
I0
tp82
bS'blue'
p83
tp84
Rp85
I3
I0
tp86
a(g4
(g5
(S'S9'
p87
I0
I1
tp88
Rp89
(I3
S'|'
p90
NNNI9
I1
I0
tp91
bS'styrofoam'
p92
tp93
Rp94
I20
I1
tp95
aa(lp96
a.