(lp0
(lp1
(dp2
S'action'
p3
cnumpy.core.multiarray
scalar
p4
(cnumpy
dtype
p5
(S'S4'
p6
I0
I1
tp7
Rp8
(I3
S'|'
p9
NNNI4
I1
I0
tp10
bS'walk'
p11
tp12
Rp13
sS'recipient'
p14
NsS'patient'
p15
NsS'goal'
p16
g4
(g5
(S'S4'
p17
I0
I1
tp18
Rp19
(I3
S'|'
p20
NNNI4
I1
I0
tp21
bS'3432'
p22
tp23
Rp24
sS'source'
p25
Nsa(dp26
g3
g4
(g5
(S'S4'
p27
I0
I1
tp28
Rp29
(I3
S'|'
p30
NNNI4
I1
I0
tp31
bS'walk'
p32
tp33
Rp34
sg14
Nsg15
Nsg16
S'3502'
p35
sg25
Nsaa(lp36
(dp37
S'all'
p38
(lp39
S'go to office near dr sybil smalt office'
p40
asg15
(lp41
sg16
(lp42
S'go to the office next to lab'
p43
aS'go to the office next to lab'
p44
aS'go to office near dr sybil smalt office'
p45
aS'go to office near dr sybil smalt office'
p46
aS'go to office near lab'
p47
aS'go to office beside dr sybil smalt office'
p48
aS'go to office near dr sybil smalt office'
p49
aS'go to office next to dr sybil smalt office'
p50
aS'go to office next to dr sybil smalt office'
p51
asg25
(lp52
sg3
(lp53
sg14
(lp54
sa(dp55
g38
(lp56
S'give red color thing to mallory mal maroon'
p57
asg15
(lp58
sg16
(lp59
S'give red thing to mallory mal maroon'
p60
aS'take red thing'
p61
aS'to mallory mal maroon'
p62
aS'give red thing'
p63
aS'to mallory mal maroon'
p64
aS'to give mallory mal maroon'
p65
aS'you should take red thing'
p66
aS'go to red thing'
p67
aS'red thing'
p68
aS'mallory mal maroon'
p69
asg25
(lp70
sg3
(lp71
sg14
(lp72
saa(lp73
(g4
(g5
(S'S4'
p74
I0
I1
tp75
Rp76
(I3
S'|'
p77
NNNI4
I1
I0
tp78
bS'blue'
p79
tp80
Rp81
I18
I1
tp82
a(g4
(g5
(S'S8'
p83
I0
I1
tp84
Rp85
(I3
S'|'
p86
NNNI8
I1
I0
tp87
bS'pringles'
p88
tp89
Rp90
I10
I0
tp91
a(g90
I3
I0
tp92
a(g90
I27
I0
tp93
a(g90
I7
I0
tp94
a(g90
I18
I0
tp95
a(g90
I2
I0
tp96
a(g90
I20
I0
tp97
a(g90
I17
I0
tp98
a(g4
(g5
(S'S5'
p99
I0
I1
tp100
Rp101
(I3
S'|'
p102
NNNI5
I1
I0
tp103
bS'white'
p104
tp105
Rp106
I10
I0
tp107
a(g106
I3
I0
tp108
a(g106
I27
I0
tp109
a(g106
I7
I0
tp110
a(g106
I18
I0
tp111
a(g106
I2
I0
tp112
a(g106
I20
I0
tp113
a(g106
I17
I0
tp114
a(g4
(g5
(S'S5'
p115
I0
I1
tp116
Rp117
(I3
S'|'
p118
NNNI5
I1
I0
tp119
bS'clear'
p120
tp121
Rp122
I10
I0
tp123
a(g122
I3
I0
tp124
a(g122
I27
I0
tp125
a(g122
I7
I0
tp126
a(g122
I18
I0
tp127
a(g122
I2
I0
tp128
a(g122
I20
I0
tp129
a(g122
I17
I0
tp130
a(g4
(g5
(S'S3'
p131
I0
I1
tp132
Rp133
(I3
S'|'
p134
NNNI3
I1
I0
tp135
bS'can'
p136
tp137
Rp138
I10
I0
tp139
a(g138
I3
I0
tp140
a(g138
I27
I0
tp141
a(g138
I7
I0
tp142
a(g138
I18
I0
tp143
a(g138
I2
I0
tp144
a(g138
I20
I0
tp145
a(g138
I17
I0
tp146
a(g4
(g5
(S'S4'
p147
I0
I1
tp148
Rp149
(I3
S'|'
p150
NNNI4
I1
I0
tp151
bS'bean'
p152
tp153
Rp154
I10
I0
tp155
a(g154
I3
I0
tp156
a(g154
I27
I0
tp157
a(g154
I7
I0
tp158
a(g154
I18
I0
tp159
a(g154
I2
I0
tp160
a(g154
I20
I0
tp161
a(g154
I17
I0
tp162
a(g4
(g5
(S'S9'
p163
I0
I1
tp164
Rp165
(I3
S'|'
p166
NNNI9
I1
I0
tp167
bS'container'
p168
tp169
Rp170
I2
I1
tp171
a(g4
(g5
(S'S8'
p172
I0
I1
tp173
Rp174
(I3
S'|'
p175
NNNI8
I1
I0
tp176
bS'metallic'
p177
tp178
Rp179
I10
I0
tp180
a(g179
I3
I0
tp181
a(g179
I27
I0
tp182
a(g179
I7
I0
tp183
a(g179
I18
I0
tp184
a(g179
I2
I0
tp185
a(g179
I20
I0
tp186
a(g179
I17
I0
tp187
a(g4
(g5
(S'S6'
p188
I0
I1
tp189
Rp190
(I3
S'|'
p191
NNNI6
I1
I0
tp192
bS'coffee'
p193
tp194
Rp195
I18
I1
tp196
a(g4
(g5
(S'S5'
p197
I0
I1
tp198
Rp199
(I3
S'|'
p200
NNNI5
I1
I0
tp201
bS'empty'
p202
tp203
Rp204
I20
I1
tp205
aa(lp206
(S'red'
p207
S'white'
p208
I01
tp209
a(S'color'
p210
g208
I01
tp211
aa.