(lp0
(lp1
(dp2
S'action'
p3
cnumpy.core.multiarray
scalar
p4
(cnumpy
dtype
p5
(S'S4'
p6
I0
I1
tp7
Rp8
(I3
S'|'
p9
NNNI4
I1
I0
tp10
bS'walk'
p11
tp12
Rp13
sS'recipient'
p14
NsS'patient'
p15
NsS'goal'
p16
g4
(g5
(S'S4'
p17
I0
I1
tp18
Rp19
(I3
S'|'
p20
NNNI4
I1
I0
tp21
bS'3518'
p22
tp23
Rp24
sS'source'
p25
Nsa(dp26
g3
g4
(g5
(S'S5'
p27
I0
I1
tp28
Rp29
(I3
S'|'
p30
NNNI5
I1
I0
tp31
bS'bring'
p32
tp33
Rp34
sg14
g4
(g5
(S'S1'
p35
I0
I1
tp36
Rp37
(I3
S'|'
p38
NNNI1
I1
I0
tp39
bS'h'
p40
tp41
Rp42
sg15
g4
(g5
(S'S7'
p43
I0
I1
tp44
Rp45
(I3
S'|'
p46
NNNI7
I1
I0
tp47
bS'oidx_22'
p48
tp49
Rp50
sg16
Nsg25
Nsa(dp51
g3
g4
(g5
(S'S4'
p52
I0
I1
tp53
Rp54
(I3
S'|'
p55
NNNI4
I1
I0
tp56
bS'walk'
p57
tp58
Rp59
sg14
Nsg15
Nsg16
S'3418'
p60
sg25
Nsaa(lp61
(dp62
S'all'
p63
(lp64
S"got to the pod that is below dr sybil smalt 's office and to the right of richard rogue 's office"
p65
asg15
(lp66
sg16
(lp67
S'pod'
p68
aS'the pod to the right of a conference room'
p69
aS'the pod in the bottom right'
p70
asg25
(lp71
sg3
(lp72
sg14
(lp73
sa(dp74
g63
(lp75
S'dr heidi hughes needs the clear container with the red lid'
p76
asg15
(lp77
S'the can with the red lid'
p78
aS'a clear bottle with a red lid'
p79
aS'a plastic container with a red lid and beans inside'
p80
aS'a clear plastic container with a red lid'
p81
aS'a bottle'
p82
asg16
(lp83
sg25
(lp84
sg3
(lp85
sg14
(lp86
S'dr heidi hughes'
p87
asa(dp88
g63
(lp89
S"go to the office left of david daniel 's office"
p90
asg15
(lp91
sg16
(lp92
S"the office between a conference room and david 's office"
p93
asg25
(lp94
sg3
(lp95
sg14
(lp96
saa(lp97
(g4
(g5
(S'S4'
p98
I0
I1
tp99
Rp100
(I3
S'|'
p101
NNNI4
I1
I0
tp102
bS'bean'
p103
tp104
Rp105
I10
I0
tp106
a(g105
I3
I0
tp107
a(g105
I27
I0
tp108
a(g105
I7
I0
tp109
a(g105
I18
I0
tp110
a(g105
I2
I0
tp111
a(g105
I20
I0
tp112
a(g105
I17
I0
tp113
a(g4
(g5
(S'S3'
p114
I0
I1
tp115
Rp116
(I3
S'|'
p117
NNNI3
I1
I0
tp118
bS'can'
p119
tp120
Rp121
I10
I1
tp122
a(g4
(g5
(S'S6'
p123
I0
I1
tp124
Rp125
(I3
S'|'
p126
NNNI6
I1
I0
tp127
bS'column'
p128
tp129
Rp130
I10
I0
tp131
a(g130
I3
I0
tp132
a(g130
I27
I0
tp133
a(g130
I7
I0
tp134
a(g130
I18
I0
tp135
a(g130
I2
I0
tp136
a(g130
I20
I0
tp137
a(g130
I17
I0
tp138
a(g4
(g5
(S'S8'
p139
I0
I1
tp140
Rp141
(I3
S'|'
p142
NNNI8
I1
I0
tp143
bS'metallic'
p144
tp145
Rp146
I10
I0
tp147
a(g146
I3
I0
tp148
a(g146
I27
I0
tp149
a(g146
I7
I0
tp150
a(g146
I18
I0
tp151
a(g146
I2
I0
tp152
a(g146
I20
I0
tp153
a(g146
I17
I0
tp154
a(g4
(g5
(S'S6'
p155
I0
I1
tp156
Rp157
(I3
S'|'
p158
NNNI6
I1
I0
tp159
bS'coffee'
p160
tp161
Rp162
I2
I1
tp163
a(g4
(g5
(S'S3'
p164
I0
I1
tp165
Rp166
(I3
S'|'
p167
NNNI3
I1
I0
tp168
bS'can'
p169
tp170
Rp171
I20
I0
tp172
a(g4
(g5
(S'S3'
p173
I0
I1
tp174
Rp175
(I3
S'|'
p176
NNNI3
I1
I0
tp177
bS'can'
p178
tp179
Rp180
I2
I1
tp181
a(g4
(g5
(S'S5'
p182
I0
I1
tp183
Rp184
(I3
S'|'
p185
NNNI5
I1
I0
tp186
bS'clear'
p187
tp188
Rp189
I10
I0
tp190
a(g189
I3
I0
tp191
a(g189
I27
I0
tp192
a(g189
I7
I0
tp193
a(g189
I18
I0
tp194
a(g189
I2
I0
tp195
a(g189
I20
I0
tp196
a(g189
I17
I0
tp197
a(g4
(g5
(S'S3'
p198
I0
I1
tp199
Rp200
(I3
S'|'
p201
NNNI3
I1
I0
tp202
bS'can'
p203
tp204
Rp205
I27
I0
tp206
a(g4
(g5
(S'S6'
p207
I0
I1
tp208
Rp209
(I3
S'|'
p210
NNNI6
I1
I0
tp211
bS'coffee'
p212
tp213
Rp214
I7
I0
tp215
a(g4
(g5
(S'S5'
p216
I0
I1
tp217
Rp218
(I3
S'|'
p219
NNNI5
I1
I0
tp220
bS'peach'
p221
tp222
Rp223
I10
I0
tp224
a(g223
I3
I0
tp225
a(g223
I27
I0
tp226
a(g223
I7
I0
tp227
a(g223
I18
I0
tp228
a(g223
I2
I0
tp229
a(g223
I20
I0
tp230
a(g223
I17
I0
tp231
a(g4
(g5
(S'S9'
p232
I0
I1
tp233
Rp234
(I3
S'|'
p235
NNNI9
I1
I0
tp236
bS'styrofoam'
p237
tp238
Rp239
I20
I1
tp240
a(g4
(g5
(S'S8'
p241
I0
I1
tp242
Rp243
(I3
S'|'
p244
NNNI8
I1
I0
tp245
bS'cylinder'
p246
tp247
Rp248
I10
I0
tp249
a(g248
I3
I0
tp250
a(g248
I27
I0
tp251
a(g248
I7
I0
tp252
a(g248
I18
I0
tp253
a(g248
I2
I0
tp254
a(g248
I20
I0
tp255
a(g248
I17
I0
tp256
a(g4
(g5
(S'S9'
p257
I0
I1
tp258
Rp259
(I3
S'|'
p260
NNNI9
I1
I0
tp261
bS'rectangle'
p262
tp263
Rp264
I10
I0
tp265
a(g264
I3
I0
tp266
a(g264
I27
I0
tp267
a(g264
I7
I0
tp268
a(g264
I18
I0
tp269
a(g264
I2
I0
tp270
a(g264
I20
I0
tp271
a(g264
I17
I0
tp272
a(g4
(g5
(S'S9'
p273
I0
I1
tp274
Rp275
(I3
S'|'
p276
NNNI9
I1
I0
tp277
bS'container'
p278
tp279
Rp280
I10
I0
tp281
a(g280
I3
I0
tp282
a(g280
I27
I0
tp283
a(g280
I7
I0
tp284
a(g280
I18
I0
tp285
a(g280
I2
I0
tp286
a(g280
I20
I0
tp287
a(g280
I17
I0
tp288
aa(lp289
(S'is'
p290
S'can'
p291
I00
tp292
a(S'red'
p293
S'white'
p294
I00
tp295
a(g293
S'yellow'
p296
I00
tp297
a(g293
S'blue'
p298
I00
tp299
a(S'plastic'
p300
S'container'
p301
I00
tp302
a(g300
g294
I00
tp303
a(g300
S'metallic'
p304
I00
tp305
aa.