(lp0
(lp1
(dp2
S'action'
p3
cnumpy.core.multiarray
scalar
p4
(cnumpy
dtype
p5
(S'S4'
p6
I0
I1
tp7
Rp8
(I3
S'|'
p9
NNNI4
I1
I0
tp10
bS'walk'
p11
tp12
Rp13
sS'recipient'
p14
NsS'patient'
p15
NsS'goal'
p16
S'3510'
p17
sS'source'
p18
Nsa(dp19
g3
g4
(g5
(S'S5'
p20
I0
I1
tp21
Rp22
(I3
S'|'
p23
NNNI5
I1
I0
tp24
bS'bring'
p25
tp26
Rp27
sg14
S's'
p28
sg15
S'oidx_28'
p29
sg16
Nsg18
Nsa(dp30
g3
g4
(g5
(S'S4'
p31
I0
I1
tp32
Rp33
(I3
S'|'
p34
NNNI4
I1
I0
tp35
bS'move'
p36
tp37
Rp38
sg14
Nsg15
S'oidx_11'
p39
sg16
S'3520'
p40
sg18
S'3506'
p41
saa(lp42
(dp43
S'all'
p44
(lp45
S'move'
p46
asg15
(lp47
sg16
(lp48
S'small'
p49
aS'white'
p50
aS'white'
p51
aS'office'
p52
aS'smal;'
p53
aS'small'
p54
aS'should go office'
p55
aS'can'
p56
aS'can'
p57
aS'office3'
p58
aS'go office'
p59
aS'you'
p60
aS'small'
p61
aS'office'
p62
asg18
(lp63
sg3
(lp64
sg14
(lp65
sa(dp66
g44
(lp67
S'deliver'
p68
asg15
(lp69
S'white'
p70
asg16
(lp71
sg18
(lp72
sg3
(lp73
sg14
(lp74
S'w'
p75
asa(dp76
g44
(lp77
S'move'
p78
asg15
(lp79
S'yes'
p80
asg16
(lp81
S'conference'
p82
asg18
(lp83
S'conference'
p84
asg3
(lp85
sg14
(lp86
saa(lp87
(g4
(g5
(S'S4'
p88
I0
I1
tp89
Rp90
(I3
S'|'
p91
NNNI4
I1
I0
tp92
bS'bean'
p93
tp94
Rp95
I17
I1
tp96
a(g4
(g5
(S'S4'
p97
I0
I1
tp98
Rp99
(I3
S'|'
p100
NNNI4
I1
I0
tp101
bS'blue'
p102
tp103
Rp104
I7
I1
tp105
a(g4
(g5
(S'S8'
p106
I0
I1
tp107
Rp108
(I3
S'|'
p109
NNNI8
I1
I0
tp110
bS'pringles'
p111
tp112
Rp113
I7
I1
tp114
a(g4
(g5
(S'S3'
p115
I0
I1
tp116
Rp117
(I3
S'|'
p118
NNNI3
I1
I0
tp119
bS'can'
p120
tp121
Rp122
I3
I1
tp123
a(g4
(g5
(S'S3'
p124
I0
I1
tp125
Rp126
(I3
S'|'
p127
NNNI3
I1
I0
tp128
bS'can'
p129
tp130
Rp131
I3
I0
tp132
a(g4
(g5
(S'S5'
p133
I0
I1
tp134
Rp135
(I3
S'|'
p136
NNNI5
I1
I0
tp137
bS'empty'
p138
tp139
Rp140
I18
I1
tp141
a(g4
(g5
(S'S9'
p142
I0
I1
tp143
Rp144
(I3
S'|'
p145
NNNI9
I1
I0
tp146
bS'rectangle'
p147
tp148
Rp149
I2
I1
tp150
a(g4
(g5
(S'S6'
p151
I0
I1
tp152
Rp153
(I3
S'|'
p154
NNNI6
I1
I0
tp155
bS'coffee'
p156
tp157
Rp158
I17
I1
tp159
a(g4
(g5
(S'S6'
p160
I0
I1
tp161
Rp162
(I3
S'|'
p163
NNNI6
I1
I0
tp164
bS'yellow'
p165
tp166
Rp167
I20
I1
tp168
a(g4
(g5
(S'S9'
p169
I0
I1
tp170
Rp171
(I3
S'|'
p172
NNNI9
I1
I0
tp173
bS'styrofoam'
p174
tp175
Rp176
I7
I1
tp177
a(g4
(g5
(S'S5'
p178
I0
I1
tp179
Rp180
(I3
S'|'
p181
NNNI5
I1
I0
tp182
bS'block'
p183
tp184
Rp185
I27
I1
tp186
a(g4
(g5
(S'S6'
p187
I0
I1
tp188
Rp189
(I3
S'|'
p190
NNNI6
I1
I0
tp191
bS'column'
p192
tp193
Rp194
I3
I1
tp195
a(g4
(g5
(S'S5'
p196
I0
I1
tp197
Rp198
(I3
S'|'
p199
NNNI5
I1
I0
tp200
bS'clear'
p201
tp202
Rp203
I10
I1
tp204
a(g4
(g5
(S'S5'
p205
I0
I1
tp206
Rp207
(I3
S'|'
p208
NNNI5
I1
I0
tp209
bS'block'
p210
tp211
Rp212
I2
I0
tp213
a(g4
(g5
(S'S4'
p214
I0
I1
tp215
Rp216
(I3
S'|'
p217
NNNI4
I1
I0
tp218
bS'blue'
p219
tp220
Rp221
I27
I0
tp222
aa(lp223
(g49
S'white'
p224
I01
tp225
a(S'should'
p226
S'can'
p227
I01
tp228
a(g60
g227
I00
tp229
aa.