(lp0
(lp1
(dp2
S'action'
p3
cnumpy.core.multiarray
scalar
p4
(cnumpy
dtype
p5
(S'S4'
p6
I0
I1
tp7
Rp8
(I3
S'|'
p9
NNNI4
I1
I0
tp10
bS'move'
p11
tp12
Rp13
sS'recipient'
p14
NsS'patient'
p15
S'oidx_25'
p16
sS'goal'
p17
g4
(g5
(S'S4'
p18
I0
I1
tp19
Rp20
(I3
S'|'
p21
NNNI4
I1
I0
tp22
bS'3520'
p23
tp24
Rp25
sS'source'
p26
S'3510'
p27
sa(dp28
g3
g4
(g5
(S'S5'
p29
I0
I1
tp30
Rp31
(I3
S'|'
p32
NNNI5
I1
I0
tp33
bS'bring'
p34
tp35
Rp36
sg14
S'm'
p37
sg15
S'oidx_11'
p38
sg17
Nsg26
Nsaa(lp39
(dp40
S'all'
p41
(lp42
S'w'
p43
asg15
(lp44
S'yourse;f'
p45
asg17
(lp46
S'move to the kitchen'
p47
asg26
(lp48
S'office'
p49
aS'office b'
p50
aS'office'
p51
aS'office b'
p52
asg3
(lp53
sg14
(lp54
sa(dp55
g41
(lp56
S'give the object to mal'
p57
asg15
(lp58
sg17
(lp59
sg26
(lp60
sg3
(lp61
sg14
(lp62
S'mal'
p63
aS'm'
p64
aS'no'
p65
aS'noone'
p66
aS'no'
p67
aS'do not deliver this'
p68
aS'dont'
p69
asaa(lp70
(g4
(g5
(S'S8'
p71
I0
I1
tp72
Rp73
(I3
S'|'
p74
NNNI8
I1
I0
tp75
bS'cylinder'
p76
tp77
Rp78
I10
I0
tp79
a(g78
I3
I0
tp80
a(g78
I27
I0
tp81
a(g78
I7
I0
tp82
a(g78
I18
I0
tp83
a(g78
I2
I0
tp84
a(g78
I20
I0
tp85
a(g78
I17
I0
tp86
a(g4
(g5
(S'S8'
p87
I0
I1
tp88
Rp89
(I3
S'|'
p90
NNNI8
I1
I0
tp91
bS'metallic'
p92
tp93
Rp94
I10
I0
tp95
a(g94
I3
I0
tp96
a(g94
I27
I0
tp97
a(g94
I7
I0
tp98
a(g94
I18
I0
tp99
a(g94
I2
I0
tp100
a(g94
I20
I0
tp101
a(g94
I17
I0
tp102
a(g4
(g5
(S'S6'
p103
I0
I1
tp104
Rp105
(I3
S'|'
p106
NNNI6
I1
I0
tp107
bS'yellow'
p108
tp109
Rp110
I10
I0
tp111
a(g110
I3
I0
tp112
a(g110
I27
I0
tp113
a(g110
I7
I0
tp114
a(g110
I18
I0
tp115
a(g110
I2
I0
tp116
a(g110
I20
I0
tp117
a(g110
I17
I0
tp118
a(g4
(g5
(S'S5'
p119
I0
I1
tp120
Rp121
(I3
S'|'
p122
NNNI5
I1
I0
tp123
bS'white'
p124
tp125
Rp126
I10
I0
tp127
a(g126
I3
I0
tp128
a(g126
I27
I0
tp129
a(g126
I7
I0
tp130
a(g126
I18
I0
tp131
a(g126
I2
I0
tp132
a(g126
I20
I0
tp133
a(g126
I17
I0
tp134
a(g4
(g5
(S'S4'
p135
I0
I1
tp136
Rp137
(I3
S'|'
p138
NNNI4
I1
I0
tp139
bS'blue'
p140
tp141
Rp142
I10
I0
tp143
a(g142
I3
I0
tp144
a(g142
I27
I0
tp145
a(g142
I7
I0
tp146
a(g142
I18
I0
tp147
a(g142
I2
I0
tp148
a(g142
I20
I0
tp149
a(g142
I17
I0
tp150
a(g4
(g5
(S'S9'
p151
I0
I1
tp152
Rp153
(I3
S'|'
p154
NNNI9
I1
I0
tp155
bS'container'
p156
tp157
Rp158
I10
I0
tp159
a(g158
I3
I0
tp160
a(g158
I27
I0
tp161
a(g158
I7
I0
tp162
a(g158
I18
I0
tp163
a(g158
I2
I0
tp164
a(g158
I20
I0
tp165
a(g158
I17
I0
tp166
a(g4
(g5
(S'S6'
p167
I0
I1
tp168
Rp169
(I3
S'|'
p170
NNNI6
I1
I0
tp171
bS'column'
p172
tp173
Rp174
I3
I1
tp175
a(g4
(g5
(S'S5'
p176
I0
I1
tp177
Rp178
(I3
S'|'
p179
NNNI5
I1
I0
tp180
bS'clear'
p181
tp182
Rp183
I10
I0
tp184
a(g183
I3
I0
tp185
a(g183
I27
I0
tp186
a(g183
I7
I0
tp187
a(g183
I18
I0
tp188
a(g183
I2
I0
tp189
a(g183
I20
I0
tp190
a(g183
I17
I0
tp191
a(g4
(g5
(S'S5'
p192
I0
I1
tp193
Rp194
(I3
S'|'
p195
NNNI5
I1
I0
tp196
bS'peach'
p197
tp198
Rp199
I27
I1
tp200
a(g4
(g5
(S'S5'
p201
I0
I1
tp202
Rp203
(I3
S'|'
p204
NNNI5
I1
I0
tp205
bS'tower'
p206
tp207
Rp208
I10
I0
tp209
a(g208
I3
I0
tp210
a(g208
I27
I0
tp211
a(g208
I7
I0
tp212
a(g208
I18
I0
tp213
a(g208
I2
I0
tp214
a(g208
I20
I0
tp215
a(g208
I17
I0
tp216
aa(lp217
(S'object'
p218
S'container'
p219
I01
tp220
aa.