(lp0
(lp1
(dp2
S'action'
p3
cnumpy.core.multiarray
scalar
p4
(cnumpy
dtype
p5
(S'S5'
p6
I0
I1
tp7
Rp8
(I3
S'|'
p9
NNNI5
I1
I0
tp10
bS'bring'
p11
tp12
Rp13
sS'recipient'
p14
S's'
p15
sS'patient'
p16
S'oidx_11'
p17
sS'goal'
p18
NsS'source'
p19
Nsaa(lp20
(dp21
S'all'
p22
(lp23
S'exit david daniel office'
p24
asg16
(lp25
S'a pen'
p26
aS'a pen'
p27
aS'a pen'
p28
asg18
(lp29
sg19
(lp30
sg3
(lp31
sg14
(lp32
saa(lp33
(g4
(g5
(S'S5'
p34
I0
I1
tp35
Rp36
(I3
S'|'
p37
NNNI5
I1
I0
tp38
bS'clear'
p39
tp40
Rp41
I10
I0
tp42
a(g41
I3
I0
tp43
a(g41
I27
I0
tp44
a(g41
I7
I0
tp45
a(g41
I18
I0
tp46
a(g41
I2
I0
tp47
a(g41
I20
I0
tp48
a(g41
I17
I0
tp49
a(g4
(g5
(S'S6'
p50
I0
I1
tp51
Rp52
(I3
S'|'
p53
NNNI6
I1
I0
tp54
bS'yellow'
p55
tp56
Rp57
I10
I0
tp58
a(g57
I3
I0
tp59
a(g57
I27
I0
tp60
a(g57
I7
I0
tp61
a(g57
I18
I0
tp62
a(g57
I2
I0
tp63
a(g57
I20
I0
tp64
a(g57
I17
I0
tp65
a(g4
(g5
(S'S5'
p66
I0
I1
tp67
Rp68
(I3
S'|'
p69
NNNI5
I1
I0
tp70
bS'tower'
p71
tp72
Rp73
I7
I1
tp74
a(g4
(g5
(S'S8'
p75
I0
I1
tp76
Rp77
(I3
S'|'
p78
NNNI8
I1
I0
tp79
bS'pringles'
p80
tp81
Rp82
I10
I0
tp83
a(g82
I3
I0
tp84
a(g82
I27
I0
tp85
a(g82
I7
I0
tp86
a(g82
I18
I0
tp87
a(g82
I2
I0
tp88
a(g82
I20
I0
tp89
a(g82
I17
I0
tp90
a(g4
(g5
(S'S5'
p91
I0
I1
tp92
Rp93
(I3
S'|'
p94
NNNI5
I1
I0
tp95
bS'empty'
p96
tp97
Rp98
I10
I0
tp99
a(g98
I3
I0
tp100
a(g98
I27
I0
tp101
a(g98
I7
I0
tp102
a(g98
I18
I0
tp103
a(g98
I2
I0
tp104
a(g98
I20
I0
tp105
a(g98
I17
I0
tp106
aa(lp107
a.