(lp0
(lp1
(dp2
S'action'
p3
cnumpy.core.multiarray
scalar
p4
(cnumpy
dtype
p5
(S'S4'
p6
I0
I1
tp7
Rp8
(I3
S'|'
p9
NNNI4
I1
I0
tp10
bS'walk'
p11
tp12
Rp13
sS'recipient'
p14
NsS'patient'
p15
NsS'goal'
p16
g4
(g5
(S'S4'
p17
I0
I1
tp18
Rp19
(I3
S'|'
p20
NNNI4
I1
I0
tp21
bS'3502'
p22
tp23
Rp24
sS'source'
p25
Nsa(dp26
g3
g4
(g5
(S'S4'
p27
I0
I1
tp28
Rp29
(I3
S'|'
p30
NNNI4
I1
I0
tp31
bS'walk'
p32
tp33
Rp34
sg14
Nsg15
Nsg16
S'3510'
p35
sg25
Nsa(dp36
g3
g4
(g5
(S'S5'
p37
I0
I1
tp38
Rp39
(I3
S'|'
p40
NNNI5
I1
I0
tp41
bS'bring'
p42
tp43
Rp44
sg14
S'r'
p45
sg15
S'oidx_12'
p46
sg16
Nsg25
Nsaa(lp47
(dp48
S'all'
p49
(lp50
S"exit from mallory mal maroon 's office"
p51
asg15
(lp52
sg16
(lp53
sg25
(lp54
sg3
(lp55
sg14
(lp56
sa(dp57
g49
(lp58
S'transport the pringles can to bob'
p59
asg15
(lp60
sg16
(lp61
S'to bob'
p62
aS'take the can to bob office'
p63
aS'robert brown office'
p64
asg25
(lp65
sg3
(lp66
sg14
(lp67
sa(dp68
g49
(lp69
S'take the object from peggy to pod'
p70
asg15
(lp71
S'styrofoam'
p72
aS'styrofoam'
p73
asg16
(lp74
sg25
(lp75
sg3
(lp76
sg14
(lp77
saa(lp78
(g4
(g5
(S'S8'
p79
I0
I1
tp80
Rp81
(I3
S'|'
p82
NNNI8
I1
I0
tp83
bS'cylinder'
p84
tp85
Rp86
I3
I1
tp87
a(g4
(g5
(S'S9'
p88
I0
I1
tp89
Rp90
(I3
S'|'
p91
NNNI9
I1
I0
tp92
bS'styrofoam'
p93
tp94
Rp95
I3
I1
tp96
a(g4
(g5
(S'S6'
p97
I0
I1
tp98
Rp99
(I3
S'|'
p100
NNNI6
I1
I0
tp101
bS'yellow'
p102
tp103
Rp104
I10
I0
tp105
a(g104
I3
I0
tp106
a(g104
I27
I0
tp107
a(g104
I7
I0
tp108
a(g104
I18
I0
tp109
a(g104
I2
I0
tp110
a(g104
I20
I0
tp111
a(g104
I17
I0
tp112
a(g4
(g5
(S'S5'
p113
I0
I1
tp114
Rp115
(I3
S'|'
p116
NNNI5
I1
I0
tp117
bS'block'
p118
tp119
Rp120
I3
I1
tp121
a(g4
(g5
(S'S4'
p122
I0
I1
tp123
Rp124
(I3
S'|'
p125
NNNI4
I1
I0
tp126
bS'bean'
p127
tp128
Rp129
I10
I0
tp130
a(g129
I3
I0
tp131
a(g129
I27
I0
tp132
a(g129
I7
I0
tp133
a(g129
I18
I0
tp134
a(g129
I2
I0
tp135
a(g129
I20
I0
tp136
a(g129
I17
I0
tp137
a(g4
(g5
(S'S9'
p138
I0
I1
tp139
Rp140
(I3
S'|'
p141
NNNI9
I1
I0
tp142
bS'rectangle'
p143
tp144
Rp145
I10
I0
tp146
a(g145
I3
I0
tp147
a(g145
I27
I0
tp148
a(g145
I7
I0
tp149
a(g145
I18
I0
tp150
a(g145
I2
I0
tp151
a(g145
I20
I0
tp152
a(g145
I17
I0
tp153
a(g4
(g5
(S'S5'
p154
I0
I1
tp155
Rp156
(I3
S'|'
p157
NNNI5
I1
I0
tp158
bS'empty'
p159
tp160
Rp161
I10
I0
tp162
a(g161
I3
I0
tp163
a(g161
I27
I0
tp164
a(g161
I7
I0
tp165
a(g161
I18
I0
tp166
a(g161
I2
I0
tp167
a(g161
I20
I0
tp168
a(g161
I17
I0
tp169
a(g4
(g5
(S'S6'
p170
I0
I1
tp171
Rp172
(I3
S'|'
p173
NNNI6
I1
I0
tp174
bS'column'
p175
tp176
Rp177
I20
I1
tp178
a(g4
(g5
(S'S9'
p179
I0
I1
tp180
Rp181
(I3
S'|'
p182
NNNI9
I1
I0
tp183
bS'container'
p184
tp185
Rp186
I2
I1
tp187
a(g4
(g5
(S'S4'
p188
I0
I1
tp189
Rp190
(I3
S'|'
p191
NNNI4
I1
I0
tp192
bS'long'
p193
tp194
Rp195
I3
I1
tp196
a(g4
(g5
(S'S9'
p197
I0
I1
tp198
Rp199
(I3
S'|'
p200
NNNI9
I1
I0
tp201
bS'styrofoam'
p202
tp203
Rp204
I2
I0
tp205
a(g4
(g5
(S'S5'
p206
I0
I1
tp207
Rp208
(I3
S'|'
p209
NNNI5
I1
I0
tp210
bS'clear'
p211
tp212
Rp213
I2
I1
tp214
a(g4
(g5
(S'S4'
p215
I0
I1
tp216
Rp217
(I3
S'|'
p218
NNNI4
I1
I0
tp219
bS'blue'
p220
tp221
Rp222
I18
I1
tp223
a(g4
(g5
(S'S5'
p224
I0
I1
tp225
Rp226
(I3
S'|'
p227
NNNI5
I1
I0
tp228
bS'block'
p229
tp230
Rp231
I10
I1
tp232
a(g231
I3
I1
tp233
a(g231
I27
I1
tp234
a(g231
I7
I1
tp235
a(g231
I18
I1
tp236
a(g231
I2
I1
tp237
a(g231
I20
I1
tp238
a(g231
I17
I1
tp239
a(g4
(g5
(S'S5'
p240
I0
I1
tp241
Rp242
(I3
S'|'
p243
NNNI5
I1
I0
tp244
bS'spice'
p245
tp246
Rp247
I10
I0
tp248
a(g247
I3
I0
tp249
a(g247
I27
I0
tp250
a(g247
I7
I0
tp251
a(g247
I18
I0
tp252
a(g247
I2
I0
tp253
a(g247
I20
I0
tp254
a(g247
I17
I0
tp255
aa(lp256
(S'object'
p257
S'container'
p258
I00
tp259
a(g257
S'metallic'
p260
I00
tp261
aa.