(lp0
(lp1
(dp2
S'action'
p3
cnumpy.core.multiarray
scalar
p4
(cnumpy
dtype
p5
(S'S4'
p6
I0
I1
tp7
Rp8
(I3
S'|'
p9
NNNI4
I1
I0
tp10
bS'walk'
p11
tp12
Rp13
sS'recipient'
p14
NsS'patient'
p15
NsS'goal'
p16
g4
(g5
(S'S4'
p17
I0
I1
tp18
Rp19
(I3
S'|'
p20
NNNI4
I1
I0
tp21
bS'3422'
p22
tp23
Rp24
sS'source'
p25
Nsaa(lp26
(dp27
S'all'
p28
(lp29
S'walk into the hallway'
p30
asg15
(lp31
sg16
(lp32
S'walter ward supervisor'
p33
asg25
(lp34
sg3
(lp35
sg14
(lp36
saa(lp37
(g4
(g5
(S'S5'
p38
I0
I1
tp39
Rp40
(I3
S'|'
p41
NNNI5
I1
I0
tp42
bS'block'
p43
tp44
Rp45
I10
I0
tp46
a(g45
I3
I0
tp47
a(g45
I27
I0
tp48
a(g45
I7
I0
tp49
a(g45
I18
I0
tp50
a(g45
I2
I0
tp51
a(g45
I20
I0
tp52
a(g45
I17
I0
tp53
a(g4
(g5
(S'S6'
p54
I0
I1
tp55
Rp56
(I3
S'|'
p57
NNNI6
I1
I0
tp58
bS'coffee'
p59
tp60
Rp61
I2
I1
tp62
a(g4
(g5
(S'S9'
p63
I0
I1
tp64
Rp65
(I3
S'|'
p66
NNNI9
I1
I0
tp67
bS'styrofoam'
p68
tp69
Rp70
I20
I1
tp71
a(g4
(g5
(S'S8'
p72
I0
I1
tp73
Rp74
(I3
S'|'
p75
NNNI8
I1
I0
tp76
bS'metallic'
p77
tp78
Rp79
I10
I0
tp80
a(g79
I3
I0
tp81
a(g79
I27
I0
tp82
a(g79
I7
I0
tp83
a(g79
I18
I0
tp84
a(g79
I2
I0
tp85
a(g79
I20
I0
tp86
a(g79
I17
I0
tp87
a(g4
(g5
(S'S5'
p88
I0
I1
tp89
Rp90
(I3
S'|'
p91
NNNI5
I1
I0
tp92
bS'clear'
p93
tp94
Rp95
I10
I0
tp96
a(g95
I3
I0
tp97
a(g95
I27
I0
tp98
a(g95
I7
I0
tp99
a(g95
I18
I0
tp100
a(g95
I2
I0
tp101
a(g95
I20
I0
tp102
a(g95
I17
I0
tp103
aa(lp104
a.