(lp0
(lp1
(dp2
S'action'
p3
cnumpy.core.multiarray
scalar
p4
(cnumpy
dtype
p5
(S'S4'
p6
I0
I1
tp7
Rp8
(I3
S'|'
p9
NNNI4
I1
I0
tp10
bS'walk'
p11
tp12
Rp13
sS'recipient'
p14
NsS'patient'
p15
NsS'goal'
p16
g4
(g5
(S'S4'
p17
I0
I1
tp18
Rp19
(I3
S'|'
p20
NNNI4
I1
I0
tp21
bS'3502'
p22
tp23
Rp24
sS'source'
p25
Nsaa(lp26
(dp27
S'all'
p28
(lp29
S'go to the office m'
p30
asg15
(lp31
sg16
(lp32
S'office m'
p33
aS'to the office m'
p34
aS'go to office'
p35
aS'go to the office'
p36
aS'go to the office m'
p37
aS'go to the office m'
p38
aS'go to the office m'
p39
aS'go to the office m'
p40
aS'mallory mal maroon'
p41
asg25
(lp42
sg3
(lp43
sg14
(lp44
saa(lp45
(g4
(g5
(S'S5'
p46
I0
I1
tp47
Rp48
(I3
S'|'
p49
NNNI5
I1
I0
tp50
bS'tower'
p51
tp52
Rp53
I10
I0
tp54
a(g53
I3
I0
tp55
a(g53
I27
I0
tp56
a(g53
I7
I0
tp57
a(g53
I18
I0
tp58
a(g53
I2
I0
tp59
a(g53
I20
I0
tp60
a(g53
I17
I0
tp61
a(g4
(g5
(S'S5'
p62
I0
I1
tp63
Rp64
(I3
S'|'
p65
NNNI5
I1
I0
tp66
bS'white'
p67
tp68
Rp69
I10
I0
tp70
a(g69
I3
I0
tp71
a(g69
I27
I0
tp72
a(g69
I7
I0
tp73
a(g69
I18
I0
tp74
a(g69
I2
I0
tp75
a(g69
I20
I0
tp76
a(g69
I17
I0
tp77
a(g4
(g5
(S'S9'
p78
I0
I1
tp79
Rp80
(I3
S'|'
p81
NNNI9
I1
I0
tp82
bS'container'
p83
tp84
Rp85
I10
I0
tp86
a(g85
I3
I0
tp87
a(g85
I27
I0
tp88
a(g85
I7
I0
tp89
a(g85
I18
I0
tp90
a(g85
I2
I0
tp91
a(g85
I20
I0
tp92
a(g85
I17
I0
tp93
a(g4
(g5
(S'S5'
p94
I0
I1
tp95
Rp96
(I3
S'|'
p97
NNNI5
I1
I0
tp98
bS'clear'
p99
tp100
Rp101
I10
I0
tp102
a(g101
I3
I0
tp103
a(g101
I27
I0
tp104
a(g101
I7
I0
tp105
a(g101
I18
I0
tp106
a(g101
I2
I0
tp107
a(g101
I20
I0
tp108
a(g101
I17
I0
tp109
a(g4
(g5
(S'S4'
p110
I0
I1
tp111
Rp112
(I3
S'|'
p113
NNNI4
I1
I0
tp114
bS'long'
p115
tp116
Rp117
I10
I0
tp118
a(g117
I3
I0
tp119
a(g117
I27
I0
tp120
a(g117
I7
I0
tp121
a(g117
I18
I0
tp122
a(g117
I2
I0
tp123
a(g117
I20
I0
tp124
a(g117
I17
I0
tp125
aa(lp126
(S'm'
p127
S'metallic'
p128
I00
tp129
aa.