(lp0
(lp1
(dp2
S'action'
p3
cnumpy.core.multiarray
scalar
p4
(cnumpy
dtype
p5
(S'S4'
p6
I0
I1
tp7
Rp8
(I3
S'|'
p9
NNNI4
I1
I0
tp10
bS'walk'
p11
tp12
Rp13
sS'recipient'
p14
NsS'patient'
p15
NsS'goal'
p16
S'3432'
p17
sS'source'
p18
Nsaa(lp19
(dp20
S'all'
p21
(lp22
S'go to the office to the right of dr sybil smalt'
p23
asg15
(lp24
sg16
(lp25
S'the office between the lab as'
p26
aS"the office between the lab and dr sybil smalt 's office"
p27
asg18
(lp28
sg3
(lp29
sg14
(lp30
saa(lp31
(g4
(g5
(S'S3'
p32
I0
I1
tp33
Rp34
(I3
S'|'
p35
NNNI3
I1
I0
tp36
bS'can'
p37
tp38
Rp39
I2
I1
tp40
a(g4
(g5
(S'S8'
p41
I0
I1
tp42
Rp43
(I3
S'|'
p44
NNNI8
I1
I0
tp45
bS'pringles'
p46
tp47
Rp48
I10
I0
tp49
a(g48
I3
I0
tp50
a(g48
I27
I0
tp51
a(g48
I7
I0
tp52
a(g48
I18
I0
tp53
a(g48
I2
I0
tp54
a(g48
I20
I0
tp55
a(g48
I17
I0
tp56
a(g4
(g5
(S'S5'
p57
I0
I1
tp58
Rp59
(I3
S'|'
p60
NNNI5
I1
I0
tp61
bS'white'
p62
tp63
Rp64
I10
I1
tp65
a(g4
(g5
(S'S5'
p66
I0
I1
tp67
Rp68
(I3
S'|'
p69
NNNI5
I1
I0
tp70
bS'peach'
p71
tp72
Rp73
I10
I0
tp74
a(g73
I3
I0
tp75
a(g73
I27
I0
tp76
a(g73
I7
I0
tp77
a(g73
I18
I0
tp78
a(g73
I2
I0
tp79
a(g73
I20
I0
tp80
a(g73
I17
I0
tp81
a(g4
(g5
(S'S5'
p82
I0
I1
tp83
Rp84
(I3
S'|'
p85
NNNI5
I1
I0
tp86
bS'empty'
p87
tp88
Rp89
I3
I1
tp90
aa(lp91
a.