(lp0
(lp1
(dp2
S'action'
p3
cnumpy.core.multiarray
scalar
p4
(cnumpy
dtype
p5
(S'S4'
p6
I0
I1
tp7
Rp8
(I3
S'|'
p9
NNNI4
I1
I0
tp10
bS'walk'
p11
tp12
Rp13
sS'recipient'
p14
NsS'patient'
p15
NsS'goal'
p16
S'3406'
p17
sS'source'
p18
Nsaa(lp19
(dp20
S'all'
p21
(lp22
S'go to the lounge across from dr hughes office'
p23
asg15
(lp24
sg16
(lp25
S'go to the lounge'
p26
aS'go to the lounge across from dr hughes office'
p27
aS'go to the lounge acros from dr heidi hughes office'
p28
aS'go to the lounge across from dr heidi hughes office'
p29
asg18
(lp30
sg3
(lp31
sg14
(lp32
saa(lp33
(g4
(g5
(S'S5'
p34
I0
I1
tp35
Rp36
(I3
S'|'
p37
NNNI5
I1
I0
tp38
bS'block'
p39
tp40
Rp41
I10
I0
tp42
a(g41
I3
I0
tp43
a(g41
I27
I0
tp44
a(g41
I7
I0
tp45
a(g41
I18
I0
tp46
a(g41
I2
I0
tp47
a(g41
I20
I0
tp48
a(g41
I17
I0
tp49
a(g4
(g5
(S'S3'
p50
I0
I1
tp51
Rp52
(I3
S'|'
p53
NNNI3
I1
I0
tp54
bS'can'
p55
tp56
Rp57
I2
I1
tp58
a(g4
(g5
(S'S4'
p59
I0
I1
tp60
Rp61
(I3
S'|'
p62
NNNI4
I1
I0
tp63
bS'long'
p64
tp65
Rp66
I3
I1
tp67
a(g4
(g5
(S'S9'
p68
I0
I1
tp69
Rp70
(I3
S'|'
p71
NNNI9
I1
I0
tp72
bS'container'
p73
tp74
Rp75
I17
I1
tp76
a(g4
(g5
(S'S5'
p77
I0
I1
tp78
Rp79
(I3
S'|'
p80
NNNI5
I1
I0
tp81
bS'spice'
p82
tp83
Rp84
I10
I0
tp85
a(g84
I3
I0
tp86
a(g84
I27
I0
tp87
a(g84
I7
I0
tp88
a(g84
I18
I0
tp89
a(g84
I2
I0
tp90
a(g84
I20
I0
tp91
a(g84
I17
I0
tp92
aa(lp93
a.