(lp0
(lp1
(dp2
S'action'
p3
cnumpy.core.multiarray
scalar
p4
(cnumpy
dtype
p5
(S'S4'
p6
I0
I1
tp7
Rp8
(I3
S'|'
p9
NNNI4
I1
I0
tp10
bS'walk'
p11
tp12
Rp13
sS'recipient'
p14
NsS'patient'
p15
NsS'goal'
p16
S'3432'
p17
sS'source'
p18
Nsa(dp19
g3
g4
(g5
(S'S5'
p20
I0
I1
tp21
Rp22
(I3
S'|'
p23
NNNI5
I1
I0
tp24
bS'bring'
p25
tp26
Rp27
sg14
g4
(g5
(S'S1'
p28
I0
I1
tp29
Rp30
(I3
S'|'
p31
NNNI1
I1
I0
tp32
bS'm'
p33
tp34
Rp35
sg15
S'oidx_28'
p36
sg16
Nsg18
Nsa(dp37
g3
g4
(g5
(S'S4'
p38
I0
I1
tp39
Rp40
(I3
S'|'
p41
NNNI4
I1
I0
tp42
bS'move'
p43
tp44
Rp45
sg14
Nsg15
S'oidx_12'
p46
sg16
S'3414'
p47
sg18
g4
(g5
(S'S4'
p48
I0
I1
tp49
Rp50
(I3
S'|'
p51
NNNI4
I1
I0
tp52
bS'3516'
p53
tp54
Rp55
saa(lp56
(dp57
S'all'
p58
(lp59
S'go to the office on the left of the office s'
p60
asg15
(lp61
sg16
(lp62
S'go to the office to the right of office s'
p63
aS'the office next to office s'
p64
aS'the office next to office s'
p65
asg18
(lp66
sg3
(lp67
sg14
(lp68
sa(dp69
g58
(lp70
S'take the object to mallory mal maroon'
p71
asg15
(lp72
S'white object'
p73
aS'white object'
p74
aS'white object'
p75
aS'white tall object'
p76
aS'white tower'
p77
aS'white solid tower'
p78
asg16
(lp79
sg18
(lp80
sg3
(lp81
sg14
(lp82
S'mallory mal maroon'
p83
aS'mallory mal maroono'
p84
asa(dp85
g58
(lp86
S'take the container out of the conference room and take it to the lab'
p87
asg15
(lp88
S'move the container'
p89
aS'move the container'
p90
aS'move the container from the conference room to the lab'
p91
aS'move the container of wipes'
p92
aS'move the container'
p93
aS'move the white container with the red top'
p94
aS'move the white container with the red top'
p95
aS'move the white container with the red top'
p96
aS'move the white container with the red top'
p97
aS'move the white container'
p98
aS'move the white container'
p99
asg16
(lp100
sg18
(lp101
S'move the container from the conference to the lab'
p102
aS'move the container from the conference room'
p103
asg3
(lp104
sg14
(lp105
saa(lp106
(g4
(g5
(S'S8'
p107
I0
I1
tp108
Rp109
(I3
S'|'
p110
NNNI8
I1
I0
tp111
bS'pringles'
p112
tp113
Rp114
I10
I0
tp115
a(g114
I3
I0
tp116
a(g114
I27
I0
tp117
a(g114
I7
I0
tp118
a(g114
I18
I0
tp119
a(g114
I2
I0
tp120
a(g114
I20
I0
tp121
a(g114
I17
I0
tp122
a(g4
(g5
(S'S5'
p123
I0
I1
tp124
Rp125
(I3
S'|'
p126
NNNI5
I1
I0
tp127
bS'peach'
p128
tp129
Rp130
I10
I0
tp131
a(g130
I3
I0
tp132
a(g130
I27
I0
tp133
a(g130
I7
I0
tp134
a(g130
I18
I0
tp135
a(g130
I2
I0
tp136
a(g130
I20
I0
tp137
a(g130
I17
I0
tp138
a(g4
(g5
(S'S6'
p139
I0
I1
tp140
Rp141
(I3
S'|'
p142
NNNI6
I1
I0
tp143
bS'column'
p144
tp145
Rp146
I20
I1
tp147
a(g4
(g5
(S'S5'
p148
I0
I1
tp149
Rp150
(I3
S'|'
p151
NNNI5
I1
I0
tp152
bS'white'
p153
tp154
Rp155
I10
I0
tp156
a(g155
I3
I0
tp157
a(g155
I27
I0
tp158
a(g155
I7
I0
tp159
a(g155
I18
I0
tp160
a(g155
I2
I0
tp161
a(g155
I20
I0
tp162
a(g155
I17
I0
tp163
a(g4
(g5
(S'S5'
p164
I0
I1
tp165
Rp166
(I3
S'|'
p167
NNNI5
I1
I0
tp168
bS'tower'
p169
tp170
Rp171
I20
I1
tp172
a(g4
(g5
(S'S4'
p173
I0
I1
tp174
Rp175
(I3
S'|'
p176
NNNI4
I1
I0
tp177
bS'bean'
p178
tp179
Rp180
I10
I0
tp181
a(g180
I3
I0
tp182
a(g180
I27
I0
tp183
a(g180
I7
I0
tp184
a(g180
I18
I0
tp185
a(g180
I2
I0
tp186
a(g180
I20
I0
tp187
a(g180
I17
I0
tp188
a(g4
(g5
(S'S5'
p189
I0
I1
tp190
Rp191
(I3
S'|'
p192
NNNI5
I1
I0
tp193
bS'clear'
p194
tp195
Rp196
I10
I0
tp197
a(g196
I3
I0
tp198
a(g196
I27
I0
tp199
a(g196
I7
I0
tp200
a(g196
I18
I0
tp201
a(g196
I2
I0
tp202
a(g196
I20
I0
tp203
a(g196
I17
I0
tp204
a(g4
(g5
(S'S8'
p205
I0
I1
tp206
Rp207
(I3
S'|'
p208
NNNI8
I1
I0
tp209
bS'metallic'
p210
tp211
Rp212
I10
I0
tp213
a(g212
I3
I0
tp214
a(g212
I27
I0
tp215
a(g212
I7
I0
tp216
a(g212
I18
I0
tp217
a(g212
I2
I0
tp218
a(g212
I20
I0
tp219
a(g212
I17
I0
tp220
a(g4
(g5
(S'S3'
p221
I0
I1
tp222
Rp223
(I3
S'|'
p224
NNNI3
I1
I0
tp225
bS'can'
p226
tp227
Rp228
I10
I0
tp229
a(g228
I3
I0
tp230
a(g228
I27
I0
tp231
a(g228
I7
I0
tp232
a(g228
I18
I0
tp233
a(g228
I2
I0
tp234
a(g228
I20
I0
tp235
a(g228
I17
I0
tp236
a(g4
(g5
(S'S5'
p237
I0
I1
tp238
Rp239
(I3
S'|'
p240
NNNI5
I1
I0
tp241
bS'block'
p242
tp243
Rp244
I10
I0
tp245
a(g244
I3
I0
tp246
a(g244
I27
I0
tp247
a(g244
I7
I0
tp248
a(g244
I18
I0
tp249
a(g244
I2
I0
tp250
a(g244
I20
I0
tp251
a(g244
I17
I0
tp252
a(g4
(g5
(S'S9'
p253
I0
I1
tp254
Rp255
(I3
S'|'
p256
NNNI9
I1
I0
tp257
bS'container'
p258
tp259
Rp260
I7
I1
tp261
a(g4
(g5
(S'S9'
p262
I0
I1
tp263
Rp264
(I3
S'|'
p265
NNNI9
I1
I0
tp266
bS'container'
p267
tp268
Rp269
I27
I0
tp270
a(g4
(g5
(S'S9'
p271
I0
I1
tp272
Rp273
(I3
S'|'
p274
NNNI9
I1
I0
tp275
bS'container'
p276
tp277
Rp278
I2
I1
tp279
a(g4
(g5
(S'S9'
p280
I0
I1
tp281
Rp282
(I3
S'|'
p283
NNNI9
I1
I0
tp284
bS'container'
p285
tp286
Rp287
I20
I0
tp288
a(g4
(g5
(S'S9'
p289
I0
I1
tp290
Rp291
(I3
S'|'
p292
NNNI9
I1
I0
tp293
bS'container'
p294
tp295
Rp296
I10
I1
tp297
aa(lp298
(S'object'
p299
S'container'
p300
I01
tp301
a(S'tall'
p302
S'tower'
p303
I01
tp304
a(S'solid'
p305
S'long'
p306
I00
tp307
a(S'wipes'
p308
S'empty'
p309
I00
tp310
a(S'red'
p311
S'white'
p312
I00
tp313
a(g311
S'yellow'
p314
I00
tp315
a(g311
S'blue'
p316
I00
tp317
aa.