(lp0
(lp1
(dp2
S'action'
p3
cnumpy.core.multiarray
scalar
p4
(cnumpy
dtype
p5
(S'S4'
p6
I0
I1
tp7
Rp8
(I3
S'|'
p9
NNNI4
I1
I0
tp10
bS'walk'
p11
tp12
Rp13
sS'recipient'
p14
NsS'patient'
p15
NsS'goal'
p16
S'3422'
p17
sS'source'
p18
Nsa(dp19
g3
g4
(g5
(S'S4'
p20
I0
I1
tp21
Rp22
(I3
S'|'
p23
NNNI4
I1
I0
tp24
bS'walk'
p25
tp26
Rp27
sg14
Nsg15
Nsg16
g4
(g5
(S'S4'
p28
I0
I1
tp29
Rp30
(I3
S'|'
p31
NNNI4
I1
I0
tp32
bS'3430'
p33
tp34
Rp35
sg18
Nsaa(lp36
(dp37
S'all'
p38
(lp39
S'walk to the right'
p40
asg15
(lp41
sg16
(lp42
S'go to dr nagels office'
p43
aS'to your right'
p44
asg18
(lp45
sg3
(lp46
sg14
(lp47
sa(dp48
g38
(lp49
S'take the can to dr sybil smalt'
p50
asg15
(lp51
sg16
(lp52
S"go to doctor sybil smalt 's office"
p53
asg18
(lp54
sg3
(lp55
sg14
(lp56
saa(lp57
(g4
(g5
(S'S9'
p58
I0
I1
tp59
Rp60
(I3
S'|'
p61
NNNI9
I1
I0
tp62
bS'rectangle'
p63
tp64
Rp65
I10
I0
tp66
a(g65
I3
I0
tp67
a(g65
I27
I0
tp68
a(g65
I7
I0
tp69
a(g65
I18
I0
tp70
a(g65
I2
I0
tp71
a(g65
I20
I0
tp72
a(g65
I17
I0
tp73
a(g4
(g5
(S'S5'
p74
I0
I1
tp75
Rp76
(I3
S'|'
p77
NNNI5
I1
I0
tp78
bS'white'
p79
tp80
Rp81
I10
I0
tp82
a(g81
I3
I0
tp83
a(g81
I27
I0
tp84
a(g81
I7
I0
tp85
a(g81
I18
I0
tp86
a(g81
I2
I0
tp87
a(g81
I20
I0
tp88
a(g81
I17
I0
tp89
a(g4
(g5
(S'S5'
p90
I0
I1
tp91
Rp92
(I3
S'|'
p93
NNNI5
I1
I0
tp94
bS'block'
p95
tp96
Rp97
I10
I0
tp98
a(g97
I3
I0
tp99
a(g97
I27
I0
tp100
a(g97
I7
I0
tp101
a(g97
I18
I0
tp102
a(g97
I2
I0
tp103
a(g97
I20
I0
tp104
a(g97
I17
I0
tp105
a(g4
(g5
(S'S5'
p106
I0
I1
tp107
Rp108
(I3
S'|'
p109
NNNI5
I1
I0
tp110
bS'spice'
p111
tp112
Rp113
I10
I0
tp114
a(g113
I3
I0
tp115
a(g113
I27
I0
tp116
a(g113
I7
I0
tp117
a(g113
I18
I0
tp118
a(g113
I2
I0
tp119
a(g113
I20
I0
tp120
a(g113
I17
I0
tp121
a(g4
(g5
(S'S6'
p122
I0
I1
tp123
Rp124
(I3
S'|'
p125
NNNI6
I1
I0
tp126
bS'coffee'
p127
tp128
Rp129
I2
I1
tp130
a(g4
(g5
(S'S3'
p131
I0
I1
tp132
Rp133
(I3
S'|'
p134
NNNI3
I1
I0
tp135
bS'can'
p136
tp137
Rp138
I10
I1
tp139
a(g4
(g5
(S'S8'
p140
I0
I1
tp141
Rp142
(I3
S'|'
p143
NNNI8
I1
I0
tp144
bS'metallic'
p145
tp146
Rp147
I10
I0
tp148
a(g147
I3
I0
tp149
a(g147
I27
I0
tp150
a(g147
I7
I0
tp151
a(g147
I18
I0
tp152
a(g147
I2
I0
tp153
a(g147
I20
I0
tp154
a(g147
I17
I0
tp155
a(g4
(g5
(S'S4'
p156
I0
I1
tp157
Rp158
(I3
S'|'
p159
NNNI4
I1
I0
tp160
bS'bean'
p161
tp162
Rp163
I10
I0
tp164
a(g163
I3
I0
tp165
a(g163
I27
I0
tp166
a(g163
I7
I0
tp167
a(g163
I18
I0
tp168
a(g163
I2
I0
tp169
a(g163
I20
I0
tp170
a(g163
I17
I0
tp171
a(g4
(g5
(S'S3'
p172
I0
I1
tp173
Rp174
(I3
S'|'
p175
NNNI3
I1
I0
tp176
bS'can'
p177
tp178
Rp179
I3
I0
tp180
a(g4
(g5
(S'S5'
p181
I0
I1
tp182
Rp183
(I3
S'|'
p184
NNNI5
I1
I0
tp185
bS'tower'
p186
tp187
Rp188
I10
I0
tp189
a(g188
I3
I0
tp190
a(g188
I27
I0
tp191
a(g188
I7
I0
tp192
a(g188
I18
I0
tp193
a(g188
I2
I0
tp194
a(g188
I20
I0
tp195
a(g188
I17
I0
tp196
aa(lp197
a.