(lp0
(lp1
(dp2
S'action'
p3
cnumpy.core.multiarray
scalar
p4
(cnumpy
dtype
p5
(S'S4'
p6
I0
I1
tp7
Rp8
(I3
S'|'
p9
NNNI4
I1
I0
tp10
bS'walk'
p11
tp12
Rp13
sS'recipient'
p14
NsS'patient'
p15
NsS'goal'
p16
S'3518'
p17
sS'source'
p18
Nsa(dp19
g3
g4
(g5
(S'S5'
p20
I0
I1
tp21
Rp22
(I3
S'|'
p23
NNNI5
I1
I0
tp24
bS'bring'
p25
tp26
Rp27
sg14
S'b'
p28
sg15
S'oidx_11'
p29
sg16
Nsg18
Nsaa(lp30
(dp31
S'all'
p32
(lp33
S'go to pod'
p34
asg15
(lp35
sg16
(lp36
S'pod'
p37
aS'go to the x'
p38
asg18
(lp39
sg3
(lp40
sg14
(lp41
sa(dp42
g32
(lp43
S'give object'
p44
asg15
(lp45
S'cylinder'
p46
aS'cylinder'
p47
asg16
(lp48
sg18
(lp49
sg3
(lp50
sg14
(lp51
saa(lp52
(g4
(g5
(S'S5'
p53
I0
I1
tp54
Rp55
(I3
S'|'
p56
NNNI5
I1
I0
tp57
bS'spice'
p58
tp59
Rp60
I2
I1
tp61
a(g4
(g5
(S'S9'
p62
I0
I1
tp63
Rp64
(I3
S'|'
p65
NNNI9
I1
I0
tp66
bS'styrofoam'
p67
tp68
Rp69
I20
I1
tp70
a(g4
(g5
(S'S3'
p71
I0
I1
tp72
Rp73
(I3
S'|'
p74
NNNI3
I1
I0
tp75
bS'can'
p76
tp77
Rp78
I10
I0
tp79
a(g78
I3
I0
tp80
a(g78
I27
I0
tp81
a(g78
I7
I0
tp82
a(g78
I18
I0
tp83
a(g78
I2
I0
tp84
a(g78
I20
I0
tp85
a(g78
I17
I0
tp86
a(g4
(g5
(S'S8'
p87
I0
I1
tp88
Rp89
(I3
S'|'
p90
NNNI8
I1
I0
tp91
bS'metallic'
p92
tp93
Rp94
I10
I0
tp95
a(g94
I3
I0
tp96
a(g94
I27
I0
tp97
a(g94
I7
I0
tp98
a(g94
I18
I0
tp99
a(g94
I2
I0
tp100
a(g94
I20
I0
tp101
a(g94
I17
I0
tp102
a(g4
(g5
(S'S5'
p103
I0
I1
tp104
Rp105
(I3
S'|'
p106
NNNI5
I1
I0
tp107
bS'white'
p108
tp109
Rp110
I10
I0
tp111
a(g110
I3
I0
tp112
a(g110
I27
I0
tp113
a(g110
I7
I0
tp114
a(g110
I18
I0
tp115
a(g110
I2
I0
tp116
a(g110
I20
I0
tp117
a(g110
I17
I0
tp118
a(g4
(g5
(S'S8'
p119
I0
I1
tp120
Rp121
(I3
S'|'
p122
NNNI8
I1
I0
tp123
bS'cylinder'
p124
tp125
Rp126
I3
I1
tp127
a(g4
(g5
(S'S9'
p128
I0
I1
tp129
Rp130
(I3
S'|'
p131
NNNI9
I1
I0
tp132
bS'rectangle'
p133
tp134
Rp135
I10
I0
tp136
a(g135
I3
I0
tp137
a(g135
I27
I0
tp138
a(g135
I7
I0
tp139
a(g135
I18
I0
tp140
a(g135
I2
I0
tp141
a(g135
I20
I0
tp142
a(g135
I17
I0
tp143
a(g4
(g5
(S'S8'
p144
I0
I1
tp145
Rp146
(I3
S'|'
p147
NNNI8
I1
I0
tp148
bS'cylinder'
p149
tp150
Rp151
I17
I0
tp152
a(g4
(g5
(S'S5'
p153
I0
I1
tp154
Rp155
(I3
S'|'
p156
NNNI5
I1
I0
tp157
bS'block'
p158
tp159
Rp160
I10
I0
tp161
a(g160
I3
I0
tp162
a(g160
I27
I0
tp163
a(g160
I7
I0
tp164
a(g160
I18
I0
tp165
a(g160
I2
I0
tp166
a(g160
I20
I0
tp167
a(g160
I17
I0
tp168
a(g4
(g5
(S'S5'
p169
I0
I1
tp170
Rp171
(I3
S'|'
p172
NNNI5
I1
I0
tp173
bS'empty'
p174
tp175
Rp176
I10
I0
tp177
a(g176
I3
I0
tp178
a(g176
I27
I0
tp179
a(g176
I7
I0
tp180
a(g176
I18
I0
tp181
a(g176
I2
I0
tp182
a(g176
I20
I0
tp183
a(g176
I17
I0
tp184
aa(lp185
(S'object'
p186
S'container'
p187
I01
tp188
aa.