(lp0
(lp1
(dp2
S'action'
p3
cnumpy.core.multiarray
scalar
p4
(cnumpy
dtype
p5
(S'S4'
p6
I0
I1
tp7
Rp8
(I3
S'|'
p9
NNNI4
I1
I0
tp10
bS'walk'
p11
tp12
Rp13
sS'recipient'
p14
NsS'patient'
p15
NsS'goal'
p16
S'3514'
p17
sS'source'
p18
Nsa(dp19
g3
g4
(g5
(S'S5'
p20
I0
I1
tp21
Rp22
(I3
S'|'
p23
NNNI5
I1
I0
tp24
bS'bring'
p25
tp26
Rp27
sg14
S'p'
p28
sg15
S'oidx_13'
p29
sg16
Nsg18
Nsa(dp30
g3
g4
(g5
(S'S4'
p31
I0
I1
tp32
Rp33
(I3
S'|'
p34
NNNI4
I1
I0
tp35
bS'move'
p36
tp37
Rp38
sg14
Nsg15
S'oidx_6'
p39
sg16
S'3416'
p40
sg18
S'3510'
p41
saa(lp42
(dp43
S'all'
p44
(lp45
S'go to the room two rooms to the right of r'
p46
asg15
(lp47
sg16
(lp48
S'r'
p49
aS'conference room'
p50
aS'go to r'
p51
asg18
(lp52
sg3
(lp53
sg14
(lp54
sa(dp55
g44
(lp56
S'bring mallory the pills'
p57
asg15
(lp58
S'a pill bottle'
p59
aS'the object'
p60
asg16
(lp61
sg18
(lp62
sg3
(lp63
sg14
(lp64
sa(dp65
g44
(lp66
S'bring the object to the green map'
p67
asg15
(lp68
S'this'
p69
aS'that'
p70
aS'this'
p71
aS'that'
p72
aS'that'
p73
aS'that'
p74
aS'that'
p75
aS'that'
p76
aS'that'
p77
asg16
(lp78
sg18
(lp79
S'p'
p80
aS'here'
p81
aS'here'
p82
asg3
(lp83
sg14
(lp84
saa(lp85
(g4
(g5
(S'S5'
p86
I0
I1
tp87
Rp88
(I3
S'|'
p89
NNNI5
I1
I0
tp90
bS'tower'
p91
tp92
Rp93
I3
I1
tp94
a(g4
(g5
(S'S6'
p95
I0
I1
tp96
Rp97
(I3
S'|'
p98
NNNI6
I1
I0
tp99
bS'column'
p100
tp101
Rp102
I3
I1
tp103
a(g4
(g5
(S'S6'
p104
I0
I1
tp105
Rp106
(I3
S'|'
p107
NNNI6
I1
I0
tp108
bS'coffee'
p109
tp110
Rp111
I2
I1
tp112
a(g4
(g5
(S'S5'
p113
I0
I1
tp114
Rp115
(I3
S'|'
p116
NNNI5
I1
I0
tp117
bS'spice'
p118
tp119
Rp120
I10
I0
tp121
a(g120
I3
I0
tp122
a(g120
I27
I0
tp123
a(g120
I7
I0
tp124
a(g120
I18
I0
tp125
a(g120
I2
I0
tp126
a(g120
I20
I0
tp127
a(g120
I17
I0
tp128
a(g4
(g5
(S'S9'
p129
I0
I1
tp130
Rp131
(I3
S'|'
p132
NNNI9
I1
I0
tp133
bS'styrofoam'
p134
tp135
Rp136
I10
I0
tp137
a(g136
I3
I0
tp138
a(g136
I27
I0
tp139
a(g136
I7
I0
tp140
a(g136
I18
I0
tp141
a(g136
I2
I0
tp142
a(g136
I20
I0
tp143
a(g136
I17
I0
tp144
a(g4
(g5
(S'S8'
p145
I0
I1
tp146
Rp147
(I3
S'|'
p148
NNNI8
I1
I0
tp149
bS'cylinder'
p150
tp151
Rp152
I3
I1
tp153
a(g4
(g5
(S'S4'
p154
I0
I1
tp155
Rp156
(I3
S'|'
p157
NNNI4
I1
I0
tp158
bS'long'
p159
tp160
Rp161
I10
I0
tp162
a(g161
I3
I0
tp163
a(g161
I27
I0
tp164
a(g161
I7
I0
tp165
a(g161
I18
I0
tp166
a(g161
I2
I0
tp167
a(g161
I20
I0
tp168
a(g161
I17
I0
tp169
a(g4
(g5
(S'S8'
p170
I0
I1
tp171
Rp172
(I3
S'|'
p173
NNNI8
I1
I0
tp174
bS'metallic'
p175
tp176
Rp177
I10
I0
tp178
a(g177
I3
I0
tp179
a(g177
I27
I0
tp180
a(g177
I7
I0
tp181
a(g177
I18
I0
tp182
a(g177
I2
I0
tp183
a(g177
I20
I0
tp184
a(g177
I17
I0
tp185
a(g4
(g5
(S'S4'
p186
I0
I1
tp187
Rp188
(I3
S'|'
p189
NNNI4
I1
I0
tp190
bS'blue'
p191
tp192
Rp193
I18
I1
tp194
a(g4
(g5
(S'S6'
p195
I0
I1
tp196
Rp197
(I3
S'|'
p198
NNNI6
I1
I0
tp199
bS'coffee'
p200
tp201
Rp202
I27
I0
tp203
a(g4
(g5
(S'S5'
p204
I0
I1
tp205
Rp206
(I3
S'|'
p207
NNNI5
I1
I0
tp208
bS'peach'
p209
tp210
Rp211
I10
I0
tp212
a(g211
I3
I0
tp213
a(g211
I27
I0
tp214
a(g211
I7
I0
tp215
a(g211
I18
I0
tp216
a(g211
I2
I0
tp217
a(g211
I20
I0
tp218
a(g211
I17
I0
tp219
a(g4
(g5
(S'S8'
p220
I0
I1
tp221
Rp222
(I3
S'|'
p223
NNNI8
I1
I0
tp224
bS'pringles'
p225
tp226
Rp227
I10
I0
tp228
a(g227
I3
I0
tp229
a(g227
I27
I0
tp230
a(g227
I7
I0
tp231
a(g227
I18
I0
tp232
a(g227
I2
I0
tp233
a(g227
I20
I0
tp234
a(g227
I17
I0
tp235
a(g4
(g5
(S'S6'
p236
I0
I1
tp237
Rp238
(I3
S'|'
p239
NNNI6
I1
I0
tp240
bS'coffee'
p241
tp242
Rp243
I2
I1
tp244
a(g4
(g5
(S'S5'
p245
I0
I1
tp246
Rp247
(I3
S'|'
p248
NNNI5
I1
I0
tp249
bS'tower'
p250
tp251
Rp252
I27
I0
tp253
a(g4
(g5
(S'S5'
p254
I0
I1
tp255
Rp256
(I3
S'|'
p257
NNNI5
I1
I0
tp258
bS'clear'
p259
tp260
Rp261
I10
I0
tp262
a(g261
I3
I0
tp263
a(g261
I27
I0
tp264
a(g261
I7
I0
tp265
a(g261
I18
I0
tp266
a(g261
I2
I0
tp267
a(g261
I20
I0
tp268
a(g261
I17
I0
tp269
aa(lp270
(S'green'
p271
S'white'
p272
I00
tp273
a(g271
S'yellow'
p274
I00
tp275
a(g271
S'blue'
p276
I00
tp277
aa.