(lp0
(lp1
(dp2
S'action'
p3
cnumpy.core.multiarray
scalar
p4
(cnumpy
dtype
p5
(S'S4'
p6
I0
I1
tp7
Rp8
(I3
S'|'
p9
NNNI4
I1
I0
tp10
bS'walk'
p11
tp12
Rp13
sS'recipient'
p14
NsS'patient'
p15
NsS'goal'
p16
S'3436'
p17
sS'source'
p18
Nsa(dp19
g3
g4
(g5
(S'S5'
p20
I0
I1
tp21
Rp22
(I3
S'|'
p23
NNNI5
I1
I0
tp24
bS'bring'
p25
tp26
Rp27
sg14
S'w'
p28
sg15
S'oidx_13'
p29
sg16
Nsg18
Nsaa(lp30
(dp31
S'all'
p32
(lp33
S'move'
p34
asg15
(lp35
sg16
(lp36
S'lounge'
p37
aS'small'
p38
aS'white'
p39
asg18
(lp40
sg3
(lp41
sg14
(lp42
sa(dp43
g32
(lp44
S'deliver'
p45
asg15
(lp46
S's'
p47
aS's'
p48
asg16
(lp49
sg18
(lp50
sg3
(lp51
sg14
(lp52
S'small'
p53
asaa(lp54
(g4
(g5
(S'S4'
p55
I0
I1
tp56
Rp57
(I3
S'|'
p58
NNNI4
I1
I0
tp59
bS'bean'
p60
tp61
Rp62
I10
I1
tp63
a(g4
(g5
(S'S5'
p64
I0
I1
tp65
Rp66
(I3
S'|'
p67
NNNI5
I1
I0
tp68
bS'block'
p69
tp70
Rp71
I10
I1
tp72
a(g4
(g5
(S'S9'
p73
I0
I1
tp74
Rp75
(I3
S'|'
p76
NNNI9
I1
I0
tp77
bS'container'
p78
tp79
Rp80
I3
I1
tp81
a(g4
(g5
(S'S4'
p82
I0
I1
tp83
Rp84
(I3
S'|'
p85
NNNI4
I1
I0
tp86
bS'blue'
p87
tp88
Rp89
I7
I1
tp90
a(g4
(g5
(S'S6'
p91
I0
I1
tp92
Rp93
(I3
S'|'
p94
NNNI6
I1
I0
tp95
bS'yellow'
p96
tp97
Rp98
I2
I1
tp99
a(g4
(g5
(S'S5'
p100
I0
I1
tp101
Rp102
(I3
S'|'
p103
NNNI5
I1
I0
tp104
bS'tower'
p105
tp106
Rp107
I18
I1
tp108
a(g4
(g5
(S'S6'
p109
I0
I1
tp110
Rp111
(I3
S'|'
p112
NNNI6
I1
I0
tp113
bS'column'
p114
tp115
Rp116
I18
I1
tp117
a(g4
(g5
(S'S5'
p118
I0
I1
tp119
Rp120
(I3
S'|'
p121
NNNI5
I1
I0
tp122
bS'empty'
p123
tp124
Rp125
I17
I1
tp126
a(g4
(g5
(S'S5'
p127
I0
I1
tp128
Rp129
(I3
S'|'
p130
NNNI5
I1
I0
tp131
bS'peach'
p132
tp133
Rp134
I20
I1
tp135
a(g4
(g5
(S'S6'
p136
I0
I1
tp137
Rp138
(I3
S'|'
p139
NNNI6
I1
I0
tp140
bS'column'
p141
tp142
Rp143
I27
I0
tp144
aa(lp145
(g38
S'white'
p146
I01
tp147
aa.