(lp0
(lp1
(dp2
S'action'
p3
cnumpy.core.multiarray
scalar
p4
(cnumpy
dtype
p5
(S'S5'
p6
I0
I1
tp7
Rp8
(I3
S'|'
p9
NNNI5
I1
I0
tp10
bS'bring'
p11
tp12
Rp13
sS'recipient'
p14
S'd'
p15
sS'patient'
p16
S'oidx_22'
p17
sS'goal'
p18
NsS'source'
p19
Nsa(dp20
g3
g4
(g5
(S'S5'
p21
I0
I1
tp22
Rp23
(I3
S'|'
p24
NNNI5
I1
I0
tp25
bS'bring'
p26
tp27
Rp28
sg14
S'w'
p29
sg16
S'oidx_25'
p30
sg18
Nsg19
Nsa(dp31
g3
g4
(g5
(S'S5'
p32
I0
I1
tp33
Rp34
(I3
S'|'
p35
NNNI5
I1
I0
tp36
bS'bring'
p37
tp38
Rp39
sg14
S'n'
p40
sg16
S'oidx_6'
p41
sg18
Nsg19
Nsaa(lp42
(dp43
S'all'
p44
(lp45
S'n'
p46
asg16
(lp47
S'no'
p48
aS'no'
p49
asg18
(lp50
sg19
(lp51
sg3
(lp52
sg14
(lp53
sa(dp54
g44
(lp55
S'yes'
p56
asg16
(lp57
S'no'
p58
aS'yes'
p59
asg18
(lp60
sg19
(lp61
sg3
(lp62
sg14
(lp63
sa(dp64
g44
(lp65
S'yes'
p66
asg16
(lp67
S'no'
p68
asg18
(lp69
sg19
(lp70
sg3
(lp71
sg14
(lp72
S'yes'
p73
asaa(lp74
(g4
(g5
(S'S4'
p75
I0
I1
tp76
Rp77
(I3
S'|'
p78
NNNI4
I1
I0
tp79
bS'blue'
p80
tp81
Rp82
I27
I1
tp83
a(g4
(g5
(S'S8'
p84
I0
I1
tp85
Rp86
(I3
S'|'
p87
NNNI8
I1
I0
tp88
bS'cylinder'
p89
tp90
Rp91
I17
I1
tp92
a(g4
(g5
(S'S3'
p93
I0
I1
tp94
Rp95
(I3
S'|'
p96
NNNI3
I1
I0
tp97
bS'can'
p98
tp99
Rp100
I27
I1
tp101
a(g4
(g5
(S'S5'
p102
I0
I1
tp103
Rp104
(I3
S'|'
p105
NNNI5
I1
I0
tp106
bS'clear'
p107
tp108
Rp109
I7
I1
tp110
a(g4
(g5
(S'S8'
p111
I0
I1
tp112
Rp113
(I3
S'|'
p114
NNNI8
I1
I0
tp115
bS'pringles'
p116
tp117
Rp118
I18
I1
tp119
a(g4
(g5
(S'S3'
p120
I0
I1
tp121
Rp122
(I3
S'|'
p123
NNNI3
I1
I0
tp124
bS'can'
p125
tp126
Rp127
I10
I1
tp128
a(g127
I3
I1
tp129
a(g127
I27
I1
tp130
a(g127
I7
I1
tp131
a(g127
I18
I1
tp132
a(g127
I2
I1
tp133
a(g127
I20
I1
tp134
a(g127
I17
I1
tp135
a(g4
(g5
(S'S9'
p136
I0
I1
tp137
Rp138
(I3
S'|'
p139
NNNI9
I1
I0
tp140
bS'styrofoam'
p141
tp142
Rp143
I7
I1
tp144
a(g4
(g5
(S'S8'
p145
I0
I1
tp146
Rp147
(I3
S'|'
p148
NNNI8
I1
I0
tp149
bS'pringles'
p150
tp151
Rp152
I7
I0
tp153
a(g4
(g5
(S'S8'
p154
I0
I1
tp155
Rp156
(I3
S'|'
p157
NNNI8
I1
I0
tp158
bS'cylinder'
p159
tp160
Rp161
I10
I1
tp162
a(g161
I3
I1
tp163
a(g161
I27
I1
tp164
a(g161
I7
I1
tp165
a(g161
I18
I1
tp166
a(g161
I2
I1
tp167
a(g161
I20
I1
tp168
a(g161
I17
I1
tp169
a(g4
(g5
(S'S5'
p170
I0
I1
tp171
Rp172
(I3
S'|'
p173
NNNI5
I1
I0
tp174
bS'white'
p175
tp176
Rp177
I18
I1
tp178
a(g4
(g5
(S'S5'
p179
I0
I1
tp180
Rp181
(I3
S'|'
p182
NNNI5
I1
I0
tp183
bS'block'
p184
tp185
Rp186
I18
I1
tp187
a(g4
(g5
(S'S8'
p188
I0
I1
tp189
Rp190
(I3
S'|'
p191
NNNI8
I1
I0
tp192
bS'pringles'
p193
tp194
Rp195
I18
I1
tp196
a(g4
(g5
(S'S8'
p197
I0
I1
tp198
Rp199
(I3
S'|'
p200
NNNI8
I1
I0
tp201
bS'pringles'
p202
tp203
Rp204
I27
I0
tp205
a(g4
(g5
(S'S8'
p206
I0
I1
tp207
Rp208
(I3
S'|'
p209
NNNI8
I1
I0
tp210
bS'pringles'
p211
tp212
Rp213
I18
I1
tp214
a(g4
(g5
(S'S5'
p215
I0
I1
tp216
Rp217
(I3
S'|'
p218
NNNI5
I1
I0
tp219
bS'empty'
p220
tp221
Rp222
I27
I1
tp223
aa(lp224
(g46
S'bean'
p225
I00
tp226
a(g46
S'block'
p227
I01
tp228
aa.