(lp0
(lp1
(dp2
S'action'
p3
cnumpy.core.multiarray
scalar
p4
(cnumpy
dtype
p5
(S'S4'
p6
I0
I1
tp7
Rp8
(I3
S'|'
p9
NNNI4
I1
I0
tp10
bS'walk'
p11
tp12
Rp13
sS'recipient'
p14
NsS'patient'
p15
NsS'goal'
p16
g4
(g5
(S'S4'
p17
I0
I1
tp18
Rp19
(I3
S'|'
p20
NNNI4
I1
I0
tp21
bS'3512'
p22
tp23
Rp24
sS'source'
p25
Nsa(dp26
g3
g4
(g5
(S'S5'
p27
I0
I1
tp28
Rp29
(I3
S'|'
p30
NNNI5
I1
I0
tp31
bS'bring'
p32
tp33
Rp34
sg14
g4
(g5
(S'S1'
p35
I0
I1
tp36
Rp37
(I3
S'|'
p38
NNNI1
I1
I0
tp39
bS'w'
p40
tp41
Rp42
sg15
g4
(g5
(S'S7'
p43
I0
I1
tp44
Rp45
(I3
S'|'
p46
NNNI7
I1
I0
tp47
bS'oidx_28'
p48
tp49
Rp50
sg16
Nsg25
Nsaa(lp51
(dp52
S'all'
p53
(lp54
S"go to richard rogue 's office"
p55
asg15
(lp56
sg16
(lp57
sg25
(lp58
sg3
(lp59
sg14
(lp60
sa(dp61
g53
(lp62
S'bring the styrofoam block to walter ward'
p63
asg15
(lp64
S'the white styrofoam block'
p65
aS'the white block'
p66
asg16
(lp67
sg25
(lp68
sg3
(lp69
sg14
(lp70
saa(lp71
(g4
(g5
(S'S5'
p72
I0
I1
tp73
Rp74
(I3
S'|'
p75
NNNI5
I1
I0
tp76
bS'clear'
p77
tp78
Rp79
I10
I0
tp80
a(g79
I3
I0
tp81
a(g79
I27
I0
tp82
a(g79
I7
I0
tp83
a(g79
I18
I0
tp84
a(g79
I2
I0
tp85
a(g79
I20
I0
tp86
a(g79
I17
I0
tp87
a(g4
(g5
(S'S5'
p88
I0
I1
tp89
Rp90
(I3
S'|'
p91
NNNI5
I1
I0
tp92
bS'spice'
p93
tp94
Rp95
I10
I0
tp96
a(g95
I3
I0
tp97
a(g95
I27
I0
tp98
a(g95
I7
I0
tp99
a(g95
I18
I0
tp100
a(g95
I2
I0
tp101
a(g95
I20
I0
tp102
a(g95
I17
I0
tp103
a(g4
(g5
(S'S5'
p104
I0
I1
tp105
Rp106
(I3
S'|'
p107
NNNI5
I1
I0
tp108
bS'block'
p109
tp110
Rp111
I10
I0
tp112
a(g111
I3
I0
tp113
a(g111
I27
I0
tp114
a(g111
I7
I0
tp115
a(g111
I18
I0
tp116
a(g111
I2
I0
tp117
a(g111
I20
I0
tp118
a(g111
I17
I0
tp119
a(g4
(g5
(S'S4'
p120
I0
I1
tp121
Rp122
(I3
S'|'
p123
NNNI4
I1
I0
tp124
bS'blue'
p125
tp126
Rp127
I18
I1
tp128
a(g4
(g5
(S'S4'
p129
I0
I1
tp130
Rp131
(I3
S'|'
p132
NNNI4
I1
I0
tp133
bS'blue'
p134
tp135
Rp136
I18
I0
tp137
a(g4
(g5
(S'S9'
p138
I0
I1
tp139
Rp140
(I3
S'|'
p141
NNNI9
I1
I0
tp142
bS'styrofoam'
p143
tp144
Rp145
I10
I0
tp146
a(g145
I3
I0
tp147
a(g145
I27
I0
tp148
a(g145
I7
I0
tp149
a(g145
I18
I0
tp150
a(g145
I2
I0
tp151
a(g145
I20
I0
tp152
a(g145
I17
I0
tp153
a(g4
(g5
(S'S5'
p154
I0
I1
tp155
Rp156
(I3
S'|'
p157
NNNI5
I1
I0
tp158
bS'white'
p159
tp160
Rp161
I10
I0
tp162
a(g161
I3
I0
tp163
a(g161
I27
I0
tp164
a(g161
I7
I0
tp165
a(g161
I18
I0
tp166
a(g161
I2
I0
tp167
a(g161
I20
I0
tp168
a(g161
I17
I0
tp169
a(g4
(g5
(S'S4'
p170
I0
I1
tp171
Rp172
(I3
S'|'
p173
NNNI4
I1
I0
tp174
bS'long'
p175
tp176
Rp177
I3
I1
tp178
a(g4
(g5
(S'S4'
p179
I0
I1
tp180
Rp181
(I3
S'|'
p182
NNNI4
I1
I0
tp183
bS'blue'
p184
tp185
Rp186
I18
I1
tp187
a(g4
(g5
(S'S5'
p188
I0
I1
tp189
Rp190
(I3
S'|'
p191
NNNI5
I1
I0
tp192
bS'empty'
p193
tp194
Rp195
I10
I0
tp196
a(g195
I3
I0
tp197
a(g195
I27
I0
tp198
a(g195
I7
I0
tp199
a(g195
I18
I0
tp200
a(g195
I2
I0
tp201
a(g195
I20
I0
tp202
a(g195
I17
I0
tp203
aa(lp204
a.