(lp0
(lp1
(dp2
S'action'
p3
cnumpy.core.multiarray
scalar
p4
(cnumpy
dtype
p5
(S'S4'
p6
I0
I1
tp7
Rp8
(I3
S'|'
p9
NNNI4
I1
I0
tp10
bS'walk'
p11
tp12
Rp13
sS'recipient'
p14
NsS'patient'
p15
NsS'goal'
p16
g4
(g5
(S'S4'
p17
I0
I1
tp18
Rp19
(I3
S'|'
p20
NNNI4
I1
I0
tp21
bS'3430'
p22
tp23
Rp24
sS'source'
p25
Nsa(dp26
g3
g4
(g5
(S'S4'
p27
I0
I1
tp28
Rp29
(I3
S'|'
p30
NNNI4
I1
I0
tp31
bS'walk'
p32
tp33
Rp34
sg14
Nsg15
Nsg16
g4
(g5
(S'S4'
p35
I0
I1
tp36
Rp37
(I3
S'|'
p38
NNNI4
I1
I0
tp39
bS'3404'
p40
tp41
Rp42
sg25
Nsa(dp43
g3
g4
(g5
(S'S4'
p44
I0
I1
tp45
Rp46
(I3
S'|'
p47
NNNI4
I1
I0
tp48
bS'move'
p49
tp50
Rp51
sg14
Nsg15
S'oidx_26'
p52
sg16
S'3420'
p53
sg25
g53
saa(lp54
(dp55
S'all'
p56
(lp57
S'go to the office of dr sybil smalt'
p58
asg15
(lp59
sg16
(lp60
sg25
(lp61
sg3
(lp62
sg14
(lp63
sa(dp64
g56
(lp65
S'you need to get the bottle'
p66
asg15
(lp67
sg16
(lp68
S'go to the office of dr nancy nagel'
p69
aS'go to office'
p70
asg25
(lp71
sg3
(lp72
sg14
(lp73
sa(dp74
g56
(lp75
S'go to office d get the container and bring it to the pod'
p76
asg15
(lp77
S'container'
p78
asg16
(lp79
S'from office of dave daniel to pod'
p80
aS'office d'
p81
aS'pod'
p82
aS'pod'
p83
asg25
(lp84
S'from office of dave daniel to pod'
p85
asg3
(lp86
sg14
(lp87
saa(lp88
(g4
(g5
(S'S9'
p89
I0
I1
tp90
Rp91
(I3
S'|'
p92
NNNI9
I1
I0
tp93
bS'container'
p94
tp95
Rp96
I2
I1
tp97
a(g4
(g5
(S'S5'
p98
I0
I1
tp99
Rp100
(I3
S'|'
p101
NNNI5
I1
I0
tp102
bS'tower'
p103
tp104
Rp105
I10
I0
tp106
a(g105
I3
I0
tp107
a(g105
I27
I0
tp108
a(g105
I7
I0
tp109
a(g105
I18
I0
tp110
a(g105
I2
I0
tp111
a(g105
I20
I0
tp112
a(g105
I17
I0
tp113
a(g4
(g5
(S'S9'
p114
I0
I1
tp115
Rp116
(I3
S'|'
p117
NNNI9
I1
I0
tp118
bS'styrofoam'
p119
tp120
Rp121
I20
I1
tp122
a(g4
(g5
(S'S6'
p123
I0
I1
tp124
Rp125
(I3
S'|'
p126
NNNI6
I1
I0
tp127
bS'coffee'
p128
tp129
Rp130
I10
I1
tp131
a(g4
(g5
(S'S6'
p132
I0
I1
tp133
Rp134
(I3
S'|'
p135
NNNI6
I1
I0
tp136
bS'coffee'
p137
tp138
Rp139
I27
I0
tp140
a(g4
(g5
(S'S6'
p141
I0
I1
tp142
Rp143
(I3
S'|'
p144
NNNI6
I1
I0
tp145
bS'column'
p146
tp147
Rp148
I10
I0
tp149
a(g148
I3
I0
tp150
a(g148
I27
I0
tp151
a(g148
I7
I0
tp152
a(g148
I18
I0
tp153
a(g148
I2
I0
tp154
a(g148
I20
I0
tp155
a(g148
I17
I0
tp156
a(g4
(g5
(S'S5'
p157
I0
I1
tp158
Rp159
(I3
S'|'
p160
NNNI5
I1
I0
tp161
bS'clear'
p162
tp163
Rp164
I10
I0
tp165
a(g164
I3
I0
tp166
a(g164
I27
I0
tp167
a(g164
I7
I0
tp168
a(g164
I18
I0
tp169
a(g164
I2
I0
tp170
a(g164
I20
I0
tp171
a(g164
I17
I0
tp172
a(g4
(g5
(S'S9'
p173
I0
I1
tp174
Rp175
(I3
S'|'
p176
NNNI9
I1
I0
tp177
bS'rectangle'
p178
tp179
Rp180
I10
I0
tp181
a(g180
I3
I0
tp182
a(g180
I27
I0
tp183
a(g180
I7
I0
tp184
a(g180
I18
I0
tp185
a(g180
I2
I0
tp186
a(g180
I20
I0
tp187
a(g180
I17
I0
tp188
a(g4
(g5
(S'S8'
p189
I0
I1
tp190
Rp191
(I3
S'|'
p192
NNNI8
I1
I0
tp193
bS'pringles'
p194
tp195
Rp196
I10
I0
tp197
a(g196
I3
I0
tp198
a(g196
I27
I0
tp199
a(g196
I7
I0
tp200
a(g196
I18
I0
tp201
a(g196
I2
I0
tp202
a(g196
I20
I0
tp203
a(g196
I17
I0
tp204
a(g4
(g5
(S'S9'
p205
I0
I1
tp206
Rp207
(I3
S'|'
p208
NNNI9
I1
I0
tp209
bS'container'
p210
tp211
Rp212
I27
I0
tp213
a(g4
(g5
(S'S6'
p214
I0
I1
tp215
Rp216
(I3
S'|'
p217
NNNI6
I1
I0
tp218
bS'yellow'
p219
tp220
Rp221
I10
I0
tp222
a(g221
I3
I0
tp223
a(g221
I27
I0
tp224
a(g221
I7
I0
tp225
a(g221
I18
I0
tp226
a(g221
I2
I0
tp227
a(g221
I20
I0
tp228
a(g221
I17
I0
tp229
a(g4
(g5
(S'S5'
p230
I0
I1
tp231
Rp232
(I3
S'|'
p233
NNNI5
I1
I0
tp234
bS'white'
p235
tp236
Rp237
I10
I0
tp238
a(g237
I3
I0
tp239
a(g237
I27
I0
tp240
a(g237
I7
I0
tp241
a(g237
I18
I0
tp242
a(g237
I2
I0
tp243
a(g237
I20
I0
tp244
a(g237
I17
I0
tp245
a(g4
(g5
(S'S5'
p246
I0
I1
tp247
Rp248
(I3
S'|'
p249
NNNI5
I1
I0
tp250
bS'spice'
p251
tp252
Rp253
I10
I0
tp254
a(g253
I3
I0
tp255
a(g253
I27
I0
tp256
a(g253
I7
I0
tp257
a(g253
I18
I0
tp258
a(g253
I2
I0
tp259
a(g253
I20
I0
tp260
a(g253
I17
I0
tp261
a(g4
(g5
(S'S5'
p262
I0
I1
tp263
Rp264
(I3
S'|'
p265
NNNI5
I1
I0
tp266
bS'peach'
p267
tp268
Rp269
I10
I0
tp270
a(g269
I3
I0
tp271
a(g269
I27
I0
tp272
a(g269
I7
I0
tp273
a(g269
I18
I0
tp274
a(g269
I2
I0
tp275
a(g269
I20
I0
tp276
a(g269
I17
I0
tp277
a(g4
(g5
(S'S3'
p278
I0
I1
tp279
Rp280
(I3
S'|'
p281
NNNI3
I1
I0
tp282
bS'can'
p283
tp284
Rp285
I2
I1
tp286
aa(lp287
(S'bottle'
p288
S'coffee'
p289
I00
tp290
a(g288
S'container'
p291
I01
tp292
aa.