(lp0
(lp1
(dp2
S'action'
p3
cnumpy.core.multiarray
scalar
p4
(cnumpy
dtype
p5
(S'S5'
p6
I0
I1
tp7
Rp8
(I3
S'|'
p9
NNNI5
I1
I0
tp10
bS'bring'
p11
tp12
Rp13
sS'recipient'
p14
S'd'
p15
sS'patient'
p16
S'oidx_25'
p17
sS'goal'
p18
NsS'source'
p19
Nsa(dp20
g3
g4
(g5
(S'S5'
p21
I0
I1
tp22
Rp23
(I3
S'|'
p24
NNNI5
I1
I0
tp25
bS'bring'
p26
tp27
Rp28
sg14
S'b'
p29
sg16
g17
sg18
Nsg19
Nsaa(lp30
(dp31
S'all'
p32
(lp33
S'go to the lab'
p34
asg16
(lp35
S'deliver food'
p36
asg18
(lp37
sg19
(lp38
sg3
(lp39
sg14
(lp40
S'deliver to dave'
p41
aS'deliver to office d'
p42
asa(dp43
g32
(lp44
S'deliver the can to office b'
p45
asg16
(lp46
S'the can'
p47
aS'a can'
p48
asg18
(lp49
sg19
(lp50
sg3
(lp51
sg14
(lp52
saa(lp53
(g4
(g5
(S'S9'
p54
I0
I1
tp55
Rp56
(I3
S'|'
p57
NNNI9
I1
I0
tp58
bS'rectangle'
p59
tp60
Rp61
I10
I0
tp62
a(g61
I3
I0
tp63
a(g61
I27
I0
tp64
a(g61
I7
I0
tp65
a(g61
I18
I0
tp66
a(g61
I2
I0
tp67
a(g61
I20
I0
tp68
a(g61
I17
I0
tp69
a(g4
(g5
(S'S4'
p70
I0
I1
tp71
Rp72
(I3
S'|'
p73
NNNI4
I1
I0
tp74
bS'long'
p75
tp76
Rp77
I3
I1
tp78
a(g4
(g5
(S'S5'
p79
I0
I1
tp80
Rp81
(I3
S'|'
p82
NNNI5
I1
I0
tp83
bS'white'
p84
tp85
Rp86
I10
I0
tp87
a(g86
I3
I0
tp88
a(g86
I27
I0
tp89
a(g86
I7
I0
tp90
a(g86
I18
I0
tp91
a(g86
I2
I0
tp92
a(g86
I20
I0
tp93
a(g86
I17
I0
tp94
a(g4
(g5
(S'S4'
p95
I0
I1
tp96
Rp97
(I3
S'|'
p98
NNNI4
I1
I0
tp99
bS'bean'
p100
tp101
Rp102
I10
I0
tp103
a(g102
I3
I0
tp104
a(g102
I27
I0
tp105
a(g102
I7
I0
tp106
a(g102
I18
I0
tp107
a(g102
I2
I0
tp108
a(g102
I20
I0
tp109
a(g102
I17
I0
tp110
a(g4
(g5
(S'S3'
p111
I0
I1
tp112
Rp113
(I3
S'|'
p114
NNNI3
I1
I0
tp115
bS'can'
p116
tp117
Rp118
I2
I1
tp119
a(g4
(g5
(S'S5'
p120
I0
I1
tp121
Rp122
(I3
S'|'
p123
NNNI5
I1
I0
tp124
bS'empty'
p125
tp126
Rp127
I10
I0
tp128
a(g127
I3
I0
tp129
a(g127
I27
I0
tp130
a(g127
I7
I0
tp131
a(g127
I18
I0
tp132
a(g127
I2
I0
tp133
a(g127
I20
I0
tp134
a(g127
I17
I0
tp135
a(g4
(g5
(S'S9'
p136
I0
I1
tp137
Rp138
(I3
S'|'
p139
NNNI9
I1
I0
tp140
bS'styrofoam'
p141
tp142
Rp143
I20
I1
tp144
a(g4
(g5
(S'S4'
p145
I0
I1
tp146
Rp147
(I3
S'|'
p148
NNNI4
I1
I0
tp149
bS'blue'
p150
tp151
Rp152
I18
I1
tp153
a(g4
(g5
(S'S5'
p154
I0
I1
tp155
Rp156
(I3
S'|'
p157
NNNI5
I1
I0
tp158
bS'spice'
p159
tp160
Rp161
I10
I0
tp162
a(g161
I3
I0
tp163
a(g161
I27
I0
tp164
a(g161
I7
I0
tp165
a(g161
I18
I0
tp166
a(g161
I2
I0
tp167
a(g161
I20
I0
tp168
a(g161
I17
I0
tp169
a(g4
(g5
(S'S8'
p170
I0
I1
tp171
Rp172
(I3
S'|'
p173
NNNI8
I1
I0
tp174
bS'pringles'
p175
tp176
Rp177
I27
I1
tp178
aa(lp179
a.