(lp0
(lp1
(dp2
S'action'
p3
cnumpy.core.multiarray
scalar
p4
(cnumpy
dtype
p5
(S'S4'
p6
I0
I1
tp7
Rp8
(I3
S'|'
p9
NNNI4
I1
I0
tp10
bS'walk'
p11
tp12
Rp13
sS'recipient'
p14
NsS'patient'
p15
NsS'goal'
p16
S'3414b'
p17
sS'source'
p18
Nsa(dp19
g3
g4
(g5
(S'S5'
p20
I0
I1
tp21
Rp22
(I3
S'|'
p23
NNNI5
I1
I0
tp24
bS'bring'
p25
tp26
Rp27
sg14
g4
(g5
(S'S1'
p28
I0
I1
tp29
Rp30
(I3
S'|'
p31
NNNI1
I1
I0
tp32
bS'p'
p33
tp34
Rp35
sg15
g4
(g5
(S'S6'
p36
I0
I1
tp37
Rp38
(I3
S'|'
p39
NNNI6
I1
I0
tp40
bS'oidx_6'
p41
tp42
Rp43
sg16
Nsg18
Nsaa(lp44
(dp45
S'all'
p46
(lp47
S'turn left into the next lab'
p48
asg15
(lp49
sg16
(lp50
S'to the lab'
p51
aS'go see r'
p52
asg18
(lp53
sg3
(lp54
sg14
(lp55
sa(dp56
g46
(lp57
S'give the object to peggy parker'
p58
asg15
(lp59
S'a container'
p60
aS'you should deliver a bottle'
p61
aS'vitamins'
p62
aS'a white bottle'
p63
aS'a white container'
p64
asg16
(lp65
sg18
(lp66
sg3
(lp67
sg14
(lp68
saa(lp69
(g4
(g5
(S'S4'
p70
I0
I1
tp71
Rp72
(I3
S'|'
p73
NNNI4
I1
I0
tp74
bS'blue'
p75
tp76
Rp77
I18
I1
tp78
a(g4
(g5
(S'S5'
p79
I0
I1
tp80
Rp81
(I3
S'|'
p82
NNNI5
I1
I0
tp83
bS'tower'
p84
tp85
Rp86
I7
I1
tp87
a(g4
(g5
(S'S9'
p88
I0
I1
tp89
Rp90
(I3
S'|'
p91
NNNI9
I1
I0
tp92
bS'styrofoam'
p93
tp94
Rp95
I20
I1
tp96
a(g4
(g5
(S'S8'
p97
I0
I1
tp98
Rp99
(I3
S'|'
p100
NNNI8
I1
I0
tp101
bS'metallic'
p102
tp103
Rp104
I2
I1
tp105
a(g4
(g5
(S'S5'
p106
I0
I1
tp107
Rp108
(I3
S'|'
p109
NNNI5
I1
I0
tp110
bS'peach'
p111
tp112
Rp113
I27
I1
tp114
a(g4
(g5
(S'S9'
p115
I0
I1
tp116
Rp117
(I3
S'|'
p118
NNNI9
I1
I0
tp119
bS'container'
p120
tp121
Rp122
I10
I1
tp123
a(g4
(g5
(S'S9'
p124
I0
I1
tp125
Rp126
(I3
S'|'
p127
NNNI9
I1
I0
tp128
bS'container'
p129
tp130
Rp131
I3
I0
tp132
a(g4
(g5
(S'S9'
p133
I0
I1
tp134
Rp135
(I3
S'|'
p136
NNNI9
I1
I0
tp137
bS'container'
p138
tp139
Rp140
I2
I1
tp141
a(g4
(g5
(S'S9'
p142
I0
I1
tp143
Rp144
(I3
S'|'
p145
NNNI9
I1
I0
tp146
bS'container'
p147
tp148
Rp149
I27
I0
tp150
a(g4
(g5
(S'S9'
p151
I0
I1
tp152
Rp153
(I3
S'|'
p154
NNNI9
I1
I0
tp155
bS'container'
p156
tp157
Rp158
I7
I0
tp159
aa(lp160
(S'object'
p161
S'container'
p162
I01
tp163
a(S'bottle'
p164
S'coffee'
p165
I00
tp166
a(g164
g162
I01
tp167
a(g62
S'spices'
p168
I00
tp169
a(g62
S'spice'
p170
I00
tp171
a(g62
g165
I00
tp172
aa.