(lp0
(lp1
(dp2
S'action'
p3
cnumpy.core.multiarray
scalar
p4
(cnumpy
dtype
p5
(S'S4'
p6
I0
I1
tp7
Rp8
(I3
S'|'
p9
NNNI4
I1
I0
tp10
bS'walk'
p11
tp12
Rp13
sS'recipient'
p14
NsS'patient'
p15
NsS'goal'
p16
g4
(g5
(S'S4'
p17
I0
I1
tp18
Rp19
(I3
S'|'
p20
NNNI4
I1
I0
tp21
bS'3506'
p22
tp23
Rp24
sS'source'
p25
Nsa(dp26
g3
g4
(g5
(S'S5'
p27
I0
I1
tp28
Rp29
(I3
S'|'
p30
NNNI5
I1
I0
tp31
bS'bring'
p32
tp33
Rp34
sg14
g4
(g5
(S'S1'
p35
I0
I1
tp36
Rp37
(I3
S'|'
p38
NNNI1
I1
I0
tp39
bS'b'
p40
tp41
Rp42
sg15
g4
(g5
(S'S7'
p43
I0
I1
tp44
Rp45
(I3
S'|'
p46
NNNI7
I1
I0
tp47
bS'oidx_26'
p48
tp49
Rp50
sg16
Nsg25
Nsaa(lp51
(dp52
S'all'
p53
(lp54
S'go to the printer room'
p55
asg15
(lp56
sg16
(lp57
S'to the printer room'
p58
asg25
(lp59
sg3
(lp60
sg14
(lp61
sa(dp62
g53
(lp63
S'give the can to bob'
p64
asg15
(lp65
S'the can'
p66
aS'the drink can'
p67
aS'the open aluminum can'
p68
aS'deliver metallic container'
p69
asg16
(lp70
sg25
(lp71
sg3
(lp72
sg14
(lp73
saa(lp74
(g4
(g5
(S'S5'
p75
I0
I1
tp76
Rp77
(I3
S'|'
p78
NNNI5
I1
I0
tp79
bS'peach'
p80
tp81
Rp82
I10
I0
tp83
a(g82
I3
I0
tp84
a(g82
I27
I0
tp85
a(g82
I7
I0
tp86
a(g82
I18
I0
tp87
a(g82
I2
I0
tp88
a(g82
I20
I0
tp89
a(g82
I17
I0
tp90
a(g4
(g5
(S'S6'
p91
I0
I1
tp92
Rp93
(I3
S'|'
p94
NNNI6
I1
I0
tp95
bS'column'
p96
tp97
Rp98
I3
I1
tp99
a(g4
(g5
(S'S6'
p100
I0
I1
tp101
Rp102
(I3
S'|'
p103
NNNI6
I1
I0
tp104
bS'yellow'
p105
tp106
Rp107
I10
I0
tp108
a(g107
I3
I0
tp109
a(g107
I27
I0
tp110
a(g107
I7
I0
tp111
a(g107
I18
I0
tp112
a(g107
I2
I0
tp113
a(g107
I20
I0
tp114
a(g107
I17
I0
tp115
a(g4
(g5
(S'S6'
p116
I0
I1
tp117
Rp118
(I3
S'|'
p119
NNNI6
I1
I0
tp120
bS'coffee'
p121
tp122
Rp123
I10
I0
tp124
a(g123
I3
I0
tp125
a(g123
I27
I0
tp126
a(g123
I7
I0
tp127
a(g123
I18
I0
tp128
a(g123
I2
I0
tp129
a(g123
I20
I0
tp130
a(g123
I17
I0
tp131
a(g4
(g5
(S'S3'
p132
I0
I1
tp133
Rp134
(I3
S'|'
p135
NNNI3
I1
I0
tp136
bS'can'
p137
tp138
Rp139
I10
I1
tp140
a(g4
(g5
(S'S3'
p141
I0
I1
tp142
Rp143
(I3
S'|'
p144
NNNI3
I1
I0
tp145
bS'can'
p146
tp147
Rp148
I27
I0
tp149
a(g4
(g5
(S'S3'
p150
I0
I1
tp151
Rp152
(I3
S'|'
p153
NNNI3
I1
I0
tp154
bS'can'
p155
tp156
Rp157
I10
I1
tp158
a(g4
(g5
(S'S3'
p159
I0
I1
tp160
Rp161
(I3
S'|'
p162
NNNI3
I1
I0
tp163
bS'can'
p164
tp165
Rp166
I27
I0
tp167
a(g4
(g5
(S'S3'
p168
I0
I1
tp169
Rp170
(I3
S'|'
p171
NNNI3
I1
I0
tp172
bS'can'
p173
tp174
Rp175
I10
I1
tp176
a(g4
(g5
(S'S3'
p177
I0
I1
tp178
Rp179
(I3
S'|'
p180
NNNI3
I1
I0
tp181
bS'can'
p182
tp183
Rp184
I20
I0
tp185
aa(lp186
(S'aluminum'
p187
S'container'
p188
I00
tp189
a(g187
S'cylinder'
p190
I00
tp191
a(g187
S'metallic'
p192
I01
tp193
aa.