(lp0
(lp1
(dp2
S'action'
p3
cnumpy.core.multiarray
scalar
p4
(cnumpy
dtype
p5
(S'S4'
p6
I0
I1
tp7
Rp8
(I3
S'|'
p9
NNNI4
I1
I0
tp10
bS'walk'
p11
tp12
Rp13
sS'recipient'
p14
NsS'patient'
p15
NsS'goal'
p16
g4
(g5
(S'S4'
p17
I0
I1
tp18
Rp19
(I3
S'|'
p20
NNNI4
I1
I0
tp21
bS'3432'
p22
tp23
Rp24
sS'source'
p25
Nsaa(lp26
(dp27
S'all'
p28
(lp29
S"take a walk over to the office that is in between dr sybil smalt 's office and the lab"
p30
asg15
(lp31
sg16
(lp32
S"to the office in between the lab and dr sybil smalt 's office"
p33
aS'go the to office next to the lab'
p34
aS'to the office next to the long lab'
p35
aS'to the next ofice over'
p36
aS'go to the office next to dr smalt'
p37
aS'go to the last office in the row which is next to the lab'
p38
aS'go to the empty office next door to the lab'
p39
aS"go to the empty office next to dr smalt 's office"
p40
asg25
(lp41
sg3
(lp42
sg14
(lp43
saa(lp44
(g4
(g5
(S'S8'
p45
I0
I1
tp46
Rp47
(I3
S'|'
p48
NNNI8
I1
I0
tp49
bS'pringles'
p50
tp51
Rp52
I10
I0
tp53
a(g52
I3
I0
tp54
a(g52
I27
I0
tp55
a(g52
I7
I0
tp56
a(g52
I18
I0
tp57
a(g52
I2
I0
tp58
a(g52
I20
I0
tp59
a(g52
I17
I0
tp60
a(g4
(g5
(S'S9'
p61
I0
I1
tp62
Rp63
(I3
S'|'
p64
NNNI9
I1
I0
tp65
bS'container'
p66
tp67
Rp68
I7
I1
tp69
a(g4
(g5
(S'S5'
p70
I0
I1
tp71
Rp72
(I3
S'|'
p73
NNNI5
I1
I0
tp74
bS'tower'
p75
tp76
Rp77
I10
I0
tp78
a(g77
I3
I0
tp79
a(g77
I27
I0
tp80
a(g77
I7
I0
tp81
a(g77
I18
I0
tp82
a(g77
I2
I0
tp83
a(g77
I20
I0
tp84
a(g77
I17
I0
tp85
a(g4
(g5
(S'S5'
p86
I0
I1
tp87
Rp88
(I3
S'|'
p89
NNNI5
I1
I0
tp90
bS'block'
p91
tp92
Rp93
I10
I0
tp94
a(g93
I3
I0
tp95
a(g93
I27
I0
tp96
a(g93
I7
I0
tp97
a(g93
I18
I0
tp98
a(g93
I2
I0
tp99
a(g93
I20
I0
tp100
a(g93
I17
I0
tp101
a(g4
(g5
(S'S5'
p102
I0
I1
tp103
Rp104
(I3
S'|'
p105
NNNI5
I1
I0
tp106
bS'spice'
p107
tp108
Rp109
I10
I0
tp110
a(g109
I3
I0
tp111
a(g109
I27
I0
tp112
a(g109
I7
I0
tp113
a(g109
I18
I0
tp114
a(g109
I2
I0
tp115
a(g109
I20
I0
tp116
a(g109
I17
I0
tp117
aa(lp118
a.