(lp0
(lp1
(dp2
S'action'
p3
cnumpy.core.multiarray
scalar
p4
(cnumpy
dtype
p5
(S'S4'
p6
I0
I1
tp7
Rp8
(I3
S'|'
p9
NNNI4
I1
I0
tp10
bS'walk'
p11
tp12
Rp13
sS'recipient'
p14
NsS'patient'
p15
NsS'goal'
p16
S'3510'
p17
sS'source'
p18
Nsaa(lp19
(dp20
S'all'
p21
(lp22
S"go to bob'sfice 's"
p23
asg15
(lp24
sg16
(lp25
S"go to bob 's office"
p26
asg18
(lp27
sg3
(lp28
sg14
(lp29
saa(lp30
(g4
(g5
(S'S8'
p31
I0
I1
tp32
Rp33
(I3
S'|'
p34
NNNI8
I1
I0
tp35
bS'cylinder'
p36
tp37
Rp38
I20
I1
tp39
a(g4
(g5
(S'S9'
p40
I0
I1
tp41
Rp42
(I3
S'|'
p43
NNNI9
I1
I0
tp44
bS'styrofoam'
p45
tp46
Rp47
I20
I1
tp48
a(g4
(g5
(S'S4'
p49
I0
I1
tp50
Rp51
(I3
S'|'
p52
NNNI4
I1
I0
tp53
bS'bean'
p54
tp55
Rp56
I10
I0
tp57
a(g56
I3
I0
tp58
a(g56
I27
I0
tp59
a(g56
I7
I0
tp60
a(g56
I18
I0
tp61
a(g56
I2
I0
tp62
a(g56
I20
I0
tp63
a(g56
I17
I0
tp64
a(g4
(g5
(S'S5'
p65
I0
I1
tp66
Rp67
(I3
S'|'
p68
NNNI5
I1
I0
tp69
bS'spice'
p70
tp71
Rp72
I10
I0
tp73
a(g72
I3
I0
tp74
a(g72
I27
I0
tp75
a(g72
I7
I0
tp76
a(g72
I18
I0
tp77
a(g72
I2
I0
tp78
a(g72
I20
I0
tp79
a(g72
I17
I0
tp80
a(g4
(g5
(S'S5'
p81
I0
I1
tp82
Rp83
(I3
S'|'
p84
NNNI5
I1
I0
tp85
bS'empty'
p86
tp87
Rp88
I20
I1
tp89
aa(lp90
a.