(lp0
(lp1
(dp2
S'action'
p3
cnumpy.core.multiarray
scalar
p4
(cnumpy
dtype
p5
(S'S4'
p6
I0
I1
tp7
Rp8
(I3
S'|'
p9
NNNI4
I1
I0
tp10
bS'walk'
p11
tp12
Rp13
sS'recipient'
p14
NsS'patient'
p15
NsS'goal'
p16
g4
(g5
(S'S4'
p17
I0
I1
tp18
Rp19
(I3
S'|'
p20
NNNI4
I1
I0
tp21
bS'3430'
p22
tp23
Rp24
sS'source'
p25
Nsa(dp26
g3
g4
(g5
(S'S5'
p27
I0
I1
tp28
Rp29
(I3
S'|'
p30
NNNI5
I1
I0
tp31
bS'bring'
p32
tp33
Rp34
sg14
S'w'
p35
sg15
S'oidx_12'
p36
sg16
Nsg25
Nsa(dp37
g3
g4
(g5
(S'S5'
p38
I0
I1
tp39
Rp40
(I3
S'|'
p41
NNNI5
I1
I0
tp42
bS'bring'
p43
tp44
Rp45
sg14
S'p'
p46
sg15
g4
(g5
(S'S7'
p47
I0
I1
tp48
Rp49
(I3
S'|'
p50
NNNI7
I1
I0
tp51
bS'oidx_28'
p52
tp53
Rp54
sg16
Nsg25
Nsaa(lp55
(dp56
S'all'
p57
(lp58
S'go to dr sybil smalt office'
p59
asg15
(lp60
sg16
(lp61
sg25
(lp62
sg3
(lp63
sg14
(lp64
sa(dp65
g57
(lp66
S'get the container that looks like a cylinder with a blue body and a clear plastic top'
p67
asg15
(lp68
S'a container that is color blue'
p69
aS'container'
p70
asg16
(lp71
sg25
(lp72
sg3
(lp73
sg14
(lp74
sa(dp75
g57
(lp76
S'move container two labs west'
p77
asg15
(lp78
S'container'
p79
aS'spice'
p80
aS'pepper'
p81
asg16
(lp82
sg25
(lp83
sg3
(lp84
sg14
(lp85
saa(lp86
(g4
(g5
(S'S6'
p87
I0
I1
tp88
Rp89
(I3
S'|'
p90
NNNI6
I1
I0
tp91
bS'yellow'
p92
tp93
Rp94
I10
I0
tp95
a(g94
I3
I0
tp96
a(g94
I27
I0
tp97
a(g94
I7
I0
tp98
a(g94
I18
I0
tp99
a(g94
I2
I0
tp100
a(g94
I20
I0
tp101
a(g94
I17
I0
tp102
a(g4
(g5
(S'S5'
p103
I0
I1
tp104
Rp105
(I3
S'|'
p106
NNNI5
I1
I0
tp107
bS'block'
p108
tp109
Rp110
I10
I0
tp111
a(g110
I3
I0
tp112
a(g110
I27
I0
tp113
a(g110
I7
I0
tp114
a(g110
I18
I0
tp115
a(g110
I2
I0
tp116
a(g110
I20
I0
tp117
a(g110
I17
I0
tp118
a(g4
(g5
(S'S9'
p119
I0
I1
tp120
Rp121
(I3
S'|'
p122
NNNI9
I1
I0
tp123
bS'styrofoam'
p124
tp125
Rp126
I20
I1
tp127
a(g4
(g5
(S'S5'
p128
I0
I1
tp129
Rp130
(I3
S'|'
p131
NNNI5
I1
I0
tp132
bS'tower'
p133
tp134
Rp135
I10
I0
tp136
a(g135
I3
I0
tp137
a(g135
I27
I0
tp138
a(g135
I7
I0
tp139
a(g135
I18
I0
tp140
a(g135
I2
I0
tp141
a(g135
I20
I0
tp142
a(g135
I17
I0
tp143
a(g4
(g5
(S'S9'
p144
I0
I1
tp145
Rp146
(I3
S'|'
p147
NNNI9
I1
I0
tp148
bS'container'
p149
tp150
Rp151
I2
I1
tp152
a(g4
(g5
(S'S9'
p153
I0
I1
tp154
Rp155
(I3
S'|'
p156
NNNI9
I1
I0
tp157
bS'container'
p158
tp159
Rp160
I10
I1
tp161
a(g160
I3
I1
tp162
a(g160
I27
I1
tp163
a(g160
I7
I1
tp164
a(g160
I18
I1
tp165
a(g160
I2
I1
tp166
a(g160
I20
I1
tp167
a(g160
I17
I1
tp168
a(g4
(g5
(S'S6'
p169
I0
I1
tp170
Rp171
(I3
S'|'
p172
NNNI6
I1
I0
tp173
bS'coffee'
p174
tp175
Rp176
I2
I1
tp177
a(g4
(g5
(S'S4'
p178
I0
I1
tp179
Rp180
(I3
S'|'
p181
NNNI4
I1
I0
tp182
bS'bean'
p183
tp184
Rp185
I10
I0
tp186
a(g185
I3
I0
tp187
a(g185
I27
I0
tp188
a(g185
I7
I0
tp189
a(g185
I18
I0
tp190
a(g185
I2
I0
tp191
a(g185
I20
I0
tp192
a(g185
I17
I0
tp193
a(g4
(g5
(S'S4'
p194
I0
I1
tp195
Rp196
(I3
S'|'
p197
NNNI4
I1
I0
tp198
bS'long'
p199
tp200
Rp201
I3
I1
tp202
a(g4
(g5
(S'S5'
p203
I0
I1
tp204
Rp205
(I3
S'|'
p206
NNNI5
I1
I0
tp207
bS'spice'
p208
tp209
Rp210
I10
I0
tp211
a(g210
I3
I0
tp212
a(g210
I27
I0
tp213
a(g210
I7
I0
tp214
a(g210
I18
I0
tp215
a(g210
I2
I0
tp216
a(g210
I20
I0
tp217
a(g210
I17
I0
tp218
a(g4
(g5
(S'S7'
p219
I0
I1
tp220
Rp221
(I3
S'|'
p222
NNNI7
I1
I0
tp223
bS'plastic'
p224
tp225
Rp226
I10
I0
tp227
a(g226
I3
I0
tp228
a(g226
I27
I0
tp229
a(g226
I7
I0
tp230
a(g226
I18
I0
tp231
a(g226
I2
I0
tp232
a(g226
I20
I0
tp233
a(g226
I17
I0
tp234
a(g4
(g5
(S'S8'
p235
I0
I1
tp236
Rp237
(I3
S'|'
p238
NNNI8
I1
I0
tp239
bS'pringles'
p240
tp241
Rp242
I10
I0
tp243
a(g242
I3
I0
tp244
a(g242
I27
I0
tp245
a(g242
I7
I0
tp246
a(g242
I18
I0
tp247
a(g242
I2
I0
tp248
a(g242
I20
I0
tp249
a(g242
I17
I0
tp250
a(g4
(g5
(S'S5'
p251
I0
I1
tp252
Rp253
(I3
S'|'
p254
NNNI5
I1
I0
tp255
bS'white'
p256
tp257
Rp258
I10
I0
tp259
a(g258
I3
I0
tp260
a(g258
I27
I0
tp261
a(g258
I7
I0
tp262
a(g258
I18
I0
tp263
a(g258
I2
I0
tp264
a(g258
I20
I0
tp265
a(g258
I17
I0
tp266
a(g4
(g5
(S'S5'
p267
I0
I1
tp268
Rp269
(I3
S'|'
p270
NNNI5
I1
I0
tp271
bS'looks'
p272
tp273
Rp274
I10
I0
tp275
a(g274
I3
I0
tp276
a(g274
I27
I0
tp277
a(g274
I7
I0
tp278
a(g274
I18
I0
tp279
a(g274
I2
I0
tp280
a(g274
I20
I0
tp281
a(g274
I17
I0
tp282
a(g4
(g5
(S'S9'
p283
I0
I1
tp284
Rp285
(I3
S'|'
p286
NNNI9
I1
I0
tp287
bS'styrofoam'
p288
tp289
Rp290
I2
I0
tp291
aa(lp292
(S'looks'
p293
S'can'
p294
I00
tp295
a(g293
S'blue'
p296
I00
tp297
a(S'body'
p298
S'block'
p299
I00
tp300
a(g298
S'container'
p301
I01
tp302
a(S'plastic'
p303
g301
I00
tp304
a(g303
S'white'
p305
I00
tp306
a(g303
S'metallic'
p307
I00
tp308
a(S'color'
p309
g305
I00
tp310
a(g309
S'yellow'
p311
I00
tp312
a(g309
g296
I01
tp313
a(g81
S'bean'
p314
I00
tp315
a(g81
S'spices'
p316
I01
tp317
aa.