(lp0
(lp1
(dp2
S'action'
p3
cnumpy.core.multiarray
scalar
p4
(cnumpy
dtype
p5
(S'S4'
p6
I0
I1
tp7
Rp8
(I3
S'|'
p9
NNNI4
I1
I0
tp10
bS'walk'
p11
tp12
Rp13
sS'recipient'
p14
NsS'patient'
p15
NsS'goal'
p16
S'3432'
p17
sS'source'
p18
Nsaa(lp19
(dp20
S'all'
p21
(lp22
S'move forward'
p23
asg15
(lp24
sg16
(lp25
S'person s'
p26
aS'move to dr heidi hughes'
p27
aS'walk to dr heidi hughes'
p28
aS'move to metallic'
p29
aS'open door'
p30
aS'move to pod'
p31
aS'grab pod'
p32
asg18
(lp33
sg3
(lp34
sg14
(lp35
saa(lp36
(g4
(g5
(S'S4'
p37
I0
I1
tp38
Rp39
(I3
S'|'
p40
NNNI4
I1
I0
tp41
bS'long'
p42
tp43
Rp44
I18
I1
tp45
a(g4
(g5
(S'S8'
p46
I0
I1
tp47
Rp48
(I3
S'|'
p49
NNNI8
I1
I0
tp50
bS'cylinder'
p51
tp52
Rp53
I3
I1
tp54
a(g4
(g5
(S'S4'
p55
I0
I1
tp56
Rp57
(I3
S'|'
p58
NNNI4
I1
I0
tp59
bS'long'
p60
tp61
Rp62
I10
I1
tp63
a(g62
I3
I1
tp64
a(g62
I27
I1
tp65
a(g62
I7
I1
tp66
a(g62
I18
I1
tp67
a(g62
I2
I1
tp68
a(g62
I20
I1
tp69
a(g62
I17
I1
tp70
a(g4
(g5
(S'S6'
p71
I0
I1
tp72
Rp73
(I3
S'|'
p74
NNNI6
I1
I0
tp75
bS'column'
p76
tp77
Rp78
I10
I0
tp79
a(g78
I3
I0
tp80
a(g78
I27
I0
tp81
a(g78
I7
I0
tp82
a(g78
I18
I0
tp83
a(g78
I2
I0
tp84
a(g78
I20
I0
tp85
a(g78
I17
I0
tp86
a(g4
(g5
(S'S8'
p87
I0
I1
tp88
Rp89
(I3
S'|'
p90
NNNI8
I1
I0
tp91
bS'metallic'
p92
tp93
Rp94
I2
I1
tp95
aa(lp96
(S'open'
p97
S'empty'
p98
I00
tp99
aa.