(lp0
(lp1
(dp2
S'action'
p3
cnumpy.core.multiarray
scalar
p4
(cnumpy
dtype
p5
(S'S4'
p6
I0
I1
tp7
Rp8
(I3
S'|'
p9
NNNI4
I1
I0
tp10
bS'walk'
p11
tp12
Rp13
sS'recipient'
p14
NsS'patient'
p15
NsS'goal'
p16
S'3520'
p17
sS'source'
p18
Nsa(dp19
g3
g4
(g5
(S'S5'
p20
I0
I1
tp21
Rp22
(I3
S'|'
p23
NNNI5
I1
I0
tp24
bS'bring'
p25
tp26
Rp27
sg14
S'b'
p28
sg15
g4
(g5
(S'S7'
p29
I0
I1
tp30
Rp31
(I3
S'|'
p32
NNNI7
I1
I0
tp33
bS'oidx_25'
p34
tp35
Rp36
sg16
Nsg18
Nsaa(lp37
(dp38
S'all'
p39
(lp40
S'go to the kitchen opposite the lounge'
p41
asg15
(lp42
sg16
(lp43
S'the kitchen opposite the lounge'
p44
aS"the kitchen close to richard rogue 's office"
p45
aS'to the kitchen inside the labs'
p46
aS'to the kitchen'
p47
asg18
(lp48
sg3
(lp49
sg14
(lp50
sa(dp51
g39
(lp52
S'get the glass jar on the table to mallory mal maroon'
p53
asg15
(lp54
S'the jar on the table'
p55
aS'the jar on the table'
p56
aS'the small jar with the grey cap on the table'
p57
aS'the glass jar'
p58
aS'the bottle'
p59
aS'the coffee container'
p60
asg16
(lp61
sg18
(lp62
sg3
(lp63
sg14
(lp64
saa(lp65
(g4
(g5
(S'S5'
p66
I0
I1
tp67
Rp68
(I3
S'|'
p69
NNNI5
I1
I0
tp70
bS'white'
p71
tp72
Rp73
I10
I1
tp74
a(g4
(g5
(S'S8'
p75
I0
I1
tp76
Rp77
(I3
S'|'
p78
NNNI8
I1
I0
tp79
bS'pringles'
p80
tp81
Rp82
I7
I1
tp83
a(g4
(g5
(S'S5'
p84
I0
I1
tp85
Rp86
(I3
S'|'
p87
NNNI5
I1
I0
tp88
bS'empty'
p89
tp90
Rp91
I20
I1
tp92
a(g4
(g5
(S'S6'
p93
I0
I1
tp94
Rp95
(I3
S'|'
p96
NNNI6
I1
I0
tp97
bS'coffee'
p98
tp99
Rp100
I2
I1
tp101
a(g4
(g5
(S'S8'
p102
I0
I1
tp103
Rp104
(I3
S'|'
p105
NNNI8
I1
I0
tp106
bS'metallic'
p107
tp108
Rp109
I10
I1
tp110
a(g4
(g5
(S'S5'
p111
I0
I1
tp112
Rp113
(I3
S'|'
p114
NNNI5
I1
I0
tp115
bS'clear'
p116
tp117
Rp118
I10
I0
tp119
a(g118
I3
I0
tp120
a(g118
I27
I0
tp121
a(g118
I7
I0
tp122
a(g118
I18
I0
tp123
a(g118
I2
I0
tp124
a(g118
I20
I0
tp125
a(g118
I17
I0
tp126
a(g4
(g5
(S'S9'
p127
I0
I1
tp128
Rp129
(I3
S'|'
p130
NNNI9
I1
I0
tp131
bS'styrofoam'
p132
tp133
Rp134
I20
I1
tp135
a(g4
(g5
(S'S5'
p136
I0
I1
tp137
Rp138
(I3
S'|'
p139
NNNI5
I1
I0
tp140
bS'spice'
p141
tp142
Rp143
I10
I0
tp144
a(g143
I3
I0
tp145
a(g143
I27
I0
tp146
a(g143
I7
I0
tp147
a(g143
I18
I0
tp148
a(g143
I2
I0
tp149
a(g143
I20
I0
tp150
a(g143
I17
I0
tp151
a(g4
(g5
(S'S4'
p152
I0
I1
tp153
Rp154
(I3
S'|'
p155
NNNI4
I1
I0
tp156
bS'blue'
p157
tp158
Rp159
I18
I1
tp160
a(g4
(g5
(S'S8'
p161
I0
I1
tp162
Rp163
(I3
S'|'
p164
NNNI8
I1
I0
tp165
bS'metallic'
p166
tp167
Rp168
I7
I0
tp169
aa(lp170
(S'glass'
p171
S'container'
p172
I00
tp173
a(g171
S'metallic'
p174
I01
tp175
a(S'jar'
p176
g172
I01
tp177
a(S'small'
p178
S'white'
p179
I00
tp180
a(S'cap'
p181
S'opposite'
p182
I00
tp183
a(g181
S'blue'
p184
I00
tp185
a(S'bottle'
p186
S'coffee'
p187
I00
tp188
a(g186
g172
I01
tp189
aa.