(lp0
(lp1
(dp2
S'action'
p3
cnumpy.core.multiarray
scalar
p4
(cnumpy
dtype
p5
(S'S4'
p6
I0
I1
tp7
Rp8
(I3
S'|'
p9
NNNI4
I1
I0
tp10
bS'walk'
p11
tp12
Rp13
sS'recipient'
p14
NsS'patient'
p15
NsS'goal'
p16
S'3414b'
p17
sS'source'
p18
Nsa(dp19
g3
g4
(g5
(S'S5'
p20
I0
I1
tp21
Rp22
(I3
S'|'
p23
NNNI5
I1
I0
tp24
bS'bring'
p25
tp26
Rp27
sg14
S'd'
p28
sg15
S'oidx_22'
p29
sg16
Nsg18
Nsa(dp30
g3
g4
(g5
(S'S4'
p31
I0
I1
tp32
Rp33
(I3
S'|'
p34
NNNI4
I1
I0
tp35
bS'move'
p36
tp37
Rp38
sg14
Nsg15
S'oidx_6'
p39
sg16
g4
(g5
(S'S4'
p40
I0
I1
tp41
Rp42
(I3
S'|'
p43
NNNI4
I1
I0
tp44
bS'3502'
p45
tp46
Rp47
sg18
g4
(g5
(S'S4'
p48
I0
I1
tp49
Rp50
(I3
S'|'
p51
NNNI4
I1
I0
tp52
bS'3512'
p53
tp54
Rp55
saa(lp56
(dp57
S'all'
p58
(lp59
S'move to lab'
p60
asg15
(lp61
sg16
(lp62
S'w'
p63
asg18
(lp64
sg3
(lp65
sg14
(lp66
sa(dp67
g58
(lp68
S'give dave the container'
p69
asg15
(lp70
S'd'
p71
aS'david dave daniel'
p72
aS'container'
p73
aS'other'
p74
aS'container'
p75
aS'bottle'
p76
aS'food'
p77
asg16
(lp78
sg18
(lp79
sg3
(lp80
sg14
(lp81
S'dave'
p82
asa(dp83
g58
(lp84
S'move pill bottle from office to another office'
p85
asg15
(lp86
S'pill bottle'
p87
aS'medicine'
p88
asg16
(lp89
S'yes'
p90
aS'office r'
p91
aS'yes'
p92
aS'yes'
p93
aS'mallory mal maroon office'
p94
asg18
(lp95
S'richard rogue secretary office'
p96
aS'richard rogue secretary office'
p97
asg3
(lp98
sg14
(lp99
saa(lp100
(g4
(g5
(S'S8'
p101
I0
I1
tp102
Rp103
(I3
S'|'
p104
NNNI8
I1
I0
tp105
bS'pringles'
p106
tp107
Rp108
I10
I0
tp109
a(g108
I3
I0
tp110
a(g108
I27
I0
tp111
a(g108
I7
I0
tp112
a(g108
I18
I0
tp113
a(g108
I2
I0
tp114
a(g108
I20
I0
tp115
a(g108
I17
I0
tp116
a(g4
(g5
(S'S9'
p117
I0
I1
tp118
Rp119
(I3
S'|'
p120
NNNI9
I1
I0
tp121
bS'styrofoam'
p122
tp123
Rp124
I20
I1
tp125
a(g4
(g5
(S'S5'
p126
I0
I1
tp127
Rp128
(I3
S'|'
p129
NNNI5
I1
I0
tp130
bS'tower'
p131
tp132
Rp133
I10
I0
tp134
a(g133
I3
I0
tp135
a(g133
I27
I0
tp136
a(g133
I7
I0
tp137
a(g133
I18
I0
tp138
a(g133
I2
I0
tp139
a(g133
I20
I0
tp140
a(g133
I17
I0
tp141
a(g4
(g5
(S'S3'
p142
I0
I1
tp143
Rp144
(I3
S'|'
p145
NNNI3
I1
I0
tp146
bS'can'
p147
tp148
Rp149
I2
I1
tp150
a(g4
(g5
(S'S5'
p151
I0
I1
tp152
Rp153
(I3
S'|'
p154
NNNI5
I1
I0
tp155
bS'white'
p156
tp157
Rp158
I10
I0
tp159
a(g158
I3
I0
tp160
a(g158
I27
I0
tp161
a(g158
I7
I0
tp162
a(g158
I18
I0
tp163
a(g158
I2
I0
tp164
a(g158
I20
I0
tp165
a(g158
I17
I0
tp166
a(g4
(g5
(S'S9'
p167
I0
I1
tp168
Rp169
(I3
S'|'
p170
NNNI9
I1
I0
tp171
bS'container'
p172
tp173
Rp174
I2
I1
tp175
a(g4
(g5
(S'S9'
p176
I0
I1
tp177
Rp178
(I3
S'|'
p179
NNNI9
I1
I0
tp180
bS'container'
p181
tp182
Rp183
I18
I0
tp184
a(g4
(g5
(S'S9'
p185
I0
I1
tp186
Rp187
(I3
S'|'
p188
NNNI9
I1
I0
tp189
bS'container'
p190
tp191
Rp192
I7
I1
tp193
a(g4
(g5
(S'S9'
p194
I0
I1
tp195
Rp196
(I3
S'|'
p197
NNNI9
I1
I0
tp198
bS'container'
p199
tp200
Rp201
I10
I0
tp202
a(g4
(g5
(S'S9'
p203
I0
I1
tp204
Rp205
(I3
S'|'
p206
NNNI9
I1
I0
tp207
bS'container'
p208
tp209
Rp210
I7
I1
tp211
a(g4
(g5
(S'S9'
p212
I0
I1
tp213
Rp214
(I3
S'|'
p215
NNNI9
I1
I0
tp216
bS'rectangle'
p217
tp218
Rp219
I20
I1
tp220
a(g4
(g5
(S'S9'
p221
I0
I1
tp222
Rp223
(I3
S'|'
p224
NNNI9
I1
I0
tp225
bS'rectangle'
p226
tp227
Rp228
I27
I0
tp229
a(g4
(g5
(S'S5'
p230
I0
I1
tp231
Rp232
(I3
S'|'
p233
NNNI5
I1
I0
tp234
bS'empty'
p235
tp236
Rp237
I10
I0
tp238
a(g237
I3
I0
tp239
a(g237
I27
I0
tp240
a(g237
I7
I0
tp241
a(g237
I18
I0
tp242
a(g237
I2
I0
tp243
a(g237
I20
I0
tp244
a(g237
I17
I0
tp245
a(g4
(g5
(S'S5'
p246
I0
I1
tp247
Rp248
(I3
S'|'
p249
NNNI5
I1
I0
tp250
bS'spice'
p251
tp252
Rp253
I10
I0
tp254
a(g253
I3
I0
tp255
a(g253
I27
I0
tp256
a(g253
I7
I0
tp257
a(g253
I18
I0
tp258
a(g253
I2
I0
tp259
a(g253
I20
I0
tp260
a(g253
I17
I0
tp261
a(g4
(g5
(S'S9'
p262
I0
I1
tp263
Rp264
(I3
S'|'
p265
NNNI9
I1
I0
tp266
bS'container'
p267
tp268
Rp269
I3
I0
tp270
aa(lp271
a.