(lp0
(lp1
(dp2
S'action'
p3
cnumpy.core.multiarray
scalar
p4
(cnumpy
dtype
p5
(S'S4'
p6
I0
I1
tp7
Rp8
(I3
S'|'
p9
NNNI4
I1
I0
tp10
bS'walk'
p11
tp12
Rp13
sS'recipient'
p14
NsS'patient'
p15
NsS'goal'
p16
S'3414b'
p17
sS'source'
p18
Nsa(dp19
g3
g4
(g5
(S'S5'
p20
I0
I1
tp21
Rp22
(I3
S'|'
p23
NNNI5
I1
I0
tp24
bS'bring'
p25
tp26
Rp27
sg14
g4
(g5
(S'S1'
p28
I0
I1
tp29
Rp30
(I3
S'|'
p31
NNNI1
I1
I0
tp32
bS'w'
p33
tp34
Rp35
sg15
S'oidx_12'
p36
sg16
Nsg18
Nsa(dp37
g3
g4
(g5
(S'S5'
p38
I0
I1
tp39
Rp40
(I3
S'|'
p41
NNNI5
I1
I0
tp42
bS'bring'
p43
tp44
Rp45
sg14
S'p'
p46
sg15
g4
(g5
(S'S7'
p47
I0
I1
tp48
Rp49
(I3
S'|'
p50
NNNI7
I1
I0
tp51
bS'oidx_26'
p52
tp53
Rp54
sg16
Nsg18
Nsaa(lp55
(dp56
S'all'
p57
(lp58
S'walk to the lab'
p59
asg15
(lp60
sg16
(lp61
S'the lab'
p62
asg18
(lp63
sg3
(lp64
sg14
(lp65
sa(dp66
g57
(lp67
S'take the handiwpes to walter'
p68
asg15
(lp69
S'the handiwipes'
p70
aS'the wipes'
p71
asg16
(lp72
sg18
(lp73
sg3
(lp74
sg14
(lp75
sa(dp76
g57
(lp77
S'take the coke to the pod'
p78
asg15
(lp79
S'the coke'
p80
aS'the coke'
p81
aS'the cylinder can'
p82
aS'the red cylinder can'
p83
aS'the red can'
p84
asg16
(lp85
sg18
(lp86
sg3
(lp87
sg14
(lp88
saa(lp89
(g4
(g5
(S'S8'
p90
I0
I1
tp91
Rp92
(I3
S'|'
p93
NNNI8
I1
I0
tp94
bS'metallic'
p95
tp96
Rp97
I7
I1
tp98
a(g4
(g5
(S'S5'
p99
I0
I1
tp100
Rp101
(I3
S'|'
p102
NNNI5
I1
I0
tp103
bS'peach'
p104
tp105
Rp106
I10
I0
tp107
a(g106
I3
I0
tp108
a(g106
I27
I0
tp109
a(g106
I7
I0
tp110
a(g106
I18
I0
tp111
a(g106
I2
I0
tp112
a(g106
I20
I0
tp113
a(g106
I17
I0
tp114
a(g4
(g5
(S'S4'
p115
I0
I1
tp116
Rp117
(I3
S'|'
p118
NNNI4
I1
I0
tp119
bS'blue'
p120
tp121
Rp122
I18
I1
tp123
a(g4
(g5
(S'S5'
p124
I0
I1
tp125
Rp126
(I3
S'|'
p127
NNNI5
I1
I0
tp128
bS'block'
p129
tp130
Rp131
I10
I0
tp132
a(g131
I3
I0
tp133
a(g131
I27
I0
tp134
a(g131
I7
I0
tp135
a(g131
I18
I0
tp136
a(g131
I2
I0
tp137
a(g131
I20
I0
tp138
a(g131
I17
I0
tp139
a(g4
(g5
(S'S4'
p140
I0
I1
tp141
Rp142
(I3
S'|'
p143
NNNI4
I1
I0
tp144
bS'bean'
p145
tp146
Rp147
I10
I0
tp148
a(g147
I3
I0
tp149
a(g147
I27
I0
tp150
a(g147
I7
I0
tp151
a(g147
I18
I0
tp152
a(g147
I2
I0
tp153
a(g147
I20
I0
tp154
a(g147
I17
I0
tp155
a(g4
(g5
(S'S8'
p156
I0
I1
tp157
Rp158
(I3
S'|'
p159
NNNI8
I1
I0
tp160
bS'metallic'
p161
tp162
Rp163
I20
I0
tp164
a(g4
(g5
(S'S6'
p165
I0
I1
tp166
Rp167
(I3
S'|'
p168
NNNI6
I1
I0
tp169
bS'coffee'
p170
tp171
Rp172
I2
I1
tp173
a(g4
(g5
(S'S9'
p174
I0
I1
tp175
Rp176
(I3
S'|'
p177
NNNI9
I1
I0
tp178
bS'styrofoam'
p179
tp180
Rp181
I20
I1
tp182
a(g4
(g5
(S'S6'
p183
I0
I1
tp184
Rp185
(I3
S'|'
p186
NNNI6
I1
I0
tp187
bS'column'
p188
tp189
Rp190
I20
I1
tp191
a(g4
(g5
(S'S8'
p192
I0
I1
tp193
Rp194
(I3
S'|'
p195
NNNI8
I1
I0
tp196
bS'cylinder'
p197
tp198
Rp199
I7
I1
tp200
a(g4
(g5
(S'S8'
p201
I0
I1
tp202
Rp203
(I3
S'|'
p204
NNNI8
I1
I0
tp205
bS'cylinder'
p206
tp207
Rp208
I27
I0
tp209
a(g4
(g5
(S'S3'
p210
I0
I1
tp211
Rp212
(I3
S'|'
p213
NNNI3
I1
I0
tp214
bS'can'
p215
tp216
Rp217
I10
I0
tp218
a(g217
I3
I0
tp219
a(g217
I27
I0
tp220
a(g217
I7
I0
tp221
a(g217
I18
I0
tp222
a(g217
I2
I0
tp223
a(g217
I20
I0
tp224
a(g217
I17
I0
tp225
a(g4
(g5
(S'S8'
p226
I0
I1
tp227
Rp228
(I3
S'|'
p229
NNNI8
I1
I0
tp230
bS'cylinder'
p231
tp232
Rp233
I20
I1
tp234
a(g4
(g5
(S'S5'
p235
I0
I1
tp236
Rp237
(I3
S'|'
p238
NNNI5
I1
I0
tp239
bS'clear'
p240
tp241
Rp242
I10
I0
tp243
a(g242
I3
I0
tp244
a(g242
I27
I0
tp245
a(g242
I7
I0
tp246
a(g242
I18
I0
tp247
a(g242
I2
I0
tp248
a(g242
I20
I0
tp249
a(g242
I17
I0
tp250
a(g4
(g5
(S'S8'
p251
I0
I1
tp252
Rp253
(I3
S'|'
p254
NNNI8
I1
I0
tp255
bS'cylinder'
p256
tp257
Rp258
I27
I0
tp259
aa(lp260
(S'red'
p261
S'white'
p262
I01
tp263
aa.