(lp0
(lp1
(dp2
S'action'
p3
cnumpy.core.multiarray
scalar
p4
(cnumpy
dtype
p5
(S'S4'
p6
I0
I1
tp7
Rp8
(I3
S'|'
p9
NNNI4
I1
I0
tp10
bS'walk'
p11
tp12
Rp13
sS'recipient'
p14
NsS'patient'
p15
NsS'goal'
p16
S'3414b'
p17
sS'source'
p18
Nsaa(lp19
(dp20
S'all'
p21
(lp22
S'locate office of mal maroon'
p23
asg15
(lp24
sg16
(lp25
S'go to office m'
p26
aS'office m'
p27
aS'go outside of the room you are in turn left and go to the end of the hallway enter last door on left'
p28
aS'office m'
p29
aS'last office on left'
p30
aS'out of the current room turn left go in room marked m'
p31
aS'leave present room'
p32
aS'turn left'
p33
aS'reverse current position turn left and go to room marked with the letter m'
p34
aS'locate office m'
p35
asg18
(lp36
sg3
(lp37
sg14
(lp38
saa(lp39
(g4
(g5
(S'S5'
p40
I0
I1
tp41
Rp42
(I3
S'|'
p43
NNNI5
I1
I0
tp44
bS'block'
p45
tp46
Rp47
I10
I0
tp48
a(g47
I3
I0
tp49
a(g47
I27
I0
tp50
a(g47
I7
I0
tp51
a(g47
I18
I0
tp52
a(g47
I2
I0
tp53
a(g47
I20
I0
tp54
a(g47
I17
I0
tp55
a(g4
(g5
(S'S6'
p56
I0
I1
tp57
Rp58
(I3
S'|'
p59
NNNI6
I1
I0
tp60
bS'coffee'
p61
tp62
Rp63
I10
I0
tp64
a(g63
I3
I0
tp65
a(g63
I27
I0
tp66
a(g63
I7
I0
tp67
a(g63
I18
I0
tp68
a(g63
I2
I0
tp69
a(g63
I20
I0
tp70
a(g63
I17
I0
tp71
a(g4
(g5
(S'S8'
p72
I0
I1
tp73
Rp74
(I3
S'|'
p75
NNNI8
I1
I0
tp76
bS'pringles'
p77
tp78
Rp79
I10
I0
tp80
a(g79
I3
I0
tp81
a(g79
I27
I0
tp82
a(g79
I7
I0
tp83
a(g79
I18
I0
tp84
a(g79
I2
I0
tp85
a(g79
I20
I0
tp86
a(g79
I17
I0
tp87
a(g4
(g5
(S'S8'
p88
I0
I1
tp89
Rp90
(I3
S'|'
p91
NNNI8
I1
I0
tp92
bS'metallic'
p93
tp94
Rp95
I10
I0
tp96
a(g95
I3
I0
tp97
a(g95
I27
I0
tp98
a(g95
I7
I0
tp99
a(g95
I18
I0
tp100
a(g95
I2
I0
tp101
a(g95
I20
I0
tp102
a(g95
I17
I0
tp103
a(g4
(g5
(S'S5'
p104
I0
I1
tp105
Rp106
(I3
S'|'
p107
NNNI5
I1
I0
tp108
bS'peach'
p109
tp110
Rp111
I10
I0
tp112
a(g111
I3
I0
tp113
a(g111
I27
I0
tp114
a(g111
I7
I0
tp115
a(g111
I18
I0
tp116
a(g111
I2
I0
tp117
a(g111
I20
I0
tp118
a(g111
I17
I0
tp119
aa(lp120
(S'letter'
p121
S'column'
p122
I00
tp123
aa.