(lp0
(lp1
(dp2
S'action'
p3
cnumpy.core.multiarray
scalar
p4
(cnumpy
dtype
p5
(S'S4'
p6
I0
I1
tp7
Rp8
(I3
S'|'
p9
NNNI4
I1
I0
tp10
bS'walk'
p11
tp12
Rp13
sS'recipient'
p14
NsS'patient'
p15
NsS'goal'
p16
S'3508'
p17
sS'source'
p18
Nsa(dp19
g3
g4
(g5
(S'S5'
p20
I0
I1
tp21
Rp22
(I3
S'|'
p23
NNNI5
I1
I0
tp24
bS'bring'
p25
tp26
Rp27
sg14
S'd'
p28
sg15
S'oidx_11'
p29
sg16
Nsg18
Nsaa(lp30
(dp31
S'all'
p32
(lp33
S'move to office'
p34
asg15
(lp35
sg16
(lp36
S'office'
p37
aS'd'
p38
asg18
(lp39
sg3
(lp40
sg14
(lp41
sa(dp42
g32
(lp43
S'pick the selected object'
p44
asg15
(lp45
S'b'
p46
aS'container'
p47
aS'container'
p48
asg16
(lp49
sg18
(lp50
sg3
(lp51
sg14
(lp52
saa(lp53
(g4
(g5
(S'S6'
p54
I0
I1
tp55
Rp56
(I3
S'|'
p57
NNNI6
I1
I0
tp58
bS'yellow'
p59
tp60
Rp61
I27
I1
tp62
a(g4
(g5
(S'S5'
p63
I0
I1
tp64
Rp65
(I3
S'|'
p66
NNNI5
I1
I0
tp67
bS'clear'
p68
tp69
Rp70
I10
I0
tp71
a(g70
I3
I0
tp72
a(g70
I27
I0
tp73
a(g70
I7
I0
tp74
a(g70
I18
I0
tp75
a(g70
I2
I0
tp76
a(g70
I20
I0
tp77
a(g70
I17
I0
tp78
a(g4
(g5
(S'S5'
p79
I0
I1
tp80
Rp81
(I3
S'|'
p82
NNNI5
I1
I0
tp83
bS'white'
p84
tp85
Rp86
I10
I0
tp87
a(g86
I3
I0
tp88
a(g86
I27
I0
tp89
a(g86
I7
I0
tp90
a(g86
I18
I0
tp91
a(g86
I2
I0
tp92
a(g86
I20
I0
tp93
a(g86
I17
I0
tp94
a(g4
(g5
(S'S4'
p95
I0
I1
tp96
Rp97
(I3
S'|'
p98
NNNI4
I1
I0
tp99
bS'long'
p100
tp101
Rp102
I3
I1
tp103
a(g4
(g5
(S'S5'
p104
I0
I1
tp105
Rp106
(I3
S'|'
p107
NNNI5
I1
I0
tp108
bS'tower'
p109
tp110
Rp111
I3
I1
tp112
a(g4
(g5
(S'S9'
p113
I0
I1
tp114
Rp115
(I3
S'|'
p116
NNNI9
I1
I0
tp117
bS'container'
p118
tp119
Rp120
I2
I1
tp121
a(g4
(g5
(S'S5'
p122
I0
I1
tp123
Rp124
(I3
S'|'
p125
NNNI5
I1
I0
tp126
bS'peach'
p127
tp128
Rp129
I10
I0
tp130
a(g129
I3
I0
tp131
a(g129
I27
I0
tp132
a(g129
I7
I0
tp133
a(g129
I18
I0
tp134
a(g129
I2
I0
tp135
a(g129
I20
I0
tp136
a(g129
I17
I0
tp137
a(g4
(g5
(S'S4'
p138
I0
I1
tp139
Rp140
(I3
S'|'
p141
NNNI4
I1
I0
tp142
bS'bean'
p143
tp144
Rp145
I10
I0
tp146
a(g145
I3
I0
tp147
a(g145
I27
I0
tp148
a(g145
I7
I0
tp149
a(g145
I18
I0
tp150
a(g145
I2
I0
tp151
a(g145
I20
I0
tp152
a(g145
I17
I0
tp153
a(g4
(g5
(S'S5'
p154
I0
I1
tp155
Rp156
(I3
S'|'
p157
NNNI5
I1
I0
tp158
bS'block'
p159
tp160
Rp161
I10
I0
tp162
a(g161
I3
I0
tp163
a(g161
I27
I0
tp164
a(g161
I7
I0
tp165
a(g161
I18
I0
tp166
a(g161
I2
I0
tp167
a(g161
I20
I0
tp168
a(g161
I17
I0
tp169
a(g4
(g5
(S'S9'
p170
I0
I1
tp171
Rp172
(I3
S'|'
p173
NNNI9
I1
I0
tp174
bS'styrofoam'
p175
tp176
Rp177
I10
I0
tp178
a(g177
I3
I0
tp179
a(g177
I27
I0
tp180
a(g177
I7
I0
tp181
a(g177
I18
I0
tp182
a(g177
I2
I0
tp183
a(g177
I20
I0
tp184
a(g177
I17
I0
tp185
aa(lp186
(S'object'
p187
S'container'
p188
I01
tp189
aa.