(lp0
(lp1
(dp2
S'action'
p3
cnumpy.core.multiarray
scalar
p4
(cnumpy
dtype
p5
(S'S4'
p6
I0
I1
tp7
Rp8
(I3
S'|'
p9
NNNI4
I1
I0
tp10
bS'walk'
p11
tp12
Rp13
sS'recipient'
p14
NsS'patient'
p15
NsS'goal'
p16
S'3414b'
p17
sS'source'
p18
Nsa(dp19
g3
g4
(g5
(S'S5'
p20
I0
I1
tp21
Rp22
(I3
S'|'
p23
NNNI5
I1
I0
tp24
bS'bring'
p25
tp26
Rp27
sg14
S's'
p28
sg15
S'oidx_28'
p29
sg16
Nsg18
Nsa(dp30
g3
g4
(g5
(S'S4'
p31
I0
I1
tp32
Rp33
(I3
S'|'
p34
NNNI4
I1
I0
tp35
bS'move'
p36
tp37
Rp38
sg14
Nsg15
g4
(g5
(S'S7'
p39
I0
I1
tp40
Rp41
(I3
S'|'
p42
NNNI7
I1
I0
tp43
bS'oidx_22'
p44
tp45
Rp46
sg16
S'3424'
p47
sg18
g4
(g5
(S'S4'
p48
I0
I1
tp49
Rp50
(I3
S'|'
p51
NNNI4
I1
I0
tp52
bS'3436'
p53
tp54
Rp55
saa(lp56
(dp57
S'all'
p58
(lp59
S'go to the lab'
p60
asg15
(lp61
sg16
(lp62
S'to the lab'
p63
asg18
(lp64
sg3
(lp65
sg14
(lp66
sa(dp67
g58
(lp68
S'robert brown needs the can at b'
p69
asg15
(lp70
S'blue canister'
p71
aS'blue canister'
p72
asg16
(lp73
sg18
(lp74
sg3
(lp75
sg14
(lp76
sa(dp77
g58
(lp78
S'take the clear canister from the lab to the pod'
p79
asg15
(lp80
S'clear canister'
p81
aS'clear canister with peanuts'
p82
aS'clear canister with red lid'
p83
aS'clear container'
p84
aS'clear canister'
p85
aS'container'
p86
aS'canister'
p87
aS'peanuts'
p88
aS'clear jar'
p89
aS'red lid container'
p90
aS'clear container'
p91
aS'plastic container'
p92
aS'clear jar'
p93
aS'clear canister with red lid'
p94
aS'clear'
p95
aS'canister'
p96
asg16
(lp97
S'pod'
p98
aS'first pod'
p99
aS'the pod'
p100
aS'pod'
p101
aS'between w and s'
p102
asg18
(lp103
S'from the lab to the pod'
p104
aS'to the pod'
p105
aS'lab'
p106
aS'the lab'
p107
asg3
(lp108
sg14
(lp109
saa(lp110
(g4
(g5
(S'S5'
p111
I0
I1
tp112
Rp113
(I3
S'|'
p114
NNNI5
I1
I0
tp115
bS'block'
p116
tp117
Rp118
I10
I0
tp119
a(g118
I3
I0
tp120
a(g118
I27
I0
tp121
a(g118
I7
I0
tp122
a(g118
I18
I0
tp123
a(g118
I2
I0
tp124
a(g118
I20
I0
tp125
a(g118
I17
I0
tp126
a(g4
(g5
(S'S5'
p127
I0
I1
tp128
Rp129
(I3
S'|'
p130
NNNI5
I1
I0
tp131
bS'tower'
p132
tp133
Rp134
I10
I0
tp135
a(g134
I3
I0
tp136
a(g134
I27
I0
tp137
a(g134
I7
I0
tp138
a(g134
I18
I0
tp139
a(g134
I2
I0
tp140
a(g134
I20
I0
tp141
a(g134
I17
I0
tp142
a(g4
(g5
(S'S6'
p143
I0
I1
tp144
Rp145
(I3
S'|'
p146
NNNI6
I1
I0
tp147
bS'coffee'
p148
tp149
Rp150
I2
I1
tp151
a(g4
(g5
(S'S5'
p152
I0
I1
tp153
Rp154
(I3
S'|'
p155
NNNI5
I1
I0
tp156
bS'clear'
p157
tp158
Rp159
I10
I0
tp160
a(g159
I3
I0
tp161
a(g159
I27
I0
tp162
a(g159
I7
I0
tp163
a(g159
I18
I0
tp164
a(g159
I2
I0
tp165
a(g159
I20
I0
tp166
a(g159
I17
I0
tp167
a(g4
(g5
(S'S5'
p168
I0
I1
tp169
Rp170
(I3
S'|'
p171
NNNI5
I1
I0
tp172
bS'empty'
p173
tp174
Rp175
I3
I1
tp176
a(g4
(g5
(S'S9'
p177
I0
I1
tp178
Rp179
(I3
S'|'
p180
NNNI9
I1
I0
tp181
bS'container'
p182
tp183
Rp184
I2
I1
tp185
a(g4
(g5
(S'S9'
p186
I0
I1
tp187
Rp188
(I3
S'|'
p189
NNNI9
I1
I0
tp190
bS'container'
p191
tp192
Rp193
I20
I0
tp194
a(g4
(g5
(S'S9'
p195
I0
I1
tp196
Rp197
(I3
S'|'
p198
NNNI9
I1
I0
tp199
bS'container'
p200
tp201
Rp202
I10
I1
tp203
a(g4
(g5
(S'S4'
p204
I0
I1
tp205
Rp206
(I3
S'|'
p207
NNNI4
I1
I0
tp208
bS'blue'
p209
tp210
Rp211
I18
I1
tp212
a(g4
(g5
(S'S9'
p213
I0
I1
tp214
Rp215
(I3
S'|'
p216
NNNI9
I1
I0
tp217
bS'container'
p218
tp219
Rp220
I27
I0
tp221
a(g4
(g5
(S'S4'
p222
I0
I1
tp223
Rp224
(I3
S'|'
p225
NNNI4
I1
I0
tp226
bS'blue'
p227
tp228
Rp229
I27
I0
tp230
a(g4
(g5
(S'S6'
p231
I0
I1
tp232
Rp233
(I3
S'|'
p234
NNNI6
I1
I0
tp235
bS'yellow'
p236
tp237
Rp238
I10
I0
tp239
a(g238
I3
I0
tp240
a(g238
I27
I0
tp241
a(g238
I7
I0
tp242
a(g238
I18
I0
tp243
a(g238
I2
I0
tp244
a(g238
I20
I0
tp245
a(g238
I17
I0
tp246
a(g4
(g5
(S'S8'
p247
I0
I1
tp248
Rp249
(I3
S'|'
p250
NNNI8
I1
I0
tp251
bS'pringles'
p252
tp253
Rp254
I10
I0
tp255
a(g254
I3
I0
tp256
a(g254
I27
I0
tp257
a(g254
I7
I0
tp258
a(g254
I18
I0
tp259
a(g254
I2
I0
tp260
a(g254
I20
I0
tp261
a(g254
I17
I0
tp262
a(g4
(g5
(S'S9'
p263
I0
I1
tp264
Rp265
(I3
S'|'
p266
NNNI9
I1
I0
tp267
bS'container'
p268
tp269
Rp270
I17
I1
tp271
a(g4
(g5
(S'S6'
p272
I0
I1
tp273
Rp274
(I3
S'|'
p275
NNNI6
I1
I0
tp276
bS'coffee'
p277
tp278
Rp279
I27
I0
tp280
aa(lp281
(S'canister'
p282
S'container'
p283
I01
tp284
a(S'red'
p285
S'white'
p286
I00
tp287
a(g285
S'yellow'
p288
I00
tp289
a(g285
S'blue'
p290
I00
tp291
a(S'lid'
p292
g283
I00
tp293
a(g292
S'cylinder'
p294
I00
tp295
a(S'jar'
p296
S'peaches'
p297
I00
tp298
a(g296
g283
I01
tp299
a(S'plastic'
p300
g283
I00
tp301
a(g300
g286
I00
tp302
a(g300
S'metallic'
p303
I00
tp304
aa.