(lp0
(lp1
(dp2
S'action'
p3
cnumpy.core.multiarray
scalar
p4
(cnumpy
dtype
p5
(S'S4'
p6
I0
I1
tp7
Rp8
(I3
S'|'
p9
NNNI4
I1
I0
tp10
bS'walk'
p11
tp12
Rp13
sS'recipient'
p14
NsS'patient'
p15
NsS'goal'
p16
S'3414a'
p17
sS'source'
p18
Nsa(dp19
g3
g4
(g5
(S'S5'
p20
I0
I1
tp21
Rp22
(I3
S'|'
p23
NNNI5
I1
I0
tp24
bS'bring'
p25
tp26
Rp27
sg14
g4
(g5
(S'S1'
p28
I0
I1
tp29
Rp30
(I3
S'|'
p31
NNNI1
I1
I0
tp32
bS'm'
p33
tp34
Rp35
sg15
S'oidx_6'
p36
sg16
Nsg18
Nsa(dp37
g3
g4
(g5
(S'S4'
p38
I0
I1
tp39
Rp40
(I3
S'|'
p41
NNNI4
I1
I0
tp42
bS'walk'
p43
tp44
Rp45
sg14
Nsg15
Nsg16
S'3402'
p46
sg18
Nsaa(lp47
(dp48
S'all'
p49
(lp50
S'you need to go somewhere'
p51
asg15
(lp52
sg16
(lp53
S'go to the lab that is located in between printer and kitchen'
p54
aS'lab'
p55
aS'go to lab'
p56
asg18
(lp57
sg3
(lp58
sg14
(lp59
sa(dp60
g49
(lp61
S'mallory needs the white bottle'
p62
asg15
(lp63
S'yes'
p64
asg16
(lp65
sg18
(lp66
sg3
(lp67
sg14
(lp68
sa(dp69
g49
(lp70
S'deliver something from somewhere'
p71
asg15
(lp72
sg16
(lp73
S"heidi 's office"
p74
asg18
(lp75
sg3
(lp76
sg14
(lp77
saa(lp78
(g4
(g5
(S'S5'
p79
I0
I1
tp80
Rp81
(I3
S'|'
p82
NNNI5
I1
I0
tp83
bS'white'
p84
tp85
Rp86
I10
I0
tp87
a(g86
I3
I0
tp88
a(g86
I27
I0
tp89
a(g86
I7
I0
tp90
a(g86
I18
I0
tp91
a(g86
I2
I0
tp92
a(g86
I20
I0
tp93
a(g86
I17
I0
tp94
a(g4
(g5
(S'S8'
p95
I0
I1
tp96
Rp97
(I3
S'|'
p98
NNNI8
I1
I0
tp99
bS'metallic'
p100
tp101
Rp102
I10
I0
tp103
a(g102
I3
I0
tp104
a(g102
I27
I0
tp105
a(g102
I7
I0
tp106
a(g102
I18
I0
tp107
a(g102
I2
I0
tp108
a(g102
I20
I0
tp109
a(g102
I17
I0
tp110
a(g4
(g5
(S'S4'
p111
I0
I1
tp112
Rp113
(I3
S'|'
p114
NNNI4
I1
I0
tp115
bS'long'
p116
tp117
Rp118
I3
I1
tp119
a(g4
(g5
(S'S5'
p120
I0
I1
tp121
Rp122
(I3
S'|'
p123
NNNI5
I1
I0
tp124
bS'clear'
p125
tp126
Rp127
I10
I0
tp128
a(g127
I3
I0
tp129
a(g127
I27
I0
tp130
a(g127
I7
I0
tp131
a(g127
I18
I0
tp132
a(g127
I2
I0
tp133
a(g127
I20
I0
tp134
a(g127
I17
I0
tp135
a(g4
(g5
(S'S6'
p136
I0
I1
tp137
Rp138
(I3
S'|'
p139
NNNI6
I1
I0
tp140
bS'coffee'
p141
tp142
Rp143
I10
I0
tp144
a(g143
I3
I0
tp145
a(g143
I27
I0
tp146
a(g143
I7
I0
tp147
a(g143
I18
I0
tp148
a(g143
I2
I0
tp149
a(g143
I20
I0
tp150
a(g143
I17
I0
tp151
a(g4
(g5
(S'S9'
p152
I0
I1
tp153
Rp154
(I3
S'|'
p155
NNNI9
I1
I0
tp156
bS'container'
p157
tp158
Rp159
I2
I1
tp160
a(g4
(g5
(S'S9'
p161
I0
I1
tp162
Rp163
(I3
S'|'
p164
NNNI9
I1
I0
tp165
bS'container'
p166
tp167
Rp168
I3
I0
tp169
a(g4
(g5
(S'S9'
p170
I0
I1
tp171
Rp172
(I3
S'|'
p173
NNNI9
I1
I0
tp174
bS'container'
p175
tp176
Rp177
I10
I1
tp178
a(g4
(g5
(S'S9'
p179
I0
I1
tp180
Rp181
(I3
S'|'
p182
NNNI9
I1
I0
tp183
bS'container'
p184
tp185
Rp186
I20
I0
tp187
a(g4
(g5
(S'S9'
p188
I0
I1
tp189
Rp190
(I3
S'|'
p191
NNNI9
I1
I0
tp192
bS'container'
p193
tp194
Rp195
I2
I1
tp196
a(g4
(g5
(S'S5'
p197
I0
I1
tp198
Rp199
(I3
S'|'
p200
NNNI5
I1
I0
tp201
bS'peach'
p202
tp203
Rp204
I10
I0
tp205
a(g204
I3
I0
tp206
a(g204
I27
I0
tp207
a(g204
I7
I0
tp208
a(g204
I18
I0
tp209
a(g204
I2
I0
tp210
a(g204
I20
I0
tp211
a(g204
I17
I0
tp212
a(g4
(g5
(S'S4'
p213
I0
I1
tp214
Rp215
(I3
S'|'
p216
NNNI4
I1
I0
tp217
bS'bean'
p218
tp219
Rp220
I10
I0
tp221
a(g220
I3
I0
tp222
a(g220
I27
I0
tp223
a(g220
I7
I0
tp224
a(g220
I18
I0
tp225
a(g220
I2
I0
tp226
a(g220
I20
I0
tp227
a(g220
I17
I0
tp228
a(g4
(g5
(S'S5'
p229
I0
I1
tp230
Rp231
(I3
S'|'
p232
NNNI5
I1
I0
tp233
bS'empty'
p234
tp235
Rp236
I10
I0
tp237
a(g236
I3
I0
tp238
a(g236
I27
I0
tp239
a(g236
I7
I0
tp240
a(g236
I18
I0
tp241
a(g236
I2
I0
tp242
a(g236
I20
I0
tp243
a(g236
I17
I0
tp244
a(g4
(g5
(S'S9'
p245
I0
I1
tp246
Rp247
(I3
S'|'
p248
NNNI9
I1
I0
tp249
bS'container'
p250
tp251
Rp252
I20
I0
tp253
a(g4
(g5
(S'S6'
p254
I0
I1
tp255
Rp256
(I3
S'|'
p257
NNNI6
I1
I0
tp258
bS'column'
p259
tp260
Rp261
I20
I1
tp262
aa(lp263
(S'bottle'
p264
S'coffee'
p265
I00
tp266
a(g264
S'container'
p267
I01
tp268
aa.