(lp0
(lp1
(dp2
S'action'
p3
cnumpy.core.multiarray
scalar
p4
(cnumpy
dtype
p5
(S'S4'
p6
I0
I1
tp7
Rp8
(I3
S'|'
p9
NNNI4
I1
I0
tp10
bS'move'
p11
tp12
Rp13
sS'recipient'
p14
NsS'patient'
p15
S'oidx_12'
p16
sS'goal'
p17
S'3420'
p18
sS'source'
p19
S'3404'
p20
sa(dp21
g3
g4
(g5
(S'S5'
p22
I0
I1
tp23
Rp24
(I3
S'|'
p25
NNNI5
I1
I0
tp26
bS'bring'
p27
tp28
Rp29
sg14
g4
(g5
(S'S1'
p30
I0
I1
tp31
Rp32
(I3
S'|'
p33
NNNI1
I1
I0
tp34
bS's'
p35
tp36
Rp37
sg15
g16
sg17
Nsg19
Nsaa(lp38
(dp39
S'all'
p40
(lp41
S'b'
p42
asg15
(lp43
sg17
(lp44
S'colour'
p45
aS'yes'
p46
asg19
(lp47
S'colour'
p48
asg3
(lp49
sg14
(lp50
sa(dp51
g40
(lp52
S'd'
p53
asg15
(lp54
S'color'
p55
asg17
(lp56
sg19
(lp57
sg3
(lp58
sg14
(lp59
S'dr sybil smalt'
p60
asaa(lp61
(g4
(g5
(S'S5'
p62
I0
I1
tp63
Rp64
(I3
S'|'
p65
NNNI5
I1
I0
tp66
bS'block'
p67
tp68
Rp69
I10
I0
tp70
a(g69
I3
I0
tp71
a(g69
I27
I0
tp72
a(g69
I7
I0
tp73
a(g69
I18
I0
tp74
a(g69
I2
I0
tp75
a(g69
I20
I0
tp76
a(g69
I17
I0
tp77
a(g4
(g5
(S'S4'
p78
I0
I1
tp79
Rp80
(I3
S'|'
p81
NNNI4
I1
I0
tp82
bS'long'
p83
tp84
Rp85
I2
I1
tp86
a(g4
(g5
(S'S8'
p87
I0
I1
tp88
Rp89
(I3
S'|'
p90
NNNI8
I1
I0
tp91
bS'cylinder'
p92
tp93
Rp94
I27
I1
tp95
a(g4
(g5
(S'S5'
p96
I0
I1
tp97
Rp98
(I3
S'|'
p99
NNNI5
I1
I0
tp100
bS'spice'
p101
tp102
Rp103
I3
I1
tp104
a(g4
(g5
(S'S8'
p105
I0
I1
tp106
Rp107
(I3
S'|'
p108
NNNI8
I1
I0
tp109
bS'cylinder'
p110
tp111
Rp112
I7
I0
tp113
a(g4
(g5
(S'S9'
p114
I0
I1
tp115
Rp116
(I3
S'|'
p117
NNNI9
I1
I0
tp118
bS'styrofoam'
p119
tp120
Rp121
I20
I1
tp122
a(g4
(g5
(S'S9'
p123
I0
I1
tp124
Rp125
(I3
S'|'
p126
NNNI9
I1
I0
tp127
bS'container'
p128
tp129
Rp130
I20
I1
tp131
a(g4
(g5
(S'S6'
p132
I0
I1
tp133
Rp134
(I3
S'|'
p135
NNNI6
I1
I0
tp136
bS'yellow'
p137
tp138
Rp139
I27
I1
tp140
a(g4
(g5
(S'S4'
p141
I0
I1
tp142
Rp143
(I3
S'|'
p144
NNNI4
I1
I0
tp145
bS'blue'
p146
tp147
Rp148
I7
I1
tp149
a(g4
(g5
(S'S4'
p150
I0
I1
tp151
Rp152
(I3
S'|'
p153
NNNI4
I1
I0
tp154
bS'bean'
p155
tp156
Rp157
I3
I1
tp158
aa(lp159
(g53
S'block'
p160
I01
tp161
aa.