(lp0
(lp1
(dp2
S'action'
p3
cnumpy.core.multiarray
scalar
p4
(cnumpy
dtype
p5
(S'S5'
p6
I0
I1
tp7
Rp8
(I3
S'|'
p9
NNNI5
I1
I0
tp10
bS'bring'
p11
tp12
Rp13
sS'recipient'
p14
S's'
p15
sS'patient'
p16
S'oidx_25'
p17
sS'goal'
p18
NsS'source'
p19
Nsa(dp20
g3
g4
(g5
(S'S4'
p21
I0
I1
tp22
Rp23
(I3
S'|'
p24
NNNI4
I1
I0
tp25
bS'walk'
p26
tp27
Rp28
sg14
Nsg16
Nsg18
S'3516'
p29
sg19
Nsa(dp30
g3
g4
(g5
(S'S5'
p31
I0
I1
tp32
Rp33
(I3
S'|'
p34
NNNI5
I1
I0
tp35
bS'bring'
p36
tp37
Rp38
sg14
S'd'
p39
sg16
S'oidx_28'
p40
sg18
Nsg19
Nsaa(lp41
(dp42
S'all'
p43
(lp44
S'yes'
p45
asg16
(lp46
S'okay'
p47
aS'thos'
p48
asg18
(lp49
sg19
(lp50
sg3
(lp51
sg14
(lp52
sa(dp53
g43
(lp54
S'ok'
p55
asg16
(lp56
sg18
(lp57
S'office'
p58
aS'yes'
p59
aS'okay'
p60
aS'okay'
p61
aS'yes'
p62
aS'ok leave'
p63
aS'ya'
p64
asg19
(lp65
sg3
(lp66
sg14
(lp67
sa(dp68
g43
(lp69
S'hi'
p70
asg16
(lp71
S'yes'
p72
aS'ok'
p73
asg18
(lp74
sg19
(lp75
sg3
(lp76
sg14
(lp77
saa(lp78
(g4
(g5
(S'S9'
p79
I0
I1
tp80
Rp81
(I3
S'|'
p82
NNNI9
I1
I0
tp83
bS'rectangle'
p84
tp85
Rp86
I7
I1
tp87
a(g4
(g5
(S'S5'
p88
I0
I1
tp89
Rp90
(I3
S'|'
p91
NNNI5
I1
I0
tp92
bS'block'
p93
tp94
Rp95
I10
I1
tp96
a(g4
(g5
(S'S6'
p97
I0
I1
tp98
Rp99
(I3
S'|'
p100
NNNI6
I1
I0
tp101
bS'coffee'
p102
tp103
Rp104
I10
I1
tp105
a(g4
(g5
(S'S3'
p106
I0
I1
tp107
Rp108
(I3
S'|'
p109
NNNI3
I1
I0
tp110
bS'can'
p111
tp112
Rp113
I20
I1
tp114
a(g4
(g5
(S'S4'
p115
I0
I1
tp116
Rp117
(I3
S'|'
p118
NNNI4
I1
I0
tp119
bS'bean'
p120
tp121
Rp122
I2
I1
tp123
a(g4
(g5
(S'S4'
p124
I0
I1
tp125
Rp126
(I3
S'|'
p127
NNNI4
I1
I0
tp128
bS'bean'
p129
tp130
Rp131
I2
I0
tp132
a(g4
(g5
(S'S9'
p133
I0
I1
tp134
Rp135
(I3
S'|'
p136
NNNI9
I1
I0
tp137
bS'rectangle'
p138
tp139
Rp140
I2
I0
tp141
a(g4
(g5
(S'S5'
p142
I0
I1
tp143
Rp144
(I3
S'|'
p145
NNNI5
I1
I0
tp146
bS'spice'
p147
tp148
Rp149
I3
I1
tp150
a(g4
(g5
(S'S8'
p151
I0
I1
tp152
Rp153
(I3
S'|'
p154
NNNI8
I1
I0
tp155
bS'cylinder'
p156
tp157
Rp158
I18
I1
tp159
a(g4
(g5
(S'S6'
p160
I0
I1
tp161
Rp162
(I3
S'|'
p163
NNNI6
I1
I0
tp164
bS'column'
p165
tp166
Rp167
I20
I1
tp168
a(g4
(g5
(S'S5'
p169
I0
I1
tp170
Rp171
(I3
S'|'
p172
NNNI5
I1
I0
tp173
bS'peach'
p174
tp175
Rp176
I27
I1
tp177
a(g4
(g5
(S'S8'
p178
I0
I1
tp179
Rp180
(I3
S'|'
p181
NNNI8
I1
I0
tp182
bS'pringles'
p183
tp184
Rp185
I3
I1
tp186
a(g4
(g5
(S'S6'
p187
I0
I1
tp188
Rp189
(I3
S'|'
p190
NNNI6
I1
I0
tp191
bS'yellow'
p192
tp193
Rp194
I18
I1
tp195
a(g4
(g5
(S'S5'
p196
I0
I1
tp197
Rp198
(I3
S'|'
p199
NNNI5
I1
I0
tp200
bS'tower'
p201
tp202
Rp203
I7
I1
tp204
a(g4
(g5
(S'S9'
p205
I0
I1
tp206
Rp207
(I3
S'|'
p208
NNNI9
I1
I0
tp209
bS'rectangle'
p210
tp211
Rp212
I2
I1
tp213
aa(lp214
(g70
S'coffee'
p215
I01
tp216
aa.