(lp0
(lp1
(dp2
S'action'
p3
cnumpy.core.multiarray
scalar
p4
(cnumpy
dtype
p5
(S'S4'
p6
I0
I1
tp7
Rp8
(I3
S'|'
p9
NNNI4
I1
I0
tp10
bS'walk'
p11
tp12
Rp13
sS'recipient'
p14
NsS'patient'
p15
NsS'goal'
p16
g4
(g5
(S'S4'
p17
I0
I1
tp18
Rp19
(I3
S'|'
p20
NNNI4
I1
I0
tp21
bS'3510'
p22
tp23
Rp24
sS'source'
p25
Nsa(dp26
g3
g4
(g5
(S'S5'
p27
I0
I1
tp28
Rp29
(I3
S'|'
p30
NNNI5
I1
I0
tp31
bS'bring'
p32
tp33
Rp34
sg14
S'r'
p35
sg15
S'oidx_6'
p36
sg16
Nsg25
Nsa(dp37
g3
g4
(g5
(S'S5'
p38
I0
I1
tp39
Rp40
(I3
S'|'
p41
NNNI5
I1
I0
tp42
bS'bring'
p43
tp44
Rp45
sg14
g4
(g5
(S'S1'
p46
I0
I1
tp47
Rp48
(I3
S'|'
p49
NNNI1
I1
I0
tp50
bS's'
p51
tp52
Rp53
sg15
S'oidx_26'
p54
sg16
Nsg25
Nsaa(lp55
(dp56
S'all'
p57
(lp58
S'go to robert browns office'
p59
asg15
(lp60
sg16
(lp61
sg25
(lp62
sg3
(lp63
sg14
(lp64
sa(dp65
g57
(lp66
S'richard rogue needs an object'
p67
asg15
(lp68
S'peppercorns'
p69
aS'peppercorns'
p70
asg16
(lp71
sg25
(lp72
sg3
(lp73
sg14
(lp74
sa(dp75
g57
(lp76
S'bring the blue container to dr sybil smalt'
p77
asg15
(lp78
S'blue container'
p79
asg16
(lp80
sg25
(lp81
sg3
(lp82
sg14
(lp83
saa(lp84
(g4
(g5
(S'S8'
p85
I0
I1
tp86
Rp87
(I3
S'|'
p88
NNNI8
I1
I0
tp89
bS'metallic'
p90
tp91
Rp92
I10
I0
tp93
a(g92
I3
I0
tp94
a(g92
I27
I0
tp95
a(g92
I7
I0
tp96
a(g92
I18
I0
tp97
a(g92
I2
I0
tp98
a(g92
I20
I0
tp99
a(g92
I17
I0
tp100
a(g4
(g5
(S'S9'
p101
I0
I1
tp102
Rp103
(I3
S'|'
p104
NNNI9
I1
I0
tp105
bS'container'
p106
tp107
Rp108
I17
I1
tp109
a(g4
(g5
(S'S9'
p110
I0
I1
tp111
Rp112
(I3
S'|'
p113
NNNI9
I1
I0
tp114
bS'styrofoam'
p115
tp116
Rp117
I20
I1
tp118
a(g4
(g5
(S'S3'
p119
I0
I1
tp120
Rp121
(I3
S'|'
p122
NNNI3
I1
I0
tp123
bS'can'
p124
tp125
Rp126
I2
I1
tp127
a(g4
(g5
(S'S6'
p128
I0
I1
tp129
Rp130
(I3
S'|'
p131
NNNI6
I1
I0
tp132
bS'coffee'
p133
tp134
Rp135
I10
I0
tp136
a(g135
I3
I0
tp137
a(g135
I27
I0
tp138
a(g135
I7
I0
tp139
a(g135
I18
I0
tp140
a(g135
I2
I0
tp141
a(g135
I20
I0
tp142
a(g135
I17
I0
tp143
a(g4
(g5
(S'S4'
p144
I0
I1
tp145
Rp146
(I3
S'|'
p147
NNNI4
I1
I0
tp148
bS'blue'
p149
tp150
Rp151
I18
I1
tp152
a(g4
(g5
(S'S6'
p153
I0
I1
tp154
Rp155
(I3
S'|'
p156
NNNI6
I1
I0
tp157
bS'yellow'
p158
tp159
Rp160
I10
I0
tp161
a(g160
I3
I0
tp162
a(g160
I27
I0
tp163
a(g160
I7
I0
tp164
a(g160
I18
I0
tp165
a(g160
I2
I0
tp166
a(g160
I20
I0
tp167
a(g160
I17
I0
tp168
a(g4
(g5
(S'S9'
p169
I0
I1
tp170
Rp171
(I3
S'|'
p172
NNNI9
I1
I0
tp173
bS'styrofoam'
p174
tp175
Rp176
I2
I0
tp177
a(g4
(g5
(S'S5'
p178
I0
I1
tp179
Rp180
(I3
S'|'
p181
NNNI5
I1
I0
tp182
bS'white'
p183
tp184
Rp185
I10
I0
tp186
a(g185
I3
I0
tp187
a(g185
I27
I0
tp188
a(g185
I7
I0
tp189
a(g185
I18
I0
tp190
a(g185
I2
I0
tp191
a(g185
I20
I0
tp192
a(g185
I17
I0
tp193
a(g4
(g5
(S'S5'
p194
I0
I1
tp195
Rp196
(I3
S'|'
p197
NNNI5
I1
I0
tp198
bS'empty'
p199
tp200
Rp201
I3
I1
tp202
a(g4
(g5
(S'S9'
p203
I0
I1
tp204
Rp205
(I3
S'|'
p206
NNNI9
I1
I0
tp207
bS'container'
p208
tp209
Rp210
I3
I0
tp211
a(g4
(g5
(S'S9'
p212
I0
I1
tp213
Rp214
(I3
S'|'
p215
NNNI9
I1
I0
tp216
bS'container'
p217
tp218
Rp219
I2
I1
tp220
a(g4
(g5
(S'S4'
p221
I0
I1
tp222
Rp223
(I3
S'|'
p224
NNNI4
I1
I0
tp225
bS'blue'
p226
tp227
Rp228
I7
I0
tp229
a(g4
(g5
(S'S4'
p230
I0
I1
tp231
Rp232
(I3
S'|'
p233
NNNI4
I1
I0
tp234
bS'blue'
p235
tp236
Rp237
I18
I1
tp238
a(g4
(g5
(S'S4'
p239
I0
I1
tp240
Rp241
(I3
S'|'
p242
NNNI4
I1
I0
tp243
bS'blue'
p244
tp245
Rp246
I7
I0
tp247
aa(lp248
a.