(lp0
(lp1
(dp2
S'action'
p3
cnumpy.core.multiarray
scalar
p4
(cnumpy
dtype
p5
(S'S4'
p6
I0
I1
tp7
Rp8
(I3
S'|'
p9
NNNI4
I1
I0
tp10
bS'walk'
p11
tp12
Rp13
sS'recipient'
p14
NsS'patient'
p15
NsS'goal'
p16
S'3420'
p17
sS'source'
p18
Nsa(dp19
g3
g4
(g5
(S'S4'
p20
I0
I1
tp21
Rp22
(I3
S'|'
p23
NNNI4
I1
I0
tp24
bS'walk'
p25
tp26
Rp27
sg14
Nsg15
Nsg16
S'3424'
p28
sg18
Nsa(dp29
g3
g4
(g5
(S'S5'
p30
I0
I1
tp31
Rp32
(I3
S'|'
p33
NNNI5
I1
I0
tp34
bS'bring'
p35
tp36
Rp37
sg14
S'w'
p38
sg15
S'oidx_13'
p39
sg16
Nsg18
Nsaa(lp40
(dp41
S'all'
p42
(lp43
S'working'
p44
asg15
(lp45
sg16
(lp46
S'yes'
p47
aS'office'
p48
aS'lab'
p49
asg18
(lp50
sg3
(lp51
sg14
(lp52
sa(dp53
g42
(lp54
S'working'
p55
asg15
(lp56
sg16
(lp57
S'office'
p58
aS'lab'
p59
aS'kitchen'
p60
aS'yes'
p61
aS'what is your problem'
p62
asg18
(lp63
sg3
(lp64
sg14
(lp65
sa(dp66
g42
(lp67
S'working'
p68
asg15
(lp69
S'yes'
p70
aS'yes'
p71
asg16
(lp72
sg18
(lp73
sg3
(lp74
sg14
(lp75
saa(lp76
(g4
(g5
(S'S9'
p77
I0
I1
tp78
Rp79
(I3
S'|'
p80
NNNI9
I1
I0
tp81
bS'styrofoam'
p82
tp83
Rp84
I7
I1
tp85
a(g4
(g5
(S'S4'
p86
I0
I1
tp87
Rp88
(I3
S'|'
p89
NNNI4
I1
I0
tp90
bS'long'
p91
tp92
Rp93
I20
I1
tp94
a(g4
(g5
(S'S4'
p95
I0
I1
tp96
Rp97
(I3
S'|'
p98
NNNI4
I1
I0
tp99
bS'blue'
p100
tp101
Rp102
I10
I1
tp103
a(g4
(g5
(S'S8'
p104
I0
I1
tp105
Rp106
(I3
S'|'
p107
NNNI8
I1
I0
tp108
bS'metallic'
p109
tp110
Rp111
I27
I1
tp112
a(g4
(g5
(S'S4'
p113
I0
I1
tp114
Rp115
(I3
S'|'
p116
NNNI4
I1
I0
tp117
bS'bean'
p118
tp119
Rp120
I7
I1
tp121
a(g4
(g5
(S'S6'
p122
I0
I1
tp123
Rp124
(I3
S'|'
p125
NNNI6
I1
I0
tp126
bS'coffee'
p127
tp128
Rp129
I18
I1
tp130
a(g4
(g5
(S'S5'
p131
I0
I1
tp132
Rp133
(I3
S'|'
p134
NNNI5
I1
I0
tp135
bS'empty'
p136
tp137
Rp138
I3
I1
tp139
a(g4
(g5
(S'S9'
p140
I0
I1
tp141
Rp142
(I3
S'|'
p143
NNNI9
I1
I0
tp144
bS'styrofoam'
p145
tp146
Rp147
I18
I0
tp148
a(g4
(g5
(S'S5'
p149
I0
I1
tp150
Rp151
(I3
S'|'
p152
NNNI5
I1
I0
tp153
bS'spice'
p154
tp155
Rp156
I7
I1
tp157
a(g4
(g5
(S'S5'
p158
I0
I1
tp159
Rp160
(I3
S'|'
p161
NNNI5
I1
I0
tp162
bS'tower'
p163
tp164
Rp165
I17
I1
tp166
a(g4
(g5
(S'S9'
p167
I0
I1
tp168
Rp169
(I3
S'|'
p170
NNNI9
I1
I0
tp171
bS'styrofoam'
p172
tp173
Rp174
I7
I1
tp175
a(g4
(g5
(S'S5'
p176
I0
I1
tp177
Rp178
(I3
S'|'
p179
NNNI5
I1
I0
tp180
bS'peach'
p181
tp182
Rp183
I2
I1
tp184
a(g4
(g5
(S'S4'
p185
I0
I1
tp186
Rp187
(I3
S'|'
p188
NNNI4
I1
I0
tp189
bS'blue'
p190
tp191
Rp192
I27
I0
tp193
a(g4
(g5
(S'S5'
p194
I0
I1
tp195
Rp196
(I3
S'|'
p197
NNNI5
I1
I0
tp198
bS'block'
p199
tp200
Rp201
I18
I1
tp202
a(g4
(g5
(S'S6'
p203
I0
I1
tp204
Rp205
(I3
S'|'
p206
NNNI6
I1
I0
tp207
bS'yellow'
p208
tp209
Rp210
I27
I1
tp211
aa(lp212
(S'is'
p213
S'can'
p214
I01
tp215
a(S'your'
p216
g214
I01
tp217
aa.