(lp0
(lp1
(dp2
S'action'
p3
cnumpy.core.multiarray
scalar
p4
(cnumpy
dtype
p5
(S'S5'
p6
I0
I1
tp7
Rp8
(I3
S'|'
p9
NNNI5
I1
I0
tp10
bS'bring'
p11
tp12
Rp13
sS'recipient'
p14
S'r'
p15
sS'patient'
p16
S'oidx_22'
p17
sS'goal'
p18
NsS'source'
p19
Nsaa(lp20
(dp21
S'all'
p22
(lp23
S'is'
p24
asg16
(lp25
S'no'
p26
aS'no'
p27
asg18
(lp28
sg19
(lp29
sg3
(lp30
sg14
(lp31
saa(lp32
(g4
(g5
(S'S6'
p33
I0
I1
tp34
Rp35
(I3
S'|'
p36
NNNI6
I1
I0
tp37
bS'column'
p38
tp39
Rp40
I10
I0
tp41
a(g40
I3
I0
tp42
a(g40
I27
I0
tp43
a(g40
I7
I0
tp44
a(g40
I18
I0
tp45
a(g40
I2
I0
tp46
a(g40
I20
I0
tp47
a(g40
I17
I0
tp48
a(g4
(g5
(S'S4'
p49
I0
I1
tp50
Rp51
(I3
S'|'
p52
NNNI4
I1
I0
tp53
bS'long'
p54
tp55
Rp56
I10
I0
tp57
a(g56
I3
I0
tp58
a(g56
I27
I0
tp59
a(g56
I7
I0
tp60
a(g56
I18
I0
tp61
a(g56
I2
I0
tp62
a(g56
I20
I0
tp63
a(g56
I17
I0
tp64
a(g4
(g5
(S'S5'
p65
I0
I1
tp66
Rp67
(I3
S'|'
p68
NNNI5
I1
I0
tp69
bS'block'
p70
tp71
Rp72
I10
I0
tp73
a(g72
I3
I0
tp74
a(g72
I27
I0
tp75
a(g72
I7
I0
tp76
a(g72
I18
I0
tp77
a(g72
I2
I0
tp78
a(g72
I20
I0
tp79
a(g72
I17
I0
tp80
a(g4
(g5
(S'S8'
p81
I0
I1
tp82
Rp83
(I3
S'|'
p84
NNNI8
I1
I0
tp85
bS'metallic'
p86
tp87
Rp88
I10
I0
tp89
a(g88
I3
I0
tp90
a(g88
I27
I0
tp91
a(g88
I7
I0
tp92
a(g88
I18
I0
tp93
a(g88
I2
I0
tp94
a(g88
I20
I0
tp95
a(g88
I17
I0
tp96
a(g4
(g5
(S'S9'
p97
I0
I1
tp98
Rp99
(I3
S'|'
p100
NNNI9
I1
I0
tp101
bS'styrofoam'
p102
tp103
Rp104
I10
I0
tp105
a(g104
I3
I0
tp106
a(g104
I27
I0
tp107
a(g104
I7
I0
tp108
a(g104
I18
I0
tp109
a(g104
I2
I0
tp110
a(g104
I20
I0
tp111
a(g104
I17
I0
tp112
aa(lp113
a.