(lp0
(lp1
(dp2
S'action'
p3
cnumpy.core.multiarray
scalar
p4
(cnumpy
dtype
p5
(S'S4'
p6
I0
I1
tp7
Rp8
(I3
S'|'
p9
NNNI4
I1
I0
tp10
bS'move'
p11
tp12
Rp13
sS'recipient'
p14
NsS'patient'
p15
S'oidx_6'
p16
sS'goal'
p17
S'3518'
p18
sS'source'
p19
S'3512'
p20
sa(dp21
g3
g4
(g5
(S'S4'
p22
I0
I1
tp23
Rp24
(I3
S'|'
p25
NNNI4
I1
I0
tp26
bS'move'
p27
tp28
Rp29
sg14
Nsg15
S'oidx_22'
p30
sg17
g18
sg19
S'3414a'
p31
sa(dp32
g3
g4
(g5
(S'S4'
p33
I0
I1
tp34
Rp35
(I3
S'|'
p36
NNNI4
I1
I0
tp37
bS'move'
p38
tp39
Rp40
sg14
Nsg15
g16
sg17
S'3506'
p41
sg19
S'3436'
p42
saa(lp43
(dp44
S'all'
p45
(lp46
S'nothing'
p47
asg15
(lp48
S'yes'
p49
asg17
(lp50
S'yes'
p51
asg19
(lp52
S'your wish'
p53
asg3
(lp54
sg14
(lp55
sa(dp56
g45
(lp57
S'yes'
p58
asg15
(lp59
sg17
(lp60
S'yes'
p61
asg19
(lp62
S'yes'
p63
aS'yes'
p64
asg3
(lp65
sg14
(lp66
sa(dp67
g45
(lp68
S'yes'
p69
asg15
(lp70
S'yes'
p71
asg17
(lp72
S'yes'
p73
asg19
(lp74
S'yes'
p75
asg3
(lp76
sg14
(lp77
saa(lp78
(g4
(g5
(S'S9'
p79
I0
I1
tp80
Rp81
(I3
S'|'
p82
NNNI9
I1
I0
tp83
bS'rectangle'
p84
tp85
Rp86
I10
I1
tp87
a(g4
(g5
(S'S3'
p88
I0
I1
tp89
Rp90
(I3
S'|'
p91
NNNI3
I1
I0
tp92
bS'can'
p93
tp94
Rp95
I17
I1
tp96
a(g4
(g5
(S'S8'
p97
I0
I1
tp98
Rp99
(I3
S'|'
p100
NNNI8
I1
I0
tp101
bS'pringles'
p102
tp103
Rp104
I10
I0
tp105
a(g104
I3
I0
tp106
a(g104
I27
I0
tp107
a(g104
I7
I0
tp108
a(g104
I18
I0
tp109
a(g104
I2
I0
tp110
a(g104
I20
I0
tp111
a(g104
I17
I0
tp112
a(g4
(g5
(S'S9'
p113
I0
I1
tp114
Rp115
(I3
S'|'
p116
NNNI9
I1
I0
tp117
bS'rectangle'
p118
tp119
Rp120
I18
I0
tp121
a(g4
(g5
(S'S4'
p122
I0
I1
tp123
Rp124
(I3
S'|'
p125
NNNI4
I1
I0
tp126
bS'bean'
p127
tp128
Rp129
I10
I1
tp130
a(g4
(g5
(S'S5'
p131
I0
I1
tp132
Rp133
(I3
S'|'
p134
NNNI5
I1
I0
tp135
bS'clear'
p136
tp137
Rp138
I17
I1
tp139
a(g4
(g5
(S'S4'
p140
I0
I1
tp141
Rp142
(I3
S'|'
p143
NNNI4
I1
I0
tp144
bS'blue'
p145
tp146
Rp147
I18
I1
tp148
a(g4
(g5
(S'S6'
p149
I0
I1
tp150
Rp151
(I3
S'|'
p152
NNNI6
I1
I0
tp153
bS'column'
p154
tp155
Rp156
I20
I1
tp157
a(g4
(g5
(S'S9'
p158
I0
I1
tp159
Rp160
(I3
S'|'
p161
NNNI9
I1
I0
tp162
bS'rectangle'
p163
tp164
Rp165
I7
I1
tp166
a(g4
(g5
(S'S5'
p167
I0
I1
tp168
Rp169
(I3
S'|'
p170
NNNI5
I1
I0
tp171
bS'empty'
p172
tp173
Rp174
I17
I1
tp175
a(g4
(g5
(S'S5'
p176
I0
I1
tp177
Rp178
(I3
S'|'
p179
NNNI5
I1
I0
tp180
bS'peach'
p181
tp182
Rp183
I18
I1
tp184
a(g4
(g5
(S'S4'
p185
I0
I1
tp186
Rp187
(I3
S'|'
p188
NNNI4
I1
I0
tp189
bS'wish'
p190
tp191
Rp192
I10
I1
tp193
a(g4
(g5
(S'S6'
p194
I0
I1
tp195
Rp196
(I3
S'|'
p197
NNNI6
I1
I0
tp198
bS'column'
p199
tp200
Rp201
I2
I0
tp202
a(g4
(g5
(S'S3'
p203
I0
I1
tp204
Rp205
(I3
S'|'
p206
NNNI3
I1
I0
tp207
bS'can'
p208
tp209
Rp210
I18
I0
tp211
a(g4
(g5
(S'S9'
p212
I0
I1
tp213
Rp214
(I3
S'|'
p215
NNNI9
I1
I0
tp216
bS'container'
p217
tp218
Rp219
I10
I1
tp220
aa(lp221
(S'your'
p222
S'can'
p223
I01
tp224
a(S'wish'
p225
g223
I00
tp226
aa.