(lp0
(lp1
(dp2
S'action'
p3
cnumpy.core.multiarray
scalar
p4
(cnumpy
dtype
p5
(S'S4'
p6
I0
I1
tp7
Rp8
(I3
S'|'
p9
NNNI4
I1
I0
tp10
bS'walk'
p11
tp12
Rp13
sS'recipient'
p14
NsS'patient'
p15
NsS'goal'
p16
g4
(g5
(S'S4'
p17
I0
I1
tp18
Rp19
(I3
S'|'
p20
NNNI4
I1
I0
tp21
bS'3512'
p22
tp23
Rp24
sS'source'
p25
Nsa(dp26
g3
g4
(g5
(S'S5'
p27
I0
I1
tp28
Rp29
(I3
S'|'
p30
NNNI5
I1
I0
tp31
bS'bring'
p32
tp33
Rp34
sg14
g4
(g5
(S'S1'
p35
I0
I1
tp36
Rp37
(I3
S'|'
p38
NNNI1
I1
I0
tp39
bS'd'
p40
tp41
Rp42
sg15
S'oidx_13'
p43
sg16
Nsg25
Nsa(dp44
g3
g4
(g5
(S'S4'
p45
I0
I1
tp46
Rp47
(I3
S'|'
p48
NNNI4
I1
I0
tp49
bS'move'
p50
tp51
Rp52
sg14
Nsg15
g4
(g5
(S'S7'
p53
I0
I1
tp54
Rp55
(I3
S'|'
p56
NNNI7
I1
I0
tp57
bS'oidx_28'
p58
tp59
Rp60
sg16
g4
(g5
(S'S4'
p61
I0
I1
tp62
Rp63
(I3
S'|'
p64
NNNI4
I1
I0
tp65
bS'3422'
p66
tp67
Rp68
sg25
g4
(g5
(S'S4'
p69
I0
I1
tp70
Rp71
(I3
S'|'
p72
NNNI4
I1
I0
tp73
bS'3424'
p74
tp75
Rp76
saa(lp77
(dp78
S'all'
p79
(lp80
S"go to richard rogue 's office"
p81
asg15
(lp82
sg16
(lp83
sg25
(lp84
sg3
(lp85
sg14
(lp86
sa(dp87
g79
(lp88
S'take this can to david daniel please'
p89
asg15
(lp90
S'this potato chip can'
p91
aS'this blue can'
p92
aS'this blue can'
p93
asg16
(lp94
sg25
(lp95
sg3
(lp96
sg14
(lp97
S'david daniel'
p98
asa(dp99
g79
(lp100
S"take the styrofoam pillar in the pod to walter ward 's office"
p101
asg15
(lp102
S'yes'
p103
aS'the long white rectangle'
p104
aS'the long white rectangle'
p105
asg16
(lp106
sg25
(lp107
S'pod'
p108
aS'pod'
p109
aS"the pod next to walter ward 's office"
p110
asg3
(lp111
sg14
(lp112
saa(lp113
(g4
(g5
(S'S8'
p114
I0
I1
tp115
Rp116
(I3
S'|'
p117
NNNI8
I1
I0
tp118
bS'metallic'
p119
tp120
Rp121
I7
I1
tp122
a(g4
(g5
(S'S4'
p123
I0
I1
tp124
Rp125
(I3
S'|'
p126
NNNI4
I1
I0
tp127
bS'long'
p128
tp129
Rp130
I3
I1
tp131
a(g4
(g5
(S'S5'
p132
I0
I1
tp133
Rp134
(I3
S'|'
p135
NNNI5
I1
I0
tp136
bS'empty'
p137
tp138
Rp139
I10
I0
tp140
a(g139
I3
I0
tp141
a(g139
I27
I0
tp142
a(g139
I7
I0
tp143
a(g139
I18
I0
tp144
a(g139
I2
I0
tp145
a(g139
I20
I0
tp146
a(g139
I17
I0
tp147
a(g4
(g5
(S'S5'
p148
I0
I1
tp149
Rp150
(I3
S'|'
p151
NNNI5
I1
I0
tp152
bS'clear'
p153
tp154
Rp155
I10
I0
tp156
a(g155
I3
I0
tp157
a(g155
I27
I0
tp158
a(g155
I7
I0
tp159
a(g155
I18
I0
tp160
a(g155
I2
I0
tp161
a(g155
I20
I0
tp162
a(g155
I17
I0
tp163
a(g4
(g5
(S'S4'
p164
I0
I1
tp165
Rp166
(I3
S'|'
p167
NNNI4
I1
I0
tp168
bS'bean'
p169
tp170
Rp171
I10
I0
tp172
a(g171
I3
I0
tp173
a(g171
I27
I0
tp174
a(g171
I7
I0
tp175
a(g171
I18
I0
tp176
a(g171
I2
I0
tp177
a(g171
I20
I0
tp178
a(g171
I17
I0
tp179
a(g4
(g5
(S'S3'
p180
I0
I1
tp181
Rp182
(I3
S'|'
p183
NNNI3
I1
I0
tp184
bS'can'
p185
tp186
Rp187
I2
I1
tp188
a(g4
(g5
(S'S4'
p189
I0
I1
tp190
Rp191
(I3
S'|'
p192
NNNI4
I1
I0
tp193
bS'blue'
p194
tp195
Rp196
I18
I1
tp197
a(g4
(g5
(S'S3'
p198
I0
I1
tp199
Rp200
(I3
S'|'
p201
NNNI3
I1
I0
tp202
bS'can'
p203
tp204
Rp205
I27
I0
tp206
a(g4
(g5
(S'S4'
p207
I0
I1
tp208
Rp209
(I3
S'|'
p210
NNNI4
I1
I0
tp211
bS'blue'
p212
tp213
Rp214
I7
I0
tp215
a(g4
(g5
(S'S4'
p216
I0
I1
tp217
Rp218
(I3
S'|'
p219
NNNI4
I1
I0
tp220
bS'blue'
p221
tp222
Rp223
I18
I1
tp224
a(g4
(g5
(S'S5'
p225
I0
I1
tp226
Rp227
(I3
S'|'
p228
NNNI5
I1
I0
tp229
bS'tower'
p230
tp231
Rp232
I10
I0
tp233
a(g232
I3
I0
tp234
a(g232
I27
I0
tp235
a(g232
I7
I0
tp236
a(g232
I18
I0
tp237
a(g232
I2
I0
tp238
a(g232
I20
I0
tp239
a(g232
I17
I0
tp240
a(g4
(g5
(S'S9'
p241
I0
I1
tp242
Rp243
(I3
S'|'
p244
NNNI9
I1
I0
tp245
bS'rectangle'
p246
tp247
Rp248
I10
I0
tp249
a(g248
I3
I0
tp250
a(g248
I27
I0
tp251
a(g248
I7
I0
tp252
a(g248
I18
I0
tp253
a(g248
I2
I0
tp254
a(g248
I20
I0
tp255
a(g248
I17
I0
tp256
a(g4
(g5
(S'S4'
p257
I0
I1
tp258
Rp259
(I3
S'|'
p260
NNNI4
I1
I0
tp261
bS'long'
p262
tp263
Rp264
I27
I0
tp265
a(g4
(g5
(S'S8'
p266
I0
I1
tp267
Rp268
(I3
S'|'
p269
NNNI8
I1
I0
tp270
bS'pringles'
p271
tp272
Rp273
I10
I0
tp274
a(g273
I3
I0
tp275
a(g273
I27
I0
tp276
a(g273
I7
I0
tp277
a(g273
I18
I0
tp278
a(g273
I2
I0
tp279
a(g273
I20
I0
tp280
a(g273
I17
I0
tp281
a(g4
(g5
(S'S4'
p282
I0
I1
tp283
Rp284
(I3
S'|'
p285
NNNI4
I1
I0
tp286
bS'long'
p287
tp288
Rp289
I20
I1
tp290
aa(lp291
(S'pillar'
p292
S'tower'
p293
I01
tp294
aa.