(lp0
(lp1
(dp2
S'action'
p3
cnumpy.core.multiarray
scalar
p4
(cnumpy
dtype
p5
(S'S4'
p6
I0
I1
tp7
Rp8
(I3
S'|'
p9
NNNI4
I1
I0
tp10
bS'walk'
p11
tp12
Rp13
sS'recipient'
p14
NsS'patient'
p15
NsS'goal'
p16
g4
(g5
(S'S4'
p17
I0
I1
tp18
Rp19
(I3
S'|'
p20
NNNI4
I1
I0
tp21
bS'3520'
p22
tp23
Rp24
sS'source'
p25
Nsa(dp26
g3
g4
(g5
(S'S5'
p27
I0
I1
tp28
Rp29
(I3
S'|'
p30
NNNI5
I1
I0
tp31
bS'bring'
p32
tp33
Rp34
sg14
S'p'
p35
sg15
g4
(g5
(S'S7'
p36
I0
I1
tp37
Rp38
(I3
S'|'
p39
NNNI7
I1
I0
tp40
bS'oidx_26'
p41
tp42
Rp43
sg16
Nsg25
Nsaa(lp44
(dp45
S'all'
p46
(lp47
S'go to the kitchen'
p48
asg15
(lp49
sg16
(lp50
sg25
(lp51
sg3
(lp52
sg14
(lp53
sa(dp54
g46
(lp55
S'give the can to walter ward'
p56
asg15
(lp57
S'can'
p58
aS'can'
p59
asg16
(lp60
sg25
(lp61
sg3
(lp62
sg14
(lp63
saa(lp64
(g4
(g5
(S'S8'
p65
I0
I1
tp66
Rp67
(I3
S'|'
p68
NNNI8
I1
I0
tp69
bS'cylinder'
p70
tp71
Rp72
I27
I1
tp73
a(g4
(g5
(S'S4'
p74
I0
I1
tp75
Rp76
(I3
S'|'
p77
NNNI4
I1
I0
tp78
bS'blue'
p79
tp80
Rp81
I18
I1
tp82
a(g4
(g5
(S'S8'
p83
I0
I1
tp84
Rp85
(I3
S'|'
p86
NNNI8
I1
I0
tp87
bS'pringles'
p88
tp89
Rp90
I10
I1
tp91
a(g4
(g5
(S'S5'
p92
I0
I1
tp93
Rp94
(I3
S'|'
p95
NNNI5
I1
I0
tp96
bS'empty'
p97
tp98
Rp99
I3
I1
tp100
a(g4
(g5
(S'S9'
p101
I0
I1
tp102
Rp103
(I3
S'|'
p104
NNNI9
I1
I0
tp105
bS'rectangle'
p106
tp107
Rp108
I10
I0
tp109
a(g108
I3
I0
tp110
a(g108
I27
I0
tp111
a(g108
I7
I0
tp112
a(g108
I18
I0
tp113
a(g108
I2
I0
tp114
a(g108
I20
I0
tp115
a(g108
I17
I0
tp116
a(g4
(g5
(S'S3'
p117
I0
I1
tp118
Rp119
(I3
S'|'
p120
NNNI3
I1
I0
tp121
bS'can'
p122
tp123
Rp124
I2
I1
tp125
a(g4
(g5
(S'S3'
p126
I0
I1
tp127
Rp128
(I3
S'|'
p129
NNNI3
I1
I0
tp130
bS'can'
p131
tp132
Rp133
I7
I0
tp134
a(g4
(g5
(S'S3'
p135
I0
I1
tp136
Rp137
(I3
S'|'
p138
NNNI3
I1
I0
tp139
bS'can'
p140
tp141
Rp142
I2
I1
tp143
a(g4
(g5
(S'S3'
p144
I0
I1
tp145
Rp146
(I3
S'|'
p147
NNNI3
I1
I0
tp148
bS'can'
p149
tp150
Rp151
I7
I0
tp152
a(g4
(g5
(S'S3'
p153
I0
I1
tp154
Rp155
(I3
S'|'
p156
NNNI3
I1
I0
tp157
bS'can'
p158
tp159
Rp160
I10
I1
tp161
aa(lp162
a.