(lp0
(lp1
(dp2
S'action'
p3
cnumpy.core.multiarray
scalar
p4
(cnumpy
dtype
p5
(S'S4'
p6
I0
I1
tp7
Rp8
(I3
S'|'
p9
NNNI4
I1
I0
tp10
bS'walk'
p11
tp12
Rp13
sS'recipient'
p14
NsS'patient'
p15
NsS'goal'
p16
g4
(g5
(S'S4'
p17
I0
I1
tp18
Rp19
(I3
S'|'
p20
NNNI4
I1
I0
tp21
bS'3422'
p22
tp23
Rp24
sS'source'
p25
Nsa(dp26
g3
g4
(g5
(S'S4'
p27
I0
I1
tp28
Rp29
(I3
S'|'
p30
NNNI4
I1
I0
tp31
bS'move'
p32
tp33
Rp34
sg14
Nsg15
S'oidx_22'
p35
sg16
g4
(g5
(S'S4'
p36
I0
I1
tp37
Rp38
(I3
S'|'
p39
NNNI4
I1
I0
tp40
bS'3502'
p41
tp42
Rp43
sg25
g4
(g5
(S'S4'
p44
I0
I1
tp45
Rp46
(I3
S'|'
p47
NNNI4
I1
I0
tp48
bS'3502'
p49
tp50
Rp51
sa(dp52
g3
g4
(g5
(S'S4'
p53
I0
I1
tp54
Rp55
(I3
S'|'
p56
NNNI4
I1
I0
tp57
bS'walk'
p58
tp59
Rp60
sg14
Nsg15
Nsg16
S'3420'
p61
sg25
Nsaa(lp62
(dp63
S'all'
p64
(lp65
S"go to walter ward 's office"
p66
asg15
(lp67
sg16
(lp68
sg25
(lp69
sg3
(lp70
sg14
(lp71
sa(dp72
g64
(lp73
S'take the clear container to mallory mal maroon'
p74
asg15
(lp75
S'the clear container'
p76
asg16
(lp77
S'mallory mal maroon office'
p78
asg25
(lp79
S'mallory mal maroon'
p80
asg3
(lp81
sg14
(lp82
sa(dp83
g64
(lp84
S'take the blue cylinder from dr nancy nagel to david dave daniel'
p85
asg15
(lp86
sg16
(lp87
S'no'
p88
aS'david dave daniel office'
p89
asg25
(lp90
sg3
(lp91
sg14
(lp92
saa(lp93
(g4
(g5
(S'S9'
p94
I0
I1
tp95
Rp96
(I3
S'|'
p97
NNNI9
I1
I0
tp98
bS'rectangle'
p99
tp100
Rp101
I10
I0
tp102
a(g101
I3
I0
tp103
a(g101
I27
I0
tp104
a(g101
I7
I0
tp105
a(g101
I18
I0
tp106
a(g101
I2
I0
tp107
a(g101
I20
I0
tp108
a(g101
I17
I0
tp109
a(g4
(g5
(S'S5'
p110
I0
I1
tp111
Rp112
(I3
S'|'
p113
NNNI5
I1
I0
tp114
bS'clear'
p115
tp116
Rp117
I10
I0
tp118
a(g117
I3
I0
tp119
a(g117
I27
I0
tp120
a(g117
I7
I0
tp121
a(g117
I18
I0
tp122
a(g117
I2
I0
tp123
a(g117
I20
I0
tp124
a(g117
I17
I0
tp125
a(g4
(g5
(S'S6'
p126
I0
I1
tp127
Rp128
(I3
S'|'
p129
NNNI6
I1
I0
tp130
bS'column'
p131
tp132
Rp133
I3
I1
tp134
a(g4
(g5
(S'S4'
p135
I0
I1
tp136
Rp137
(I3
S'|'
p138
NNNI4
I1
I0
tp139
bS'bean'
p140
tp141
Rp142
I10
I0
tp143
a(g142
I3
I0
tp144
a(g142
I27
I0
tp145
a(g142
I7
I0
tp146
a(g142
I18
I0
tp147
a(g142
I2
I0
tp148
a(g142
I20
I0
tp149
a(g142
I17
I0
tp150
a(g4
(g5
(S'S9'
p151
I0
I1
tp152
Rp153
(I3
S'|'
p154
NNNI9
I1
I0
tp155
bS'styrofoam'
p156
tp157
Rp158
I10
I0
tp159
a(g158
I3
I0
tp160
a(g158
I27
I0
tp161
a(g158
I7
I0
tp162
a(g158
I18
I0
tp163
a(g158
I2
I0
tp164
a(g158
I20
I0
tp165
a(g158
I17
I0
tp166
a(g4
(g5
(S'S5'
p167
I0
I1
tp168
Rp169
(I3
S'|'
p170
NNNI5
I1
I0
tp171
bS'white'
p172
tp173
Rp174
I10
I1
tp175
a(g4
(g5
(S'S8'
p176
I0
I1
tp177
Rp178
(I3
S'|'
p179
NNNI8
I1
I0
tp180
bS'metallic'
p181
tp182
Rp183
I3
I1
tp184
a(g4
(g5
(S'S4'
p185
I0
I1
tp186
Rp187
(I3
S'|'
p188
NNNI4
I1
I0
tp189
bS'blue'
p190
tp191
Rp192
I18
I1
tp193
a(g4
(g5
(S'S6'
p194
I0
I1
tp195
Rp196
(I3
S'|'
p197
NNNI6
I1
I0
tp198
bS'yellow'
p199
tp200
Rp201
I10
I0
tp202
a(g201
I3
I0
tp203
a(g201
I27
I0
tp204
a(g201
I7
I0
tp205
a(g201
I18
I0
tp206
a(g201
I2
I0
tp207
a(g201
I20
I0
tp208
a(g201
I17
I0
tp209
a(g4
(g5
(S'S5'
p210
I0
I1
tp211
Rp212
(I3
S'|'
p213
NNNI5
I1
I0
tp214
bS'tower'
p215
tp216
Rp217
I10
I0
tp218
a(g217
I3
I0
tp219
a(g217
I27
I0
tp220
a(g217
I7
I0
tp221
a(g217
I18
I0
tp222
a(g217
I2
I0
tp223
a(g217
I20
I0
tp224
a(g217
I17
I0
tp225
a(g4
(g5
(S'S6'
p226
I0
I1
tp227
Rp228
(I3
S'|'
p229
NNNI6
I1
I0
tp230
bS'column'
p231
tp232
Rp233
I27
I0
tp234
a(g4
(g5
(S'S4'
p235
I0
I1
tp236
Rp237
(I3
S'|'
p238
NNNI4
I1
I0
tp239
bS'blue'
p240
tp241
Rp242
I10
I0
tp243
a(g4
(g5
(S'S8'
p244
I0
I1
tp245
Rp246
(I3
S'|'
p247
NNNI8
I1
I0
tp248
bS'pringles'
p249
tp250
Rp251
I10
I0
tp252
a(g251
I3
I0
tp253
a(g251
I27
I0
tp254
a(g251
I7
I0
tp255
a(g251
I18
I0
tp256
a(g251
I2
I0
tp257
a(g251
I20
I0
tp258
a(g251
I17
I0
tp259
a(g4
(g5
(S'S6'
p260
I0
I1
tp261
Rp262
(I3
S'|'
p263
NNNI6
I1
I0
tp264
bS'coffee'
p265
tp266
Rp267
I10
I0
tp268
a(g267
I3
I0
tp269
a(g267
I27
I0
tp270
a(g267
I7
I0
tp271
a(g267
I18
I0
tp272
a(g267
I2
I0
tp273
a(g267
I20
I0
tp274
a(g267
I17
I0
tp275
a(g4
(g5
(S'S6'
p276
I0
I1
tp277
Rp278
(I3
S'|'
p279
NNNI6
I1
I0
tp280
bS'column'
p281
tp282
Rp283
I10
I0
tp284
a(g283
I3
I0
tp285
a(g283
I27
I0
tp286
a(g283
I7
I0
tp287
a(g283
I18
I0
tp288
a(g283
I2
I0
tp289
a(g283
I20
I0
tp290
a(g283
I17
I0
tp291
aa(lp292
a.