(lp0
(lp1
(dp2
S'action'
p3
cnumpy.core.multiarray
scalar
p4
(cnumpy
dtype
p5
(S'S4'
p6
I0
I1
tp7
Rp8
(I3
S'|'
p9
NNNI4
I1
I0
tp10
bS'walk'
p11
tp12
Rp13
sS'recipient'
p14
NsS'patient'
p15
NsS'goal'
p16
g4
(g5
(S'S4'
p17
I0
I1
tp18
Rp19
(I3
S'|'
p20
NNNI4
I1
I0
tp21
bS'3402'
p22
tp23
Rp24
sS'source'
p25
Nsa(dp26
g3
g4
(g5
(S'S5'
p27
I0
I1
tp28
Rp29
(I3
S'|'
p30
NNNI5
I1
I0
tp31
bS'bring'
p32
tp33
Rp34
sg14
S'r'
p35
sg15
S'oidx_11'
p36
sg16
Nsg25
Nsa(dp37
g3
g4
(g5
(S'S4'
p38
I0
I1
tp39
Rp40
(I3
S'|'
p41
NNNI4
I1
I0
tp42
bS'move'
p43
tp44
Rp45
sg14
Nsg15
g4
(g5
(S'S7'
p46
I0
I1
tp47
Rp48
(I3
S'|'
p49
NNNI7
I1
I0
tp50
bS'oidx_22'
p51
tp52
Rp53
sg16
S'3516'
p54
sg25
g4
(g5
(S'S4'
p55
I0
I1
tp56
Rp57
(I3
S'|'
p58
NNNI4
I1
I0
tp59
bS'3414'
p60
tp61
Rp62
saa(lp63
(dp64
S'all'
p65
(lp66
S'go to the office of dr heidi hughes'
p67
asg15
(lp68
sg16
(lp69
sg25
(lp70
sg3
(lp71
sg14
(lp72
sa(dp73
g65
(lp74
S'bring the container to robert bob brown'
p75
asg15
(lp76
S'a blue container to bob brown'
p77
aS'a tall blue container that has writing on it'
p78
aS'a long blue container with words on it'
p79
aS'nothing'
p80
aS'none'
p81
aS'the pringles container'
p82
aS'nothing'
p83
asg16
(lp84
sg25
(lp85
sg3
(lp86
sg14
(lp87
sa(dp88
g65
(lp89
S'deliver the white container in the lab to the conference room'
p90
asg15
(lp91
S'the white container'
p92
aS'wrong lab'
p93
aS'the white container'
p94
asg16
(lp95
S'conference'
p96
asg25
(lp97
S'move the white container in the center lab to the conference room'
p98
aS'conference room'
p99
aS'the center lab'
p100
asg3
(lp101
sg14
(lp102
saa(lp103
(g4
(g5
(S'S8'
p104
I0
I1
tp105
Rp106
(I3
S'|'
p107
NNNI8
I1
I0
tp108
bS'metallic'
p109
tp110
Rp111
I10
I0
tp112
a(g111
I3
I0
tp113
a(g111
I27
I0
tp114
a(g111
I7
I0
tp115
a(g111
I18
I0
tp116
a(g111
I2
I0
tp117
a(g111
I20
I0
tp118
a(g111
I17
I0
tp119
a(g4
(g5
(S'S5'
p120
I0
I1
tp121
Rp122
(I3
S'|'
p123
NNNI5
I1
I0
tp124
bS'spice'
p125
tp126
Rp127
I10
I0
tp128
a(g127
I3
I0
tp129
a(g127
I27
I0
tp130
a(g127
I7
I0
tp131
a(g127
I18
I0
tp132
a(g127
I2
I0
tp133
a(g127
I20
I0
tp134
a(g127
I17
I0
tp135
a(g4
(g5
(S'S3'
p136
I0
I1
tp137
Rp138
(I3
S'|'
p139
NNNI3
I1
I0
tp140
bS'can'
p141
tp142
Rp143
I10
I1
tp144
a(g4
(g5
(S'S5'
p145
I0
I1
tp146
Rp147
(I3
S'|'
p148
NNNI5
I1
I0
tp149
bS'empty'
p150
tp151
Rp152
I3
I1
tp153
a(g4
(g5
(S'S5'
p154
I0
I1
tp155
Rp156
(I3
S'|'
p157
NNNI5
I1
I0
tp158
bS'tower'
p159
tp160
Rp161
I7
I1
tp162
a(g4
(g5
(S'S9'
p163
I0
I1
tp164
Rp165
(I3
S'|'
p166
NNNI9
I1
I0
tp167
bS'container'
p168
tp169
Rp170
I2
I1
tp171
a(g4
(g5
(S'S9'
p172
I0
I1
tp173
Rp174
(I3
S'|'
p175
NNNI9
I1
I0
tp176
bS'container'
p177
tp178
Rp179
I20
I0
tp180
a(g4
(g5
(S'S9'
p181
I0
I1
tp182
Rp183
(I3
S'|'
p184
NNNI9
I1
I0
tp185
bS'container'
p186
tp187
Rp188
I2
I1
tp189
a(g4
(g5
(S'S9'
p190
I0
I1
tp191
Rp192
(I3
S'|'
p193
NNNI9
I1
I0
tp194
bS'container'
p195
tp196
Rp197
I27
I0
tp198
a(g4
(g5
(S'S9'
p199
I0
I1
tp200
Rp201
(I3
S'|'
p202
NNNI9
I1
I0
tp203
bS'container'
p204
tp205
Rp206
I10
I1
tp207
a(g4
(g5
(S'S5'
p208
I0
I1
tp209
Rp210
(I3
S'|'
p211
NNNI5
I1
I0
tp212
bS'block'
p213
tp214
Rp215
I10
I0
tp216
a(g215
I3
I0
tp217
a(g215
I27
I0
tp218
a(g215
I7
I0
tp219
a(g215
I18
I0
tp220
a(g215
I2
I0
tp221
a(g215
I20
I0
tp222
a(g215
I17
I0
tp223
a(g4
(g5
(S'S6'
p224
I0
I1
tp225
Rp226
(I3
S'|'
p227
NNNI6
I1
I0
tp228
bS'yellow'
p229
tp230
Rp231
I10
I0
tp232
a(g231
I3
I0
tp233
a(g231
I27
I0
tp234
a(g231
I7
I0
tp235
a(g231
I18
I0
tp236
a(g231
I2
I0
tp237
a(g231
I20
I0
tp238
a(g231
I17
I0
tp239
a(g4
(g5
(S'S5'
p240
I0
I1
tp241
Rp242
(I3
S'|'
p243
NNNI5
I1
I0
tp244
bS'white'
p245
tp246
Rp247
I10
I0
tp248
a(g247
I3
I0
tp249
a(g247
I27
I0
tp250
a(g247
I7
I0
tp251
a(g247
I18
I0
tp252
a(g247
I2
I0
tp253
a(g247
I20
I0
tp254
a(g247
I17
I0
tp255
a(g4
(g5
(S'S6'
p256
I0
I1
tp257
Rp258
(I3
S'|'
p259
NNNI6
I1
I0
tp260
bS'coffee'
p261
tp262
Rp263
I2
I1
tp264
a(g4
(g5
(S'S4'
p265
I0
I1
tp266
Rp267
(I3
S'|'
p268
NNNI4
I1
I0
tp269
bS'blue'
p270
tp271
Rp272
I18
I1
tp273
aa(lp274
(S'tall'
p275
S'tower'
p276
I00
tp277
a(g275
S'white'
p278
I00
tp279
a(g275
S'long'
p280
I01
tp281
aa.