(lp0
(lp1
(dp2
S'action'
p3
cnumpy.core.multiarray
scalar
p4
(cnumpy
dtype
p5
(S'S4'
p6
I0
I1
tp7
Rp8
(I3
S'|'
p9
NNNI4
I1
I0
tp10
bS'walk'
p11
tp12
Rp13
sS'recipient'
p14
NsS'patient'
p15
NsS'goal'
p16
g4
(g5
(S'S4'
p17
I0
I1
tp18
Rp19
(I3
S'|'
p20
NNNI4
I1
I0
tp21
bS'3520'
p22
tp23
Rp24
sS'source'
p25
Nsa(dp26
g3
g4
(g5
(S'S4'
p27
I0
I1
tp28
Rp29
(I3
S'|'
p30
NNNI4
I1
I0
tp31
bS'move'
p32
tp33
Rp34
sg14
Nsg15
g4
(g5
(S'S7'
p35
I0
I1
tp36
Rp37
(I3
S'|'
p38
NNNI7
I1
I0
tp39
bS'oidx_26'
p40
tp41
Rp42
sg16
g4
(g5
(S'S4'
p43
I0
I1
tp44
Rp45
(I3
S'|'
p46
NNNI4
I1
I0
tp47
bS'3430'
p48
tp49
Rp50
sg25
g4
(g5
(S'S4'
p51
I0
I1
tp52
Rp53
(I3
S'|'
p54
NNNI4
I1
I0
tp55
bS'3430'
p56
tp57
Rp58
saa(lp59
(dp60
S'all'
p61
(lp62
S'go to the kitchen'
p63
asg15
(lp64
sg16
(lp65
sg25
(lp66
sg3
(lp67
sg14
(lp68
sa(dp69
g61
(lp70
S"take the can to dr sybil smalt 's office"
p71
asg15
(lp72
S'the can'
p73
aS'the red soda can'
p74
asg16
(lp75
S"dr sybil smalt 's office"
p76
asg25
(lp77
sg3
(lp78
sg14
(lp79
saa(lp80
(g4
(g5
(S'S5'
p81
I0
I1
tp82
Rp83
(I3
S'|'
p84
NNNI5
I1
I0
tp85
bS'spice'
p86
tp87
Rp88
I10
I0
tp89
a(g88
I3
I0
tp90
a(g88
I27
I0
tp91
a(g88
I7
I0
tp92
a(g88
I18
I0
tp93
a(g88
I2
I0
tp94
a(g88
I20
I0
tp95
a(g88
I17
I0
tp96
a(g4
(g5
(S'S4'
p97
I0
I1
tp98
Rp99
(I3
S'|'
p100
NNNI4
I1
I0
tp101
bS'blue'
p102
tp103
Rp104
I18
I1
tp105
a(g4
(g5
(S'S5'
p106
I0
I1
tp107
Rp108
(I3
S'|'
p109
NNNI5
I1
I0
tp110
bS'peach'
p111
tp112
Rp113
I18
I1
tp114
a(g4
(g5
(S'S8'
p115
I0
I1
tp116
Rp117
(I3
S'|'
p118
NNNI8
I1
I0
tp119
bS'pringles'
p120
tp121
Rp122
I10
I0
tp123
a(g122
I3
I0
tp124
a(g122
I27
I0
tp125
a(g122
I7
I0
tp126
a(g122
I18
I0
tp127
a(g122
I2
I0
tp128
a(g122
I20
I0
tp129
a(g122
I17
I0
tp130
a(g4
(g5
(S'S8'
p131
I0
I1
tp132
Rp133
(I3
S'|'
p134
NNNI8
I1
I0
tp135
bS'cylinder'
p136
tp137
Rp138
I20
I1
tp139
a(g4
(g5
(S'S3'
p140
I0
I1
tp141
Rp142
(I3
S'|'
p143
NNNI3
I1
I0
tp144
bS'can'
p145
tp146
Rp147
I10
I0
tp148
a(g147
I3
I0
tp149
a(g147
I27
I0
tp150
a(g147
I7
I0
tp151
a(g147
I18
I0
tp152
a(g147
I2
I0
tp153
a(g147
I20
I0
tp154
a(g147
I17
I0
tp155
a(g4
(g5
(S'S5'
p156
I0
I1
tp157
Rp158
(I3
S'|'
p159
NNNI5
I1
I0
tp160
bS'tower'
p161
tp162
Rp163
I10
I0
tp164
a(g163
I3
I0
tp165
a(g163
I27
I0
tp166
a(g163
I7
I0
tp167
a(g163
I18
I0
tp168
a(g163
I2
I0
tp169
a(g163
I20
I0
tp170
a(g163
I17
I0
tp171
a(g4
(g5
(S'S9'
p172
I0
I1
tp173
Rp174
(I3
S'|'
p175
NNNI9
I1
I0
tp176
bS'container'
p177
tp178
Rp179
I2
I1
tp180
a(g4
(g5
(S'S6'
p181
I0
I1
tp182
Rp183
(I3
S'|'
p184
NNNI6
I1
I0
tp185
bS'yellow'
p186
tp187
Rp188
I10
I0
tp189
a(g188
I3
I0
tp190
a(g188
I27
I0
tp191
a(g188
I7
I0
tp192
a(g188
I18
I0
tp193
a(g188
I2
I0
tp194
a(g188
I20
I0
tp195
a(g188
I17
I0
tp196
a(g4
(g5
(S'S4'
p197
I0
I1
tp198
Rp199
(I3
S'|'
p200
NNNI4
I1
I0
tp201
bS'blue'
p202
tp203
Rp204
I7
I0
tp205
aa(lp206
(S'red'
p207
S'white'
p208
I00
tp209
a(g207
S'yellow'
p210
I00
tp211
a(g207
S'blue'
p212
I00
tp213
aa.