(lp0
(lp1
(dp2
S'action'
p3
cnumpy.core.multiarray
scalar
p4
(cnumpy
dtype
p5
(S'S5'
p6
I0
I1
tp7
Rp8
(I3
S'|'
p9
NNNI5
I1
I0
tp10
bS'bring'
p11
tp12
Rp13
sS'recipient'
p14
S'm'
p15
sS'patient'
p16
S'oidx_26'
p17
sS'goal'
p18
NsS'source'
p19
Nsa(dp20
g3
g4
(g5
(S'S5'
p21
I0
I1
tp22
Rp23
(I3
S'|'
p24
NNNI5
I1
I0
tp25
bS'bring'
p26
tp27
Rp28
sg14
S'r'
p29
sg16
S'oidx_13'
p30
sg18
Nsg19
Nsa(dp31
g3
g4
(g5
(S'S4'
p32
I0
I1
tp33
Rp34
(I3
S'|'
p35
NNNI4
I1
I0
tp36
bS'walk'
p37
tp38
Rp39
sg14
Nsg16
Nsg18
S'3414'
p40
sg19
Nsaa(lp41
(dp42
S'all'
p43
(lp44
S'sleep'
p45
asg16
(lp46
S'bag'
p47
aS'bag'
p48
asg18
(lp49
sg19
(lp50
sg3
(lp51
sg14
(lp52
sa(dp53
g43
(lp54
S'sleep'
p55
asg16
(lp56
S'nothing'
p57
asg18
(lp58
sg19
(lp59
sg3
(lp60
sg14
(lp61
S'no'
p62
aS'me'
p63
asa(dp64
g43
(lp65
S'go sleep'
p66
asg16
(lp67
sg18
(lp68
S'home'
p69
aS'home'
p70
aS'home'
p71
aS'home'
p72
aS'go to home'
p73
asg19
(lp74
sg3
(lp75
sg14
(lp76
saa(lp77
(g4
(g5
(S'S5'
p78
I0
I1
tp79
Rp80
(I3
S'|'
p81
NNNI5
I1
I0
tp82
bS'spice'
p83
tp84
Rp85
I3
I1
tp86
a(g4
(g5
(S'S5'
p87
I0
I1
tp88
Rp89
(I3
S'|'
p90
NNNI5
I1
I0
tp91
bS'peach'
p92
tp93
Rp94
I3
I1
tp95
a(g4
(g5
(S'S5'
p96
I0
I1
tp97
Rp98
(I3
S'|'
p99
NNNI5
I1
I0
tp100
bS'white'
p101
tp102
Rp103
I3
I1
tp104
a(g4
(g5
(S'S9'
p105
I0
I1
tp106
Rp107
(I3
S'|'
p108
NNNI9
I1
I0
tp109
bS'rectangle'
p110
tp111
Rp112
I18
I1
tp113
a(g4
(g5
(S'S8'
p114
I0
I1
tp115
Rp116
(I3
S'|'
p117
NNNI8
I1
I0
tp118
bS'cylinder'
p119
tp120
Rp121
I7
I1
tp122
a(g4
(g5
(S'S8'
p123
I0
I1
tp124
Rp125
(I3
S'|'
p126
NNNI8
I1
I0
tp127
bS'pringles'
p128
tp129
Rp130
I2
I1
tp131
a(g4
(g5
(S'S8'
p132
I0
I1
tp133
Rp134
(I3
S'|'
p135
NNNI8
I1
I0
tp136
bS'cylinder'
p137
tp138
Rp139
I17
I0
tp140
a(g4
(g5
(S'S5'
p141
I0
I1
tp142
Rp143
(I3
S'|'
p144
NNNI5
I1
I0
tp145
bS'block'
p146
tp147
Rp148
I17
I1
tp149
a(g4
(g5
(S'S8'
p150
I0
I1
tp151
Rp152
(I3
S'|'
p153
NNNI8
I1
I0
tp154
bS'pringles'
p155
tp156
Rp157
I2
I0
tp158
a(g4
(g5
(S'S5'
p159
I0
I1
tp160
Rp161
(I3
S'|'
p162
NNNI5
I1
I0
tp163
bS'block'
p164
tp165
Rp166
I27
I0
tp167
a(g4
(g5
(S'S8'
p168
I0
I1
tp169
Rp170
(I3
S'|'
p171
NNNI8
I1
I0
tp172
bS'cylinder'
p173
tp174
Rp175
I20
I1
tp176
a(g4
(g5
(S'S8'
p177
I0
I1
tp178
Rp179
(I3
S'|'
p180
NNNI8
I1
I0
tp181
bS'metallic'
p182
tp183
Rp184
I20
I1
tp185
a(g4
(g5
(S'S9'
p186
I0
I1
tp187
Rp188
(I3
S'|'
p189
NNNI9
I1
I0
tp190
bS'rectangle'
p191
tp192
Rp193
I17
I0
tp194
a(g4
(g5
(S'S5'
p195
I0
I1
tp196
Rp197
(I3
S'|'
p198
NNNI5
I1
I0
tp199
bS'block'
p200
tp201
Rp202
I18
I1
tp203
a(g4
(g5
(S'S8'
p204
I0
I1
tp205
Rp206
(I3
S'|'
p207
NNNI8
I1
I0
tp208
bS'metallic'
p209
tp210
Rp211
I10
I0
tp212
aa(lp213
(g47
S'empty'
p214
I01
tp215
aa.