(lp0
(lp1
(dp2
S'action'
p3
cnumpy.core.multiarray
scalar
p4
(cnumpy
dtype
p5
(S'S4'
p6
I0
I1
tp7
Rp8
(I3
S'|'
p9
NNNI4
I1
I0
tp10
bS'walk'
p11
tp12
Rp13
sS'recipient'
p14
NsS'patient'
p15
NsS'goal'
p16
S'3404'
p17
sS'source'
p18
Nsa(dp19
g3
g4
(g5
(S'S5'
p20
I0
I1
tp21
Rp22
(I3
S'|'
p23
NNNI5
I1
I0
tp24
bS'bring'
p25
tp26
Rp27
sg14
S'r'
p28
sg15
S'oidx_6'
p29
sg16
Nsg18
Nsa(dp30
g3
g4
(g5
(S'S5'
p31
I0
I1
tp32
Rp33
(I3
S'|'
p34
NNNI5
I1
I0
tp35
bS'bring'
p36
tp37
Rp38
sg14
S'b'
p39
sg15
S'oidx_11'
p40
sg16
Nsg18
Nsaa(lp41
(dp42
S'all'
p43
(lp44
S'yes'
p45
asg15
(lp46
sg16
(lp47
S'yes'
p48
aS'yes'
p49
aS'yes'
p50
aS'yes'
p51
aS'yes'
p52
aS'yes'
p53
aS'yes'
p54
aS'yes'
p55
aS'yes'
p56
aS'yes'
p57
aS'yes'
p58
aS'yes'
p59
aS'yes'
p60
aS'yes'
p61
aS'yes'
p62
aS'yes'
p63
aS'yes'
p64
asg18
(lp65
sg3
(lp66
sg14
(lp67
sa(dp68
g43
(lp69
S'ye'
p70
asg15
(lp71
S'yes'
p72
aS'yes'
p73
asg16
(lp74
sg18
(lp75
sg3
(lp76
sg14
(lp77
sa(dp78
g43
(lp79
S'yes'
p80
asg15
(lp81
S'yes'
p82
asg16
(lp83
sg18
(lp84
sg3
(lp85
sg14
(lp86
S'yes'
p87
asaa(lp88
(g4
(g5
(S'S8'
p89
I0
I1
tp90
Rp91
(I3
S'|'
p92
NNNI8
I1
I0
tp93
bS'pringles'
p94
tp95
Rp96
I10
I0
tp97
a(g96
I3
I0
tp98
a(g96
I27
I0
tp99
a(g96
I7
I0
tp100
a(g96
I18
I0
tp101
a(g96
I2
I0
tp102
a(g96
I20
I0
tp103
a(g96
I17
I0
tp104
a(g4
(g5
(S'S6'
p105
I0
I1
tp106
Rp107
(I3
S'|'
p108
NNNI6
I1
I0
tp109
bS'yellow'
p110
tp111
Rp112
I10
I0
tp113
a(g112
I3
I0
tp114
a(g112
I27
I0
tp115
a(g112
I7
I0
tp116
a(g112
I18
I0
tp117
a(g112
I2
I0
tp118
a(g112
I20
I0
tp119
a(g112
I17
I0
tp120
a(g4
(g5
(S'S5'
p121
I0
I1
tp122
Rp123
(I3
S'|'
p124
NNNI5
I1
I0
tp125
bS'empty'
p126
tp127
Rp128
I10
I0
tp129
a(g128
I3
I0
tp130
a(g128
I27
I0
tp131
a(g128
I7
I0
tp132
a(g128
I18
I0
tp133
a(g128
I2
I0
tp134
a(g128
I20
I0
tp135
a(g128
I17
I0
tp136
a(g4
(g5
(S'S6'
p137
I0
I1
tp138
Rp139
(I3
S'|'
p140
NNNI6
I1
I0
tp141
bS'column'
p142
tp143
Rp144
I10
I0
tp145
a(g144
I3
I0
tp146
a(g144
I27
I0
tp147
a(g144
I7
I0
tp148
a(g144
I18
I0
tp149
a(g144
I2
I0
tp150
a(g144
I20
I0
tp151
a(g144
I17
I0
tp152
a(g4
(g5
(S'S8'
p153
I0
I1
tp154
Rp155
(I3
S'|'
p156
NNNI8
I1
I0
tp157
bS'cylinder'
p158
tp159
Rp160
I10
I0
tp161
a(g160
I3
I0
tp162
a(g160
I27
I0
tp163
a(g160
I7
I0
tp164
a(g160
I18
I0
tp165
a(g160
I2
I0
tp166
a(g160
I20
I0
tp167
a(g160
I17
I0
tp168
a(g4
(g5
(S'S5'
p169
I0
I1
tp170
Rp171
(I3
S'|'
p172
NNNI5
I1
I0
tp173
bS'peach'
p174
tp175
Rp176
I10
I0
tp177
a(g176
I3
I0
tp178
a(g176
I27
I0
tp179
a(g176
I7
I0
tp180
a(g176
I18
I0
tp181
a(g176
I2
I0
tp182
a(g176
I20
I0
tp183
a(g176
I17
I0
tp184
a(g4
(g5
(S'S5'
p185
I0
I1
tp186
Rp187
(I3
S'|'
p188
NNNI5
I1
I0
tp189
bS'tower'
p190
tp191
Rp192
I10
I0
tp193
a(g192
I3
I0
tp194
a(g192
I27
I0
tp195
a(g192
I7
I0
tp196
a(g192
I18
I0
tp197
a(g192
I2
I0
tp198
a(g192
I20
I0
tp199
a(g192
I17
I0
tp200
a(g4
(g5
(S'S3'
p201
I0
I1
tp202
Rp203
(I3
S'|'
p204
NNNI3
I1
I0
tp205
bS'can'
p206
tp207
Rp208
I10
I0
tp209
a(g208
I3
I0
tp210
a(g208
I27
I0
tp211
a(g208
I7
I0
tp212
a(g208
I18
I0
tp213
a(g208
I2
I0
tp214
a(g208
I20
I0
tp215
a(g208
I17
I0
tp216
a(g4
(g5
(S'S4'
p217
I0
I1
tp218
Rp219
(I3
S'|'
p220
NNNI4
I1
I0
tp221
bS'blue'
p222
tp223
Rp224
I10
I0
tp225
a(g224
I3
I0
tp226
a(g224
I27
I0
tp227
a(g224
I7
I0
tp228
a(g224
I18
I0
tp229
a(g224
I2
I0
tp230
a(g224
I20
I0
tp231
a(g224
I17
I0
tp232
a(g4
(g5
(S'S5'
p233
I0
I1
tp234
Rp235
(I3
S'|'
p236
NNNI5
I1
I0
tp237
bS'white'
p238
tp239
Rp240
I10
I0
tp241
a(g240
I3
I0
tp242
a(g240
I27
I0
tp243
a(g240
I7
I0
tp244
a(g240
I18
I0
tp245
a(g240
I2
I0
tp246
a(g240
I20
I0
tp247
a(g240
I17
I0
tp248
a(g4
(g5
(S'S9'
p249
I0
I1
tp250
Rp251
(I3
S'|'
p252
NNNI9
I1
I0
tp253
bS'rectangle'
p254
tp255
Rp256
I10
I0
tp257
a(g256
I3
I0
tp258
a(g256
I27
I0
tp259
a(g256
I7
I0
tp260
a(g256
I18
I0
tp261
a(g256
I2
I0
tp262
a(g256
I20
I0
tp263
a(g256
I17
I0
tp264
a(g4
(g5
(S'S4'
p265
I0
I1
tp266
Rp267
(I3
S'|'
p268
NNNI4
I1
I0
tp269
bS'bean'
p270
tp271
Rp272
I10
I0
tp273
a(g272
I3
I0
tp274
a(g272
I27
I0
tp275
a(g272
I7
I0
tp276
a(g272
I18
I0
tp277
a(g272
I2
I0
tp278
a(g272
I20
I0
tp279
a(g272
I17
I0
tp280
a(g4
(g5
(S'S5'
p281
I0
I1
tp282
Rp283
(I3
S'|'
p284
NNNI5
I1
I0
tp285
bS'clear'
p286
tp287
Rp288
I10
I0
tp289
a(g288
I3
I0
tp290
a(g288
I27
I0
tp291
a(g288
I7
I0
tp292
a(g288
I18
I0
tp293
a(g288
I2
I0
tp294
a(g288
I20
I0
tp295
a(g288
I17
I0
tp296
a(g4
(g5
(S'S8'
p297
I0
I1
tp298
Rp299
(I3
S'|'
p300
NNNI8
I1
I0
tp301
bS'metallic'
p302
tp303
Rp304
I10
I0
tp305
a(g304
I3
I0
tp306
a(g304
I27
I0
tp307
a(g304
I7
I0
tp308
a(g304
I18
I0
tp309
a(g304
I2
I0
tp310
a(g304
I20
I0
tp311
a(g304
I17
I0
tp312
a(g4
(g5
(S'S5'
p313
I0
I1
tp314
Rp315
(I3
S'|'
p316
NNNI5
I1
I0
tp317
bS'block'
p318
tp319
Rp320
I10
I0
tp321
a(g320
I3
I0
tp322
a(g320
I27
I0
tp323
a(g320
I7
I0
tp324
a(g320
I18
I0
tp325
a(g320
I2
I0
tp326
a(g320
I20
I0
tp327
a(g320
I17
I0
tp328
aa(lp329
(g70
S'peach'
p330
I01
tp331
aa.