(lp0
(lp1
(dp2
S'action'
p3
cnumpy.core.multiarray
scalar
p4
(cnumpy
dtype
p5
(S'S4'
p6
I0
I1
tp7
Rp8
(I3
S'|'
p9
NNNI4
I1
I0
tp10
bS'walk'
p11
tp12
Rp13
sS'recipient'
p14
NsS'patient'
p15
NsS'goal'
p16
g4
(g5
(S'S4'
p17
I0
I1
tp18
Rp19
(I3
S'|'
p20
NNNI4
I1
I0
tp21
bS'3430'
p22
tp23
Rp24
sS'source'
p25
Nsa(dp26
g3
g4
(g5
(S'S5'
p27
I0
I1
tp28
Rp29
(I3
S'|'
p30
NNNI5
I1
I0
tp31
bS'bring'
p32
tp33
Rp34
sg14
g4
(g5
(S'S1'
p35
I0
I1
tp36
Rp37
(I3
S'|'
p38
NNNI1
I1
I0
tp39
bS'h'
p40
tp41
Rp42
sg15
g4
(g5
(S'S7'
p43
I0
I1
tp44
Rp45
(I3
S'|'
p46
NNNI7
I1
I0
tp47
bS'oidx_28'
p48
tp49
Rp50
sg16
Nsg25
Nsa(dp51
g3
g4
(g5
(S'S4'
p52
I0
I1
tp53
Rp54
(I3
S'|'
p55
NNNI4
I1
I0
tp56
bS'move'
p57
tp58
Rp59
sg14
Nsg15
S'oidx_28'
p60
sg16
g4
(g5
(S'S4'
p61
I0
I1
tp62
Rp63
(I3
S'|'
p64
NNNI4
I1
I0
tp65
bS'3406'
p66
tp67
Rp68
sg25
g4
(g5
(S'S4'
p69
I0
I1
tp70
Rp71
(I3
S'|'
p72
NNNI4
I1
I0
tp73
bS'3406'
p74
tp75
Rp76
saa(lp77
(dp78
S'all'
p79
(lp80
S"go to dr smalt 's office"
p81
asg15
(lp82
sg16
(lp83
S"dr smalt 's office"
p84
aS's'
p85
aS'dr sybil smalt'
p86
aS'the office of dr sybil smalt'
p87
asg25
(lp88
sg3
(lp89
sg14
(lp90
sa(dp91
g79
(lp92
S'find the object and bring it to dr heidi hughes'
p93
asg15
(lp94
S'a white object'
p95
aS'a white object'
p96
aS'a white object'
p97
asg16
(lp98
sg25
(lp99
sg3
(lp100
sg14
(lp101
S'dr heidi hughes'
p102
asa(dp103
g79
(lp104
S'find the white object in the empty office and deliver it to the lounge'
p105
asg15
(lp106
S'yes'
p107
aS'white object'
p108
aS'white object'
p109
aS'white object'
p110
asg16
(lp111
S'the lounge'
p112
aS'lounge'
p113
aS'the large lounge'
p114
asg25
(lp115
S'the empty office'
p116
aS"the office between the lab and dr sybil smalt 's office"
p117
aS'the lounge next to the pod'
p118
asg3
(lp119
sg14
(lp120
saa(lp121
(g4
(g5
(S'S6'
p122
I0
I1
tp123
Rp124
(I3
S'|'
p125
NNNI6
I1
I0
tp126
bS'yellow'
p127
tp128
Rp129
I2
I1
tp130
a(g4
(g5
(S'S5'
p131
I0
I1
tp132
Rp133
(I3
S'|'
p134
NNNI5
I1
I0
tp135
bS'spice'
p136
tp137
Rp138
I10
I0
tp139
a(g138
I3
I0
tp140
a(g138
I27
I0
tp141
a(g138
I7
I0
tp142
a(g138
I18
I0
tp143
a(g138
I2
I0
tp144
a(g138
I20
I0
tp145
a(g138
I17
I0
tp146
a(g4
(g5
(S'S9'
p147
I0
I1
tp148
Rp149
(I3
S'|'
p150
NNNI9
I1
I0
tp151
bS'container'
p152
tp153
Rp154
I7
I1
tp155
a(g4
(g5
(S'S8'
p156
I0
I1
tp157
Rp158
(I3
S'|'
p159
NNNI8
I1
I0
tp160
bS'metallic'
p161
tp162
Rp163
I10
I0
tp164
a(g163
I3
I0
tp165
a(g163
I27
I0
tp166
a(g163
I7
I0
tp167
a(g163
I18
I0
tp168
a(g163
I2
I0
tp169
a(g163
I20
I0
tp170
a(g163
I17
I0
tp171
a(g4
(g5
(S'S9'
p172
I0
I1
tp173
Rp174
(I3
S'|'
p175
NNNI9
I1
I0
tp176
bS'container'
p177
tp178
Rp179
I20
I0
tp180
a(g4
(g5
(S'S5'
p181
I0
I1
tp182
Rp183
(I3
S'|'
p184
NNNI5
I1
I0
tp185
bS'white'
p186
tp187
Rp188
I10
I0
tp189
a(g188
I3
I0
tp190
a(g188
I27
I0
tp191
a(g188
I7
I0
tp192
a(g188
I18
I0
tp193
a(g188
I2
I0
tp194
a(g188
I20
I0
tp195
a(g188
I17
I0
tp196
a(g4
(g5
(S'S6'
p197
I0
I1
tp198
Rp199
(I3
S'|'
p200
NNNI6
I1
I0
tp201
bS'object'
p202
tp203
Rp204
I20
I1
tp205
a(g4
(g5
(S'S6'
p206
I0
I1
tp207
Rp208
(I3
S'|'
p209
NNNI6
I1
I0
tp210
bS'object'
p211
tp212
Rp213
I10
I1
tp214
a(g213
I3
I1
tp215
a(g213
I27
I1
tp216
a(g213
I7
I1
tp217
a(g213
I18
I1
tp218
a(g213
I2
I1
tp219
a(g213
I20
I1
tp220
a(g213
I17
I1
tp221
a(g4
(g5
(S'S4'
p222
I0
I1
tp223
Rp224
(I3
S'|'
p225
NNNI4
I1
I0
tp226
bS'blue'
p227
tp228
Rp229
I18
I1
tp230
a(g4
(g5
(S'S5'
p231
I0
I1
tp232
Rp233
(I3
S'|'
p234
NNNI5
I1
I0
tp235
bS'clear'
p236
tp237
Rp238
I10
I0
tp239
a(g238
I3
I0
tp240
a(g238
I27
I0
tp241
a(g238
I7
I0
tp242
a(g238
I18
I0
tp243
a(g238
I2
I0
tp244
a(g238
I20
I0
tp245
a(g238
I17
I0
tp246
a(g4
(g5
(S'S5'
p247
I0
I1
tp248
Rp249
(I3
S'|'
p250
NNNI5
I1
I0
tp251
bS'block'
p252
tp253
Rp254
I10
I0
tp255
a(g254
I3
I0
tp256
a(g254
I27
I0
tp257
a(g254
I7
I0
tp258
a(g254
I18
I0
tp259
a(g254
I2
I0
tp260
a(g254
I20
I0
tp261
a(g254
I17
I0
tp262
a(g4
(g5
(S'S6'
p263
I0
I1
tp264
Rp265
(I3
S'|'
p266
NNNI6
I1
I0
tp267
bS'coffee'
p268
tp269
Rp270
I2
I1
tp271
a(g4
(g5
(S'S3'
p272
I0
I1
tp273
Rp274
(I3
S'|'
p275
NNNI3
I1
I0
tp276
bS'can'
p277
tp278
Rp279
I2
I1
tp280
a(g4
(g5
(S'S6'
p281
I0
I1
tp282
Rp283
(I3
S'|'
p284
NNNI6
I1
I0
tp285
bS'yellow'
p286
tp287
Rp288
I10
I1
tp289
a(g288
I3
I1
tp290
a(g288
I27
I1
tp291
a(g288
I7
I1
tp292
a(g288
I18
I1
tp293
a(g288
I2
I1
tp294
a(g288
I20
I1
tp295
a(g288
I17
I1
tp296
a(g4
(g5
(S'S9'
p297
I0
I1
tp298
Rp299
(I3
S'|'
p300
NNNI9
I1
I0
tp301
bS'container'
p302
tp303
Rp304
I7
I1
tp305
aa(lp306
(S'object'
p307
S'container'
p308
I00
tp309
a(g307
S'metallic'
p310
I00
tp311
a(S'large'
p312
S'white'
p313
I00
tp314
aa.