(lp0
(lp1
(dp2
S'action'
p3
cnumpy.core.multiarray
scalar
p4
(cnumpy
dtype
p5
(S'S4'
p6
I0
I1
tp7
Rp8
(I3
S'|'
p9
NNNI4
I1
I0
tp10
bS'walk'
p11
tp12
Rp13
sS'recipient'
p14
NsS'patient'
p15
NsS'goal'
p16
g4
(g5
(S'S4'
p17
I0
I1
tp18
Rp19
(I3
S'|'
p20
NNNI4
I1
I0
tp21
bS'3422'
p22
tp23
Rp24
sS'source'
p25
Nsaa(lp26
(dp27
S'all'
p28
(lp29
S'go to the walter ward supervisor office'
p30
asg15
(lp31
sg16
(lp32
sg25
(lp33
sg3
(lp34
sg14
(lp35
saa(lp36
(g4
(g5
(S'S9'
p37
I0
I1
tp38
Rp39
(I3
S'|'
p40
NNNI9
I1
I0
tp41
bS'styrofoam'
p42
tp43
Rp44
I17
I1
tp45
a(g4
(g5
(S'S8'
p46
I0
I1
tp47
Rp48
(I3
S'|'
p49
NNNI8
I1
I0
tp50
bS'metallic'
p51
tp52
Rp53
I7
I1
tp54
a(g4
(g5
(S'S5'
p55
I0
I1
tp56
Rp57
(I3
S'|'
p58
NNNI5
I1
I0
tp59
bS'tower'
p60
tp61
Rp62
I2
I1
tp63
a(g4
(g5
(S'S9'
p64
I0
I1
tp65
Rp66
(I3
S'|'
p67
NNNI9
I1
I0
tp68
bS'container'
p69
tp70
Rp71
I18
I1
tp72
a(g4
(g5
(S'S5'
p73
I0
I1
tp74
Rp75
(I3
S'|'
p76
NNNI5
I1
I0
tp77
bS'spice'
p78
tp79
Rp80
I10
I1
tp81
aa(lp82
(S'ward'
p83
S'block'
p84
I01
tp85
aa.