(lp0
(lp1
(dp2
S'action'
p3
cnumpy.core.multiarray
scalar
p4
(cnumpy
dtype
p5
(S'S4'
p6
I0
I1
tp7
Rp8
(I3
S'|'
p9
NNNI4
I1
I0
tp10
bS'walk'
p11
tp12
Rp13
sS'recipient'
p14
NsS'patient'
p15
NsS'goal'
p16
S'3514'
p17
sS'source'
p18
Nsa(dp19
g3
g4
(g5
(S'S4'
p20
I0
I1
tp21
Rp22
(I3
S'|'
p23
NNNI4
I1
I0
tp24
bS'walk'
p25
tp26
Rp27
sg14
Nsg15
Nsg16
S'3414'
p28
sg18
Nsa(dp29
g3
g4
(g5
(S'S5'
p30
I0
I1
tp31
Rp32
(I3
S'|'
p33
NNNI5
I1
I0
tp34
bS'bring'
p35
tp36
Rp37
sg14
S'h'
p38
sg15
S'oidx_13'
p39
sg16
Nsg18
Nsaa(lp40
(dp41
S'all'
p42
(lp43
S'yes'
p44
asg15
(lp45
sg16
(lp46
S'yes'
p47
aS'yes'
p48
aS'yes'
p49
asg18
(lp50
sg3
(lp51
sg14
(lp52
sa(dp53
g42
(lp54
S'yes'
p55
asg15
(lp56
sg16
(lp57
S'yes'
p58
aS'yes'
p59
aS'yes'
p60
aS'your wish'
p61
aS'yes'
p62
aS'no'
p63
aS'yes'
p64
aS'yes'
p65
aS'yes'
p66
aS'yes'
p67
aS'yes'
p68
asg18
(lp69
sg3
(lp70
sg14
(lp71
sa(dp72
g42
(lp73
S'yes'
p74
asg15
(lp75
S'yes'
p76
asg16
(lp77
sg18
(lp78
sg3
(lp79
sg14
(lp80
S'yes'
p81
asaa(lp82
(g4
(g5
(S'S9'
p83
I0
I1
tp84
Rp85
(I3
S'|'
p86
NNNI9
I1
I0
tp87
bS'styrofoam'
p88
tp89
Rp90
I7
I1
tp91
a(g4
(g5
(S'S5'
p92
I0
I1
tp93
Rp94
(I3
S'|'
p95
NNNI5
I1
I0
tp96
bS'spice'
p97
tp98
Rp99
I7
I1
tp100
a(g4
(g5
(S'S4'
p101
I0
I1
tp102
Rp103
(I3
S'|'
p104
NNNI4
I1
I0
tp105
bS'bean'
p106
tp107
Rp108
I18
I1
tp109
a(g4
(g5
(S'S9'
p110
I0
I1
tp111
Rp112
(I3
S'|'
p113
NNNI9
I1
I0
tp114
bS'container'
p115
tp116
Rp117
I17
I1
tp118
a(g4
(g5
(S'S5'
p119
I0
I1
tp120
Rp121
(I3
S'|'
p122
NNNI5
I1
I0
tp123
bS'empty'
p124
tp125
Rp126
I17
I1
tp127
a(g4
(g5
(S'S3'
p128
I0
I1
tp129
Rp130
(I3
S'|'
p131
NNNI3
I1
I0
tp132
bS'can'
p133
tp134
Rp135
I10
I1
tp136
a(g4
(g5
(S'S4'
p137
I0
I1
tp138
Rp139
(I3
S'|'
p140
NNNI4
I1
I0
tp141
bS'bean'
p142
tp143
Rp144
I10
I0
tp145
a(g4
(g5
(S'S9'
p146
I0
I1
tp147
Rp148
(I3
S'|'
p149
NNNI9
I1
I0
tp150
bS'container'
p151
tp152
Rp153
I18
I0
tp154
a(g4
(g5
(S'S6'
p155
I0
I1
tp156
Rp157
(I3
S'|'
p158
NNNI6
I1
I0
tp159
bS'column'
p160
tp161
Rp162
I2
I1
tp163
a(g4
(g5
(S'S4'
p164
I0
I1
tp165
Rp166
(I3
S'|'
p167
NNNI4
I1
I0
tp168
bS'bean'
p169
tp170
Rp171
I2
I1
tp172
a(g4
(g5
(S'S4'
p173
I0
I1
tp174
Rp175
(I3
S'|'
p176
NNNI4
I1
I0
tp177
bS'blue'
p178
tp179
Rp180
I17
I1
tp181
a(g4
(g5
(S'S5'
p182
I0
I1
tp183
Rp184
(I3
S'|'
p185
NNNI5
I1
I0
tp186
bS'white'
p187
tp188
Rp189
I17
I1
tp190
a(g4
(g5
(S'S5'
p191
I0
I1
tp192
Rp193
(I3
S'|'
p194
NNNI5
I1
I0
tp195
bS'clear'
p196
tp197
Rp198
I10
I1
tp199
a(g4
(g5
(S'S8'
p200
I0
I1
tp201
Rp202
(I3
S'|'
p203
NNNI8
I1
I0
tp204
bS'cylinder'
p205
tp206
Rp207
I2
I1
tp208
a(g4
(g5
(S'S8'
p209
I0
I1
tp210
Rp211
(I3
S'|'
p212
NNNI8
I1
I0
tp213
bS'pringles'
p214
tp215
Rp216
I17
I1
tp217
aa(lp218
(S'your'
p219
S'can'
p220
I01
tp221
a(S'wish'
p222
g220
I01
tp223
aa.