(lp0
(lp1
(dp2
S'action'
p3
cnumpy.core.multiarray
scalar
p4
(cnumpy
dtype
p5
(S'S5'
p6
I0
I1
tp7
Rp8
(I3
S'|'
p9
NNNI5
I1
I0
tp10
bS'bring'
p11
tp12
Rp13
sS'recipient'
p14
S's'
p15
sS'patient'
p16
S'oidx_28'
p17
sS'goal'
p18
NsS'source'
p19
Nsa(dp20
g3
g4
(g5
(S'S5'
p21
I0
I1
tp22
Rp23
(I3
S'|'
p24
NNNI5
I1
I0
tp25
bS'bring'
p26
tp27
Rp28
sg14
g15
sg16
S'oidx_12'
p29
sg18
Nsg19
Nsaa(lp30
(dp31
S'all'
p32
(lp33
S'good'
p34
asg16
(lp35
S'yes'
p36
aS'yes'
p37
asg18
(lp38
sg19
(lp39
sg3
(lp40
sg14
(lp41
sa(dp42
g32
(lp43
S'good'
p44
asg16
(lp45
S'yes'
p46
aS'yes'
p47
asg18
(lp48
sg19
(lp49
sg3
(lp50
sg14
(lp51
saa(lp52
(g4
(g5
(S'S9'
p53
I0
I1
tp54
Rp55
(I3
S'|'
p56
NNNI9
I1
I0
tp57
bS'container'
p58
tp59
Rp60
I27
I1
tp61
a(g4
(g5
(S'S9'
p62
I0
I1
tp63
Rp64
(I3
S'|'
p65
NNNI9
I1
I0
tp66
bS'container'
p67
tp68
Rp69
I27
I0
tp70
a(g4
(g5
(S'S5'
p71
I0
I1
tp72
Rp73
(I3
S'|'
p74
NNNI5
I1
I0
tp75
bS'spice'
p76
tp77
Rp78
I20
I1
tp79
a(g4
(g5
(S'S9'
p80
I0
I1
tp81
Rp82
(I3
S'|'
p83
NNNI9
I1
I0
tp84
bS'container'
p85
tp86
Rp87
I20
I1
tp88
a(g4
(g5
(S'S9'
p89
I0
I1
tp90
Rp91
(I3
S'|'
p92
NNNI9
I1
I0
tp93
bS'rectangle'
p94
tp95
Rp96
I20
I1
tp97
a(g4
(g5
(S'S5'
p98
I0
I1
tp99
Rp100
(I3
S'|'
p101
NNNI5
I1
I0
tp102
bS'white'
p103
tp104
Rp105
I27
I1
tp106
a(g4
(g5
(S'S5'
p107
I0
I1
tp108
Rp109
(I3
S'|'
p110
NNNI5
I1
I0
tp111
bS'spice'
p112
tp113
Rp114
I27
I0
tp115
a(g4
(g5
(S'S4'
p116
I0
I1
tp117
Rp118
(I3
S'|'
p119
NNNI4
I1
I0
tp120
bS'blue'
p121
tp122
Rp123
I27
I1
tp124
a(g4
(g5
(S'S8'
p125
I0
I1
tp126
Rp127
(I3
S'|'
p128
NNNI8
I1
I0
tp129
bS'pringles'
p130
tp131
Rp132
I27
I1
tp133
a(g4
(g5
(S'S4'
p134
I0
I1
tp135
Rp136
(I3
S'|'
p137
NNNI4
I1
I0
tp138
bS'blue'
p139
tp140
Rp141
I27
I0
tp142
aa(lp143
a.