(lp0
(lp1
(dp2
S'action'
p3
cnumpy.core.multiarray
scalar
p4
(cnumpy
dtype
p5
(S'S4'
p6
I0
I1
tp7
Rp8
(I3
S'|'
p9
NNNI4
I1
I0
tp10
bS'walk'
p11
tp12
Rp13
sS'recipient'
p14
NsS'patient'
p15
NsS'goal'
p16
g4
(g5
(S'S4'
p17
I0
I1
tp18
Rp19
(I3
S'|'
p20
NNNI4
I1
I0
tp21
bS'3432'
p22
tp23
Rp24
sS'source'
p25
Nsa(dp26
g3
g4
(g5
(S'S5'
p27
I0
I1
tp28
Rp29
(I3
S'|'
p30
NNNI5
I1
I0
tp31
bS'bring'
p32
tp33
Rp34
sg14
g4
(g5
(S'S1'
p35
I0
I1
tp36
Rp37
(I3
S'|'
p38
NNNI1
I1
I0
tp39
bS's'
p40
tp41
Rp42
sg15
g4
(g5
(S'S7'
p43
I0
I1
tp44
Rp45
(I3
S'|'
p46
NNNI7
I1
I0
tp47
bS'oidx_28'
p48
tp49
Rp50
sg16
Nsg25
Nsa(dp51
g3
g4
(g5
(S'S4'
p52
I0
I1
tp53
Rp54
(I3
S'|'
p55
NNNI4
I1
I0
tp56
bS'move'
p57
tp58
Rp59
sg14
Nsg15
S'oidx_11'
p60
sg16
S'3506'
p61
sg25
S'3512'
p62
saa(lp63
(dp64
S'all'
p65
(lp66
S"go to the office next to doctor sybil smalt 's office"
p67
asg15
(lp68
sg16
(lp69
sg25
(lp70
sg3
(lp71
sg14
(lp72
sa(dp73
g65
(lp74
S'take the styrofoam blck to doctor sybil smalt'
p75
asg15
(lp76
S'the styrofoam block'
p77
aS'the white styrofoam block'
p78
aS'the styrofoam block'
p79
asg16
(lp80
sg25
(lp81
sg3
(lp82
sg14
(lp83
S'doctor sybil smalt'
p84
asa(dp85
g65
(lp86
S"bring the empty can from richard rogue 's office to the printer"
p87
asg15
(lp88
S'the empty can'
p89
asg16
(lp90
S'the printer'
p91
asg25
(lp92
S"richard rogue secretary 's office"
p93
asg3
(lp94
sg14
(lp95
saa(lp96
(g4
(g5
(S'S4'
p97
I0
I1
tp98
Rp99
(I3
S'|'
p100
NNNI4
I1
I0
tp101
bS'long'
p102
tp103
Rp104
I3
I1
tp105
a(g4
(g5
(S'S4'
p106
I0
I1
tp107
Rp108
(I3
S'|'
p109
NNNI4
I1
I0
tp110
bS'bean'
p111
tp112
Rp113
I10
I0
tp114
a(g113
I3
I0
tp115
a(g113
I27
I0
tp116
a(g113
I7
I0
tp117
a(g113
I18
I0
tp118
a(g113
I2
I0
tp119
a(g113
I20
I0
tp120
a(g113
I17
I0
tp121
a(g4
(g5
(S'S4'
p122
I0
I1
tp123
Rp124
(I3
S'|'
p125
NNNI4
I1
I0
tp126
bS'blue'
p127
tp128
Rp129
I18
I1
tp130
a(g4
(g5
(S'S8'
p131
I0
I1
tp132
Rp133
(I3
S'|'
p134
NNNI8
I1
I0
tp135
bS'cylinder'
p136
tp137
Rp138
I2
I1
tp139
a(g4
(g5
(S'S5'
p140
I0
I1
tp141
Rp142
(I3
S'|'
p143
NNNI5
I1
I0
tp144
bS'tower'
p145
tp146
Rp147
I10
I0
tp148
a(g147
I3
I0
tp149
a(g147
I27
I0
tp150
a(g147
I7
I0
tp151
a(g147
I18
I0
tp152
a(g147
I2
I0
tp153
a(g147
I20
I0
tp154
a(g147
I17
I0
tp155
a(g4
(g5
(S'S9'
p156
I0
I1
tp157
Rp158
(I3
S'|'
p159
NNNI9
I1
I0
tp160
bS'styrofoam'
p161
tp162
Rp163
I10
I0
tp164
a(g163
I3
I0
tp165
a(g163
I27
I0
tp166
a(g163
I7
I0
tp167
a(g163
I18
I0
tp168
a(g163
I2
I0
tp169
a(g163
I20
I0
tp170
a(g163
I17
I0
tp171
a(g4
(g5
(S'S5'
p172
I0
I1
tp173
Rp174
(I3
S'|'
p175
NNNI5
I1
I0
tp176
bS'block'
p177
tp178
Rp179
I10
I0
tp180
a(g179
I3
I0
tp181
a(g179
I27
I0
tp182
a(g179
I7
I0
tp183
a(g179
I18
I0
tp184
a(g179
I2
I0
tp185
a(g179
I20
I0
tp186
a(g179
I17
I0
tp187
a(g4
(g5
(S'S9'
p188
I0
I1
tp189
Rp190
(I3
S'|'
p191
NNNI9
I1
I0
tp192
bS'rectangle'
p193
tp194
Rp195
I10
I0
tp196
a(g195
I3
I0
tp197
a(g195
I27
I0
tp198
a(g195
I7
I0
tp199
a(g195
I18
I0
tp200
a(g195
I2
I0
tp201
a(g195
I20
I0
tp202
a(g195
I17
I0
tp203
a(g4
(g5
(S'S5'
p204
I0
I1
tp205
Rp206
(I3
S'|'
p207
NNNI5
I1
I0
tp208
bS'spice'
p209
tp210
Rp211
I10
I0
tp212
a(g211
I3
I0
tp213
a(g211
I27
I0
tp214
a(g211
I7
I0
tp215
a(g211
I18
I0
tp216
a(g211
I2
I0
tp217
a(g211
I20
I0
tp218
a(g211
I17
I0
tp219
a(g4
(g5
(S'S8'
p220
I0
I1
tp221
Rp222
(I3
S'|'
p223
NNNI8
I1
I0
tp224
bS'pringles'
p225
tp226
Rp227
I10
I0
tp228
a(g227
I3
I0
tp229
a(g227
I27
I0
tp230
a(g227
I7
I0
tp231
a(g227
I18
I0
tp232
a(g227
I2
I0
tp233
a(g227
I20
I0
tp234
a(g227
I17
I0
tp235
a(g4
(g5
(S'S8'
p236
I0
I1
tp237
Rp238
(I3
S'|'
p239
NNNI8
I1
I0
tp240
bS'metallic'
p241
tp242
Rp243
I10
I0
tp244
a(g243
I3
I0
tp245
a(g243
I27
I0
tp246
a(g243
I7
I0
tp247
a(g243
I18
I0
tp248
a(g243
I2
I0
tp249
a(g243
I20
I0
tp250
a(g243
I17
I0
tp251
a(g4
(g5
(S'S5'
p252
I0
I1
tp253
Rp254
(I3
S'|'
p255
NNNI5
I1
I0
tp256
bS'white'
p257
tp258
Rp259
I10
I0
tp260
a(g259
I3
I0
tp261
a(g259
I27
I0
tp262
a(g259
I7
I0
tp263
a(g259
I18
I0
tp264
a(g259
I2
I0
tp265
a(g259
I20
I0
tp266
a(g259
I17
I0
tp267
a(g4
(g5
(S'S6'
p268
I0
I1
tp269
Rp270
(I3
S'|'
p271
NNNI6
I1
I0
tp272
bS'column'
p273
tp274
Rp275
I20
I1
tp276
a(g4
(g5
(S'S6'
p277
I0
I1
tp278
Rp279
(I3
S'|'
p280
NNNI6
I1
I0
tp281
bS'coffee'
p282
tp283
Rp284
I2
I1
tp285
a(g4
(g5
(S'S6'
p286
I0
I1
tp287
Rp288
(I3
S'|'
p289
NNNI6
I1
I0
tp290
bS'coffee'
p291
tp292
Rp293
I2
I0
tp294
aa(lp295
a.