(lp0
(lp1
(dp2
S'action'
p3
cnumpy.core.multiarray
scalar
p4
(cnumpy
dtype
p5
(S'S5'
p6
I0
I1
tp7
Rp8
(I3
S'|'
p9
NNNI5
I1
I0
tp10
bS'bring'
p11
tp12
Rp13
sS'recipient'
p14
S's'
p15
sS'patient'
p16
S'oidx_12'
p17
sS'goal'
p18
NsS'source'
p19
Nsa(dp20
g3
g4
(g5
(S'S4'
p21
I0
I1
tp22
Rp23
(I3
S'|'
p24
NNNI4
I1
I0
tp25
bS'walk'
p26
tp27
Rp28
sg14
Nsg16
Nsg18
S'3508'
p29
sg19
Nsa(dp30
g3
g4
(g5
(S'S4'
p31
I0
I1
tp32
Rp33
(I3
S'|'
p34
NNNI4
I1
I0
tp35
bS'walk'
p36
tp37
Rp38
sg14
Nsg16
Nsg18
S'3414a'
p39
sg19
Nsaa(lp40
(dp41
S'all'
p42
(lp43
S'yes'
p44
asg16
(lp45
S'blue'
p46
aS'blue'
p47
asg18
(lp48
sg19
(lp49
sg3
(lp50
sg14
(lp51
sa(dp52
g42
(lp53
S'move object'
p54
asg16
(lp55
sg18
(lp56
S'office'
p57
asg19
(lp58
sg3
(lp59
sg14
(lp60
sa(dp61
g42
(lp62
S'move'
p63
asg16
(lp64
sg18
(lp65
S'office'
p66
asg19
(lp67
sg3
(lp68
sg14
(lp69
saa(lp70
(g4
(g5
(S'S8'
p71
I0
I1
tp72
Rp73
(I3
S'|'
p74
NNNI8
I1
I0
tp75
bS'pringles'
p76
tp77
Rp78
I20
I1
tp79
a(g4
(g5
(S'S5'
p80
I0
I1
tp81
Rp82
(I3
S'|'
p83
NNNI5
I1
I0
tp84
bS'block'
p85
tp86
Rp87
I2
I1
tp88
a(g4
(g5
(S'S9'
p89
I0
I1
tp90
Rp91
(I3
S'|'
p92
NNNI9
I1
I0
tp93
bS'styrofoam'
p94
tp95
Rp96
I10
I1
tp97
a(g4
(g5
(S'S4'
p98
I0
I1
tp99
Rp100
(I3
S'|'
p101
NNNI4
I1
I0
tp102
bS'blue'
p103
tp104
Rp105
I3
I1
tp106
a(g4
(g5
(S'S5'
p107
I0
I1
tp108
Rp109
(I3
S'|'
p110
NNNI5
I1
I0
tp111
bS'peach'
p112
tp113
Rp114
I7
I1
tp115
a(g4
(g5
(S'S9'
p116
I0
I1
tp117
Rp118
(I3
S'|'
p119
NNNI9
I1
I0
tp120
bS'container'
p121
tp122
Rp123
I2
I1
tp124
a(g4
(g5
(S'S9'
p125
I0
I1
tp126
Rp127
(I3
S'|'
p128
NNNI9
I1
I0
tp129
bS'container'
p130
tp131
Rp132
I2
I0
tp133
a(g4
(g5
(S'S9'
p134
I0
I1
tp135
Rp136
(I3
S'|'
p137
NNNI9
I1
I0
tp138
bS'container'
p139
tp140
Rp141
I18
I1
tp142
a(g4
(g5
(S'S9'
p143
I0
I1
tp144
Rp145
(I3
S'|'
p146
NNNI9
I1
I0
tp147
bS'container'
p148
tp149
Rp150
I17
I0
tp151
a(g4
(g5
(S'S9'
p152
I0
I1
tp153
Rp154
(I3
S'|'
p155
NNNI9
I1
I0
tp156
bS'container'
p157
tp158
Rp159
I7
I1
tp160
a(g4
(g5
(S'S5'
p161
I0
I1
tp162
Rp163
(I3
S'|'
p164
NNNI5
I1
I0
tp165
bS'clear'
p166
tp167
Rp168
I3
I1
tp169
a(g4
(g5
(S'S5'
p170
I0
I1
tp171
Rp172
(I3
S'|'
p173
NNNI5
I1
I0
tp174
bS'block'
p175
tp176
Rp177
I2
I0
tp178
a(g4
(g5
(S'S6'
p179
I0
I1
tp180
Rp181
(I3
S'|'
p182
NNNI6
I1
I0
tp183
bS'coffee'
p184
tp185
Rp186
I18
I1
tp187
a(g4
(g5
(S'S4'
p188
I0
I1
tp189
Rp190
(I3
S'|'
p191
NNNI4
I1
I0
tp192
bS'blue'
p193
tp194
Rp195
I18
I0
tp196
a(g4
(g5
(S'S8'
p197
I0
I1
tp198
Rp199
(I3
S'|'
p200
NNNI8
I1
I0
tp201
bS'metallic'
p202
tp203
Rp204
I3
I1
tp205
aa(lp206
(S'object'
p207
S'container'
p208
I01
tp209
aa.