(lp0
(lp1
(dp2
S'action'
p3
cnumpy.core.multiarray
scalar
p4
(cnumpy
dtype
p5
(S'S4'
p6
I0
I1
tp7
Rp8
(I3
S'|'
p9
NNNI4
I1
I0
tp10
bS'walk'
p11
tp12
Rp13
sS'recipient'
p14
NsS'patient'
p15
NsS'goal'
p16
g4
(g5
(S'S5'
p17
I0
I1
tp18
Rp19
(I3
S'|'
p20
NNNI5
I1
I0
tp21
bS'3414a'
p22
tp23
Rp24
sS'source'
p25
Nsa(dp26
g3
g4
(g5
(S'S5'
p27
I0
I1
tp28
Rp29
(I3
S'|'
p30
NNNI5
I1
I0
tp31
bS'bring'
p32
tp33
Rp34
sg14
g4
(g5
(S'S1'
p35
I0
I1
tp36
Rp37
(I3
S'|'
p38
NNNI1
I1
I0
tp39
bS'h'
p40
tp41
Rp42
sg15
S'oidx_11'
p43
sg16
Nsg25
Nsaa(lp44
(dp45
S'all'
p46
(lp47
S'go to left lab'
p48
asg15
(lp49
sg16
(lp50
sg25
(lp51
sg3
(lp52
sg14
(lp53
sa(dp54
g46
(lp55
S'give can to dr heidi hughes'
p56
asg15
(lp57
S'can'
p58
asg16
(lp59
sg25
(lp60
sg3
(lp61
sg14
(lp62
S'dr heidi hughes'
p63
asaa(lp64
(g4
(g5
(S'S8'
p65
I0
I1
tp66
Rp67
(I3
S'|'
p68
NNNI8
I1
I0
tp69
bS'metallic'
p70
tp71
Rp72
I10
I0
tp73
a(g72
I3
I0
tp74
a(g72
I27
I0
tp75
a(g72
I7
I0
tp76
a(g72
I18
I0
tp77
a(g72
I2
I0
tp78
a(g72
I20
I0
tp79
a(g72
I17
I0
tp80
a(g4
(g5
(S'S6'
p81
I0
I1
tp82
Rp83
(I3
S'|'
p84
NNNI6
I1
I0
tp85
bS'column'
p86
tp87
Rp88
I3
I1
tp89
a(g4
(g5
(S'S4'
p90
I0
I1
tp91
Rp92
(I3
S'|'
p93
NNNI4
I1
I0
tp94
bS'bean'
p95
tp96
Rp97
I2
I1
tp98
a(g4
(g5
(S'S6'
p99
I0
I1
tp100
Rp101
(I3
S'|'
p102
NNNI6
I1
I0
tp103
bS'column'
p104
tp105
Rp106
I18
I0
tp107
a(g4
(g5
(S'S6'
p108
I0
I1
tp109
Rp110
(I3
S'|'
p111
NNNI6
I1
I0
tp112
bS'column'
p113
tp114
Rp115
I20
I1
tp116
a(g4
(g5
(S'S3'
p117
I0
I1
tp118
Rp119
(I3
S'|'
p120
NNNI3
I1
I0
tp121
bS'can'
p122
tp123
Rp124
I2
I1
tp125
a(g4
(g5
(S'S5'
p126
I0
I1
tp127
Rp128
(I3
S'|'
p129
NNNI5
I1
I0
tp130
bS'empty'
p131
tp132
Rp133
I3
I1
tp134
a(g4
(g5
(S'S8'
p135
I0
I1
tp136
Rp137
(I3
S'|'
p138
NNNI8
I1
I0
tp139
bS'pringles'
p140
tp141
Rp142
I10
I0
tp143
a(g142
I3
I0
tp144
a(g142
I27
I0
tp145
a(g142
I7
I0
tp146
a(g142
I18
I0
tp147
a(g142
I2
I0
tp148
a(g142
I20
I0
tp149
a(g142
I17
I0
tp150
a(g4
(g5
(S'S5'
p151
I0
I1
tp152
Rp153
(I3
S'|'
p154
NNNI5
I1
I0
tp155
bS'clear'
p156
tp157
Rp158
I10
I0
tp159
a(g158
I3
I0
tp160
a(g158
I27
I0
tp161
a(g158
I7
I0
tp162
a(g158
I18
I0
tp163
a(g158
I2
I0
tp164
a(g158
I20
I0
tp165
a(g158
I17
I0
tp166
a(g4
(g5
(S'S5'
p167
I0
I1
tp168
Rp169
(I3
S'|'
p170
NNNI5
I1
I0
tp171
bS'spice'
p172
tp173
Rp174
I10
I0
tp175
a(g174
I3
I0
tp176
a(g174
I27
I0
tp177
a(g174
I7
I0
tp178
a(g174
I18
I0
tp179
a(g174
I2
I0
tp180
a(g174
I20
I0
tp181
a(g174
I17
I0
tp182
aa(lp183
a.