(lp0
(lp1
(dp2
S'action'
p3
cnumpy.core.multiarray
scalar
p4
(cnumpy
dtype
p5
(S'S4'
p6
I0
I1
tp7
Rp8
(I3
S'|'
p9
NNNI4
I1
I0
tp10
bS'walk'
p11
tp12
Rp13
sS'recipient'
p14
NsS'patient'
p15
NsS'goal'
p16
S'3518'
p17
sS'source'
p18
Nsa(dp19
g3
g4
(g5
(S'S5'
p20
I0
I1
tp21
Rp22
(I3
S'|'
p23
NNNI5
I1
I0
tp24
bS'bring'
p25
tp26
Rp27
sg14
S'm'
p28
sg15
g4
(g5
(S'S7'
p29
I0
I1
tp30
Rp31
(I3
S'|'
p32
NNNI7
I1
I0
tp33
bS'oidx_13'
p34
tp35
Rp36
sg16
Nsg18
Nsaa(lp37
(dp38
S'all'
p39
(lp40
S'go to the pod next to the conference'
p41
asg15
(lp42
sg16
(lp43
S'go to the pod next to the conference'
p44
asg18
(lp45
sg3
(lp46
sg14
(lp47
sa(dp48
g39
(lp49
S'take the blue cylinder to mallory mal maroon'
p50
asg15
(lp51
S'the blue cylinder'
p52
aS'the blue cylinder'
p53
aS'the blue cylinder'
p54
asg16
(lp55
sg18
(lp56
sg3
(lp57
sg14
(lp58
S'mallory mal maroon'
p59
asaa(lp60
(g4
(g5
(S'S5'
p61
I0
I1
tp62
Rp63
(I3
S'|'
p64
NNNI5
I1
I0
tp65
bS'tower'
p66
tp67
Rp68
I10
I0
tp69
a(g68
I3
I0
tp70
a(g68
I27
I0
tp71
a(g68
I7
I0
tp72
a(g68
I18
I0
tp73
a(g68
I2
I0
tp74
a(g68
I20
I0
tp75
a(g68
I17
I0
tp76
a(g4
(g5
(S'S9'
p77
I0
I1
tp78
Rp79
(I3
S'|'
p80
NNNI9
I1
I0
tp81
bS'container'
p82
tp83
Rp84
I2
I1
tp85
a(g4
(g5
(S'S8'
p86
I0
I1
tp87
Rp88
(I3
S'|'
p89
NNNI8
I1
I0
tp90
bS'metallic'
p91
tp92
Rp93
I3
I1
tp94
a(g4
(g5
(S'S6'
p95
I0
I1
tp96
Rp97
(I3
S'|'
p98
NNNI6
I1
I0
tp99
bS'yellow'
p100
tp101
Rp102
I10
I0
tp103
a(g102
I3
I0
tp104
a(g102
I27
I0
tp105
a(g102
I7
I0
tp106
a(g102
I18
I0
tp107
a(g102
I2
I0
tp108
a(g102
I20
I0
tp109
a(g102
I17
I0
tp110
a(g4
(g5
(S'S9'
p111
I0
I1
tp112
Rp113
(I3
S'|'
p114
NNNI9
I1
I0
tp115
bS'styrofoam'
p116
tp117
Rp118
I10
I1
tp119
a(g4
(g5
(S'S8'
p120
I0
I1
tp121
Rp122
(I3
S'|'
p123
NNNI8
I1
I0
tp124
bS'cylinder'
p125
tp126
Rp127
I20
I1
tp128
a(g4
(g5
(S'S4'
p129
I0
I1
tp130
Rp131
(I3
S'|'
p132
NNNI4
I1
I0
tp133
bS'blue'
p134
tp135
Rp136
I18
I1
tp137
a(g4
(g5
(S'S4'
p138
I0
I1
tp139
Rp140
(I3
S'|'
p141
NNNI4
I1
I0
tp142
bS'blue'
p143
tp144
Rp145
I27
I0
tp146
a(g4
(g5
(S'S4'
p147
I0
I1
tp148
Rp149
(I3
S'|'
p150
NNNI4
I1
I0
tp151
bS'blue'
p152
tp153
Rp154
I18
I1
tp155
a(g4
(g5
(S'S8'
p156
I0
I1
tp157
Rp158
(I3
S'|'
p159
NNNI8
I1
I0
tp160
bS'cylinder'
p161
tp162
Rp163
I27
I0
tp164
aa(lp165
a.