(lp0
(lp1
(dp2
S'action'
p3
cnumpy.core.multiarray
scalar
p4
(cnumpy
dtype
p5
(S'S5'
p6
I0
I1
tp7
Rp8
(I3
S'|'
p9
NNNI5
I1
I0
tp10
bS'bring'
p11
tp12
Rp13
sS'recipient'
p14
S'm'
p15
sS'patient'
p16
S'oidx_25'
p17
sS'goal'
p18
NsS'source'
p19
Nsa(dp20
g3
g4
(g5
(S'S5'
p21
I0
I1
tp22
Rp23
(I3
S'|'
p24
NNNI5
I1
I0
tp25
bS'bring'
p26
tp27
Rp28
sg14
g4
(g5
(S'S1'
p29
I0
I1
tp30
Rp31
(I3
S'|'
p32
NNNI1
I1
I0
tp33
bS'p'
p34
tp35
Rp36
sg16
S'oidx_28'
p37
sg18
Nsg19
Nsa(dp38
g3
g4
(g5
(S'S4'
p39
I0
I1
tp40
Rp41
(I3
S'|'
p42
NNNI4
I1
I0
tp43
bS'walk'
p44
tp45
Rp46
sg14
Nsg16
Nsg18
S'3418'
p47
sg19
Nsaa(lp48
(dp49
S'all'
p50
(lp51
S"go to dr smalt 's office and then go to dr nagel 's office"
p52
asg16
(lp53
S'mcdonalds'
p54
asg18
(lp55
sg19
(lp56
sg3
(lp57
sg14
(lp58
S'dr nagel'
p59
asa(dp60
g50
(lp61
S'deliver bottle to peggy parker intern'
p62
asg16
(lp63
S'container'
p64
aS'show me pictures'
p65
aS'something'
p66
aS'deliver to parker'
p67
asg18
(lp68
sg19
(lp69
sg3
(lp70
sg14
(lp71
S'peggy parker'
p72
asa(dp73
g50
(lp74
S"deliver something from dave 's office to the lounge"
p75
asg16
(lp76
sg18
(lp77
S'dave'
p78
asg19
(lp79
sg3
(lp80
sg14
(lp81
saa(lp82
(g4
(g5
(S'S6'
p83
I0
I1
tp84
Rp85
(I3
S'|'
p86
NNNI6
I1
I0
tp87
bS'column'
p88
tp89
Rp90
I18
I1
tp91
a(g4
(g5
(S'S6'
p92
I0
I1
tp93
Rp94
(I3
S'|'
p95
NNNI6
I1
I0
tp96
bS'column'
p97
tp98
Rp99
I10
I1
tp100
a(g99
I3
I1
tp101
a(g99
I27
I1
tp102
a(g99
I7
I1
tp103
a(g99
I18
I1
tp104
a(g99
I2
I1
tp105
a(g99
I20
I1
tp106
a(g99
I17
I1
tp107
a(g4
(g5
(S'S9'
p108
I0
I1
tp109
Rp110
(I3
S'|'
p111
NNNI9
I1
I0
tp112
bS'container'
p113
tp114
Rp115
I2
I1
tp116
a(g4
(g5
(S'S5'
p117
I0
I1
tp118
Rp119
(I3
S'|'
p120
NNNI5
I1
I0
tp121
bS'peach'
p122
tp123
Rp124
I10
I0
tp125
a(g124
I3
I0
tp126
a(g124
I27
I0
tp127
a(g124
I7
I0
tp128
a(g124
I18
I0
tp129
a(g124
I2
I0
tp130
a(g124
I20
I0
tp131
a(g124
I17
I0
tp132
a(g4
(g5
(S'S4'
p133
I0
I1
tp134
Rp135
(I3
S'|'
p136
NNNI4
I1
I0
tp137
bS'bean'
p138
tp139
Rp140
I10
I0
tp141
a(g140
I3
I0
tp142
a(g140
I27
I0
tp143
a(g140
I7
I0
tp144
a(g140
I18
I0
tp145
a(g140
I2
I0
tp146
a(g140
I20
I0
tp147
a(g140
I17
I0
tp148
a(g4
(g5
(S'S9'
p149
I0
I1
tp150
Rp151
(I3
S'|'
p152
NNNI9
I1
I0
tp153
bS'container'
p154
tp155
Rp156
I27
I0
tp157
a(g4
(g5
(S'S9'
p158
I0
I1
tp159
Rp160
(I3
S'|'
p161
NNNI9
I1
I0
tp162
bS'container'
p163
tp164
Rp165
I10
I1
tp166
a(g4
(g5
(S'S9'
p167
I0
I1
tp168
Rp169
(I3
S'|'
p170
NNNI9
I1
I0
tp171
bS'container'
p172
tp173
Rp174
I7
I0
tp175
a(g4
(g5
(S'S9'
p176
I0
I1
tp177
Rp178
(I3
S'|'
p179
NNNI9
I1
I0
tp180
bS'container'
p181
tp182
Rp183
I3
I0
tp184
a(g4
(g5
(S'S9'
p185
I0
I1
tp186
Rp187
(I3
S'|'
p188
NNNI9
I1
I0
tp189
bS'container'
p190
tp191
Rp192
I10
I1
tp193
a(g4
(g5
(S'S6'
p194
I0
I1
tp195
Rp196
(I3
S'|'
p197
NNNI6
I1
I0
tp198
bS'coffee'
p199
tp200
Rp201
I10
I0
tp202
a(g201
I3
I0
tp203
a(g201
I27
I0
tp204
a(g201
I7
I0
tp205
a(g201
I18
I0
tp206
a(g201
I2
I0
tp207
a(g201
I20
I0
tp208
a(g201
I17
I0
tp209
a(g4
(g5
(S'S8'
p210
I0
I1
tp211
Rp212
(I3
S'|'
p213
NNNI8
I1
I0
tp214
bS'cylinder'
p215
tp216
Rp217
I3
I1
tp218
a(g4
(g5
(S'S6'
p219
I0
I1
tp220
Rp221
(I3
S'|'
p222
NNNI6
I1
I0
tp223
bS'yellow'
p224
tp225
Rp226
I2
I1
tp227
a(g4
(g5
(S'S5'
p228
I0
I1
tp229
Rp230
(I3
S'|'
p231
NNNI5
I1
I0
tp232
bS'white'
p233
tp234
Rp235
I10
I0
tp236
a(g235
I3
I0
tp237
a(g235
I27
I0
tp238
a(g235
I7
I0
tp239
a(g235
I18
I0
tp240
a(g235
I2
I0
tp241
a(g235
I20
I0
tp242
a(g235
I17
I0
tp243
a(g4
(g5
(S'S9'
p244
I0
I1
tp245
Rp246
(I3
S'|'
p247
NNNI9
I1
I0
tp248
bS'container'
p249
tp250
Rp251
I7
I1
tp252
aa(lp253
(S'bottle'
p254
S'coffee'
p255
I00
tp256
a(g254
S'container'
p257
I01
tp258
aa.