(lp0
(lp1
(dp2
S'action'
p3
cnumpy.core.multiarray
scalar
p4
(cnumpy
dtype
p5
(S'S4'
p6
I0
I1
tp7
Rp8
(I3
S'|'
p9
NNNI4
I1
I0
tp10
bS'walk'
p11
tp12
Rp13
sS'recipient'
p14
NsS'patient'
p15
NsS'goal'
p16
g4
(g5
(S'S4'
p17
I0
I1
tp18
Rp19
(I3
S'|'
p20
NNNI4
I1
I0
tp21
bS'3402'
p22
tp23
Rp24
sS'source'
p25
Nsa(dp26
g3
g4
(g5
(S'S5'
p27
I0
I1
tp28
Rp29
(I3
S'|'
p30
NNNI5
I1
I0
tp31
bS'bring'
p32
tp33
Rp34
sg14
g4
(g5
(S'S1'
p35
I0
I1
tp36
Rp37
(I3
S'|'
p38
NNNI1
I1
I0
tp39
bS'r'
p40
tp41
Rp42
sg15
g4
(g5
(S'S7'
p43
I0
I1
tp44
Rp45
(I3
S'|'
p46
NNNI7
I1
I0
tp47
bS'oidx_26'
p48
tp49
Rp50
sg16
Nsg25
Nsaa(lp51
(dp52
S'all'
p53
(lp54
S'go to dr heidi hughes office'
p55
asg15
(lp56
sg16
(lp57
sg25
(lp58
sg3
(lp59
sg14
(lp60
sa(dp61
g53
(lp62
S'give richard rogue secretary the empty can'
p63
asg15
(lp64
S'the empty can'
p65
aS'the empty soda can'
p66
aS'an empty soda can'
p67
asg16
(lp68
sg25
(lp69
sg3
(lp70
sg14
(lp71
S'richard rogue'
p72
aS'richard rogue secretary'
p73
aS'richard rogue'
p74
aS'richard rogue'
p75
aS'richard rogue'
p76
aS'richard rogue'
p77
aS'richard rogue'
p78
aS'richard rogue secretary'
p79
aS'richard rogue'
p80
aS'person r'
p81
aS'r'
p82
aS'richard'
p83
asaa(lp84
(g4
(g5
(S'S8'
p85
I0
I1
tp86
Rp87
(I3
S'|'
p88
NNNI8
I1
I0
tp89
bS'cylinder'
p90
tp91
Rp92
I20
I1
tp93
a(g4
(g5
(S'S8'
p94
I0
I1
tp95
Rp96
(I3
S'|'
p97
NNNI8
I1
I0
tp98
bS'pringles'
p99
tp100
Rp101
I2
I1
tp102
a(g4
(g5
(S'S5'
p103
I0
I1
tp104
Rp105
(I3
S'|'
p106
NNNI5
I1
I0
tp107
bS'empty'
p108
tp109
Rp110
I3
I1
tp111
a(g4
(g5
(S'S4'
p112
I0
I1
tp113
Rp114
(I3
S'|'
p115
NNNI4
I1
I0
tp116
bS'blue'
p117
tp118
Rp119
I18
I1
tp120
a(g4
(g5
(S'S5'
p121
I0
I1
tp122
Rp123
(I3
S'|'
p124
NNNI5
I1
I0
tp125
bS'block'
p126
tp127
Rp128
I10
I0
tp129
a(g128
I3
I0
tp130
a(g128
I27
I0
tp131
a(g128
I7
I0
tp132
a(g128
I18
I0
tp133
a(g128
I2
I0
tp134
a(g128
I20
I0
tp135
a(g128
I17
I0
tp136
a(g4
(g5
(S'S3'
p137
I0
I1
tp138
Rp139
(I3
S'|'
p140
NNNI3
I1
I0
tp141
bS'can'
p142
tp143
Rp144
I10
I0
tp145
a(g144
I3
I0
tp146
a(g144
I27
I0
tp147
a(g144
I7
I0
tp148
a(g144
I18
I0
tp149
a(g144
I2
I0
tp150
a(g144
I20
I0
tp151
a(g144
I17
I0
tp152
a(g4
(g5
(S'S5'
p153
I0
I1
tp154
Rp155
(I3
S'|'
p156
NNNI5
I1
I0
tp157
bS'empty'
p158
tp159
Rp160
I3
I0
tp161
a(g4
(g5
(S'S5'
p162
I0
I1
tp163
Rp164
(I3
S'|'
p165
NNNI5
I1
I0
tp166
bS'empty'
p167
tp168
Rp169
I3
I1
tp170
a(g4
(g5
(S'S5'
p171
I0
I1
tp172
Rp173
(I3
S'|'
p174
NNNI5
I1
I0
tp175
bS'empty'
p176
tp177
Rp178
I7
I0
tp179
a(g4
(g5
(S'S5'
p180
I0
I1
tp181
Rp182
(I3
S'|'
p183
NNNI5
I1
I0
tp184
bS'empty'
p185
tp186
Rp187
I3
I1
tp188
aa(lp189
a.