(lp0
(lp1
(dp2
S'action'
p3
cnumpy.core.multiarray
scalar
p4
(cnumpy
dtype
p5
(S'S5'
p6
I0
I1
tp7
Rp8
(I3
S'|'
p9
NNNI5
I1
I0
tp10
bS'bring'
p11
tp12
Rp13
sS'recipient'
p14
S'w'
p15
sS'patient'
p16
S'oidx_11'
p17
sS'goal'
p18
NsS'source'
p19
Nsa(dp20
g3
g4
(g5
(S'S4'
p21
I0
I1
tp22
Rp23
(I3
S'|'
p24
NNNI4
I1
I0
tp25
bS'move'
p26
tp27
Rp28
sg14
Nsg16
S'oidx_25'
p29
sg18
S'3504'
p30
sg19
S'3510'
p31
sa(dp32
g3
g4
(g5
(S'S5'
p33
I0
I1
tp34
Rp35
(I3
S'|'
p36
NNNI5
I1
I0
tp37
bS'bring'
p38
tp39
Rp40
sg14
g15
sg16
g17
sg18
Nsg19
Nsaa(lp41
(dp42
S'all'
p43
(lp44
S'yes'
p45
asg16
(lp46
S'yes'
p47
aS'yes'
p48
asg18
(lp49
sg19
(lp50
sg3
(lp51
sg14
(lp52
sa(dp53
g43
(lp54
S'yes'
p55
asg16
(lp56
S'yes'
p57
asg18
(lp58
S'yes'
p59
asg19
(lp60
S'yes'
p61
asg3
(lp62
sg14
(lp63
sa(dp64
g43
(lp65
S'yes'
p66
asg16
(lp67
S'yes'
p68
aS'yes'
p69
asg18
(lp70
sg19
(lp71
sg3
(lp72
sg14
(lp73
saa(lp74
(g4
(g5
(S'S6'
p75
I0
I1
tp76
Rp77
(I3
S'|'
p78
NNNI6
I1
I0
tp79
bS'yellow'
p80
tp81
Rp82
I7
I1
tp83
a(g4
(g5
(S'S5'
p84
I0
I1
tp85
Rp86
(I3
S'|'
p87
NNNI5
I1
I0
tp88
bS'peach'
p89
tp90
Rp91
I20
I1
tp92
a(g4
(g5
(S'S9'
p93
I0
I1
tp94
Rp95
(I3
S'|'
p96
NNNI9
I1
I0
tp97
bS'rectangle'
p98
tp99
Rp100
I18
I1
tp101
a(g4
(g5
(S'S8'
p102
I0
I1
tp103
Rp104
(I3
S'|'
p105
NNNI8
I1
I0
tp106
bS'pringles'
p107
tp108
Rp109
I17
I1
tp110
a(g4
(g5
(S'S5'
p111
I0
I1
tp112
Rp113
(I3
S'|'
p114
NNNI5
I1
I0
tp115
bS'white'
p116
tp117
Rp118
I27
I1
tp119
a(g4
(g5
(S'S8'
p120
I0
I1
tp121
Rp122
(I3
S'|'
p123
NNNI8
I1
I0
tp124
bS'cylinder'
p125
tp126
Rp127
I17
I1
tp128
a(g4
(g5
(S'S4'
p129
I0
I1
tp130
Rp131
(I3
S'|'
p132
NNNI4
I1
I0
tp133
bS'long'
p134
tp135
Rp136
I3
I1
tp137
a(g4
(g5
(S'S5'
p138
I0
I1
tp139
Rp140
(I3
S'|'
p141
NNNI5
I1
I0
tp142
bS'block'
p143
tp144
Rp145
I17
I1
tp146
a(g4
(g5
(S'S5'
p147
I0
I1
tp148
Rp149
(I3
S'|'
p150
NNNI5
I1
I0
tp151
bS'peach'
p152
tp153
Rp154
I10
I0
tp155
a(g4
(g5
(S'S5'
p156
I0
I1
tp157
Rp158
(I3
S'|'
p159
NNNI5
I1
I0
tp160
bS'block'
p161
tp162
Rp163
I10
I0
tp164
a(g4
(g5
(S'S6'
p165
I0
I1
tp166
Rp167
(I3
S'|'
p168
NNNI6
I1
I0
tp169
bS'yellow'
p170
tp171
Rp172
I3
I0
tp173
a(g4
(g5
(S'S5'
p174
I0
I1
tp175
Rp176
(I3
S'|'
p177
NNNI5
I1
I0
tp178
bS'block'
p179
tp180
Rp181
I20
I1
tp182
a(g4
(g5
(S'S4'
p183
I0
I1
tp184
Rp185
(I3
S'|'
p186
NNNI4
I1
I0
tp187
bS'bean'
p188
tp189
Rp190
I2
I1
tp191
a(g4
(g5
(S'S9'
p192
I0
I1
tp193
Rp194
(I3
S'|'
p195
NNNI9
I1
I0
tp196
bS'rectangle'
p197
tp198
Rp199
I10
I0
tp200
a(g4
(g5
(S'S5'
p201
I0
I1
tp202
Rp203
(I3
S'|'
p204
NNNI5
I1
I0
tp205
bS'white'
p206
tp207
Rp208
I17
I0
tp209
aa(lp210
a.