(lp0
(lp1
(dp2
S'action'
p3
cnumpy.core.multiarray
scalar
p4
(cnumpy
dtype
p5
(S'S4'
p6
I0
I1
tp7
Rp8
(I3
S'|'
p9
NNNI4
I1
I0
tp10
bS'walk'
p11
tp12
Rp13
sS'recipient'
p14
NsS'patient'
p15
NsS'goal'
p16
g4
(g5
(S'S4'
p17
I0
I1
tp18
Rp19
(I3
S'|'
p20
NNNI4
I1
I0
tp21
bS'3508'
p22
tp23
Rp24
sS'source'
p25
Nsa(dp26
g3
g4
(g5
(S'S4'
p27
I0
I1
tp28
Rp29
(I3
S'|'
p30
NNNI4
I1
I0
tp31
bS'walk'
p32
tp33
Rp34
sg14
Nsg15
Nsg16
g4
(g5
(S'S4'
p35
I0
I1
tp36
Rp37
(I3
S'|'
p38
NNNI4
I1
I0
tp39
bS'3502'
p40
tp41
Rp42
sg25
Nsa(dp43
g3
g4
(g5
(S'S5'
p44
I0
I1
tp45
Rp46
(I3
S'|'
p47
NNNI5
I1
I0
tp48
bS'bring'
p49
tp50
Rp51
sg14
S'h'
p52
sg15
S'oidx_6'
p53
sg16
Nsg25
Nsaa(lp54
(dp55
S'all'
p56
(lp57
S'go to the conference room'
p58
asg15
(lp59
sg16
(lp60
S'lounge'
p61
aS"peggy parker 's office"
p62
asg25
(lp63
sg3
(lp64
sg14
(lp65
sa(dp66
g56
(lp67
S'grab the pringles'
p68
asg15
(lp69
sg16
(lp70
S"mallory 's office"
p71
asg25
(lp72
sg3
(lp73
sg14
(lp74
sa(dp75
g56
(lp76
S'go to he lab above the kitchen'
p77
asg15
(lp78
S'an object'
p79
aS'white styrofoam'
p80
aS'white styrofoam'
p81
aS'white styrofoam'
p82
aS'styrofoam'
p83
aS'lab'
p84
aS'i want you to deliver a styrofoam to the lab'
p85
asg16
(lp86
sg25
(lp87
sg3
(lp88
sg14
(lp89
S'lab'
p90
asaa(lp91
(g4
(g5
(S'S4'
p92
I0
I1
tp93
Rp94
(I3
S'|'
p95
NNNI4
I1
I0
tp96
bS'long'
p97
tp98
Rp99
I10
I0
tp100
a(g99
I3
I0
tp101
a(g99
I27
I0
tp102
a(g99
I7
I0
tp103
a(g99
I18
I0
tp104
a(g99
I2
I0
tp105
a(g99
I20
I0
tp106
a(g99
I17
I0
tp107
a(g4
(g5
(S'S9'
p108
I0
I1
tp109
Rp110
(I3
S'|'
p111
NNNI9
I1
I0
tp112
bS'container'
p113
tp114
Rp115
I10
I0
tp116
a(g115
I3
I0
tp117
a(g115
I27
I0
tp118
a(g115
I7
I0
tp119
a(g115
I18
I0
tp120
a(g115
I2
I0
tp121
a(g115
I20
I0
tp122
a(g115
I17
I0
tp123
a(g4
(g5
(S'S6'
p124
I0
I1
tp125
Rp126
(I3
S'|'
p127
NNNI6
I1
I0
tp128
bS'column'
p129
tp130
Rp131
I10
I0
tp132
a(g131
I3
I0
tp133
a(g131
I27
I0
tp134
a(g131
I7
I0
tp135
a(g131
I18
I0
tp136
a(g131
I2
I0
tp137
a(g131
I20
I0
tp138
a(g131
I17
I0
tp139
a(g4
(g5
(S'S5'
p140
I0
I1
tp141
Rp142
(I3
S'|'
p143
NNNI5
I1
I0
tp144
bS'white'
p145
tp146
Rp147
I10
I0
tp148
a(g147
I3
I0
tp149
a(g147
I27
I0
tp150
a(g147
I7
I0
tp151
a(g147
I18
I0
tp152
a(g147
I2
I0
tp153
a(g147
I20
I0
tp154
a(g147
I17
I0
tp155
a(g4
(g5
(S'S5'
p156
I0
I1
tp157
Rp158
(I3
S'|'
p159
NNNI5
I1
I0
tp160
bS'block'
p161
tp162
Rp163
I10
I0
tp164
a(g163
I3
I0
tp165
a(g163
I27
I0
tp166
a(g163
I7
I0
tp167
a(g163
I18
I0
tp168
a(g163
I2
I0
tp169
a(g163
I20
I0
tp170
a(g163
I17
I0
tp171
a(g4
(g5
(S'S5'
p172
I0
I1
tp173
Rp174
(I3
S'|'
p175
NNNI5
I1
I0
tp176
bS'tower'
p177
tp178
Rp179
I20
I1
tp180
a(g4
(g5
(S'S6'
p181
I0
I1
tp182
Rp183
(I3
S'|'
p184
NNNI6
I1
I0
tp185
bS'coffee'
p186
tp187
Rp188
I10
I0
tp189
a(g188
I3
I0
tp190
a(g188
I27
I0
tp191
a(g188
I7
I0
tp192
a(g188
I18
I0
tp193
a(g188
I2
I0
tp194
a(g188
I20
I0
tp195
a(g188
I17
I0
tp196
a(g4
(g5
(S'S5'
p197
I0
I1
tp198
Rp199
(I3
S'|'
p200
NNNI5
I1
I0
tp201
bS'clear'
p202
tp203
Rp204
I10
I0
tp205
a(g204
I3
I0
tp206
a(g204
I27
I0
tp207
a(g204
I7
I0
tp208
a(g204
I18
I0
tp209
a(g204
I2
I0
tp210
a(g204
I20
I0
tp211
a(g204
I17
I0
tp212
a(g4
(g5
(S'S5'
p213
I0
I1
tp214
Rp215
(I3
S'|'
p216
NNNI5
I1
I0
tp217
bS'spice'
p218
tp219
Rp220
I10
I0
tp221
a(g220
I3
I0
tp222
a(g220
I27
I0
tp223
a(g220
I7
I0
tp224
a(g220
I18
I0
tp225
a(g220
I2
I0
tp226
a(g220
I20
I0
tp227
a(g220
I17
I0
tp228
a(g4
(g5
(S'S4'
p229
I0
I1
tp230
Rp231
(I3
S'|'
p232
NNNI4
I1
I0
tp233
bS'bean'
p234
tp235
Rp236
I10
I0
tp237
a(g236
I3
I0
tp238
a(g236
I27
I0
tp239
a(g236
I7
I0
tp240
a(g236
I18
I0
tp241
a(g236
I2
I0
tp242
a(g236
I20
I0
tp243
a(g236
I17
I0
tp244
a(g4
(g5
(S'S6'
p245
I0
I1
tp246
Rp247
(I3
S'|'
p248
NNNI6
I1
I0
tp249
bS'object'
p250
tp251
Rp252
I10
I0
tp253
a(g252
I3
I0
tp254
a(g252
I27
I0
tp255
a(g252
I7
I0
tp256
a(g252
I18
I0
tp257
a(g252
I2
I0
tp258
a(g252
I20
I0
tp259
a(g252
I17
I0
tp260
a(g4
(g5
(S'S3'
p261
I0
I1
tp262
Rp263
(I3
S'|'
p264
NNNI3
I1
I0
tp265
bS'can'
p266
tp267
Rp268
I10
I0
tp269
a(g268
I3
I0
tp270
a(g268
I27
I0
tp271
a(g268
I7
I0
tp272
a(g268
I18
I0
tp273
a(g268
I2
I0
tp274
a(g268
I20
I0
tp275
a(g268
I17
I0
tp276
a(g4
(g5
(S'S4'
p277
I0
I1
tp278
Rp279
(I3
S'|'
p280
NNNI4
I1
I0
tp281
bS'blue'
p282
tp283
Rp284
I18
I1
tp285
a(g4
(g5
(S'S8'
p286
I0
I1
tp287
Rp288
(I3
S'|'
p289
NNNI8
I1
I0
tp290
bS'pringles'
p291
tp292
Rp293
I10
I0
tp294
a(g293
I3
I0
tp295
a(g293
I27
I0
tp296
a(g293
I7
I0
tp297
a(g293
I18
I0
tp298
a(g293
I2
I0
tp299
a(g293
I20
I0
tp300
a(g293
I17
I0
tp301
a(g4
(g5
(S'S9'
p302
I0
I1
tp303
Rp304
(I3
S'|'
p305
NNNI9
I1
I0
tp306
bS'styrofoam'
p307
tp308
Rp309
I20
I1
tp310
aa(lp311
(S'object'
p312
S'container'
p313
I00
tp314
a(g312
S'metallic'
p315
I00
tp316
aa.