(lp0
(lp1
(dp2
S'action'
p3
cnumpy.core.multiarray
scalar
p4
(cnumpy
dtype
p5
(S'S5'
p6
I0
I1
tp7
Rp8
(I3
S'|'
p9
NNNI5
I1
I0
tp10
bS'bring'
p11
tp12
Rp13
sS'recipient'
p14
S'r'
p15
sS'patient'
p16
S'oidx_6'
p17
sS'goal'
p18
NsS'source'
p19
Nsa(dp20
g3
g4
(g5
(S'S5'
p21
I0
I1
tp22
Rp23
(I3
S'|'
p24
NNNI5
I1
I0
tp25
bS'bring'
p26
tp27
Rp28
sg14
g15
sg16
g17
sg18
Nsg19
Nsa(dp29
g3
g4
(g5
(S'S5'
p30
I0
I1
tp31
Rp32
(I3
S'|'
p33
NNNI5
I1
I0
tp34
bS'bring'
p35
tp36
Rp37
sg14
S'm'
p38
sg16
S'oidx_12'
p39
sg18
Nsg19
Nsaa(lp40
(dp41
S'all'
p42
(lp43
S'yes'
p44
asg16
(lp45
S'yes'
p46
aS'okay'
p47
asg18
(lp48
sg19
(lp49
sg3
(lp50
sg14
(lp51
sa(dp52
g42
(lp53
S'yo'
p54
asg16
(lp55
S'okay'
p56
aS'yes'
p57
asg18
(lp58
sg19
(lp59
sg3
(lp60
sg14
(lp61
sa(dp62
g42
(lp63
S'okay'
p64
asg16
(lp65
S'corior'
p66
asg18
(lp67
sg19
(lp68
sg3
(lp69
sg14
(lp70
S'this'
p71
asaa(lp72
(g4
(g5
(S'S5'
p73
I0
I1
tp74
Rp75
(I3
S'|'
p76
NNNI5
I1
I0
tp77
bS'clear'
p78
tp79
Rp80
I7
I1
tp81
a(g4
(g5
(S'S4'
p82
I0
I1
tp83
Rp84
(I3
S'|'
p85
NNNI4
I1
I0
tp86
bS'bean'
p87
tp88
Rp89
I27
I1
tp90
a(g4
(g5
(S'S4'
p91
I0
I1
tp92
Rp93
(I3
S'|'
p94
NNNI4
I1
I0
tp95
bS'blue'
p96
tp97
Rp98
I17
I1
tp99
a(g4
(g5
(S'S4'
p100
I0
I1
tp101
Rp102
(I3
S'|'
p103
NNNI4
I1
I0
tp104
bS'blue'
p105
tp106
Rp107
I10
I0
tp108
a(g4
(g5
(S'S9'
p109
I0
I1
tp110
Rp111
(I3
S'|'
p112
NNNI9
I1
I0
tp113
bS'container'
p114
tp115
Rp116
I20
I1
tp117
a(g4
(g5
(S'S5'
p118
I0
I1
tp119
Rp120
(I3
S'|'
p121
NNNI5
I1
I0
tp122
bS'peach'
p123
tp124
Rp125
I10
I1
tp126
a(g4
(g5
(S'S9'
p127
I0
I1
tp128
Rp129
(I3
S'|'
p130
NNNI9
I1
I0
tp131
bS'rectangle'
p132
tp133
Rp134
I18
I1
tp135
a(g4
(g5
(S'S4'
p136
I0
I1
tp137
Rp138
(I3
S'|'
p139
NNNI4
I1
I0
tp140
bS'blue'
p141
tp142
Rp143
I7
I1
tp144
a(g4
(g5
(S'S5'
p145
I0
I1
tp146
Rp147
(I3
S'|'
p148
NNNI5
I1
I0
tp149
bS'clear'
p150
tp151
Rp152
I3
I0
tp153
a(g4
(g5
(S'S9'
p154
I0
I1
tp155
Rp156
(I3
S'|'
p157
NNNI9
I1
I0
tp158
bS'container'
p159
tp160
Rp161
I2
I0
tp162
a(g4
(g5
(S'S4'
p163
I0
I1
tp164
Rp165
(I3
S'|'
p166
NNNI4
I1
I0
tp167
bS'long'
p168
tp169
Rp170
I10
I1
tp171
a(g4
(g5
(S'S9'
p172
I0
I1
tp173
Rp174
(I3
S'|'
p175
NNNI9
I1
I0
tp176
bS'rectangle'
p177
tp178
Rp179
I27
I0
tp180
a(g4
(g5
(S'S5'
p181
I0
I1
tp182
Rp183
(I3
S'|'
p184
NNNI5
I1
I0
tp185
bS'clear'
p186
tp187
Rp188
I3
I1
tp189
a(g4
(g5
(S'S5'
p190
I0
I1
tp191
Rp192
(I3
S'|'
p193
NNNI5
I1
I0
tp194
bS'block'
p195
tp196
Rp197
I7
I1
tp198
a(g4
(g5
(S'S9'
p199
I0
I1
tp200
Rp201
(I3
S'|'
p202
NNNI9
I1
I0
tp203
bS'styrofoam'
p204
tp205
Rp206
I20
I1
tp207
aa(lp208
a.