(lp0
(lp1
(dp2
S'action'
p3
cnumpy.core.multiarray
scalar
p4
(cnumpy
dtype
p5
(S'S4'
p6
I0
I1
tp7
Rp8
(I3
S'|'
p9
NNNI4
I1
I0
tp10
bS'walk'
p11
tp12
Rp13
sS'recipient'
p14
NsS'patient'
p15
NsS'goal'
p16
S'3514'
p17
sS'source'
p18
Nsa(dp19
g3
g4
(g5
(S'S5'
p20
I0
I1
tp21
Rp22
(I3
S'|'
p23
NNNI5
I1
I0
tp24
bS'bring'
p25
tp26
Rp27
sg14
S'm'
p28
sg15
S'oidx_13'
p29
sg16
Nsg18
Nsaa(lp30
(dp31
S'all'
p32
(lp33
S'go to the lounge'
p34
asg15
(lp35
sg16
(lp36
S'lounge'
p37
asg18
(lp38
sg3
(lp39
sg14
(lp40
sa(dp41
g32
(lp42
S'move the object to office p'
p43
asg15
(lp44
S'rectangular cylinder'
p45
aS'rectangular cylinder'
p46
asg16
(lp47
sg18
(lp48
sg3
(lp49
sg14
(lp50
saa(lp51
(g4
(g5
(S'S9'
p52
I0
I1
tp53
Rp54
(I3
S'|'
p55
NNNI9
I1
I0
tp56
bS'container'
p57
tp58
Rp59
I2
I1
tp60
a(g4
(g5
(S'S5'
p61
I0
I1
tp62
Rp63
(I3
S'|'
p64
NNNI5
I1
I0
tp65
bS'empty'
p66
tp67
Rp68
I10
I0
tp69
a(g68
I3
I0
tp70
a(g68
I27
I0
tp71
a(g68
I7
I0
tp72
a(g68
I18
I0
tp73
a(g68
I2
I0
tp74
a(g68
I20
I0
tp75
a(g68
I17
I0
tp76
a(g4
(g5
(S'S5'
p77
I0
I1
tp78
Rp79
(I3
S'|'
p80
NNNI5
I1
I0
tp81
bS'spice'
p82
tp83
Rp84
I10
I0
tp85
a(g84
I3
I0
tp86
a(g84
I27
I0
tp87
a(g84
I7
I0
tp88
a(g84
I18
I0
tp89
a(g84
I2
I0
tp90
a(g84
I20
I0
tp91
a(g84
I17
I0
tp92
a(g4
(g5
(S'S9'
p93
I0
I1
tp94
Rp95
(I3
S'|'
p96
NNNI9
I1
I0
tp97
bS'rectangle'
p98
tp99
Rp100
I10
I0
tp101
a(g100
I3
I0
tp102
a(g100
I27
I0
tp103
a(g100
I7
I0
tp104
a(g100
I18
I0
tp105
a(g100
I2
I0
tp106
a(g100
I20
I0
tp107
a(g100
I17
I0
tp108
a(g4
(g5
(S'S4'
p109
I0
I1
tp110
Rp111
(I3
S'|'
p112
NNNI4
I1
I0
tp113
bS'bean'
p114
tp115
Rp116
I10
I0
tp117
a(g116
I3
I0
tp118
a(g116
I27
I0
tp119
a(g116
I7
I0
tp120
a(g116
I18
I0
tp121
a(g116
I2
I0
tp122
a(g116
I20
I0
tp123
a(g116
I17
I0
tp124
a(g4
(g5
(S'S11'
p125
I0
I1
tp126
Rp127
(I3
S'|'
p128
NNNI11
I1
I0
tp129
bS'rectangular'
p130
tp131
Rp132
I10
I0
tp133
a(g132
I3
I0
tp134
a(g132
I27
I0
tp135
a(g132
I7
I0
tp136
a(g132
I18
I0
tp137
a(g132
I2
I0
tp138
a(g132
I20
I0
tp139
a(g132
I17
I0
tp140
a(g4
(g5
(S'S8'
p141
I0
I1
tp142
Rp143
(I3
S'|'
p144
NNNI8
I1
I0
tp145
bS'cylinder'
p146
tp147
Rp148
I3
I1
tp149
a(g4
(g5
(S'S8'
p150
I0
I1
tp151
Rp152
(I3
S'|'
p153
NNNI8
I1
I0
tp154
bS'cylinder'
p155
tp156
Rp157
I27
I0
tp158
a(g4
(g5
(S'S8'
p159
I0
I1
tp160
Rp161
(I3
S'|'
p162
NNNI8
I1
I0
tp163
bS'cylinder'
p164
tp165
Rp166
I3
I1
tp167
a(g4
(g5
(S'S8'
p168
I0
I1
tp169
Rp170
(I3
S'|'
p171
NNNI8
I1
I0
tp172
bS'cylinder'
p173
tp174
Rp175
I27
I0
tp176
aa(lp177
(S'object'
p178
S'container'
p179
I00
tp180
a(g178
S'metallic'
p181
I00
tp182
a(S'rectangular'
p183
S'blue'
p184
I00
tp185
a(g183
g181
I00
tp186
aa.