(lp0
(lp1
(dp2
S'action'
p3
cnumpy.core.multiarray
scalar
p4
(cnumpy
dtype
p5
(S'S4'
p6
I0
I1
tp7
Rp8
(I3
S'|'
p9
NNNI4
I1
I0
tp10
bS'walk'
p11
tp12
Rp13
sS'recipient'
p14
NsS'patient'
p15
NsS'goal'
p16
S'3432'
p17
sS'source'
p18
Nsa(dp19
g3
g4
(g5
(S'S5'
p20
I0
I1
tp21
Rp22
(I3
S'|'
p23
NNNI5
I1
I0
tp24
bS'bring'
p25
tp26
Rp27
sg14
S'b'
p28
sg15
g4
(g5
(S'S7'
p29
I0
I1
tp30
Rp31
(I3
S'|'
p32
NNNI7
I1
I0
tp33
bS'oidx_12'
p34
tp35
Rp36
sg16
Nsg18
Nsaa(lp37
(dp38
S'all'
p39
(lp40
S'go to the office room located between the conference room and office d'
p41
asg15
(lp42
sg16
(lp43
S'to an office room'
p44
aS'the block labeled office'
p45
aS'conference room'
p46
aS'the x mark'
p47
aS'to david daniels'
p48
aS'office'
p49
aS'lab'
p50
aS'pod room'
p51
asg18
(lp52
sg3
(lp53
sg14
(lp54
sa(dp55
g39
(lp56
S'deliver container'
p57
asg15
(lp58
S'can'
p59
aS'cylinder'
p60
aS'wipes'
p61
aS'can'
p62
asg16
(lp63
sg18
(lp64
sg3
(lp65
sg14
(lp66
saa(lp67
(g4
(g5
(S'S3'
p68
I0
I1
tp69
Rp70
(I3
S'|'
p71
NNNI3
I1
I0
tp72
bS'can'
p73
tp74
Rp75
I2
I1
tp76
a(g4
(g5
(S'S6'
p77
I0
I1
tp78
Rp79
(I3
S'|'
p80
NNNI6
I1
I0
tp81
bS'column'
p82
tp83
Rp84
I2
I1
tp85
a(g4
(g5
(S'S5'
p86
I0
I1
tp87
Rp88
(I3
S'|'
p89
NNNI5
I1
I0
tp90
bS'tower'
p91
tp92
Rp93
I3
I1
tp94
a(g4
(g5
(S'S8'
p95
I0
I1
tp96
Rp97
(I3
S'|'
p98
NNNI8
I1
I0
tp99
bS'pringles'
p100
tp101
Rp102
I10
I0
tp103
a(g102
I3
I0
tp104
a(g102
I27
I0
tp105
a(g102
I7
I0
tp106
a(g102
I18
I0
tp107
a(g102
I2
I0
tp108
a(g102
I20
I0
tp109
a(g102
I17
I0
tp110
a(g4
(g5
(S'S5'
p111
I0
I1
tp112
Rp113
(I3
S'|'
p114
NNNI5
I1
I0
tp115
bS'clear'
p116
tp117
Rp118
I10
I0
tp119
a(g118
I3
I0
tp120
a(g118
I27
I0
tp121
a(g118
I7
I0
tp122
a(g118
I18
I0
tp123
a(g118
I2
I0
tp124
a(g118
I20
I0
tp125
a(g118
I17
I0
tp126
a(g4
(g5
(S'S9'
p127
I0
I1
tp128
Rp129
(I3
S'|'
p130
NNNI9
I1
I0
tp131
bS'container'
p132
tp133
Rp134
I2
I1
tp135
a(g4
(g5
(S'S9'
p136
I0
I1
tp137
Rp138
(I3
S'|'
p139
NNNI9
I1
I0
tp140
bS'container'
p141
tp142
Rp143
I27
I0
tp144
a(g4
(g5
(S'S8'
p145
I0
I1
tp146
Rp147
(I3
S'|'
p148
NNNI8
I1
I0
tp149
bS'metallic'
p150
tp151
Rp152
I7
I1
tp153
a(g4
(g5
(S'S5'
p154
I0
I1
tp155
Rp156
(I3
S'|'
p157
NNNI5
I1
I0
tp158
bS'spice'
p159
tp160
Rp161
I10
I0
tp162
a(g161
I3
I0
tp163
a(g161
I27
I0
tp164
a(g161
I7
I0
tp165
a(g161
I18
I0
tp166
a(g161
I2
I0
tp167
a(g161
I20
I0
tp168
a(g161
I17
I0
tp169
a(g4
(g5
(S'S9'
p170
I0
I1
tp171
Rp172
(I3
S'|'
p173
NNNI9
I1
I0
tp174
bS'rectangle'
p175
tp176
Rp177
I10
I0
tp178
a(g177
I3
I0
tp179
a(g177
I27
I0
tp180
a(g177
I7
I0
tp181
a(g177
I18
I0
tp182
a(g177
I2
I0
tp183
a(g177
I20
I0
tp184
a(g177
I17
I0
tp185
aa(lp186
(S'd'
p187
S'block'
p188
I01
tp189
a(S'x'
p190
S'metallic'
p191
I00
tp192
a(g190
S'cylinder'
p193
I00
tp194
a(g61
S'empty'
p195
I00
tp196
aa.