(lp0
(lp1
(dp2
S'action'
p3
cnumpy.core.multiarray
scalar
p4
(cnumpy
dtype
p5
(S'S4'
p6
I0
I1
tp7
Rp8
(I3
S'|'
p9
NNNI4
I1
I0
tp10
bS'walk'
p11
tp12
Rp13
sS'recipient'
p14
NsS'patient'
p15
NsS'goal'
p16
S'3502'
p17
sS'source'
p18
Nsa(dp19
g3
g4
(g5
(S'S4'
p20
I0
I1
tp21
Rp22
(I3
S'|'
p23
NNNI4
I1
I0
tp24
bS'move'
p25
tp26
Rp27
sg14
Nsg15
S'oidx_22'
p28
sg16
S'3432'
p29
sg18
S'3416'
p30
sa(dp31
g3
g4
(g5
(S'S5'
p32
I0
I1
tp33
Rp34
(I3
S'|'
p35
NNNI5
I1
I0
tp36
bS'bring'
p37
tp38
Rp39
sg14
S'n'
p40
sg15
S'oidx_28'
p41
sg16
Nsg18
Nsaa(lp42
(dp43
S'all'
p44
(lp45
S'nothing'
p46
asg15
(lp47
sg16
(lp48
S'your wish'
p49
aS'no'
p50
aS'no'
p51
aS'go'
p52
aS'yes'
p53
aS'yes'
p54
aS'office'
p55
asg18
(lp56
sg3
(lp57
sg14
(lp58
sa(dp59
g44
(lp60
S'hii'
p61
asg15
(lp62
sg16
(lp63
sg18
(lp64
S'yes'
p65
aS'this'
p66
asg3
(lp67
sg14
(lp68
sa(dp69
g44
(lp70
S'yes'
p71
asg15
(lp72
S'no'
p73
aS'no'
p74
asg16
(lp75
sg18
(lp76
sg3
(lp77
sg14
(lp78
saa(lp79
(g4
(g5
(S'S5'
p80
I0
I1
tp81
Rp82
(I3
S'|'
p83
NNNI5
I1
I0
tp84
bS'tower'
p85
tp86
Rp87
I17
I1
tp88
a(g4
(g5
(S'S5'
p89
I0
I1
tp90
Rp91
(I3
S'|'
p92
NNNI5
I1
I0
tp93
bS'empty'
p94
tp95
Rp96
I2
I1
tp97
a(g4
(g5
(S'S6'
p98
I0
I1
tp99
Rp100
(I3
S'|'
p101
NNNI6
I1
I0
tp102
bS'column'
p103
tp104
Rp105
I3
I1
tp106
a(g4
(g5
(S'S9'
p107
I0
I1
tp108
Rp109
(I3
S'|'
p110
NNNI9
I1
I0
tp111
bS'styrofoam'
p112
tp113
Rp114
I27
I1
tp115
a(g4
(g5
(S'S8'
p116
I0
I1
tp117
Rp118
(I3
S'|'
p119
NNNI8
I1
I0
tp120
bS'pringles'
p121
tp122
Rp123
I18
I1
tp124
a(g4
(g5
(S'S9'
p125
I0
I1
tp126
Rp127
(I3
S'|'
p128
NNNI9
I1
I0
tp129
bS'container'
p130
tp131
Rp132
I7
I1
tp133
a(g4
(g5
(S'S5'
p134
I0
I1
tp135
Rp136
(I3
S'|'
p137
NNNI5
I1
I0
tp138
bS'white'
p139
tp140
Rp141
I7
I1
tp142
a(g4
(g5
(S'S9'
p143
I0
I1
tp144
Rp145
(I3
S'|'
p146
NNNI9
I1
I0
tp147
bS'container'
p148
tp149
Rp150
I3
I0
tp151
a(g4
(g5
(S'S6'
p152
I0
I1
tp153
Rp154
(I3
S'|'
p155
NNNI6
I1
I0
tp156
bS'coffee'
p157
tp158
Rp159
I18
I1
tp160
a(g4
(g5
(S'S5'
p161
I0
I1
tp162
Rp163
(I3
S'|'
p164
NNNI5
I1
I0
tp165
bS'white'
p166
tp167
Rp168
I10
I0
tp169
a(g4
(g5
(S'S3'
p170
I0
I1
tp171
Rp172
(I3
S'|'
p173
NNNI3
I1
I0
tp174
bS'can'
p175
tp176
Rp177
I27
I1
tp178
a(g4
(g5
(S'S9'
p179
I0
I1
tp180
Rp181
(I3
S'|'
p182
NNNI9
I1
I0
tp183
bS'container'
p184
tp185
Rp186
I2
I1
tp187
a(g4
(g5
(S'S5'
p188
I0
I1
tp189
Rp190
(I3
S'|'
p191
NNNI5
I1
I0
tp192
bS'spice'
p193
tp194
Rp195
I10
I1
tp196
a(g4
(g5
(S'S4'
p197
I0
I1
tp198
Rp199
(I3
S'|'
p200
NNNI4
I1
I0
tp201
bS'wish'
p202
tp203
Rp204
I17
I1
tp205
a(g4
(g5
(S'S4'
p206
I0
I1
tp207
Rp208
(I3
S'|'
p209
NNNI4
I1
I0
tp210
bS'bean'
p211
tp212
Rp213
I7
I1
tp214
aa(lp215
(S'your'
p216
S'can'
p217
I01
tp218
a(S'wish'
p219
g217
I00
tp220
aa.