(lp0
(lp1
(dp2
S'action'
p3
cnumpy.core.multiarray
scalar
p4
(cnumpy
dtype
p5
(S'S5'
p6
I0
I1
tp7
Rp8
(I3
S'|'
p9
NNNI5
I1
I0
tp10
bS'bring'
p11
tp12
Rp13
sS'recipient'
p14
S'm'
p15
sS'patient'
p16
S'oidx_6'
p17
sS'goal'
p18
NsS'source'
p19
Nsa(dp20
g3
g4
(g5
(S'S4'
p21
I0
I1
tp22
Rp23
(I3
S'|'
p24
NNNI4
I1
I0
tp25
bS'move'
p26
tp27
Rp28
sg14
Nsg16
S'oidx_25'
p29
sg18
S'3404'
p30
sg19
S'3414b'
p31
sa(dp32
g3
g4
(g5
(S'S4'
p33
I0
I1
tp34
Rp35
(I3
S'|'
p36
NNNI4
I1
I0
tp37
bS'walk'
p38
tp39
Rp40
sg14
Nsg16
Nsg18
S'3422'
p41
sg19
Nsaa(lp42
(dp43
S'all'
p44
(lp45
S'yes'
p46
asg16
(lp47
S'no'
p48
aS'yes'
p49
aS'no'
p50
asg18
(lp51
sg19
(lp52
sg3
(lp53
sg14
(lp54
sa(dp55
g44
(lp56
S'yes'
p57
asg16
(lp58
S'no'
p59
asg18
(lp60
S'yes'
p61
asg19
(lp62
S'yes'
p63
asg3
(lp64
sg14
(lp65
sa(dp66
g44
(lp67
S''
p68
asg16
(lp69
sg18
(lp70
S'yes'
p71
aS'yes'
p72
aS'yes'
p73
aS'yes'
p74
aS'yes'
p75
aS'yes'
p76
aS'yes'
p77
aS'yes'
p78
aS'no'
p79
aS'yes'
p80
aS'yes'
p81
ag68
aS'yes'
p82
aS'no'
p83
aS'yes'
p84
aS'yes'
p85
aS'yes'
p86
aS'yes'
p87
aS'yes'
p88
aS'yes'
p89
aS'yes]'
p90
asg19
(lp91
sg3
(lp92
sg14
(lp93
saa(lp94
(g4
(g5
(S'S9'
p95
I0
I1
tp96
Rp97
(I3
S'|'
p98
NNNI9
I1
I0
tp99
bS'container'
p100
tp101
Rp102
I17
I1
tp103
a(g4
(g5
(S'S9'
p104
I0
I1
tp105
Rp106
(I3
S'|'
p107
NNNI9
I1
I0
tp108
bS'styrofoam'
p109
tp110
Rp111
I17
I1
tp112
a(g4
(g5
(S'S8'
p113
I0
I1
tp114
Rp115
(I3
S'|'
p116
NNNI8
I1
I0
tp117
bS'cylinder'
p118
tp119
Rp120
I17
I1
tp121
a(g4
(g5
(S'S5'
p122
I0
I1
tp123
Rp124
(I3
S'|'
p125
NNNI5
I1
I0
tp126
bS'tower'
p127
tp128
Rp129
I18
I1
tp130
a(g4
(g5
(S'S8'
p131
I0
I1
tp132
Rp133
(I3
S'|'
p134
NNNI8
I1
I0
tp135
bS'metallic'
p136
tp137
Rp138
I18
I1
tp139
a(g4
(g5
(S'S5'
p140
I0
I1
tp141
Rp142
(I3
S'|'
p143
NNNI5
I1
I0
tp144
bS'empty'
p145
tp146
Rp147
I20
I1
tp148
a(g4
(g5
(S'S8'
p149
I0
I1
tp150
Rp151
(I3
S'|'
p152
NNNI8
I1
I0
tp153
bS'cylinder'
p154
tp155
Rp156
I20
I0
tp157
a(g4
(g5
(S'S9'
p158
I0
I1
tp159
Rp160
(I3
S'|'
p161
NNNI9
I1
I0
tp162
bS'styrofoam'
p163
tp164
Rp165
I18
I0
tp166
a(g4
(g5
(S'S4'
p167
I0
I1
tp168
Rp169
(I3
S'|'
p170
NNNI4
I1
I0
tp171
bS'bean'
p172
tp173
Rp174
I18
I1
tp175
a(g4
(g5
(S'S9'
p176
I0
I1
tp177
Rp178
(I3
S'|'
p179
NNNI9
I1
I0
tp180
bS'container'
p181
tp182
Rp183
I18
I0
tp184
a(g4
(g5
(S'S8'
p185
I0
I1
tp186
Rp187
(I3
S'|'
p188
NNNI8
I1
I0
tp189
bS'cylinder'
p190
tp191
Rp192
I17
I1
tp193
a(g4
(g5
(S'S9'
p194
I0
I1
tp195
Rp196
(I3
S'|'
p197
NNNI9
I1
I0
tp198
bS'container'
p199
tp200
Rp201
I17
I1
tp202
a(g4
(g5
(S'S4'
p203
I0
I1
tp204
Rp205
(I3
S'|'
p206
NNNI4
I1
I0
tp207
bS'blue'
p208
tp209
Rp210
I17
I1
tp211
a(g4
(g5
(S'S9'
p212
I0
I1
tp213
Rp214
(I3
S'|'
p215
NNNI9
I1
I0
tp216
bS'container'
p217
tp218
Rp219
I10
I0
tp220
a(g4
(g5
(S'S9'
p221
I0
I1
tp222
Rp223
(I3
S'|'
p224
NNNI9
I1
I0
tp225
bS'container'
p226
tp227
Rp228
I20
I1
tp229
aa(lp230
a.