(lp0
(lp1
(dp2
S'action'
p3
cnumpy.core.multiarray
scalar
p4
(cnumpy
dtype
p5
(S'S4'
p6
I0
I1
tp7
Rp8
(I3
S'|'
p9
NNNI4
I1
I0
tp10
bS'walk'
p11
tp12
Rp13
sS'recipient'
p14
NsS'patient'
p15
NsS'goal'
p16
g4
(g5
(S'S4'
p17
I0
I1
tp18
Rp19
(I3
S'|'
p20
NNNI4
I1
I0
tp21
bS'3516'
p22
tp23
Rp24
sS'source'
p25
Nsaa(lp26
(dp27
S'all'
p28
(lp29
S'go'
p30
asg15
(lp31
sg16
(lp32
S'conference'
p33
aS'conference'
p34
aS'conference'
p35
aS'conference'
p36
aS'conference x'
p37
aS'x'
p38
aS'conference'
p39
aS'conference'
p40
aS'conference'
p41
aS'conference'
p42
aS'conference'
p43
asg25
(lp44
sg3
(lp45
sg14
(lp46
saa(lp47
(g4
(g5
(S'S4'
p48
I0
I1
tp49
Rp50
(I3
S'|'
p51
NNNI4
I1
I0
tp52
bS'blue'
p53
tp54
Rp55
I10
I0
tp56
a(g55
I3
I0
tp57
a(g55
I27
I0
tp58
a(g55
I7
I0
tp59
a(g55
I18
I0
tp60
a(g55
I2
I0
tp61
a(g55
I20
I0
tp62
a(g55
I17
I0
tp63
a(g4
(g5
(S'S6'
p64
I0
I1
tp65
Rp66
(I3
S'|'
p67
NNNI6
I1
I0
tp68
bS'yellow'
p69
tp70
Rp71
I27
I1
tp72
a(g4
(g5
(S'S6'
p73
I0
I1
tp74
Rp75
(I3
S'|'
p76
NNNI6
I1
I0
tp77
bS'coffee'
p78
tp79
Rp80
I10
I0
tp81
a(g80
I3
I0
tp82
a(g80
I27
I0
tp83
a(g80
I7
I0
tp84
a(g80
I18
I0
tp85
a(g80
I2
I0
tp86
a(g80
I20
I0
tp87
a(g80
I17
I0
tp88
a(g4
(g5
(S'S5'
p89
I0
I1
tp90
Rp91
(I3
S'|'
p92
NNNI5
I1
I0
tp93
bS'peach'
p94
tp95
Rp96
I20
I1
tp97
a(g4
(g5
(S'S8'
p98
I0
I1
tp99
Rp100
(I3
S'|'
p101
NNNI8
I1
I0
tp102
bS'cylinder'
p103
tp104
Rp105
I20
I1
tp106
aa(lp107
a.