(lp0
(lp1
(dp2
S'action'
p3
cnumpy.core.multiarray
scalar
p4
(cnumpy
dtype
p5
(S'S4'
p6
I0
I1
tp7
Rp8
(I3
S'|'
p9
NNNI4
I1
I0
tp10
bS'walk'
p11
tp12
Rp13
sS'recipient'
p14
NsS'patient'
p15
NsS'goal'
p16
g4
(g5
(S'S4'
p17
I0
I1
tp18
Rp19
(I3
S'|'
p20
NNNI4
I1
I0
tp21
bS'3402'
p22
tp23
Rp24
sS'source'
p25
Nsaa(lp26
(dp27
S'all'
p28
(lp29
S'go to dr heidi hughes office'
p30
asg15
(lp31
sg16
(lp32
sg25
(lp33
sg3
(lp34
sg14
(lp35
saa(lp36
(g4
(g5
(S'S9'
p37
I0
I1
tp38
Rp39
(I3
S'|'
p40
NNNI9
I1
I0
tp41
bS'container'
p42
tp43
Rp44
I2
I1
tp45
a(g4
(g5
(S'S4'
p46
I0
I1
tp47
Rp48
(I3
S'|'
p49
NNNI4
I1
I0
tp50
bS'long'
p51
tp52
Rp53
I3
I1
tp54
a(g4
(g5
(S'S3'
p55
I0
I1
tp56
Rp57
(I3
S'|'
p58
NNNI3
I1
I0
tp59
bS'can'
p60
tp61
Rp62
I10
I1
tp63
a(g4
(g5
(S'S3'
p64
I0
I1
tp65
Rp66
(I3
S'|'
p67
NNNI3
I1
I0
tp68
bS'can'
p69
tp70
Rp71
I17
I0
tp72
a(g4
(g5
(S'S6'
p73
I0
I1
tp74
Rp75
(I3
S'|'
p76
NNNI6
I1
I0
tp77
bS'coffee'
p78
tp79
Rp80
I10
I0
tp81
a(g80
I3
I0
tp82
a(g80
I27
I0
tp83
a(g80
I7
I0
tp84
a(g80
I18
I0
tp85
a(g80
I2
I0
tp86
a(g80
I20
I0
tp87
a(g80
I17
I0
tp88
aa(lp89
a.