(lp0
(lp1
(dp2
S'action'
p3
cnumpy.core.multiarray
scalar
p4
(cnumpy
dtype
p5
(S'S4'
p6
I0
I1
tp7
Rp8
(I3
S'|'
p9
NNNI4
I1
I0
tp10
bS'walk'
p11
tp12
Rp13
sS'recipient'
p14
NsS'patient'
p15
NsS'goal'
p16
g4
(g5
(S'S4'
p17
I0
I1
tp18
Rp19
(I3
S'|'
p20
NNNI4
I1
I0
tp21
bS'3512'
p22
tp23
Rp24
sS'source'
p25
Nsaa(lp26
(dp27
S'all'
p28
(lp29
S'you need to move towards lounge and conference room'
p30
asg15
(lp31
sg16
(lp32
S'towards pod'
p33
aS'towards pod'
p34
aS'outside'
p35
aS'right'
p36
aS'exit'
p37
aS'towards conference'
p38
aS'lounge'
p39
aS'green'
p40
aS'richard rogue secretary'
p41
asg25
(lp42
sg3
(lp43
sg14
(lp44
saa(lp45
(g4
(g5
(S'S6'
p46
I0
I1
tp47
Rp48
(I3
S'|'
p49
NNNI6
I1
I0
tp50
bS'column'
p51
tp52
Rp53
I10
I0
tp54
a(g53
I3
I0
tp55
a(g53
I27
I0
tp56
a(g53
I7
I0
tp57
a(g53
I18
I0
tp58
a(g53
I2
I0
tp59
a(g53
I20
I0
tp60
a(g53
I17
I0
tp61
a(g4
(g5
(S'S8'
p62
I0
I1
tp63
Rp64
(I3
S'|'
p65
NNNI8
I1
I0
tp66
bS'pringles'
p67
tp68
Rp69
I10
I0
tp70
a(g69
I3
I0
tp71
a(g69
I27
I0
tp72
a(g69
I7
I0
tp73
a(g69
I18
I0
tp74
a(g69
I2
I0
tp75
a(g69
I20
I0
tp76
a(g69
I17
I0
tp77
a(g4
(g5
(S'S4'
p78
I0
I1
tp79
Rp80
(I3
S'|'
p81
NNNI4
I1
I0
tp82
bS'bean'
p83
tp84
Rp85
I10
I0
tp86
a(g85
I3
I0
tp87
a(g85
I27
I0
tp88
a(g85
I7
I0
tp89
a(g85
I18
I0
tp90
a(g85
I2
I0
tp91
a(g85
I20
I0
tp92
a(g85
I17
I0
tp93
a(g4
(g5
(S'S9'
p94
I0
I1
tp95
Rp96
(I3
S'|'
p97
NNNI9
I1
I0
tp98
bS'container'
p99
tp100
Rp101
I2
I1
tp102
a(g4
(g5
(S'S6'
p103
I0
I1
tp104
Rp105
(I3
S'|'
p106
NNNI6
I1
I0
tp107
bS'yellow'
p108
tp109
Rp110
I10
I0
tp111
a(g110
I3
I0
tp112
a(g110
I27
I0
tp113
a(g110
I7
I0
tp114
a(g110
I18
I0
tp115
a(g110
I2
I0
tp116
a(g110
I20
I0
tp117
a(g110
I17
I0
tp118
aa(lp119
(g40
S'white'
p120
I00
tp121
a(g40
S'yellow'
p122
I00
tp123
a(g40
S'blue'
p124
I00
tp125
aa.