(lp0
(lp1
(dp2
S'action'
p3
cnumpy.core.multiarray
scalar
p4
(cnumpy
dtype
p5
(S'S4'
p6
I0
I1
tp7
Rp8
(I3
S'|'
p9
NNNI4
I1
I0
tp10
bS'walk'
p11
tp12
Rp13
sS'recipient'
p14
NsS'patient'
p15
NsS'goal'
p16
g4
(g5
(S'S4'
p17
I0
I1
tp18
Rp19
(I3
S'|'
p20
NNNI4
I1
I0
tp21
bS'3406'
p22
tp23
Rp24
sS'source'
p25
Nsaa(lp26
(dp27
S'all'
p28
(lp29
S'go to middle lounge'
p30
asg15
(lp31
sg16
(lp32
S'middle lounge'
p33
aS'middle lounge'
p34
aS'center lounge'
p35
aS'lounge'
p36
aS'go to the lounge'
p37
aS'west lounge'
p38
aS'middle lounge'
p39
asg25
(lp40
sg3
(lp41
sg14
(lp42
saa(lp43
(g4
(g5
(S'S9'
p44
I0
I1
tp45
Rp46
(I3
S'|'
p47
NNNI9
I1
I0
tp48
bS'container'
p49
tp50
Rp51
I17
I1
tp52
a(g4
(g5
(S'S8'
p53
I0
I1
tp54
Rp55
(I3
S'|'
p56
NNNI8
I1
I0
tp57
bS'metallic'
p58
tp59
Rp60
I10
I0
tp61
a(g60
I3
I0
tp62
a(g60
I27
I0
tp63
a(g60
I7
I0
tp64
a(g60
I18
I0
tp65
a(g60
I2
I0
tp66
a(g60
I20
I0
tp67
a(g60
I17
I0
tp68
a(g4
(g5
(S'S4'
p69
I0
I1
tp70
Rp71
(I3
S'|'
p72
NNNI4
I1
I0
tp73
bS'long'
p74
tp75
Rp76
I20
I1
tp77
a(g4
(g5
(S'S9'
p78
I0
I1
tp79
Rp80
(I3
S'|'
p81
NNNI9
I1
I0
tp82
bS'styrofoam'
p83
tp84
Rp85
I20
I1
tp86
a(g4
(g5
(S'S8'
p87
I0
I1
tp88
Rp89
(I3
S'|'
p90
NNNI8
I1
I0
tp91
bS'pringles'
p92
tp93
Rp94
I10
I0
tp95
a(g94
I3
I0
tp96
a(g94
I27
I0
tp97
a(g94
I7
I0
tp98
a(g94
I18
I0
tp99
a(g94
I2
I0
tp100
a(g94
I20
I0
tp101
a(g94
I17
I0
tp102
aa(lp103
a.