(lp0
(lp1
(dp2
S'action'
p3
cnumpy.core.multiarray
scalar
p4
(cnumpy
dtype
p5
(S'S4'
p6
I0
I1
tp7
Rp8
(I3
S'|'
p9
NNNI4
I1
I0
tp10
bS'walk'
p11
tp12
Rp13
sS'recipient'
p14
NsS'patient'
p15
NsS'goal'
p16
g4
(g5
(S'S4'
p17
I0
I1
tp18
Rp19
(I3
S'|'
p20
NNNI4
I1
I0
tp21
bS'3420'
p22
tp23
Rp24
sS'source'
p25
Nsa(dp26
g3
g4
(g5
(S'S4'
p27
I0
I1
tp28
Rp29
(I3
S'|'
p30
NNNI4
I1
I0
tp31
bS'move'
p32
tp33
Rp34
sg14
Nsg15
g4
(g5
(S'S7'
p35
I0
I1
tp36
Rp37
(I3
S'|'
p38
NNNI7
I1
I0
tp39
bS'oidx_26'
p40
tp41
Rp42
sg16
g4
(g5
(S'S4'
p43
I0
I1
tp44
Rp45
(I3
S'|'
p46
NNNI4
I1
I0
tp47
bS'3512'
p48
tp49
Rp50
sg25
g4
(g5
(S'S4'
p51
I0
I1
tp52
Rp53
(I3
S'|'
p54
NNNI4
I1
I0
tp55
bS'3512'
p56
tp57
Rp58
saa(lp59
(dp60
S'all'
p61
(lp62
S"go to david dave daniel 's office"
p63
asg15
(lp64
sg16
(lp65
sg25
(lp66
sg3
(lp67
sg14
(lp68
sa(dp69
g61
(lp70
S"take the red can to richard rogue 's office"
p71
asg15
(lp72
S'the red can'
p73
aS'the red can'
p74
asg16
(lp75
S'richard rogue office'
p76
asg25
(lp77
sg3
(lp78
sg14
(lp79
saa(lp80
(g4
(g5
(S'S9'
p81
I0
I1
tp82
Rp83
(I3
S'|'
p84
NNNI9
I1
I0
tp85
bS'styrofoam'
p86
tp87
Rp88
I10
I0
tp89
a(g88
I3
I0
tp90
a(g88
I27
I0
tp91
a(g88
I7
I0
tp92
a(g88
I18
I0
tp93
a(g88
I2
I0
tp94
a(g88
I20
I0
tp95
a(g88
I17
I0
tp96
a(g4
(g5
(S'S5'
p97
I0
I1
tp98
Rp99
(I3
S'|'
p100
NNNI5
I1
I0
tp101
bS'block'
p102
tp103
Rp104
I10
I0
tp105
a(g104
I3
I0
tp106
a(g104
I27
I0
tp107
a(g104
I7
I0
tp108
a(g104
I18
I0
tp109
a(g104
I2
I0
tp110
a(g104
I20
I0
tp111
a(g104
I17
I0
tp112
a(g4
(g5
(S'S4'
p113
I0
I1
tp114
Rp115
(I3
S'|'
p116
NNNI4
I1
I0
tp117
bS'bean'
p118
tp119
Rp120
I10
I0
tp121
a(g120
I3
I0
tp122
a(g120
I27
I0
tp123
a(g120
I7
I0
tp124
a(g120
I18
I0
tp125
a(g120
I2
I0
tp126
a(g120
I20
I0
tp127
a(g120
I17
I0
tp128
a(g4
(g5
(S'S6'
p129
I0
I1
tp130
Rp131
(I3
S'|'
p132
NNNI6
I1
I0
tp133
bS'yellow'
p134
tp135
Rp136
I10
I0
tp137
a(g136
I3
I0
tp138
a(g136
I27
I0
tp139
a(g136
I7
I0
tp140
a(g136
I18
I0
tp141
a(g136
I2
I0
tp142
a(g136
I20
I0
tp143
a(g136
I17
I0
tp144
a(g4
(g5
(S'S8'
p145
I0
I1
tp146
Rp147
(I3
S'|'
p148
NNNI8
I1
I0
tp149
bS'cylinder'
p150
tp151
Rp152
I20
I1
tp153
a(g4
(g5
(S'S3'
p154
I0
I1
tp155
Rp156
(I3
S'|'
p157
NNNI3
I1
I0
tp158
bS'red'
p159
tp160
Rp161
I7
I1
tp162
a(g4
(g5
(S'S3'
p163
I0
I1
tp164
Rp165
(I3
S'|'
p166
NNNI3
I1
I0
tp167
bS'red'
p168
tp169
Rp170
I17
I0
tp171
a(g4
(g5
(S'S3'
p172
I0
I1
tp173
Rp174
(I3
S'|'
p175
NNNI3
I1
I0
tp176
bS'can'
p177
tp178
Rp179
I10
I1
tp180
a(g4
(g5
(S'S3'
p181
I0
I1
tp182
Rp183
(I3
S'|'
p184
NNNI3
I1
I0
tp185
bS'red'
p186
tp187
Rp188
I7
I1
tp189
a(g4
(g5
(S'S3'
p190
I0
I1
tp191
Rp192
(I3
S'|'
p193
NNNI3
I1
I0
tp194
bS'red'
p195
tp196
Rp197
I18
I0
tp198
aa(lp199
(S'red'
p200
S'white'
p201
I00
tp202
a(g200
S'yellow'
p203
I00
tp204
a(g200
S'blue'
p205
I00
tp206
aa.