(lp0
(lp1
(dp2
S'action'
p3
cnumpy.core.multiarray
scalar
p4
(cnumpy
dtype
p5
(S'S4'
p6
I0
I1
tp7
Rp8
(I3
S'|'
p9
NNNI4
I1
I0
tp10
bS'walk'
p11
tp12
Rp13
sS'recipient'
p14
NsS'patient'
p15
NsS'goal'
p16
g4
(g5
(S'S4'
p17
I0
I1
tp18
Rp19
(I3
S'|'
p20
NNNI4
I1
I0
tp21
bS'3422'
p22
tp23
Rp24
sS'source'
p25
Nsa(dp26
g3
g4
(g5
(S'S5'
p27
I0
I1
tp28
Rp29
(I3
S'|'
p30
NNNI5
I1
I0
tp31
bS'bring'
p32
tp33
Rp34
sg14
S'n'
p35
sg15
S'oidx_11'
p36
sg16
Nsg25
Nsaa(lp37
(dp38
S'all'
p39
(lp40
S"go to walter ward supervisor 's office"
p41
asg15
(lp42
sg16
(lp43
sg25
(lp44
sg3
(lp45
sg14
(lp46
sa(dp47
g39
(lp48
S'give dr nancy nagel object n please'
p49
asg15
(lp50
S'deliver container'
p51
aS'something'
p52
aS'object n'
p53
aS'the object shown above'
p54
aS'n'
p55
aS'n'
p56
aS'container n'
p57
aS'container n'
p58
asg16
(lp59
sg25
(lp60
sg3
(lp61
sg14
(lp62
saa(lp63
(g4
(g5
(S'S6'
p64
I0
I1
tp65
Rp66
(I3
S'|'
p67
NNNI6
I1
I0
tp68
bS'coffee'
p69
tp70
Rp71
I10
I0
tp72
a(g71
I3
I0
tp73
a(g71
I27
I0
tp74
a(g71
I7
I0
tp75
a(g71
I18
I0
tp76
a(g71
I2
I0
tp77
a(g71
I20
I0
tp78
a(g71
I17
I0
tp79
a(g4
(g5
(S'S9'
p80
I0
I1
tp81
Rp82
(I3
S'|'
p83
NNNI9
I1
I0
tp84
bS'container'
p85
tp86
Rp87
I2
I1
tp88
a(g4
(g5
(S'S6'
p89
I0
I1
tp90
Rp91
(I3
S'|'
p92
NNNI6
I1
I0
tp93
bS'yellow'
p94
tp95
Rp96
I27
I1
tp97
a(g4
(g5
(S'S9'
p98
I0
I1
tp99
Rp100
(I3
S'|'
p101
NNNI9
I1
I0
tp102
bS'styrofoam'
p103
tp104
Rp105
I20
I1
tp106
a(g4
(g5
(S'S6'
p107
I0
I1
tp108
Rp109
(I3
S'|'
p110
NNNI6
I1
I0
tp111
bS'column'
p112
tp113
Rp114
I10
I0
tp115
a(g114
I3
I0
tp116
a(g114
I27
I0
tp117
a(g114
I7
I0
tp118
a(g114
I18
I0
tp119
a(g114
I2
I0
tp120
a(g114
I20
I0
tp121
a(g114
I17
I0
tp122
a(g4
(g5
(S'S9'
p123
I0
I1
tp124
Rp125
(I3
S'|'
p126
NNNI9
I1
I0
tp127
bS'container'
p128
tp129
Rp130
I10
I0
tp131
a(g4
(g5
(S'S9'
p132
I0
I1
tp133
Rp134
(I3
S'|'
p135
NNNI9
I1
I0
tp136
bS'container'
p137
tp138
Rp139
I10
I1
tp140
a(g4
(g5
(S'S9'
p141
I0
I1
tp142
Rp143
(I3
S'|'
p144
NNNI9
I1
I0
tp145
bS'container'
p146
tp147
Rp148
I20
I0
tp149
a(g4
(g5
(S'S9'
p150
I0
I1
tp151
Rp152
(I3
S'|'
p153
NNNI9
I1
I0
tp154
bS'container'
p155
tp156
Rp157
I18
I1
tp158
a(g4
(g5
(S'S9'
p159
I0
I1
tp160
Rp161
(I3
S'|'
p162
NNNI9
I1
I0
tp163
bS'rectangle'
p164
tp165
Rp166
I2
I1
tp167
aa(lp168
(S'shown'
p169
S'clear'
p170
I00
tp171
aa.