(lp0
(lp1
(dp2
S'action'
p3
cnumpy.core.multiarray
scalar
p4
(cnumpy
dtype
p5
(S'S4'
p6
I0
I1
tp7
Rp8
(I3
S'|'
p9
NNNI4
I1
I0
tp10
bS'walk'
p11
tp12
Rp13
sS'recipient'
p14
NsS'patient'
p15
NsS'goal'
p16
S'3418'
p17
sS'source'
p18
Nsa(dp19
g3
g4
(g5
(S'S5'
p20
I0
I1
tp21
Rp22
(I3
S'|'
p23
NNNI5
I1
I0
tp24
bS'bring'
p25
tp26
Rp27
sg14
g4
(g5
(S'S1'
p28
I0
I1
tp29
Rp30
(I3
S'|'
p31
NNNI1
I1
I0
tp32
bS's'
p33
tp34
Rp35
sg15
g4
(g5
(S'S6'
p36
I0
I1
tp37
Rp38
(I3
S'|'
p39
NNNI6
I1
I0
tp40
bS'oidx_6'
p41
tp42
Rp43
sg16
Nsg18
Nsaa(lp44
(dp45
S'all'
p46
(lp47
S'go to the office'
p48
asg15
(lp49
sg16
(lp50
S'go to the empty office'
p51
asg18
(lp52
sg3
(lp53
sg14
(lp54
sa(dp55
g46
(lp56
S'bring dr sybil smalt the bottle of pills'
p57
asg15
(lp58
S'the container of medicine'
p59
aS'the container of pills'
p60
aS'the white and red bottle of medicine'
p61
aS'the red and white container'
p62
asg16
(lp63
sg18
(lp64
sg3
(lp65
sg14
(lp66
saa(lp67
(g4
(g5
(S'S5'
p68
I0
I1
tp69
Rp70
(I3
S'|'
p71
NNNI5
I1
I0
tp72
bS'block'
p73
tp74
Rp75
I10
I0
tp76
a(g75
I3
I0
tp77
a(g75
I27
I0
tp78
a(g75
I7
I0
tp79
a(g75
I18
I0
tp80
a(g75
I2
I0
tp81
a(g75
I20
I0
tp82
a(g75
I17
I0
tp83
a(g4
(g5
(S'S4'
p84
I0
I1
tp85
Rp86
(I3
S'|'
p87
NNNI4
I1
I0
tp88
bS'long'
p89
tp90
Rp91
I3
I1
tp92
a(g4
(g5
(S'S5'
p93
I0
I1
tp94
Rp95
(I3
S'|'
p96
NNNI5
I1
I0
tp97
bS'empty'
p98
tp99
Rp100
I7
I1
tp101
a(g4
(g5
(S'S8'
p102
I0
I1
tp103
Rp104
(I3
S'|'
p105
NNNI8
I1
I0
tp106
bS'metallic'
p107
tp108
Rp109
I10
I1
tp110
a(g4
(g5
(S'S5'
p111
I0
I1
tp112
Rp113
(I3
S'|'
p114
NNNI5
I1
I0
tp115
bS'white'
p116
tp117
Rp118
I10
I1
tp119
a(g4
(g5
(S'S9'
p120
I0
I1
tp121
Rp122
(I3
S'|'
p123
NNNI9
I1
I0
tp124
bS'container'
p125
tp126
Rp127
I2
I1
tp128
a(g4
(g5
(S'S9'
p129
I0
I1
tp130
Rp131
(I3
S'|'
p132
NNNI9
I1
I0
tp133
bS'container'
p134
tp135
Rp136
I27
I0
tp137
a(g4
(g5
(S'S9'
p138
I0
I1
tp139
Rp140
(I3
S'|'
p141
NNNI9
I1
I0
tp142
bS'container'
p143
tp144
Rp145
I18
I1
tp146
a(g4
(g5
(S'S9'
p147
I0
I1
tp148
Rp149
(I3
S'|'
p150
NNNI9
I1
I0
tp151
bS'container'
p152
tp153
Rp154
I20
I0
tp155
a(g4
(g5
(S'S9'
p156
I0
I1
tp157
Rp158
(I3
S'|'
p159
NNNI9
I1
I0
tp160
bS'container'
p161
tp162
Rp163
I17
I1
tp164
aa(lp165
(S'bottle'
p166
S'coffee'
p167
I00
tp168
a(g166
S'container'
p169
I01
tp170
a(S'pills'
p171
S'spices'
p172
I00
tp173
a(g171
S'peaches'
p174
I00
tp175
a(g171
g167
I00
tp176
a(S'red'
p177
S'white'
p178
I01
tp179
aa.