(lp0
(lp1
(dp2
S'action'
p3
cnumpy.core.multiarray
scalar
p4
(cnumpy
dtype
p5
(S'S5'
p6
I0
I1
tp7
Rp8
(I3
S'|'
p9
NNNI5
I1
I0
tp10
bS'bring'
p11
tp12
Rp13
sS'recipient'
p14
S's'
p15
sS'patient'
p16
S'oidx_13'
p17
sS'goal'
p18
NsS'source'
p19
Nsa(dp20
g3
g4
(g5
(S'S5'
p21
I0
I1
tp22
Rp23
(I3
S'|'
p24
NNNI5
I1
I0
tp25
bS'bring'
p26
tp27
Rp28
sg14
g4
(g5
(S'S1'
p29
I0
I1
tp30
Rp31
(I3
S'|'
p32
NNNI1
I1
I0
tp33
bS'm'
p34
tp35
Rp36
sg16
S'oidx_6'
p37
sg18
Nsg19
Nsa(dp38
g3
g4
(g5
(S'S4'
p39
I0
I1
tp40
Rp41
(I3
S'|'
p42
NNNI4
I1
I0
tp43
bS'move'
p44
tp45
Rp46
sg14
Nsg16
S'oidx_25'
p47
sg18
S'3510'
p48
sg19
g4
(g5
(S'S4'
p49
I0
I1
tp50
Rp51
(I3
S'|'
p52
NNNI4
I1
I0
tp53
bS'3518'
p54
tp55
Rp56
saa(lp57
(dp58
S'all'
p59
(lp60
S"exit the kitchen move to mallory 's office enter mallory 's office"
p61
asg16
(lp62
S'a napkin'
p63
aS'pringles'
p64
asg18
(lp65
sg19
(lp66
sg3
(lp67
sg14
(lp68
sa(dp69
g59
(lp70
S'deliver aspirin to mallory'
p71
asg16
(lp72
S'white cylinder'
p73
aS'white bottle'
p74
asg18
(lp75
sg19
(lp76
sg3
(lp77
sg14
(lp78
sa(dp79
g59
(lp80
S'take cylinder to pod'
p81
asg16
(lp82
S'cylinder'
p83
aS'other cylinder'
p84
aS'different cylinder'
p85
aS'small bottle'
p86
asg18
(lp87
S'pod nearest you'
p88
asg19
(lp89
S'bob'
p90
aS'near'
p91
aS'near to pod on right'
p92
asg3
(lp93
sg14
(lp94
saa(lp95
(g4
(g5
(S'S8'
p96
I0
I1
tp97
Rp98
(I3
S'|'
p99
NNNI8
I1
I0
tp100
bS'pringles'
p101
tp102
Rp103
I2
I1
tp104
a(g4
(g5
(S'S5'
p105
I0
I1
tp106
Rp107
(I3
S'|'
p108
NNNI5
I1
I0
tp109
bS'white'
p110
tp111
Rp112
I10
I0
tp113
a(g112
I3
I0
tp114
a(g112
I27
I0
tp115
a(g112
I7
I0
tp116
a(g112
I18
I0
tp117
a(g112
I2
I0
tp118
a(g112
I20
I0
tp119
a(g112
I17
I0
tp120
a(g4
(g5
(S'S4'
p121
I0
I1
tp122
Rp123
(I3
S'|'
p124
NNNI4
I1
I0
tp125
bS'blue'
p126
tp127
Rp128
I18
I1
tp129
a(g4
(g5
(S'S9'
p130
I0
I1
tp131
Rp132
(I3
S'|'
p133
NNNI9
I1
I0
tp134
bS'rectangle'
p135
tp136
Rp137
I10
I0
tp138
a(g137
I3
I0
tp139
a(g137
I27
I0
tp140
a(g137
I7
I0
tp141
a(g137
I18
I0
tp142
a(g137
I2
I0
tp143
a(g137
I20
I0
tp144
a(g137
I17
I0
tp145
a(g4
(g5
(S'S6'
p146
I0
I1
tp147
Rp148
(I3
S'|'
p149
NNNI6
I1
I0
tp150
bS'column'
p151
tp152
Rp153
I20
I1
tp154
a(g4
(g5
(S'S8'
p155
I0
I1
tp156
Rp157
(I3
S'|'
p158
NNNI8
I1
I0
tp159
bS'cylinder'
p160
tp161
Rp162
I3
I1
tp163
a(g4
(g5
(S'S6'
p164
I0
I1
tp165
Rp166
(I3
S'|'
p167
NNNI6
I1
I0
tp168
bS'yellow'
p169
tp170
Rp171
I10
I0
tp172
a(g171
I3
I0
tp173
a(g171
I27
I0
tp174
a(g171
I7
I0
tp175
a(g171
I18
I0
tp176
a(g171
I2
I0
tp177
a(g171
I20
I0
tp178
a(g171
I17
I0
tp179
a(g4
(g5
(S'S5'
p180
I0
I1
tp181
Rp182
(I3
S'|'
p183
NNNI5
I1
I0
tp184
bS'block'
p185
tp186
Rp187
I10
I0
tp188
a(g187
I3
I0
tp189
a(g187
I27
I0
tp190
a(g187
I7
I0
tp191
a(g187
I18
I0
tp192
a(g187
I2
I0
tp193
a(g187
I20
I0
tp194
a(g187
I17
I0
tp195
a(g4
(g5
(S'S6'
p196
I0
I1
tp197
Rp198
(I3
S'|'
p199
NNNI6
I1
I0
tp200
bS'coffee'
p201
tp202
Rp203
I2
I1
tp204
a(g4
(g5
(S'S5'
p205
I0
I1
tp206
Rp207
(I3
S'|'
p208
NNNI5
I1
I0
tp209
bS'clear'
p210
tp211
Rp212
I10
I0
tp213
a(g212
I3
I0
tp214
a(g212
I27
I0
tp215
a(g212
I7
I0
tp216
a(g212
I18
I0
tp217
a(g212
I2
I0
tp218
a(g212
I20
I0
tp219
a(g212
I17
I0
tp220
a(g4
(g5
(S'S6'
p221
I0
I1
tp222
Rp223
(I3
S'|'
p224
NNNI6
I1
I0
tp225
bS'coffee'
p226
tp227
Rp228
I27
I0
tp229
a(g4
(g5
(S'S4'
p230
I0
I1
tp231
Rp232
(I3
S'|'
p233
NNNI4
I1
I0
tp234
bS'blue'
p235
tp236
Rp237
I7
I0
tp238
a(g4
(g5
(S'S5'
p239
I0
I1
tp240
Rp241
(I3
S'|'
p242
NNNI5
I1
I0
tp243
bS'tower'
p244
tp245
Rp246
I7
I1
tp247
a(g4
(g5
(S'S9'
p248
I0
I1
tp249
Rp250
(I3
S'|'
p251
NNNI9
I1
I0
tp252
bS'styrofoam'
p253
tp254
Rp255
I20
I1
tp256
a(g4
(g5
(S'S5'
p257
I0
I1
tp258
Rp259
(I3
S'|'
p260
NNNI5
I1
I0
tp261
bS'peach'
p262
tp263
Rp264
I2
I1
tp265
aa(lp266
(S'bottle'
p267
S'coffee'
p268
I00
tp269
a(g267
S'container'
p270
I01
tp271
a(S'different'
p272
S'spice'
p273
I01
tp274
a(S'small'
p275
S'white'
p276
I00
tp277
aa.