(lp0
(lp1
(dp2
S'action'
p3
cnumpy.core.multiarray
scalar
p4
(cnumpy
dtype
p5
(S'S4'
p6
I0
I1
tp7
Rp8
(I3
S'|'
p9
NNNI4
I1
I0
tp10
bS'move'
p11
tp12
Rp13
sS'recipient'
p14
NsS'patient'
p15
S'oidx_22'
p16
sS'goal'
p17
S'3432'
p18
sS'source'
p19
S'3402'
p20
sa(dp21
g3
g4
(g5
(S'S4'
p22
I0
I1
tp23
Rp24
(I3
S'|'
p25
NNNI4
I1
I0
tp26
bS'move'
p27
tp28
Rp29
sg14
Nsg15
S'oidx_6'
p30
sg17
S'3510'
p31
sg19
S'3518'
p32
sa(dp33
g3
g4
(g5
(S'S5'
p34
I0
I1
tp35
Rp36
(I3
S'|'
p37
NNNI5
I1
I0
tp38
bS'bring'
p39
tp40
Rp41
sg14
S'b'
p42
sg15
S'oidx_25'
p43
sg17
Nsg19
Nsaa(lp44
(dp45
S'all'
p46
(lp47
S'yes'
p48
asg15
(lp49
sg17
(lp50
S'yes'
p51
aS'yes'
p52
asg19
(lp53
S'yes'
p54
aS'yes'
p55
asg3
(lp56
sg14
(lp57
sa(dp58
g46
(lp59
S'yes'
p60
asg15
(lp61
sg17
(lp62
S'yes'
p63
aS'yes'
p64
asg19
(lp65
S'yes'
p66
aS'yes'
p67
asg3
(lp68
sg14
(lp69
sa(dp70
g46
(lp71
S'yes'
p72
asg15
(lp73
S'yes'
p74
asg17
(lp75
sg19
(lp76
sg3
(lp77
sg14
(lp78
saa(lp79
(g4
(g5
(S'S8'
p80
I0
I1
tp81
Rp82
(I3
S'|'
p83
NNNI8
I1
I0
tp84
bS'cylinder'
p85
tp86
Rp87
I10
I0
tp88
a(g87
I3
I0
tp89
a(g87
I27
I0
tp90
a(g87
I7
I0
tp91
a(g87
I18
I0
tp92
a(g87
I2
I0
tp93
a(g87
I20
I0
tp94
a(g87
I17
I0
tp95
a(g4
(g5
(S'S6'
p96
I0
I1
tp97
Rp98
(I3
S'|'
p99
NNNI6
I1
I0
tp100
bS'yellow'
p101
tp102
Rp103
I10
I0
tp104
a(g103
I3
I0
tp105
a(g103
I27
I0
tp106
a(g103
I7
I0
tp107
a(g103
I18
I0
tp108
a(g103
I2
I0
tp109
a(g103
I20
I0
tp110
a(g103
I17
I0
tp111
a(g4
(g5
(S'S6'
p112
I0
I1
tp113
Rp114
(I3
S'|'
p115
NNNI6
I1
I0
tp116
bS'coffee'
p117
tp118
Rp119
I20
I1
tp120
a(g4
(g5
(S'S4'
p121
I0
I1
tp122
Rp123
(I3
S'|'
p124
NNNI4
I1
I0
tp125
bS'long'
p126
tp127
Rp128
I10
I0
tp129
a(g128
I3
I0
tp130
a(g128
I27
I0
tp131
a(g128
I7
I0
tp132
a(g128
I18
I0
tp133
a(g128
I2
I0
tp134
a(g128
I20
I0
tp135
a(g128
I17
I0
tp136
a(g4
(g5
(S'S3'
p137
I0
I1
tp138
Rp139
(I3
S'|'
p140
NNNI3
I1
I0
tp141
bS'can'
p142
tp143
Rp144
I7
I1
tp145
a(g4
(g5
(S'S9'
p146
I0
I1
tp147
Rp148
(I3
S'|'
p149
NNNI9
I1
I0
tp150
bS'container'
p151
tp152
Rp153
I10
I0
tp154
a(g153
I3
I0
tp155
a(g153
I27
I0
tp156
a(g153
I7
I0
tp157
a(g153
I18
I0
tp158
a(g153
I2
I0
tp159
a(g153
I20
I0
tp160
a(g153
I17
I0
tp161
a(g4
(g5
(S'S4'
p162
I0
I1
tp163
Rp164
(I3
S'|'
p165
NNNI4
I1
I0
tp166
bS'bean'
p167
tp168
Rp169
I2
I1
tp170
a(g4
(g5
(S'S4'
p171
I0
I1
tp172
Rp173
(I3
S'|'
p174
NNNI4
I1
I0
tp175
bS'bean'
p176
tp177
Rp178
I10
I1
tp179
a(g178
I3
I1
tp180
a(g178
I27
I1
tp181
a(g178
I7
I1
tp182
a(g178
I18
I1
tp183
a(g178
I2
I1
tp184
a(g178
I20
I1
tp185
a(g178
I17
I1
tp186
a(g4
(g5
(S'S4'
p187
I0
I1
tp188
Rp189
(I3
S'|'
p190
NNNI4
I1
I0
tp191
bS'blue'
p192
tp193
Rp194
I17
I1
tp195
a(g4
(g5
(S'S9'
p196
I0
I1
tp197
Rp198
(I3
S'|'
p199
NNNI9
I1
I0
tp200
bS'styrofoam'
p201
tp202
Rp203
I17
I1
tp204
a(g4
(g5
(S'S8'
p205
I0
I1
tp206
Rp207
(I3
S'|'
p208
NNNI8
I1
I0
tp209
bS'metallic'
p210
tp211
Rp212
I10
I0
tp213
a(g212
I3
I0
tp214
a(g212
I27
I0
tp215
a(g212
I7
I0
tp216
a(g212
I18
I0
tp217
a(g212
I2
I0
tp218
a(g212
I20
I0
tp219
a(g212
I17
I0
tp220
a(g4
(g5
(S'S6'
p221
I0
I1
tp222
Rp223
(I3
S'|'
p224
NNNI6
I1
I0
tp225
bS'coffee'
p226
tp227
Rp228
I2
I0
tp229
a(g4
(g5
(S'S3'
p230
I0
I1
tp231
Rp232
(I3
S'|'
p233
NNNI3
I1
I0
tp234
bS'can'
p235
tp236
Rp237
I20
I0
tp238
a(g4
(g5
(S'S5'
p239
I0
I1
tp240
Rp241
(I3
S'|'
p242
NNNI5
I1
I0
tp243
bS'empty'
p244
tp245
Rp246
I20
I1
tp247
a(g4
(g5
(S'S5'
p248
I0
I1
tp249
Rp250
(I3
S'|'
p251
NNNI5
I1
I0
tp252
bS'empty'
p253
tp254
Rp255
I10
I1
tp256
a(g255
I3
I1
tp257
a(g255
I27
I1
tp258
a(g255
I7
I1
tp259
a(g255
I18
I1
tp260
a(g255
I2
I1
tp261
a(g255
I20
I1
tp262
a(g255
I17
I1
tp263
aa(lp264
a.