(lp0
(lp1
(dp2
S'action'
p3
cnumpy.core.multiarray
scalar
p4
(cnumpy
dtype
p5
(S'S4'
p6
I0
I1
tp7
Rp8
(I3
S'|'
p9
NNNI4
I1
I0
tp10
bS'move'
p11
tp12
Rp13
sS'recipient'
p14
NsS'patient'
p15
S'oidx_13'
p16
sS'goal'
p17
S'3508'
p18
sS'source'
p19
S'3504'
p20
saa(lp21
(dp22
S'all'
p23
(lp24
S''
p25
asg15
(lp26
S'no'
p27
asg17
(lp28
S'yes'
p29
asg19
(lp30
S'no'
p31
asg3
(lp32
sg14
(lp33
saa(lp34
(g4
(g5
(S'S5'
p35
I0
I1
tp36
Rp37
(I3
S'|'
p38
NNNI5
I1
I0
tp39
bS'spice'
p40
tp41
Rp42
I10
I0
tp43
a(g42
I3
I0
tp44
a(g42
I27
I0
tp45
a(g42
I7
I0
tp46
a(g42
I18
I0
tp47
a(g42
I2
I0
tp48
a(g42
I20
I0
tp49
a(g42
I17
I0
tp50
a(g4
(g5
(S'S5'
p51
I0
I1
tp52
Rp53
(I3
S'|'
p54
NNNI5
I1
I0
tp55
bS'block'
p56
tp57
Rp58
I20
I1
tp59
a(g4
(g5
(S'S5'
p60
I0
I1
tp61
Rp62
(I3
S'|'
p63
NNNI5
I1
I0
tp64
bS'tower'
p65
tp66
Rp67
I20
I1
tp68
a(g4
(g5
(S'S9'
p69
I0
I1
tp70
Rp71
(I3
S'|'
p72
NNNI9
I1
I0
tp73
bS'container'
p74
tp75
Rp76
I10
I0
tp77
a(g76
I3
I0
tp78
a(g76
I27
I0
tp79
a(g76
I7
I0
tp80
a(g76
I18
I0
tp81
a(g76
I2
I0
tp82
a(g76
I20
I0
tp83
a(g76
I17
I0
tp84
a(g4
(g5
(S'S6'
p85
I0
I1
tp86
Rp87
(I3
S'|'
p88
NNNI6
I1
I0
tp89
bS'yellow'
p90
tp91
Rp92
I10
I0
tp93
a(g92
I3
I0
tp94
a(g92
I27
I0
tp95
a(g92
I7
I0
tp96
a(g92
I18
I0
tp97
a(g92
I2
I0
tp98
a(g92
I20
I0
tp99
a(g92
I17
I0
tp100
aa(lp101
a.