(lp0
(lp1
(dp2
S'action'
p3
cnumpy.core.multiarray
scalar
p4
(cnumpy
dtype
p5
(S'S4'
p6
I0
I1
tp7
Rp8
(I3
S'|'
p9
NNNI4
I1
I0
tp10
bS'walk'
p11
tp12
Rp13
sS'recipient'
p14
NsS'patient'
p15
NsS'goal'
p16
g4
(g5
(S'S4'
p17
I0
I1
tp18
Rp19
(I3
S'|'
p20
NNNI4
I1
I0
tp21
bS'3422'
p22
tp23
Rp24
sS'source'
p25
Nsaa(lp26
(dp27
S'all'
p28
(lp29
S'go to office w'
p30
asg15
(lp31
sg16
(lp32
S'office w'
p33
aS"walter ward supervisor 's office"
p34
asg25
(lp35
sg3
(lp36
sg14
(lp37
saa(lp38
(g4
(g5
(S'S5'
p39
I0
I1
tp40
Rp41
(I3
S'|'
p42
NNNI5
I1
I0
tp43
bS'peach'
p44
tp45
Rp46
I10
I0
tp47
a(g46
I3
I0
tp48
a(g46
I27
I0
tp49
a(g46
I7
I0
tp50
a(g46
I18
I0
tp51
a(g46
I2
I0
tp52
a(g46
I20
I0
tp53
a(g46
I17
I0
tp54
a(g4
(g5
(S'S5'
p55
I0
I1
tp56
Rp57
(I3
S'|'
p58
NNNI5
I1
I0
tp59
bS'empty'
p60
tp61
Rp62
I10
I0
tp63
a(g62
I3
I0
tp64
a(g62
I27
I0
tp65
a(g62
I7
I0
tp66
a(g62
I18
I0
tp67
a(g62
I2
I0
tp68
a(g62
I20
I0
tp69
a(g62
I17
I0
tp70
a(g4
(g5
(S'S4'
p71
I0
I1
tp72
Rp73
(I3
S'|'
p74
NNNI4
I1
I0
tp75
bS'bean'
p76
tp77
Rp78
I10
I0
tp79
a(g78
I3
I0
tp80
a(g78
I27
I0
tp81
a(g78
I7
I0
tp82
a(g78
I18
I0
tp83
a(g78
I2
I0
tp84
a(g78
I20
I0
tp85
a(g78
I17
I0
tp86
a(g4
(g5
(S'S4'
p87
I0
I1
tp88
Rp89
(I3
S'|'
p90
NNNI4
I1
I0
tp91
bS'blue'
p92
tp93
Rp94
I18
I1
tp95
a(g4
(g5
(S'S5'
p96
I0
I1
tp97
Rp98
(I3
S'|'
p99
NNNI5
I1
I0
tp100
bS'white'
p101
tp102
Rp103
I18
I1
tp104
aa(lp105
a.