(lp0
(lp1
(dp2
S'action'
p3
cnumpy.core.multiarray
scalar
p4
(cnumpy
dtype
p5
(S'S4'
p6
I0
I1
tp7
Rp8
(I3
S'|'
p9
NNNI4
I1
I0
tp10
bS'walk'
p11
tp12
Rp13
sS'recipient'
p14
NsS'patient'
p15
NsS'goal'
p16
g4
(g5
(S'S4'
p17
I0
I1
tp18
Rp19
(I3
S'|'
p20
NNNI4
I1
I0
tp21
bS'3420'
p22
tp23
Rp24
sS'source'
p25
Nsaa(lp26
(dp27
S'all'
p28
(lp29
S"walk straight from dr nancy nagel to david 's office"
p30
asg15
(lp31
sg16
(lp32
S"to david 's office"
p33
asg25
(lp34
sg3
(lp35
sg14
(lp36
saa(lp37
(g4
(g5
(S'S6'
p38
I0
I1
tp39
Rp40
(I3
S'|'
p41
NNNI6
I1
I0
tp42
bS'column'
p43
tp44
Rp45
I2
I1
tp46
a(g4
(g5
(S'S5'
p47
I0
I1
tp48
Rp49
(I3
S'|'
p50
NNNI5
I1
I0
tp51
bS'tower'
p52
tp53
Rp54
I7
I1
tp55
a(g4
(g5
(S'S3'
p56
I0
I1
tp57
Rp58
(I3
S'|'
p59
NNNI3
I1
I0
tp60
bS'can'
p61
tp62
Rp63
I27
I1
tp64
a(g4
(g5
(S'S5'
p65
I0
I1
tp66
Rp67
(I3
S'|'
p68
NNNI5
I1
I0
tp69
bS'peach'
p70
tp71
Rp72
I20
I1
tp73
a(g4
(g5
(S'S4'
p74
I0
I1
tp75
Rp76
(I3
S'|'
p77
NNNI4
I1
I0
tp78
bS'long'
p79
tp80
Rp81
I3
I1
tp82
aa(lp83
a.