(lp0
(lp1
(dp2
S'action'
p3
cnumpy.core.multiarray
scalar
p4
(cnumpy
dtype
p5
(S'S4'
p6
I0
I1
tp7
Rp8
(I3
S'|'
p9
NNNI4
I1
I0
tp10
bS'walk'
p11
tp12
Rp13
sS'recipient'
p14
NsS'patient'
p15
NsS'goal'
p16
g4
(g5
(S'S4'
p17
I0
I1
tp18
Rp19
(I3
S'|'
p20
NNNI4
I1
I0
tp21
bS'3518'
p22
tp23
Rp24
sS'source'
p25
Nsa(dp26
g3
g4
(g5
(S'S5'
p27
I0
I1
tp28
Rp29
(I3
S'|'
p30
NNNI5
I1
I0
tp31
bS'bring'
p32
tp33
Rp34
sg14
g4
(g5
(S'S1'
p35
I0
I1
tp36
Rp37
(I3
S'|'
p38
NNNI1
I1
I0
tp39
bS'w'
p40
tp41
Rp42
sg15
g4
(g5
(S'S7'
p43
I0
I1
tp44
Rp45
(I3
S'|'
p46
NNNI7
I1
I0
tp47
bS'oidx_26'
p48
tp49
Rp50
sg16
Nsg25
Nsa(dp51
g3
g4
(g5
(S'S4'
p52
I0
I1
tp53
Rp54
(I3
S'|'
p55
NNNI4
I1
I0
tp56
bS'move'
p57
tp58
Rp59
sg14
Nsg15
S'oidx_6'
p60
sg16
g4
(g5
(S'S4'
p61
I0
I1
tp62
Rp63
(I3
S'|'
p64
NNNI4
I1
I0
tp65
bS'3436'
p66
tp67
Rp68
sg25
g4
(g5
(S'S4'
p69
I0
I1
tp70
Rp71
(I3
S'|'
p72
NNNI4
I1
I0
tp73
bS'3506'
p74
tp75
Rp76
saa(lp77
(dp78
S'all'
p79
(lp80
S'go to the pod'
p81
asg15
(lp82
sg16
(lp83
S'go to the pod'
p84
aS'go to the pod'
p85
asg25
(lp86
sg3
(lp87
sg14
(lp88
sa(dp89
g79
(lp90
S'take the can to walter ward'
p91
asg15
(lp92
S'take the can to walter'
p93
aS'a can'
p94
aS'a can'
p95
aS'a can'
p96
asg16
(lp97
sg25
(lp98
sg3
(lp99
sg14
(lp100
S'walter ward'
p101
aS'walter ward'
p102
aS'walter'
p103
asa(dp104
g79
(lp105
S'take the pill bottle from the printer to the lab'
p106
asg15
(lp107
S'a pill bottle'
p108
aS'a pill bottle'
p109
aS'a pill bottle'
p110
aS'a pill bottle'
p111
aS'a pill bottle'
p112
aS'small bottle'
p113
asg16
(lp114
S'to the lab'
p115
aS'from the printer to the lab'
p116
aS'to the lab'
p117
asg25
(lp118
S'from the printer'
p119
asg3
(lp120
sg14
(lp121
saa(lp122
(g4
(g5
(S'S5'
p123
I0
I1
tp124
Rp125
(I3
S'|'
p126
NNNI5
I1
I0
tp127
bS'empty'
p128
tp129
Rp130
I10
I0
tp131
a(g130
I3
I0
tp132
a(g130
I27
I0
tp133
a(g130
I7
I0
tp134
a(g130
I18
I0
tp135
a(g130
I2
I0
tp136
a(g130
I20
I0
tp137
a(g130
I17
I0
tp138
a(g4
(g5
(S'S4'
p139
I0
I1
tp140
Rp141
(I3
S'|'
p142
NNNI4
I1
I0
tp143
bS'long'
p144
tp145
Rp146
I3
I1
tp147
a(g4
(g5
(S'S5'
p148
I0
I1
tp149
Rp150
(I3
S'|'
p151
NNNI5
I1
I0
tp152
bS'peach'
p153
tp154
Rp155
I27
I1
tp156
a(g4
(g5
(S'S4'
p157
I0
I1
tp158
Rp159
(I3
S'|'
p160
NNNI4
I1
I0
tp161
bS'long'
p162
tp163
Rp164
I27
I0
tp165
a(g4
(g5
(S'S9'
p166
I0
I1
tp167
Rp168
(I3
S'|'
p169
NNNI9
I1
I0
tp170
bS'styrofoam'
p171
tp172
Rp173
I20
I1
tp174
a(g4
(g5
(S'S3'
p175
I0
I1
tp176
Rp177
(I3
S'|'
p178
NNNI3
I1
I0
tp179
bS'can'
p180
tp181
Rp182
I10
I0
tp183
a(g182
I3
I0
tp184
a(g182
I27
I0
tp185
a(g182
I7
I0
tp186
a(g182
I18
I0
tp187
a(g182
I2
I0
tp188
a(g182
I20
I0
tp189
a(g182
I17
I0
tp190
a(g4
(g5
(S'S4'
p191
I0
I1
tp192
Rp193
(I3
S'|'
p194
NNNI4
I1
I0
tp195
bS'long'
p196
tp197
Rp198
I3
I1
tp199
a(g4
(g5
(S'S8'
p200
I0
I1
tp201
Rp202
(I3
S'|'
p203
NNNI8
I1
I0
tp204
bS'cylinder'
p205
tp206
Rp207
I20
I1
tp208
a(g4
(g5
(S'S8'
p209
I0
I1
tp210
Rp211
(I3
S'|'
p212
NNNI8
I1
I0
tp213
bS'cylinder'
p214
tp215
Rp216
I27
I0
tp217
a(g4
(g5
(S'S4'
p218
I0
I1
tp219
Rp220
(I3
S'|'
p221
NNNI4
I1
I0
tp222
bS'long'
p223
tp224
Rp225
I27
I0
tp226
a(g4
(g5
(S'S6'
p227
I0
I1
tp228
Rp229
(I3
S'|'
p230
NNNI6
I1
I0
tp231
bS'yellow'
p232
tp233
Rp234
I10
I0
tp235
a(g234
I3
I0
tp236
a(g234
I27
I0
tp237
a(g234
I7
I0
tp238
a(g234
I18
I0
tp239
a(g234
I2
I0
tp240
a(g234
I20
I0
tp241
a(g234
I17
I0
tp242
a(g4
(g5
(S'S4'
p243
I0
I1
tp244
Rp245
(I3
S'|'
p246
NNNI4
I1
I0
tp247
bS'bean'
p248
tp249
Rp250
I10
I0
tp251
a(g250
I3
I0
tp252
a(g250
I27
I0
tp253
a(g250
I7
I0
tp254
a(g250
I18
I0
tp255
a(g250
I2
I0
tp256
a(g250
I20
I0
tp257
a(g250
I17
I0
tp258
a(g4
(g5
(S'S5'
p259
I0
I1
tp260
Rp261
(I3
S'|'
p262
NNNI5
I1
I0
tp263
bS'white'
p264
tp265
Rp266
I10
I0
tp267
a(g266
I3
I0
tp268
a(g266
I27
I0
tp269
a(g266
I7
I0
tp270
a(g266
I18
I0
tp271
a(g266
I2
I0
tp272
a(g266
I20
I0
tp273
a(g266
I17
I0
tp274
a(g4
(g5
(S'S6'
p275
I0
I1
tp276
Rp277
(I3
S'|'
p278
NNNI6
I1
I0
tp279
bS'coffee'
p280
tp281
Rp282
I2
I1
tp283
a(g4
(g5
(S'S4'
p284
I0
I1
tp285
Rp286
(I3
S'|'
p287
NNNI4
I1
I0
tp288
bS'long'
p289
tp290
Rp291
I3
I1
tp292
aa(lp293
(S'small'
p294
S'white'
p295
I00
tp296
aa.