(lp0
(lp1
(dp2
S'action'
p3
cnumpy.core.multiarray
scalar
p4
(cnumpy
dtype
p5
(S'S5'
p6
I0
I1
tp7
Rp8
(I3
S'|'
p9
NNNI5
I1
I0
tp10
bS'bring'
p11
tp12
Rp13
sS'recipient'
p14
S's'
p15
sS'patient'
p16
S'oidx_26'
p17
sS'goal'
p18
NsS'source'
p19
Nsa(dp20
g3
g4
(g5
(S'S5'
p21
I0
I1
tp22
Rp23
(I3
S'|'
p24
NNNI5
I1
I0
tp25
bS'bring'
p26
tp27
Rp28
sg14
S'w'
p29
sg16
g17
sg18
Nsg19
Nsa(dp30
g3
g4
(g5
(S'S4'
p31
I0
I1
tp32
Rp33
(I3
S'|'
p34
NNNI4
I1
I0
tp35
bS'walk'
p36
tp37
Rp38
sg14
Nsg16
Nsg18
S'3508'
p39
sg19
Nsaa(lp40
(dp41
S'all'
p42
(lp43
S'yes'
p44
asg16
(lp45
S'yes'
p46
aS'yes'
p47
asg18
(lp48
sg19
(lp49
sg3
(lp50
sg14
(lp51
sa(dp52
g42
(lp53
S'yes'
p54
asg16
(lp55
S'yes'
p56
asg18
(lp57
sg19
(lp58
sg3
(lp59
sg14
(lp60
S'yes'
p61
asa(dp62
g42
(lp63
S'yes'
p64
asg16
(lp65
sg18
(lp66
S'yes'
p67
aS'yes'
p68
aS'yes'
p69
aS'yes'
p70
aS'yes'
p71
aS'no'
p72
asg19
(lp73
sg3
(lp74
sg14
(lp75
saa(lp76
(g4
(g5
(S'S4'
p77
I0
I1
tp78
Rp79
(I3
S'|'
p80
NNNI4
I1
I0
tp81
bS'long'
p82
tp83
Rp84
I7
I1
tp85
a(g4
(g5
(S'S4'
p86
I0
I1
tp87
Rp88
(I3
S'|'
p89
NNNI4
I1
I0
tp90
bS'blue'
p91
tp92
Rp93
I2
I1
tp94
a(g4
(g5
(S'S5'
p95
I0
I1
tp96
Rp97
(I3
S'|'
p98
NNNI5
I1
I0
tp99
bS'peach'
p100
tp101
Rp102
I2
I1
tp103
a(g4
(g5
(S'S5'
p104
I0
I1
tp105
Rp106
(I3
S'|'
p107
NNNI5
I1
I0
tp108
bS'clear'
p109
tp110
Rp111
I18
I1
tp112
a(g4
(g5
(S'S6'
p113
I0
I1
tp114
Rp115
(I3
S'|'
p116
NNNI6
I1
I0
tp117
bS'coffee'
p118
tp119
Rp120
I10
I1
tp121
a(g4
(g5
(S'S9'
p122
I0
I1
tp123
Rp124
(I3
S'|'
p125
NNNI9
I1
I0
tp126
bS'rectangle'
p127
tp128
Rp129
I10
I1
tp130
a(g4
(g5
(S'S4'
p131
I0
I1
tp132
Rp133
(I3
S'|'
p134
NNNI4
I1
I0
tp135
bS'bean'
p136
tp137
Rp138
I20
I1
tp139
a(g4
(g5
(S'S8'
p140
I0
I1
tp141
Rp142
(I3
S'|'
p143
NNNI8
I1
I0
tp144
bS'cylinder'
p145
tp146
Rp147
I7
I1
tp148
a(g4
(g5
(S'S9'
p149
I0
I1
tp150
Rp151
(I3
S'|'
p152
NNNI9
I1
I0
tp153
bS'container'
p154
tp155
Rp156
I3
I1
tp157
a(g4
(g5
(S'S5'
p158
I0
I1
tp159
Rp160
(I3
S'|'
p161
NNNI5
I1
I0
tp162
bS'spice'
p163
tp164
Rp165
I17
I1
tp166
a(g4
(g5
(S'S9'
p167
I0
I1
tp168
Rp169
(I3
S'|'
p170
NNNI9
I1
I0
tp171
bS'styrofoam'
p172
tp173
Rp174
I3
I1
tp175
a(g4
(g5
(S'S5'
p176
I0
I1
tp177
Rp178
(I3
S'|'
p179
NNNI5
I1
I0
tp180
bS'peach'
p181
tp182
Rp183
I27
I0
tp184
a(g4
(g5
(S'S5'
p185
I0
I1
tp186
Rp187
(I3
S'|'
p188
NNNI5
I1
I0
tp189
bS'clear'
p190
tp191
Rp192
I18
I0
tp193
a(g4
(g5
(S'S8'
p194
I0
I1
tp195
Rp196
(I3
S'|'
p197
NNNI8
I1
I0
tp198
bS'metallic'
p199
tp200
Rp201
I7
I1
tp202
a(g4
(g5
(S'S5'
p203
I0
I1
tp204
Rp205
(I3
S'|'
p206
NNNI5
I1
I0
tp207
bS'white'
p208
tp209
Rp210
I17
I1
tp211
aa(lp212
a.