(lp0
(lp1
(dp2
S'action'
p3
cnumpy.core.multiarray
scalar
p4
(cnumpy
dtype
p5
(S'S4'
p6
I0
I1
tp7
Rp8
(I3
S'|'
p9
NNNI4
I1
I0
tp10
bS'walk'
p11
tp12
Rp13
sS'recipient'
p14
NsS'patient'
p15
NsS'goal'
p16
S'3510'
p17
sS'source'
p18
Nsa(dp19
g3
g4
(g5
(S'S5'
p20
I0
I1
tp21
Rp22
(I3
S'|'
p23
NNNI5
I1
I0
tp24
bS'bring'
p25
tp26
Rp27
sg14
S'r'
p28
sg15
S'oidx_26'
p29
sg16
Nsg18
Nsa(dp30
g3
g4
(g5
(S'S4'
p31
I0
I1
tp32
Rp33
(I3
S'|'
p34
NNNI4
I1
I0
tp35
bS'move'
p36
tp37
Rp38
sg14
Nsg15
S'oidx_25'
p39
sg16
S'3408'
p40
sg18
S'3410'
p41
saa(lp42
(dp43
S'all'
p44
(lp45
S'go to robert browns office'
p46
asg15
(lp47
sg16
(lp48
S'go to robert browns office'
p49
asg18
(lp50
sg3
(lp51
sg14
(lp52
sa(dp53
g44
(lp54
S'take this object to walter ward'
p55
asg15
(lp56
S'a container'
p57
aS'the container'
p58
asg16
(lp59
sg18
(lp60
sg3
(lp61
sg14
(lp62
sa(dp63
g44
(lp64
S'take the container to the lab'
p65
asg15
(lp66
sg16
(lp67
S'the lab'
p68
aS'lab'
p69
asg18
(lp70
S'from the table'
p71
asg3
(lp72
sg14
(lp73
saa(lp74
(g4
(g5
(S'S4'
p75
I0
I1
tp76
Rp77
(I3
S'|'
p78
NNNI4
I1
I0
tp79
bS'bean'
p80
tp81
Rp82
I10
I0
tp83
a(g82
I3
I0
tp84
a(g82
I27
I0
tp85
a(g82
I7
I0
tp86
a(g82
I18
I0
tp87
a(g82
I2
I0
tp88
a(g82
I20
I0
tp89
a(g82
I17
I0
tp90
a(g4
(g5
(S'S5'
p91
I0
I1
tp92
Rp93
(I3
S'|'
p94
NNNI5
I1
I0
tp95
bS'block'
p96
tp97
Rp98
I18
I1
tp99
a(g4
(g5
(S'S6'
p100
I0
I1
tp101
Rp102
(I3
S'|'
p103
NNNI6
I1
I0
tp104
bS'coffee'
p105
tp106
Rp107
I10
I0
tp108
a(g107
I3
I0
tp109
a(g107
I27
I0
tp110
a(g107
I7
I0
tp111
a(g107
I18
I0
tp112
a(g107
I2
I0
tp113
a(g107
I20
I0
tp114
a(g107
I17
I0
tp115
a(g4
(g5
(S'S5'
p116
I0
I1
tp117
Rp118
(I3
S'|'
p119
NNNI5
I1
I0
tp120
bS'block'
p121
tp122
Rp123
I27
I0
tp124
a(g4
(g5
(S'S8'
p125
I0
I1
tp126
Rp127
(I3
S'|'
p128
NNNI8
I1
I0
tp129
bS'cylinder'
p130
tp131
Rp132
I7
I1
tp133
a(g4
(g5
(S'S9'
p134
I0
I1
tp135
Rp136
(I3
S'|'
p137
NNNI9
I1
I0
tp138
bS'container'
p139
tp140
Rp141
I10
I1
tp142
a(g4
(g5
(S'S9'
p143
I0
I1
tp144
Rp145
(I3
S'|'
p146
NNNI9
I1
I0
tp147
bS'container'
p148
tp149
Rp150
I27
I0
tp151
a(g4
(g5
(S'S9'
p152
I0
I1
tp153
Rp154
(I3
S'|'
p155
NNNI9
I1
I0
tp156
bS'container'
p157
tp158
Rp159
I2
I1
tp160
a(g4
(g5
(S'S9'
p161
I0
I1
tp162
Rp163
(I3
S'|'
p164
NNNI9
I1
I0
tp165
bS'container'
p166
tp167
Rp168
I27
I0
tp169
a(g4
(g5
(S'S9'
p170
I0
I1
tp171
Rp172
(I3
S'|'
p173
NNNI9
I1
I0
tp174
bS'container'
p175
tp176
Rp177
I2
I1
tp178
a(g4
(g5
(S'S9'
p179
I0
I1
tp180
Rp181
(I3
S'|'
p182
NNNI9
I1
I0
tp183
bS'container'
p184
tp185
Rp186
I27
I0
tp187
a(g4
(g5
(S'S9'
p188
I0
I1
tp189
Rp190
(I3
S'|'
p191
NNNI9
I1
I0
tp192
bS'container'
p193
tp194
Rp195
I10
I1
tp196
a(g4
(g5
(S'S9'
p197
I0
I1
tp198
Rp199
(I3
S'|'
p200
NNNI9
I1
I0
tp201
bS'container'
p202
tp203
Rp204
I27
I0
tp205
a(g4
(g5
(S'S9'
p206
I0
I1
tp207
Rp208
(I3
S'|'
p209
NNNI9
I1
I0
tp210
bS'container'
p211
tp212
Rp213
I10
I1
tp214
a(g4
(g5
(S'S9'
p215
I0
I1
tp216
Rp217
(I3
S'|'
p218
NNNI9
I1
I0
tp219
bS'container'
p220
tp221
Rp222
I27
I0
tp223
aa(lp224
(S'object'
p225
S'container'
p226
I01
tp227
aa.