(lp0
(lp1
(dp2
S'action'
p3
cnumpy.core.multiarray
scalar
p4
(cnumpy
dtype
p5
(S'S4'
p6
I0
I1
tp7
Rp8
(I3
S'|'
p9
NNNI4
I1
I0
tp10
bS'walk'
p11
tp12
Rp13
sS'recipient'
p14
NsS'patient'
p15
NsS'goal'
p16
g4
(g5
(S'S4'
p17
I0
I1
tp18
Rp19
(I3
S'|'
p20
NNNI4
I1
I0
tp21
bS'3502'
p22
tp23
Rp24
sS'source'
p25
Nsa(dp26
g3
g4
(g5
(S'S4'
p27
I0
I1
tp28
Rp29
(I3
S'|'
p30
NNNI4
I1
I0
tp31
bS'walk'
p32
tp33
Rp34
sg14
Nsg15
Nsg16
S'3502'
p35
sg25
Nsa(dp36
g3
g4
(g5
(S'S4'
p37
I0
I1
tp38
Rp39
(I3
S'|'
p40
NNNI4
I1
I0
tp41
bS'walk'
p42
tp43
Rp44
sg14
Nsg15
Nsg16
g35
sg25
Nsaa(lp45
(dp46
S'all'
p47
(lp48
S'move'
p49
asg15
(lp50
sg16
(lp51
S'mallory mal maroon'
p52
asg25
(lp53
sg3
(lp54
sg14
(lp55
sa(dp56
g47
(lp57
S'move'
p58
asg15
(lp59
sg16
(lp60
S'mallory mal maroon'
p61
asg25
(lp62
sg3
(lp63
sg14
(lp64
sa(dp65
g47
(lp66
S'move'
p67
asg15
(lp68
sg16
(lp69
S'mallory mal maroon'
p70
asg25
(lp71
sg3
(lp72
sg14
(lp73
saa(lp74
(g4
(g5
(S'S3'
p75
I0
I1
tp76
Rp77
(I3
S'|'
p78
NNNI3
I1
I0
tp79
bS'can'
p80
tp81
Rp82
I10
I0
tp83
a(g82
I3
I0
tp84
a(g82
I27
I0
tp85
a(g82
I7
I0
tp86
a(g82
I18
I0
tp87
a(g82
I2
I0
tp88
a(g82
I20
I0
tp89
a(g82
I17
I0
tp90
a(g4
(g5
(S'S8'
p91
I0
I1
tp92
Rp93
(I3
S'|'
p94
NNNI8
I1
I0
tp95
bS'cylinder'
p96
tp97
Rp98
I17
I1
tp99
a(g4
(g5
(S'S6'
p100
I0
I1
tp101
Rp102
(I3
S'|'
p103
NNNI6
I1
I0
tp104
bS'column'
p105
tp106
Rp107
I20
I1
tp108
a(g4
(g5
(S'S5'
p109
I0
I1
tp110
Rp111
(I3
S'|'
p112
NNNI5
I1
I0
tp113
bS'peach'
p114
tp115
Rp116
I10
I0
tp117
a(g116
I3
I0
tp118
a(g116
I27
I0
tp119
a(g116
I7
I0
tp120
a(g116
I18
I0
tp121
a(g116
I2
I0
tp122
a(g116
I20
I0
tp123
a(g116
I17
I0
tp124
a(g4
(g5
(S'S6'
p125
I0
I1
tp126
Rp127
(I3
S'|'
p128
NNNI6
I1
I0
tp129
bS'column'
p130
tp131
Rp132
I27
I0
tp133
a(g4
(g5
(S'S4'
p134
I0
I1
tp135
Rp136
(I3
S'|'
p137
NNNI4
I1
I0
tp138
bS'long'
p139
tp140
Rp141
I3
I1
tp142
a(g4
(g5
(S'S5'
p143
I0
I1
tp144
Rp145
(I3
S'|'
p146
NNNI5
I1
I0
tp147
bS'clear'
p148
tp149
Rp150
I10
I0
tp151
a(g150
I3
I0
tp152
a(g150
I27
I0
tp153
a(g150
I7
I0
tp154
a(g150
I18
I0
tp155
a(g150
I2
I0
tp156
a(g150
I20
I0
tp157
a(g150
I17
I0
tp158
a(g4
(g5
(S'S5'
p159
I0
I1
tp160
Rp161
(I3
S'|'
p162
NNNI5
I1
I0
tp163
bS'spice'
p164
tp165
Rp166
I10
I0
tp167
a(g166
I3
I0
tp168
a(g166
I27
I0
tp169
a(g166
I7
I0
tp170
a(g166
I18
I0
tp171
a(g166
I2
I0
tp172
a(g166
I20
I0
tp173
a(g166
I17
I0
tp174
a(g4
(g5
(S'S6'
p175
I0
I1
tp176
Rp177
(I3
S'|'
p178
NNNI6
I1
I0
tp179
bS'yellow'
p180
tp181
Rp182
I10
I0
tp183
a(g182
I3
I0
tp184
a(g182
I27
I0
tp185
a(g182
I7
I0
tp186
a(g182
I18
I0
tp187
a(g182
I2
I0
tp188
a(g182
I20
I0
tp189
a(g182
I17
I0
tp190
a(g4
(g5
(S'S4'
p191
I0
I1
tp192
Rp193
(I3
S'|'
p194
NNNI4
I1
I0
tp195
bS'blue'
p196
tp197
Rp198
I18
I1
tp199
a(g4
(g5
(S'S8'
p200
I0
I1
tp201
Rp202
(I3
S'|'
p203
NNNI8
I1
I0
tp204
bS'metallic'
p205
tp206
Rp207
I3
I1
tp208
a(g4
(g5
(S'S4'
p209
I0
I1
tp210
Rp211
(I3
S'|'
p212
NNNI4
I1
I0
tp213
bS'long'
p214
tp215
Rp216
I27
I0
tp217
a(g4
(g5
(S'S6'
p218
I0
I1
tp219
Rp220
(I3
S'|'
p221
NNNI6
I1
I0
tp222
bS'column'
p223
tp224
Rp225
I3
I1
tp226
a(g4
(g5
(S'S6'
p227
I0
I1
tp228
Rp229
(I3
S'|'
p230
NNNI6
I1
I0
tp231
bS'column'
p232
tp233
Rp234
I27
I0
tp235
a(g4
(g5
(S'S8'
p236
I0
I1
tp237
Rp238
(I3
S'|'
p239
NNNI8
I1
I0
tp240
bS'cylinder'
p241
tp242
Rp243
I27
I0
tp244
aa(lp245
a.