(lp0
(lp1
(dp2
S'action'
p3
cnumpy.core.multiarray
scalar
p4
(cnumpy
dtype
p5
(S'S5'
p6
I0
I1
tp7
Rp8
(I3
S'|'
p9
NNNI5
I1
I0
tp10
bS'bring'
p11
tp12
Rp13
sS'recipient'
p14
S's'
p15
sS'patient'
p16
S'oidx_13'
p17
sS'goal'
p18
NsS'source'
p19
Nsaa(lp20
(dp21
S'all'
p22
(lp23
S''
p24
asg16
(lp25
S'no'
p26
aS'yes'
p27
aS'clear to delivered'
p28
aS'yes'
p29
aS'yes'
p30
asg18
(lp31
sg19
(lp32
sg3
(lp33
sg14
(lp34
saa(lp35
(g4
(g5
(S'S8'
p36
I0
I1
tp37
Rp38
(I3
S'|'
p39
NNNI8
I1
I0
tp40
bS'cylinder'
p41
tp42
Rp43
I10
I0
tp44
a(g43
I3
I0
tp45
a(g43
I27
I0
tp46
a(g43
I7
I0
tp47
a(g43
I18
I0
tp48
a(g43
I2
I0
tp49
a(g43
I20
I0
tp50
a(g43
I17
I0
tp51
a(g4
(g5
(S'S9'
p52
I0
I1
tp53
Rp54
(I3
S'|'
p55
NNNI9
I1
I0
tp56
bS'styrofoam'
p57
tp58
Rp59
I3
I1
tp60
a(g4
(g5
(S'S5'
p61
I0
I1
tp62
Rp63
(I3
S'|'
p64
NNNI5
I1
I0
tp65
bS'clear'
p66
tp67
Rp68
I3
I1
tp69
a(g4
(g5
(S'S9'
p70
I0
I1
tp71
Rp72
(I3
S'|'
p73
NNNI9
I1
I0
tp74
bS'rectangle'
p75
tp76
Rp77
I10
I1
tp78
a(g4
(g5
(S'S9'
p79
I0
I1
tp80
Rp81
(I3
S'|'
p82
NNNI9
I1
I0
tp83
bS'rectangle'
p84
tp85
Rp86
I18
I0
tp87
aa(lp88
a.