(lp0
(lp1
(dp2
S'action'
p3
cnumpy.core.multiarray
scalar
p4
(cnumpy
dtype
p5
(S'S4'
p6
I0
I1
tp7
Rp8
(I3
S'|'
p9
NNNI4
I1
I0
tp10
bS'walk'
p11
tp12
Rp13
sS'recipient'
p14
NsS'patient'
p15
NsS'goal'
p16
S'3402'
p17
sS'source'
p18
Nsa(dp19
g3
g4
(g5
(S'S5'
p20
I0
I1
tp21
Rp22
(I3
S'|'
p23
NNNI5
I1
I0
tp24
bS'bring'
p25
tp26
Rp27
sg14
g4
(g5
(S'S1'
p28
I0
I1
tp29
Rp30
(I3
S'|'
p31
NNNI1
I1
I0
tp32
bS'n'
p33
tp34
Rp35
sg15
g4
(g5
(S'S7'
p36
I0
I1
tp37
Rp38
(I3
S'|'
p39
NNNI7
I1
I0
tp40
bS'oidx_26'
p41
tp42
Rp43
sg16
Nsg18
Nsaa(lp44
(dp45
S'all'
p46
(lp47
S"robot should be in dr heidi hughes 's office"
p48
asg15
(lp49
sg16
(lp50
S"dr heidi hughes 's office"
p51
asg18
(lp52
sg3
(lp53
sg14
(lp54
sa(dp55
g46
(lp56
S'deliver the can to dr nancy nagel'
p57
asg15
(lp58
S'can'
p59
aS'coke can'
p60
aS'soda'
p61
aS'drink'
p62
asg16
(lp63
sg18
(lp64
sg3
(lp65
sg14
(lp66
saa(lp67
(g4
(g5
(S'S5'
p68
I0
I1
tp69
Rp70
(I3
S'|'
p71
NNNI5
I1
I0
tp72
bS'white'
p73
tp74
Rp75
I10
I0
tp76
a(g75
I3
I0
tp77
a(g75
I27
I0
tp78
a(g75
I7
I0
tp79
a(g75
I18
I0
tp80
a(g75
I2
I0
tp81
a(g75
I20
I0
tp82
a(g75
I17
I0
tp83
a(g4
(g5
(S'S5'
p84
I0
I1
tp85
Rp86
(I3
S'|'
p87
NNNI5
I1
I0
tp88
bS'block'
p89
tp90
Rp91
I10
I0
tp92
a(g91
I3
I0
tp93
a(g91
I27
I0
tp94
a(g91
I7
I0
tp95
a(g91
I18
I0
tp96
a(g91
I2
I0
tp97
a(g91
I20
I0
tp98
a(g91
I17
I0
tp99
a(g4
(g5
(S'S4'
p100
I0
I1
tp101
Rp102
(I3
S'|'
p103
NNNI4
I1
I0
tp104
bS'long'
p105
tp106
Rp107
I3
I1
tp108
a(g4
(g5
(S'S6'
p109
I0
I1
tp110
Rp111
(I3
S'|'
p112
NNNI6
I1
I0
tp113
bS'yellow'
p114
tp115
Rp116
I10
I0
tp117
a(g116
I3
I0
tp118
a(g116
I27
I0
tp119
a(g116
I7
I0
tp120
a(g116
I18
I0
tp121
a(g116
I2
I0
tp122
a(g116
I20
I0
tp123
a(g116
I17
I0
tp124
a(g4
(g5
(S'S9'
p125
I0
I1
tp126
Rp127
(I3
S'|'
p128
NNNI9
I1
I0
tp129
bS'container'
p130
tp131
Rp132
I2
I1
tp133
a(g4
(g5
(S'S3'
p134
I0
I1
tp135
Rp136
(I3
S'|'
p137
NNNI3
I1
I0
tp138
bS'can'
p139
tp140
Rp141
I10
I0
tp142
a(g141
I3
I0
tp143
a(g141
I27
I0
tp144
a(g141
I7
I0
tp145
a(g141
I18
I0
tp146
a(g141
I2
I0
tp147
a(g141
I20
I0
tp148
a(g141
I17
I0
tp149
a(g4
(g5
(S'S6'
p150
I0
I1
tp151
Rp152
(I3
S'|'
p153
NNNI6
I1
I0
tp154
bS'coffee'
p155
tp156
Rp157
I10
I0
tp158
a(g157
I3
I0
tp159
a(g157
I27
I0
tp160
a(g157
I7
I0
tp161
a(g157
I18
I0
tp162
a(g157
I2
I0
tp163
a(g157
I20
I0
tp164
a(g157
I17
I0
tp165
a(g4
(g5
(S'S8'
p166
I0
I1
tp167
Rp168
(I3
S'|'
p169
NNNI8
I1
I0
tp170
bS'cylinder'
p171
tp172
Rp173
I3
I1
tp174
a(g4
(g5
(S'S9'
p175
I0
I1
tp176
Rp177
(I3
S'|'
p178
NNNI9
I1
I0
tp179
bS'rectangle'
p180
tp181
Rp182
I10
I0
tp183
a(g182
I3
I0
tp184
a(g182
I27
I0
tp185
a(g182
I7
I0
tp186
a(g182
I18
I0
tp187
a(g182
I2
I0
tp188
a(g182
I20
I0
tp189
a(g182
I17
I0
tp190
a(g4
(g5
(S'S5'
p191
I0
I1
tp192
Rp193
(I3
S'|'
p194
NNNI5
I1
I0
tp195
bS'tower'
p196
tp197
Rp198
I10
I0
tp199
a(g198
I3
I0
tp200
a(g198
I27
I0
tp201
a(g198
I7
I0
tp202
a(g198
I18
I0
tp203
a(g198
I2
I0
tp204
a(g198
I20
I0
tp205
a(g198
I17
I0
tp206
aa(lp207
(S'coke'
p208
S'bean'
p209
I00
tp210
a(g208
S'coffee'
p211
I00
tp212
a(g208
S'container'
p213
I00
tp214
a(g61
g209
I00
tp215
a(g61
g211
I00
tp216
a(g61
S'robot'
p217
I00
tp218
a(g62
g211
I00
tp219
a(g62
g217
I00
tp220
a(g62
S'should'
p221
I00
tp222
aa.