(lp0
(I1
I10
I0
tp1
a(I1
I3
I0
tp2
a(I1
I27
I0
tp3
a(I1
I7
I0
tp4
a(I1
I18
I0
tp5
a(I1
I2
I0
tp6
a(I1
I20
I0
tp7
a(I1
I17
I0
tp8
a(I16
I10
I0
tp9
a(I16
I3
I0
tp10
a(I16
I27
I0
tp11
a(I16
I7
I0
tp12
a(I16
I18
I0
tp13
a(I16
I2
I0
tp14
a(I16
I20
I0
tp15
a(I16
I17
I0
tp16
a(I14
I17
I1
tp17
a(I15
I2
I1
tp18
a(I6
I18
I1
tp19
a(I2
I27
I1
tp20
a(I17
I7
I1
tp21
a(I2
I18
I0
tp22
a(I2
I3
I1
tp23
a(I8
I20
I1
tp24
a(I8
I3
I0
tp25
a(I4
I2
I1
tp26
a(I18
I3
I1
tp27
a(I17
I7
I0
tp28
a(I7
I20
I1
tp29
a(I12
I10
I0
tp30
a(I12
I3
I0
tp31
a(I12
I27
I0
tp32
a(I12
I7
I0
tp33
a(I12
I18
I0
tp34
a(I12
I2
I0
tp35
a(I12
I20
I0
tp36
a(I12
I17
I0
tp37
a(I0
I10
I1
tp38
a(I2
I18
I1
tp39
a(I13
I3
I1
tp40
a(I9
I2
I1
tp41
a(I18
I27
I1
tp42
a(I4
I18
I1
tp43
a(I16
I10
I0
tp44
a(I16
I3
I0
tp45
a(I16
I27
I0
tp46
a(I16
I7
I0
tp47
a(I16
I18
I0
tp48
a(I16
I2
I0
tp49
a(I16
I20
I0
tp50
a(I16
I17
I0
tp51
a(I18
I2
I0
tp52
a(I6
I2
I1
tp53
a(I3
I10
I0
tp54
a(I3
I3
I0
tp55
a(I3
I27
I0
tp56
a(I3
I7
I0
tp57
a(I3
I18
I0
tp58
a(I3
I2
I0
tp59
a(I3
I20
I0
tp60
a(I3
I17
I0
tp61
a(I14
I10
I0
tp62
a(I14
I3
I0
tp63
a(I14
I27
I0
tp64
a(I14
I7
I0
tp65
a(I14
I18
I0
tp66
a(I14
I2
I0
tp67
a(I14
I20
I0
tp68
a(I14
I17
I0
tp69
a(I5
I18
I1
tp70
a(I9
I2
I0
tp71
a(I7
I3
I1
tp72
a(I11
I10
I0
tp73
a(I11
I3
I0
tp74
a(I11
I27
I0
tp75
a(I11
I7
I0
tp76
a(I11
I18
I0
tp77
a(I11
I2
I0
tp78
a(I11
I20
I0
tp79
a(I11
I17
I0
tp80
a(I4
I10
I1
tp81
a(I12
I20
I1
tp82
a(I19
I3
I1
tp83
a(I18
I10
I0
tp84
a(I18
I3
I0
tp85
a(I18
I27
I0
tp86
a(I18
I7
I0
tp87
a(I18
I18
I0
tp88
a(I18
I2
I0
tp89
a(I18
I20
I0
tp90
a(I18
I17
I0
tp91
a(I4
I2
I0
tp92
a(I4
I2
I1
tp93
a(I4
I20
I0
tp94
a(I4
I10
I1
tp95
a(I4
I27
I0
tp96
a(I10
I10
I0
tp97
a(I10
I3
I0
tp98
a(I10
I27
I0
tp99
a(I10
I7
I0
tp100
a(I10
I18
I0
tp101
a(I10
I2
I0
tp102
a(I10
I20
I0
tp103
a(I10
I17
I0
tp104
a(I4
I10
I1
tp105
a(I4
I20
I0
tp106
a(I8
I3
I1
tp107
a(I0
I10
I0
tp108
a(I0
I3
I0
tp109
a(I0
I27
I0
tp110
a(I0
I7
I0
tp111
a(I0
I18
I0
tp112
a(I0
I2
I0
tp113
a(I0
I20
I0
tp114
a(I0
I17
I0
tp115
a(I4
I2
I1
tp116
a(I12
I20
I1
tp117
a(I19
I10
I0
tp118
a(I19
I3
I0
tp119
a(I19
I27
I0
tp120
a(I19
I7
I0
tp121
a(I19
I18
I0
tp122
a(I19
I2
I0
tp123
a(I19
I20
I0
tp124
a(I19
I17
I0
tp125
a(I13
I10
I0
tp126
a(I13
I3
I0
tp127
a(I13
I27
I0
tp128
a(I13
I7
I0
tp129
a(I13
I18
I0
tp130
a(I13
I2
I0
tp131
a(I13
I20
I0
tp132
a(I13
I17
I0
tp133
a(I7
I3
I1
tp134
a(I8
I20
I1
tp135
a(I8
I27
I0
tp136
a(I8
I18
I1
tp137
a(I8
I17
I1
tp138
a(I8
I3
I1
tp139
a(I15
I10
I0
tp140
a(I15
I3
I0
tp141
a(I15
I27
I0
tp142
a(I15
I7
I0
tp143
a(I15
I18
I0
tp144
a(I15
I2
I0
tp145
a(I15
I20
I0
tp146
a(I15
I17
I0
tp147
a(I18
I10
I0
tp148
a(I18
I3
I0
tp149
a(I18
I27
I0
tp150
a(I18
I7
I0
tp151
a(I18
I18
I0
tp152
a(I18
I2
I0
tp153
a(I18
I20
I0
tp154
a(I18
I17
I0
tp155
a(I11
I10
I0
tp156
a(I11
I3
I0
tp157
a(I11
I27
I0
tp158
a(I11
I7
I0
tp159
a(I11
I18
I0
tp160
a(I11
I2
I0
tp161
a(I11
I20
I0
tp162
a(I11
I17
I0
tp163
a(I5
I18
I1
tp164
a(I7
I27
I0
tp165
a(I1
I2
I1
tp166
a(I13
I10
I0
tp167
a(I13
I3
I0
tp168
a(I13
I27
I0
tp169
a(I13
I7
I0
tp170
a(I13
I18
I0
tp171
a(I13
I2
I0
tp172
a(I13
I20
I0
tp173
a(I13
I17
I0
tp174
a(I12
I20
I1
tp175
a(I9
I10
I1
tp176
a(I9
I27
I0
tp177
a(I16
I10
I0
tp178
a(I16
I3
I0
tp179
a(I16
I27
I0
tp180
a(I16
I7
I0
tp181
a(I16
I18
I0
tp182
a(I16
I2
I0
tp183
a(I16
I20
I0
tp184
a(I16
I17
I0
tp185
a(I11
I10
I0
tp186
a(I11
I3
I0
tp187
a(I11
I27
I0
tp188
a(I11
I7
I0
tp189
a(I11
I18
I0
tp190
a(I11
I2
I0
tp191
a(I11
I20
I0
tp192
a(I11
I17
I0
tp193
a(I15
I10
I0
tp194
a(I15
I3
I0
tp195
a(I15
I27
I0
tp196
a(I15
I7
I0
tp197
a(I15
I18
I0
tp198
a(I15
I2
I0
tp199
a(I15
I20
I0
tp200
a(I15
I17
I0
tp201
a(I6
I10
I0
tp202
a(I6
I3
I0
tp203
a(I6
I27
I0
tp204
a(I6
I7
I0
tp205
a(I6
I18
I0
tp206
a(I6
I2
I0
tp207
a(I6
I20
I0
tp208
a(I6
I17
I0
tp209
a(I1
I27
I0
tp210
a(I18
I10
I0
tp211
a(I18
I3
I0
tp212
a(I18
I27
I0
tp213
a(I18
I7
I0
tp214
a(I18
I18
I0
tp215
a(I18
I2
I0
tp216
a(I18
I20
I0
tp217
a(I18
I17
I0
tp218
a(I14
I10
I0
tp219
a(I14
I3
I0
tp220
a(I14
I27
I0
tp221
a(I14
I7
I0
tp222
a(I14
I18
I0
tp223
a(I14
I2
I0
tp224
a(I14
I20
I0
tp225
a(I14
I17
I0
tp226
a(I0
I10
I0
tp227
a(I0
I3
I0
tp228
a(I0
I27
I0
tp229
a(I0
I7
I0
tp230
a(I0
I18
I0
tp231
a(I0
I2
I0
tp232
a(I0
I20
I0
tp233
a(I0
I17
I0
tp234
a(I3
I10
I0
tp235
a(I3
I3
I0
tp236
a(I3
I27
I0
tp237
a(I3
I7
I0
tp238
a(I3
I18
I0
tp239
a(I3
I2
I0
tp240
a(I3
I20
I0
tp241
a(I3
I17
I0
tp242
a(I4
I2
I1
tp243
a(I12
I10
I0
tp244
a(I12
I3
I0
tp245
a(I12
I27
I0
tp246
a(I12
I7
I0
tp247
a(I12
I18
I0
tp248
a(I12
I2
I0
tp249
a(I12
I20
I0
tp250
a(I12
I17
I0
tp251
a(I5
I18
I1
tp252
a(I8
I7
I1
tp253
a(I19
I2
I1
tp254
a(I9
I10
I0
tp255
a(I9
I3
I0
tp256
a(I9
I27
I0
tp257
a(I9
I7
I0
tp258
a(I9
I18
I0
tp259
a(I9
I2
I0
tp260
a(I9
I20
I0
tp261
a(I9
I17
I0
tp262
a(I4
I17
I1
tp263
a(I13
I10
I0
tp264
a(I13
I3
I0
tp265
a(I13
I27
I0
tp266
a(I13
I7
I0
tp267
a(I13
I18
I0
tp268
a(I13
I2
I0
tp269
a(I13
I20
I0
tp270
a(I13
I17
I0
tp271
a(I15
I10
I0
tp272
a(I15
I3
I0
tp273
a(I15
I27
I0
tp274
a(I15
I7
I0
tp275
a(I15
I18
I0
tp276
a(I15
I2
I0
tp277
a(I15
I20
I0
tp278
a(I15
I17
I0
tp279
a(I3
I10
I0
tp280
a(I3
I3
I0
tp281
a(I3
I27
I0
tp282
a(I3
I7
I0
tp283
a(I3
I18
I0
tp284
a(I3
I2
I0
tp285
a(I3
I20
I0
tp286
a(I3
I17
I0
tp287
a(I7
I10
I0
tp288
a(I7
I3
I0
tp289
a(I7
I27
I0
tp290
a(I7
I7
I0
tp291
a(I7
I18
I0
tp292
a(I7
I2
I0
tp293
a(I7
I20
I0
tp294
a(I7
I17
I0
tp295
a(I2
I10
I0
tp296
a(I2
I3
I0
tp297
a(I2
I27
I0
tp298
a(I2
I7
I0
tp299
a(I2
I18
I0
tp300
a(I2
I2
I0
tp301
a(I2
I20
I0
tp302
a(I2
I17
I0
tp303
a(I10
I10
I0
tp304
a(I10
I3
I0
tp305
a(I10
I27
I0
tp306
a(I10
I7
I0
tp307
a(I10
I18
I0
tp308
a(I10
I2
I0
tp309
a(I10
I20
I0
tp310
a(I10
I17
I0
tp311
a(I17
I10
I0
tp312
a(I17
I3
I0
tp313
a(I17
I27
I0
tp314
a(I17
I7
I0
tp315
a(I17
I18
I0
tp316
a(I17
I2
I0
tp317
a(I17
I20
I0
tp318
a(I17
I17
I0
tp319
a(I4
I10
I1
tp320
a(I4
I3
I1
tp321
a(I4
I27
I1
tp322
a(I4
I7
I1
tp323
a(I4
I18
I1
tp324
a(I4
I2
I1
tp325
a(I4
I20
I1
tp326
a(I4
I17
I1
tp327
a(I11
I10
I0
tp328
a(I11
I3
I0
tp329
a(I11
I27
I0
tp330
a(I11
I7
I0
tp331
a(I11
I18
I0
tp332
a(I11
I2
I0
tp333
a(I11
I20
I0
tp334
a(I11
I17
I0
tp335
a(I14
I10
I0
tp336
a(I14
I3
I0
tp337
a(I14
I27
I0
tp338
a(I14
I7
I0
tp339
a(I14
I18
I0
tp340
a(I14
I2
I0
tp341
a(I14
I20
I0
tp342
a(I14
I17
I0
tp343
a(I16
I10
I0
tp344
a(I16
I3
I0
tp345
a(I16
I27
I0
tp346
a(I16
I7
I0
tp347
a(I16
I18
I0
tp348
a(I16
I2
I0
tp349
a(I16
I20
I0
tp350
a(I16
I17
I0
tp351
a(I17
I10
I0
tp352
a(I17
I3
I0
tp353
a(I17
I27
I0
tp354
a(I17
I7
I0
tp355
a(I17
I18
I0
tp356
a(I17
I2
I0
tp357
a(I17
I20
I0
tp358
a(I17
I17
I0
tp359
a(I13
I10
I0
tp360
a(I13
I3
I0
tp361
a(I13
I27
I0
tp362
a(I13
I7
I0
tp363
a(I13
I18
I0
tp364
a(I13
I2
I0
tp365
a(I13
I20
I0
tp366
a(I13
I17
I0
tp367
a(I4
I2
I1
tp368
a(I19
I10
I0
tp369
a(I19
I3
I0
tp370
a(I19
I27
I0
tp371
a(I19
I7
I0
tp372
a(I19
I18
I0
tp373
a(I19
I2
I0
tp374
a(I19
I20
I0
tp375
a(I19
I17
I0
tp376
a(I5
I18
I1
tp377
a(I9
I10
I0
tp378
a(I9
I3
I0
tp379
a(I9
I27
I0
tp380
a(I9
I7
I0
tp381
a(I9
I18
I0
tp382
a(I9
I2
I0
tp383
a(I9
I20
I0
tp384
a(I9
I17
I0
tp385
a(I5
I27
I0
tp386
a(I18
I10
I0
tp387
a(I18
I3
I0
tp388
a(I18
I27
I0
tp389
a(I18
I7
I0
tp390
a(I18
I18
I0
tp391
a(I18
I2
I0
tp392
a(I18
I20
I0
tp393
a(I18
I17
I0
tp394
a(I8
I3
I1
tp395
a(I12
I20
I1
tp396
a(I8
I27
I0
tp397
a(I10
I27
I1
tp398
a(I9
I17
I1
tp399
a(I12
I3
I1
tp400
a(I3
I2
I1
tp401
a(I12
I2
I0
tp402
a(I5
I7
I1
tp403
a(I15
I18
I1
tp404
a(I1
I18
I1
tp405
a(I2
I27
I1
tp406
a(I19
I27
I1
tp407
a(I15
I7
I0
tp408
a(I18
I7
I1
tp409
a(I17
I18
I1
tp410
a(I19
I27
I0
tp411
a(I11
I27
I1
tp412
a(I13
I7
I1
tp413
a(I14
I10
I0
tp414
a(I14
I3
I0
tp415
a(I14
I27
I0
tp416
a(I14
I7
I0
tp417
a(I14
I18
I0
tp418
a(I14
I2
I0
tp419
a(I14
I20
I0
tp420
a(I14
I17
I0
tp421
a(I2
I10
I0
tp422
a(I2
I3
I0
tp423
a(I2
I27
I0
tp424
a(I2
I7
I0
tp425
a(I2
I18
I0
tp426
a(I2
I2
I0
tp427
a(I2
I20
I0
tp428
a(I2
I17
I0
tp429
a(I4
I10
I1
tp430
a(I9
I2
I1
tp431
a(I4
I10
I0
tp432
a(I4
I10
I1
tp433
a(I4
I2
I0
tp434
a(I4
I10
I1
tp435
a(I4
I2
I0
tp436
a(I4
I10
I1
tp437
a(I19
I10
I0
tp438
a(I19
I3
I0
tp439
a(I19
I27
I0
tp440
a(I19
I7
I0
tp441
a(I19
I18
I0
tp442
a(I19
I2
I0
tp443
a(I19
I20
I0
tp444
a(I19
I17
I0
tp445
a(I16
I20
I1
tp446
a(I17
I10
I0
tp447
a(I17
I3
I0
tp448
a(I17
I27
I0
tp449
a(I17
I7
I0
tp450
a(I17
I18
I0
tp451
a(I17
I2
I0
tp452
a(I17
I20
I0
tp453
a(I17
I17
I0
tp454
a(I6
I10
I0
tp455
a(I6
I3
I0
tp456
a(I6
I27
I0
tp457
a(I6
I7
I0
tp458
a(I6
I18
I0
tp459
a(I6
I2
I0
tp460
a(I6
I20
I0
tp461
a(I6
I17
I0
tp462
a(I0
I10
I0
tp463
a(I0
I3
I0
tp464
a(I0
I27
I0
tp465
a(I0
I7
I0
tp466
a(I0
I18
I0
tp467
a(I0
I2
I0
tp468
a(I0
I20
I0
tp469
a(I0
I17
I0
tp470
a(I18
I3
I1
tp471
a(I6
I2
I1
tp472
a(I19
I10
I1
tp473
a(I10
I10
I1
tp474
a(I8
I10
I0
tp475
a(I8
I3
I0
tp476
a(I8
I27
I0
tp477
a(I8
I7
I0
tp478
a(I8
I18
I0
tp479
a(I8
I2
I0
tp480
a(I8
I20
I0
tp481
a(I8
I17
I0
tp482
a(I14
I17
I1
tp483
a(I15
I17
I1
tp484
a(I12
I7
I1
tp485
a(I17
I10
I0
tp486
a(I17
I3
I0
tp487
a(I17
I27
I0
tp488
a(I17
I7
I0
tp489
a(I17
I18
I0
tp490
a(I17
I2
I0
tp491
a(I17
I20
I0
tp492
a(I17
I17
I0
tp493
a(I1
I10
I1
tp494
a(I7
I10
I1
tp495
a(I11
I3
I1
tp496
a(I4
I7
I1
tp497
a(I13
I20
I1
tp498
a(I19
I17
I0
tp499
a(I13
I3
I1
tp500
a(I16
I3
I1
tp501
a(I9
I2
I1
tp502
a(I0
I10
I0
tp503
a(I0
I3
I0
tp504
a(I0
I27
I0
tp505
a(I0
I7
I0
tp506
a(I0
I18
I0
tp507
a(I0
I2
I0
tp508
a(I0
I20
I0
tp509
a(I0
I17
I0
tp510
a(I12
I10
I0
tp511
a(I12
I3
I0
tp512
a(I12
I27
I0
tp513
a(I12
I7
I0
tp514
a(I12
I18
I0
tp515
a(I12
I2
I0
tp516
a(I12
I20
I0
tp517
a(I12
I17
I0
tp518
a(I8
I3
I1
tp519
a(I7
I10
I0
tp520
a(I7
I3
I0
tp521
a(I7
I27
I0
tp522
a(I7
I7
I0
tp523
a(I7
I18
I0
tp524
a(I7
I2
I0
tp525
a(I7
I20
I0
tp526
a(I7
I17
I0
tp527
a(I19
I10
I0
tp528
a(I19
I3
I0
tp529
a(I19
I27
I0
tp530
a(I19
I7
I0
tp531
a(I19
I18
I0
tp532
a(I19
I2
I0
tp533
a(I19
I20
I0
tp534
a(I19
I17
I0
tp535
a(I5
I18
I1
tp536
a(I9
I27
I0
tp537
a(I3
I10
I0
tp538
a(I3
I3
I0
tp539
a(I3
I27
I0
tp540
a(I3
I7
I0
tp541
a(I3
I18
I0
tp542
a(I3
I2
I0
tp543
a(I3
I20
I0
tp544
a(I3
I17
I0
tp545
a(I6
I10
I0
tp546
a(I6
I3
I0
tp547
a(I6
I27
I0
tp548
a(I6
I7
I0
tp549
a(I6
I18
I0
tp550
a(I6
I2
I0
tp551
a(I6
I20
I0
tp552
a(I6
I17
I0
tp553
a(I9
I2
I1
tp554
a(I13
I27
I0
tp555
a(I11
I10
I0
tp556
a(I11
I3
I0
tp557
a(I11
I27
I0
tp558
a(I11
I7
I0
tp559
a(I11
I18
I0
tp560
a(I11
I2
I0
tp561
a(I11
I20
I0
tp562
a(I11
I17
I0
tp563
a(I3
I10
I0
tp564
a(I3
I3
I0
tp565
a(I3
I27
I0
tp566
a(I3
I7
I0
tp567
a(I3
I18
I0
tp568
a(I3
I2
I0
tp569
a(I3
I20
I0
tp570
a(I3
I17
I0
tp571
a(I19
I10
I0
tp572
a(I19
I3
I0
tp573
a(I19
I27
I0
tp574
a(I19
I7
I0
tp575
a(I19
I18
I0
tp576
a(I19
I2
I0
tp577
a(I19
I20
I0
tp578
a(I19
I17
I0
tp579
a(I7
I3
I1
tp580
a(I9
I10
I0
tp581
a(I9
I3
I0
tp582
a(I9
I27
I0
tp583
a(I9
I7
I0
tp584
a(I9
I18
I0
tp585
a(I9
I2
I0
tp586
a(I9
I20
I0
tp587
a(I9
I17
I0
tp588
a(I17
I10
I0
tp589
a(I17
I3
I0
tp590
a(I17
I27
I0
tp591
a(I17
I7
I0
tp592
a(I17
I18
I0
tp593
a(I17
I2
I0
tp594
a(I17
I20
I0
tp595
a(I17
I17
I0
tp596
a(I14
I10
I0
tp597
a(I14
I3
I0
tp598
a(I14
I27
I0
tp599
a(I14
I7
I0
tp600
a(I14
I18
I0
tp601
a(I14
I2
I0
tp602
a(I14
I20
I0
tp603
a(I14
I17
I0
tp604
a(I7
I18
I0
tp605
a(I7
I3
I1
tp606
a(I7
I2
I0
tp607
a(I7
I7
I1
tp608
a(I16
I20
I1
tp609
a(I8
I3
I1
tp610
a(I5
I18
I1
tp611
a(I10
I10
I0
tp612
a(I10
I3
I0
tp613
a(I10
I27
I0
tp614
a(I10
I7
I0
tp615
a(I10
I18
I0
tp616
a(I10
I2
I0
tp617
a(I10
I20
I0
tp618
a(I10
I17
I0
tp619
a(I6
I10
I0
tp620
a(I6
I3
I0
tp621
a(I6
I27
I0
tp622
a(I6
I7
I0
tp623
a(I6
I18
I0
tp624
a(I6
I2
I0
tp625
a(I6
I20
I0
tp626
a(I6
I17
I0
tp627
a(I8
I3
I1
tp628
a(I12
I3
I1
tp629
a(I18
I10
I0
tp630
a(I18
I3
I0
tp631
a(I18
I27
I0
tp632
a(I18
I7
I0
tp633
a(I18
I18
I0
tp634
a(I18
I2
I0
tp635
a(I18
I20
I0
tp636
a(I18
I17
I0
tp637
a(I17
I3
I1
tp638
a(I10
I10
I0
tp639
a(I10
I3
I0
tp640
a(I10
I27
I0
tp641
a(I10
I7
I0
tp642
a(I10
I18
I0
tp643
a(I10
I2
I0
tp644
a(I10
I20
I0
tp645
a(I10
I17
I0
tp646
a(I15
I10
I0
tp647
a(I15
I3
I0
tp648
a(I15
I27
I0
tp649
a(I15
I7
I0
tp650
a(I15
I18
I0
tp651
a(I15
I2
I0
tp652
a(I15
I20
I0
tp653
a(I15
I17
I0
tp654
a(I2
I10
I0
tp655
a(I2
I3
I0
tp656
a(I2
I27
I0
tp657
a(I2
I7
I0
tp658
a(I2
I18
I0
tp659
a(I2
I2
I0
tp660
a(I2
I20
I0
tp661
a(I2
I17
I0
tp662
a(I16
I20
I1
tp663
a(I1
I2
I1
tp664
a(I7
I3
I1
tp665
a(I12
I2
I0
tp666
a(I11
I2
I1
tp667
a(I5
I18
I1
tp668
a(I17
I10
I1
tp669
a(I17
I3
I1
tp670
a(I17
I27
I1
tp671
a(I17
I7
I1
tp672
a(I17
I18
I1
tp673
a(I17
I2
I1
tp674
a(I17
I20
I1
tp675
a(I17
I17
I1
tp676
a(I0
I10
I0
tp677
a(I0
I3
I0
tp678
a(I0
I27
I0
tp679
a(I0
I7
I0
tp680
a(I0
I18
I0
tp681
a(I0
I2
I0
tp682
a(I0
I20
I0
tp683
a(I0
I17
I0
tp684
a(I16
I10
I0
tp685
a(I16
I3
I0
tp686
a(I16
I27
I0
tp687
a(I16
I7
I0
tp688
a(I16
I18
I0
tp689
a(I16
I2
I0
tp690
a(I16
I20
I0
tp691
a(I16
I17
I0
tp692
a(I5
I18
I1
tp693
a(I12
I10
I0
tp694
a(I12
I3
I0
tp695
a(I12
I27
I0
tp696
a(I12
I7
I0
tp697
a(I12
I18
I0
tp698
a(I12
I2
I0
tp699
a(I12
I20
I0
tp700
a(I12
I17
I0
tp701
a(I0
I10
I0
tp702
a(I0
I3
I0
tp703
a(I0
I27
I0
tp704
a(I0
I7
I0
tp705
a(I0
I18
I0
tp706
a(I0
I2
I0
tp707
a(I0
I20
I0
tp708
a(I0
I17
I0
tp709
a(I17
I10
I0
tp710
a(I17
I3
I0
tp711
a(I17
I27
I0
tp712
a(I17
I7
I0
tp713
a(I17
I18
I0
tp714
a(I17
I2
I0
tp715
a(I17
I20
I0
tp716
a(I17
I17
I0
tp717
a(I9
I10
I0
tp718
a(I9
I3
I0
tp719
a(I9
I27
I0
tp720
a(I9
I7
I0
tp721
a(I9
I18
I0
tp722
a(I9
I2
I0
tp723
a(I9
I20
I0
tp724
a(I9
I17
I0
tp725
a(I10
I10
I0
tp726
a(I10
I3
I0
tp727
a(I10
I27
I0
tp728
a(I10
I7
I0
tp729
a(I10
I18
I0
tp730
a(I10
I2
I0
tp731
a(I10
I20
I0
tp732
a(I10
I17
I0
tp733
a(I2
I10
I0
tp734
a(I2
I3
I0
tp735
a(I2
I27
I0
tp736
a(I2
I7
I0
tp737
a(I2
I18
I0
tp738
a(I2
I2
I0
tp739
a(I2
I20
I0
tp740
a(I2
I17
I0
tp741
a(I13
I10
I0
tp742
a(I13
I3
I0
tp743
a(I13
I27
I0
tp744
a(I13
I7
I0
tp745
a(I13
I18
I0
tp746
a(I13
I2
I0
tp747
a(I13
I20
I0
tp748
a(I13
I17
I0
tp749
a(I6
I10
I0
tp750
a(I6
I3
I0
tp751
a(I6
I27
I0
tp752
a(I6
I7
I0
tp753
a(I6
I18
I0
tp754
a(I6
I2
I0
tp755
a(I6
I20
I0
tp756
a(I6
I17
I0
tp757
a(I4
I2
I1
tp758
a(I19
I10
I0
tp759
a(I19
I3
I0
tp760
a(I19
I27
I0
tp761
a(I19
I7
I0
tp762
a(I19
I18
I0
tp763
a(I19
I2
I0
tp764
a(I19
I20
I0
tp765
a(I19
I17
I0
tp766
a(I15
I10
I0
tp767
a(I15
I3
I0
tp768
a(I15
I27
I0
tp769
a(I15
I7
I0
tp770
a(I15
I18
I0
tp771
a(I15
I2
I0
tp772
a(I15
I20
I0
tp773
a(I15
I17
I0
tp774
a(I11
I10
I0
tp775
a(I11
I3
I0
tp776
a(I11
I27
I0
tp777
a(I11
I7
I0
tp778
a(I11
I18
I0
tp779
a(I11
I2
I0
tp780
a(I11
I20
I0
tp781
a(I11
I17
I0
tp782
a(I7
I3
I1
tp783
a(I19
I17
I1
tp784
a(I10
I10
I1
tp785
a(I16
I17
I1
tp786
a(I10
I17
I0
tp787
a(I15
I17
I1
tp788
a(I19
I7
I0
tp789
a(I11
I18
I1
tp790
a(I19
I18
I1
tp791
a(I7
I18
I1
tp792
a(I14
I7
I1
tp793
a(I8
I7
I1
tp794
a(I8
I7
I0
tp795
a(I13
I20
I1
tp796
a(I8
I20
I1
tp797
a(I14
I27
I0
tp798
a(I13
I10
I0
tp799
a(I13
I3
I0
tp800
a(I13
I27
I0
tp801
a(I13
I7
I0
tp802
a(I13
I18
I0
tp803
a(I13
I2
I0
tp804
a(I13
I20
I0
tp805
a(I13
I17
I0
tp806
a(I4
I2
I1
tp807
a(I7
I3
I1
tp808
a(I4
I27
I0
tp809
a(I15
I10
I0
tp810
a(I15
I3
I0
tp811
a(I15
I27
I0
tp812
a(I15
I7
I0
tp813
a(I15
I18
I0
tp814
a(I15
I2
I0
tp815
a(I15
I20
I0
tp816
a(I15
I17
I0
tp817
a(I4
I2
I1
tp818
a(I4
I20
I0
tp819
a(I4
I2
I1
tp820
a(I4
I17
I0
tp821
a(I4
I7
I0
tp822
a(I19
I10
I0
tp823
a(I19
I3
I0
tp824
a(I19
I27
I0
tp825
a(I19
I7
I0
tp826
a(I19
I18
I0
tp827
a(I19
I2
I0
tp828
a(I19
I20
I0
tp829
a(I19
I17
I0
tp830
a(I4
I10
I1
tp831
a(I8
I20
I1
tp832
a(I14
I10
I0
tp833
a(I14
I3
I0
tp834
a(I14
I27
I0
tp835
a(I14
I7
I0
tp836
a(I14
I18
I0
tp837
a(I14
I2
I0
tp838
a(I14
I20
I0
tp839
a(I14
I17
I0
tp840
a(I4
I10
I1
tp841
a(I10
I17
I1
tp842
a(I5
I7
I1
tp843
a(I6
I7
I1
tp844
a(I4
I3
I1
tp845
a(I4
I3
I0
tp846
a(I2
I18
I1
tp847
a(I15
I2
I1
tp848
a(I9
I17
I1
tp849
a(I18
I20
I1
tp850
a(I12
I7
I1
tp851
a(I17
I27
I1
tp852
a(I16
I3
I1
tp853
a(I11
I10
I1
tp854
a(I17
I2
I0
tp855
a(I5
I27
I0
tp856
a(I8
I3
I1
tp857
a(I3
I10
I0
tp858
a(I3
I3
I0
tp859
a(I3
I27
I0
tp860
a(I3
I7
I0
tp861
a(I3
I18
I0
tp862
a(I3
I2
I0
tp863
a(I3
I20
I0
tp864
a(I3
I17
I0
tp865
a(I9
I2
I1
tp866
a(I8
I27
I0
tp867
a(I4
I10
I0
tp868
a(I4
I3
I0
tp869
a(I4
I27
I0
tp870
a(I4
I7
I0
tp871
a(I4
I18
I0
tp872
a(I4
I2
I0
tp873
a(I4
I20
I0
tp874
a(I4
I17
I0
tp875
a(I22
I27
I1
tp876
a(I1
I10
I1
tp877
a(I22
I7
I0
tp878
a(I1
I27
I0
tp879
a(I22
I10
I1
tp880
a(I1
I10
I0
tp881
a(I1
I3
I0
tp882
a(I1
I27
I0
tp883
a(I1
I7
I0
tp884
a(I1
I18
I0
tp885
a(I1
I2
I0
tp886
a(I1
I20
I0
tp887
a(I1
I17
I0
tp888
a(I16
I3
I1
tp889
a(I20
I3
I1
tp890
a(I9
I10
I0
tp891
a(I10
I2
I1
tp892
a(I13
I10
I0
tp893
a(I13
I3
I0
tp894
a(I13
I27
I0
tp895
a(I13
I7
I0
tp896
a(I13
I18
I0
tp897
a(I13
I2
I0
tp898
a(I13
I20
I0
tp899
a(I13
I17
I0
tp900
a(I10
I18
I0
tp901
a(I9
I10
I0
tp902
a(I9
I3
I0
tp903
a(I9
I27
I0
tp904
a(I9
I7
I0
tp905
a(I9
I18
I0
tp906
a(I9
I2
I0
tp907
a(I9
I20
I0
tp908
a(I9
I17
I0
tp909
a(I4
I10
I1
tp910
a(I4
I3
I0
tp911
a(I4
I10
I0
tp912
a(I4
I3
I0
tp913
a(I4
I27
I0
tp914
a(I4
I7
I0
tp915
a(I4
I18
I0
tp916
a(I4
I2
I0
tp917
a(I4
I20
I0
tp918
a(I4
I17
I0
tp919
a(I7
I3
I1
tp920
a(I15
I10
I0
tp921
a(I15
I3
I0
tp922
a(I15
I27
I0
tp923
a(I15
I7
I0
tp924
a(I15
I18
I0
tp925
a(I15
I2
I0
tp926
a(I15
I20
I0
tp927
a(I15
I17
I0
tp928
a(I0
I10
I0
tp929
a(I0
I3
I0
tp930
a(I0
I27
I0
tp931
a(I0
I7
I0
tp932
a(I0
I18
I0
tp933
a(I0
I2
I0
tp934
a(I0
I20
I0
tp935
a(I0
I17
I0
tp936
a(I19
I10
I0
tp937
a(I19
I3
I0
tp938
a(I19
I27
I0
tp939
a(I19
I7
I0
tp940
a(I19
I18
I0
tp941
a(I19
I2
I0
tp942
a(I19
I20
I0
tp943
a(I19
I17
I0
tp944
a(I14
I10
I0
tp945
a(I14
I3
I0
tp946
a(I14
I27
I0
tp947
a(I14
I7
I0
tp948
a(I14
I18
I0
tp949
a(I14
I2
I0
tp950
a(I14
I20
I0
tp951
a(I14
I17
I0
tp952
a(I12
I20
I1
tp953
a(I18
I10
I0
tp954
a(I18
I3
I0
tp955
a(I18
I27
I0
tp956
a(I18
I7
I0
tp957
a(I18
I18
I0
tp958
a(I18
I2
I0
tp959
a(I18
I20
I0
tp960
a(I18
I17
I0
tp961
a(I6
I10
I0
tp962
a(I6
I3
I0
tp963
a(I6
I27
I0
tp964
a(I6
I7
I0
tp965
a(I6
I18
I0
tp966
a(I6
I2
I0
tp967
a(I6
I20
I0
tp968
a(I6
I17
I0
tp969
a(I2
I7
I1
tp970
a(I11
I7
I1
tp971
a(I6
I7
I1
tp972
a(I17
I17
I1
tp973
a(I8
I10
I1
tp974
a(I6
I10
I0
tp975
a(I11
I10
I0
tp976
a(I15
I17
I1
tp977
a(I14
I10
I1
tp978
a(I11
I17
I1
tp979
a(I17
I17
I0
tp980
a(I14
I17
I0
tp981
a(I14
I20
I1
tp982
a(I4
I2
I1
tp983
a(I13
I20
I1
tp984
a(I19
I10
I0
tp985
a(I19
I3
I0
tp986
a(I19
I27
I0
tp987
a(I19
I7
I0
tp988
a(I19
I18
I0
tp989
a(I19
I2
I0
tp990
a(I19
I20
I0
tp991
a(I19
I17
I0
tp992
a(I3
I10
I0
tp993
a(I3
I3
I0
tp994
a(I3
I27
I0
tp995
a(I3
I7
I0
tp996
a(I3
I18
I0
tp997
a(I3
I2
I0
tp998
a(I3
I20
I0
tp999
a(I3
I17
I0
tp1000
a(I12
I20
I1
tp1001
a(I9
I10
I0
tp1002
a(I9
I3
I0
tp1003
a(I9
I27
I0
tp1004
a(I9
I7
I0
tp1005
a(I9
I18
I0
tp1006
a(I9
I2
I0
tp1007
a(I9
I20
I0
tp1008
a(I9
I17
I0
tp1009
a(I11
I10
I0
tp1010
a(I11
I3
I0
tp1011
a(I11
I27
I0
tp1012
a(I11
I7
I0
tp1013
a(I11
I18
I0
tp1014
a(I11
I2
I0
tp1015
a(I11
I20
I0
tp1016
a(I11
I17
I0
tp1017
a(I4
I10
I0
tp1018
a(I4
I3
I0
tp1019
a(I4
I27
I0
tp1020
a(I4
I7
I0
tp1021
a(I4
I18
I0
tp1022
a(I4
I2
I0
tp1023
a(I4
I20
I0
tp1024
a(I4
I17
I0
tp1025
a(I7
I3
I1
tp1026
a(I6
I10
I0
tp1027
a(I6
I3
I0
tp1028
a(I6
I27
I0
tp1029
a(I6
I7
I0
tp1030
a(I6
I18
I0
tp1031
a(I6
I2
I0
tp1032
a(I6
I20
I0
tp1033
a(I6
I17
I0
tp1034
a(I8
I2
I1
tp1035
a(I17
I10
I0
tp1036
a(I17
I3
I0
tp1037
a(I17
I27
I0
tp1038
a(I17
I7
I0
tp1039
a(I17
I18
I0
tp1040
a(I17
I2
I0
tp1041
a(I17
I20
I0
tp1042
a(I17
I17
I0
tp1043
a(I1
I2
I1
tp1044
a(I2
I10
I0
tp1045
a(I2
I3
I0
tp1046
a(I2
I27
I0
tp1047
a(I2
I7
I0
tp1048
a(I2
I18
I0
tp1049
a(I2
I2
I0
tp1050
a(I2
I20
I0
tp1051
a(I2
I17
I0
tp1052
a(I12
I20
I0
tp1053
a(I0
I10
I0
tp1054
a(I0
I3
I0
tp1055
a(I0
I27
I0
tp1056
a(I0
I7
I0
tp1057
a(I0
I18
I0
tp1058
a(I0
I2
I0
tp1059
a(I0
I20
I0
tp1060
a(I0
I17
I0
tp1061
a(I8
I3
I0
tp1062
a(I17
I10
I0
tp1063
a(I17
I3
I0
tp1064
a(I17
I27
I0
tp1065
a(I17
I7
I0
tp1066
a(I17
I18
I0
tp1067
a(I17
I2
I0
tp1068
a(I17
I20
I0
tp1069
a(I17
I17
I0
tp1070
a(I16
I10
I0
tp1071
a(I16
I3
I0
tp1072
a(I16
I27
I0
tp1073
a(I16
I7
I0
tp1074
a(I16
I18
I0
tp1075
a(I16
I2
I0
tp1076
a(I16
I20
I0
tp1077
a(I16
I17
I0
tp1078
a(I14
I10
I0
tp1079
a(I14
I3
I0
tp1080
a(I14
I27
I0
tp1081
a(I14
I7
I0
tp1082
a(I14
I18
I0
tp1083
a(I14
I2
I0
tp1084
a(I14
I20
I0
tp1085
a(I14
I17
I0
tp1086
a(I5
I18
I1
tp1087
a(I9
I2
I1
tp1088
a(I4
I2
I1
tp1089
a(I4
I17
I0
tp1090
a(I3
I10
I0
tp1091
a(I3
I3
I0
tp1092
a(I3
I27
I0
tp1093
a(I3
I7
I0
tp1094
a(I3
I18
I0
tp1095
a(I3
I2
I0
tp1096
a(I3
I20
I0
tp1097
a(I3
I17
I0
tp1098
a(I4
I2
I1
tp1099
a(I4
I17
I0
tp1100
a(I19
I10
I1
tp1101
a(I7
I3
I1
tp1102
a(I7
I27
I0
tp1103
a(I4
I2
I1
tp1104
a(I1
I2
I1
tp1105
a(I0
I10
I0
tp1106
a(I0
I3
I0
tp1107
a(I0
I27
I0
tp1108
a(I0
I7
I0
tp1109
a(I0
I18
I0
tp1110
a(I0
I2
I0
tp1111
a(I0
I20
I0
tp1112
a(I0
I17
I0
tp1113
a(I16
I7
I1
tp1114
a(I3
I10
I0
tp1115
a(I3
I3
I0
tp1116
a(I3
I27
I0
tp1117
a(I3
I7
I0
tp1118
a(I3
I18
I0
tp1119
a(I3
I2
I0
tp1120
a(I3
I20
I0
tp1121
a(I3
I17
I0
tp1122
a(I13
I3
I1
tp1123
a(I12
I20
I1
tp1124
a(I1
I2
I1
tp1125
a(I1
I3
I0
tp1126
a(I1
I10
I1
tp1127
a(I1
I20
I0
tp1128
a(I1
I18
I1
tp1129
a(I1
I27
I0
tp1130
a(I1
I2
I1
tp1131
a(I1
I3
I0
tp1132
a(I1
I10
I1
tp1133
a(I1
I20
I0
tp1134
a(I7
I10
I1
tp1135
a(I12
I20
I1
tp1136
a(I8
I3
I1
tp1137
a(I8
I20
I0
tp1138
a(I2
I27
I1
tp1139
a(I10
I27
I1
tp1140
a(I16
I18
I1
tp1141
a(I13
I17
I1
tp1142
a(I8
I3
I1
tp1143
a(I8
I3
I0
tp1144
a(I13
I3
I0
tp1145
a(I13
I3
I1
tp1146
a(I10
I27
I0
tp1147
a(I6
I10
I1
tp1148
a(I3
I10
I1
tp1149
a(I13
I10
I0
tp1150
a(I13
I3
I0
tp1151
a(I13
I27
I0
tp1152
a(I13
I7
I0
tp1153
a(I13
I18
I0
tp1154
a(I13
I2
I0
tp1155
a(I13
I20
I0
tp1156
a(I13
I17
I0
tp1157
a(I11
I10
I0
tp1158
a(I11
I3
I0
tp1159
a(I11
I27
I0
tp1160
a(I11
I7
I0
tp1161
a(I11
I18
I0
tp1162
a(I11
I2
I0
tp1163
a(I11
I20
I0
tp1164
a(I11
I17
I0
tp1165
a(I9
I10
I0
tp1166
a(I9
I3
I0
tp1167
a(I9
I27
I0
tp1168
a(I9
I7
I0
tp1169
a(I9
I18
I0
tp1170
a(I9
I2
I0
tp1171
a(I9
I20
I0
tp1172
a(I9
I17
I0
tp1173
a(I8
I20
I1
tp1174
a(I3
I2
I1
tp1175
a(I1
I2
I1
tp1176
a(I23
I7
I1
tp1177
a(I1
I27
I0
tp1178
a(I23
I17
I0
tp1179
a(I23
I7
I1
tp1180
a(I18
I10
I0
tp1181
a(I18
I3
I0
tp1182
a(I18
I27
I0
tp1183
a(I18
I7
I0
tp1184
a(I18
I18
I0
tp1185
a(I18
I2
I0
tp1186
a(I18
I20
I0
tp1187
a(I18
I17
I0
tp1188
a(I14
I10
I0
tp1189
a(I14
I3
I0
tp1190
a(I14
I27
I0
tp1191
a(I14
I7
I0
tp1192
a(I14
I18
I0
tp1193
a(I14
I2
I0
tp1194
a(I14
I20
I0
tp1195
a(I14
I17
I0
tp1196
a(I1
I2
I1
tp1197
a(I4
I2
I1
tp1198
a(I12
I10
I0
tp1199
a(I12
I3
I0
tp1200
a(I12
I27
I0
tp1201
a(I12
I7
I0
tp1202
a(I12
I18
I0
tp1203
a(I12
I2
I0
tp1204
a(I12
I20
I0
tp1205
a(I12
I17
I0
tp1206
a(I14
I10
I0
tp1207
a(I14
I3
I0
tp1208
a(I14
I27
I0
tp1209
a(I14
I7
I0
tp1210
a(I14
I18
I0
tp1211
a(I14
I2
I0
tp1212
a(I14
I20
I0
tp1213
a(I14
I17
I0
tp1214
a(I18
I10
I0
tp1215
a(I18
I3
I0
tp1216
a(I18
I27
I0
tp1217
a(I18
I7
I0
tp1218
a(I18
I18
I0
tp1219
a(I18
I2
I0
tp1220
a(I18
I20
I0
tp1221
a(I18
I17
I0
tp1222
a(I10
I10
I0
tp1223
a(I10
I3
I0
tp1224
a(I10
I27
I0
tp1225
a(I10
I7
I0
tp1226
a(I10
I18
I0
tp1227
a(I10
I2
I0
tp1228
a(I10
I20
I0
tp1229
a(I10
I17
I0
tp1230
a(I19
I10
I0
tp1231
a(I19
I3
I0
tp1232
a(I19
I27
I0
tp1233
a(I19
I7
I0
tp1234
a(I19
I18
I0
tp1235
a(I19
I2
I0
tp1236
a(I19
I20
I0
tp1237
a(I19
I17
I0
tp1238
a(I4
I2
I1
tp1239
a(I16
I3
I1
tp1240
a(I4
I27
I0
tp1241
a(I5
I18
I1
tp1242
a(I13
I7
I1
tp1243
a(I2
I10
I0
tp1244
a(I2
I3
I0
tp1245
a(I2
I27
I0
tp1246
a(I2
I7
I0
tp1247
a(I2
I18
I0
tp1248
a(I2
I2
I0
tp1249
a(I2
I20
I0
tp1250
a(I2
I17
I0
tp1251
a(I11
I10
I0
tp1252
a(I11
I3
I0
tp1253
a(I11
I27
I0
tp1254
a(I11
I7
I0
tp1255
a(I11
I18
I0
tp1256
a(I11
I2
I0
tp1257
a(I11
I20
I0
tp1258
a(I11
I17
I0
tp1259
a(I13
I27
I0
tp1260
a(I12
I20
I1
tp1261
a(I4
I2
I1
tp1262
a(I7
I3
I1
tp1263
a(I10
I10
I0
tp1264
a(I10
I3
I0
tp1265
a(I10
I27
I0
tp1266
a(I10
I7
I0
tp1267
a(I10
I18
I0
tp1268
a(I10
I2
I0
tp1269
a(I10
I20
I0
tp1270
a(I10
I17
I0
tp1271
a(I5
I18
I1
tp1272
a(I8
I2
I1
tp1273
a(I13
I10
I0
tp1274
a(I13
I3
I0
tp1275
a(I13
I27
I0
tp1276
a(I13
I7
I0
tp1277
a(I13
I18
I0
tp1278
a(I13
I2
I0
tp1279
a(I13
I20
I0
tp1280
a(I13
I17
I0
tp1281
a(I12
I10
I0
tp1282
a(I12
I3
I0
tp1283
a(I12
I27
I0
tp1284
a(I12
I7
I0
tp1285
a(I12
I18
I0
tp1286
a(I12
I2
I0
tp1287
a(I12
I20
I0
tp1288
a(I12
I17
I0
tp1289
a(I17
I10
I0
tp1290
a(I17
I3
I0
tp1291
a(I17
I27
I0
tp1292
a(I17
I7
I0
tp1293
a(I17
I18
I0
tp1294
a(I17
I2
I0
tp1295
a(I17
I20
I0
tp1296
a(I17
I17
I0
tp1297
a(I15
I10
I0
tp1298
a(I15
I3
I0
tp1299
a(I15
I27
I0
tp1300
a(I15
I7
I0
tp1301
a(I15
I18
I0
tp1302
a(I15
I2
I0
tp1303
a(I15
I20
I0
tp1304
a(I15
I17
I0
tp1305
a(I0
I10
I0
tp1306
a(I0
I3
I0
tp1307
a(I0
I27
I0
tp1308
a(I0
I7
I0
tp1309
a(I0
I18
I0
tp1310
a(I0
I2
I0
tp1311
a(I0
I20
I0
tp1312
a(I0
I17
I0
tp1313
a(I6
I10
I0
tp1314
a(I6
I3
I0
tp1315
a(I6
I27
I0
tp1316
a(I6
I7
I0
tp1317
a(I6
I18
I0
tp1318
a(I6
I2
I0
tp1319
a(I6
I20
I0
tp1320
a(I6
I17
I0
tp1321
a(I19
I10
I0
tp1322
a(I19
I3
I0
tp1323
a(I19
I27
I0
tp1324
a(I19
I7
I0
tp1325
a(I19
I18
I0
tp1326
a(I19
I2
I0
tp1327
a(I19
I20
I0
tp1328
a(I19
I17
I0
tp1329
a(I14
I10
I0
tp1330
a(I14
I3
I0
tp1331
a(I14
I27
I0
tp1332
a(I14
I7
I0
tp1333
a(I14
I18
I0
tp1334
a(I14
I2
I0
tp1335
a(I14
I20
I0
tp1336
a(I14
I17
I0
tp1337
a(I16
I20
I1
tp1338
a(I9
I2
I1
tp1339
a(I9
I2
I0
tp1340
a(I6
I20
I1
tp1341
a(I17
I2
I1
tp1342
a(I12
I10
I1
tp1343
a(I5
I3
I1
tp1344
a(I3
I7
I1
tp1345
a(I1
I2
I1
tp1346
a(I1
I2
I0
tp1347
a(I1
I18
I1
tp1348
a(I1
I17
I0
tp1349
a(I1
I7
I1
tp1350
a(I11
I3
I1
tp1351
a(I17
I2
I0
tp1352
a(I9
I18
I1
tp1353
a(I5
I18
I0
tp1354
a(I19
I3
I1
tp1355
a(I11
I7
I1
tp1356
a(I10
I27
I1
tp1357
a(I5
I17
I1
tp1358
a(I5
I10
I0
tp1359
a(I1
I20
I1
tp1360
a(I3
I10
I1
tp1361
a(I15
I18
I1
tp1362
a(I5
I7
I1
tp1363
a(I11
I3
I0
tp1364
a(I1
I2
I0
tp1365
a(I7
I10
I1
tp1366
a(I15
I27
I0
tp1367
a(I11
I3
I1
tp1368
a(I17
I7
I1
tp1369
a(I12
I20
I1
tp1370
a(I1
I17
I1
tp1371
a(I12
I17
I1
tp1372
a(I8
I17
I1
tp1373
a(I13
I18
I1
tp1374
a(I19
I18
I1
tp1375
a(I2
I20
I1
tp1376
a(I8
I20
I0
tp1377
a(I12
I18
I0
tp1378
a(I10
I18
I1
tp1379
a(I1
I18
I0
tp1380
a(I8
I17
I1
tp1381
a(I1
I17
I1
tp1382
a(I5
I17
I1
tp1383
a(I1
I10
I0
tp1384
a(I1
I20
I1
tp1385
a(I7
I10
I0
tp1386
a(I7
I3
I0
tp1387
a(I7
I27
I0
tp1388
a(I7
I7
I0
tp1389
a(I7
I18
I0
tp1390
a(I7
I2
I0
tp1391
a(I7
I20
I0
tp1392
a(I7
I17
I0
tp1393
a(I1
I10
I0
tp1394
a(I1
I3
I0
tp1395
a(I1
I27
I0
tp1396
a(I1
I7
I0
tp1397
a(I1
I18
I0
tp1398
a(I1
I2
I0
tp1399
a(I1
I20
I0
tp1400
a(I1
I17
I0
tp1401
a(I16
I10
I0
tp1402
a(I16
I3
I0
tp1403
a(I16
I27
I0
tp1404
a(I16
I7
I0
tp1405
a(I16
I18
I0
tp1406
a(I16
I2
I0
tp1407
a(I16
I20
I0
tp1408
a(I16
I17
I0
tp1409
a(I14
I10
I0
tp1410
a(I14
I3
I0
tp1411
a(I14
I27
I0
tp1412
a(I14
I7
I0
tp1413
a(I14
I18
I0
tp1414
a(I14
I2
I0
tp1415
a(I14
I20
I0
tp1416
a(I14
I17
I0
tp1417
a(I17
I10
I0
tp1418
a(I17
I3
I0
tp1419
a(I17
I27
I0
tp1420
a(I17
I7
I0
tp1421
a(I17
I18
I0
tp1422
a(I17
I2
I0
tp1423
a(I17
I20
I0
tp1424
a(I17
I17
I0
tp1425
a(I13
I20
I1
tp1426
a(I9
I10
I0
tp1427
a(I9
I3
I0
tp1428
a(I9
I27
I0
tp1429
a(I9
I7
I0
tp1430
a(I9
I18
I0
tp1431
a(I9
I2
I0
tp1432
a(I9
I20
I0
tp1433
a(I9
I17
I0
tp1434
a(I11
I10
I0
tp1435
a(I11
I3
I0
tp1436
a(I11
I27
I0
tp1437
a(I11
I7
I0
tp1438
a(I11
I18
I0
tp1439
a(I11
I2
I0
tp1440
a(I11
I20
I0
tp1441
a(I11
I17
I0
tp1442
a(I0
I10
I0
tp1443
a(I0
I3
I0
tp1444
a(I0
I27
I0
tp1445
a(I0
I7
I0
tp1446
a(I0
I18
I0
tp1447
a(I0
I2
I0
tp1448
a(I0
I20
I0
tp1449
a(I0
I17
I0
tp1450
a(I10
I10
I0
tp1451
a(I10
I3
I0
tp1452
a(I10
I27
I0
tp1453
a(I10
I7
I0
tp1454
a(I10
I18
I0
tp1455
a(I10
I2
I0
tp1456
a(I10
I20
I0
tp1457
a(I10
I17
I0
tp1458
a(I4
I10
I0
tp1459
a(I4
I3
I0
tp1460
a(I4
I27
I0
tp1461
a(I4
I7
I0
tp1462
a(I4
I18
I0
tp1463
a(I4
I2
I0
tp1464
a(I4
I20
I0
tp1465
a(I4
I17
I0
tp1466
a(I5
I18
I1
tp1467
a(I6
I10
I0
tp1468
a(I6
I3
I0
tp1469
a(I6
I27
I0
tp1470
a(I6
I7
I0
tp1471
a(I6
I18
I0
tp1472
a(I6
I2
I0
tp1473
a(I6
I20
I0
tp1474
a(I6
I17
I0
tp1475
a(I12
I20
I1
tp1476
a(I18
I7
I1
tp1477
a(I3
I20
I1
tp1478
a(I15
I18
I1
tp1479
a(I6
I17
I1
tp1480
a(I14
I27
I1
tp1481
a(I8
I17
I1
tp1482
a(I7
I3
I1
tp1483
a(I17
I17
I1
tp1484
a(I3
I10
I0
tp1485
a(I17
I10
I0
tp1486
a(I18
I3
I0
tp1487
a(I17
I20
I1
tp1488
a(I10
I2
I1
tp1489
a(I15
I10
I0
tp1490
a(I14
I17
I0
tp1491
a(I15
I10
I0
tp1492
a(I15
I3
I0
tp1493
a(I15
I27
I0
tp1494
a(I15
I7
I0
tp1495
a(I15
I18
I0
tp1496
a(I15
I2
I0
tp1497
a(I15
I20
I0
tp1498
a(I15
I17
I0
tp1499
a(I11
I10
I0
tp1500
a(I11
I3
I0
tp1501
a(I11
I27
I0
tp1502
a(I11
I7
I0
tp1503
a(I11
I18
I0
tp1504
a(I11
I2
I0
tp1505
a(I11
I20
I0
tp1506
a(I11
I17
I0
tp1507
a(I16
I3
I1
tp1508
a(I10
I10
I0
tp1509
a(I10
I3
I0
tp1510
a(I10
I27
I0
tp1511
a(I10
I7
I0
tp1512
a(I10
I18
I0
tp1513
a(I10
I2
I0
tp1514
a(I10
I20
I0
tp1515
a(I10
I17
I0
tp1516
a(I12
I10
I0
tp1517
a(I12
I3
I0
tp1518
a(I12
I27
I0
tp1519
a(I12
I7
I0
tp1520
a(I12
I18
I0
tp1521
a(I12
I2
I0
tp1522
a(I12
I20
I0
tp1523
a(I12
I17
I0
tp1524
a(I14
I10
I1
tp1525
a(I19
I3
I1
tp1526
a(I5
I18
I1
tp1527
a(I18
I10
I0
tp1528
a(I18
I3
I0
tp1529
a(I18
I27
I0
tp1530
a(I18
I7
I0
tp1531
a(I18
I18
I0
tp1532
a(I18
I2
I0
tp1533
a(I18
I20
I0
tp1534
a(I18
I17
I0
tp1535
a(I13
I10
I0
tp1536
a(I13
I3
I0
tp1537
a(I13
I27
I0
tp1538
a(I13
I7
I0
tp1539
a(I13
I18
I0
tp1540
a(I13
I2
I0
tp1541
a(I13
I20
I0
tp1542
a(I13
I17
I0
tp1543
a(I16
I27
I0
tp1544
a(I5
I10
I0
tp1545
a(I6
I10
I0
tp1546
a(I6
I3
I0
tp1547
a(I6
I27
I0
tp1548
a(I6
I7
I0
tp1549
a(I6
I18
I0
tp1550
a(I6
I2
I0
tp1551
a(I6
I20
I0
tp1552
a(I6
I17
I0
tp1553
a(I9
I10
I0
tp1554
a(I9
I3
I0
tp1555
a(I9
I27
I0
tp1556
a(I9
I7
I0
tp1557
a(I9
I18
I0
tp1558
a(I9
I2
I0
tp1559
a(I9
I20
I0
tp1560
a(I9
I17
I0
tp1561
a(I16
I10
I0
tp1562
a(I16
I3
I0
tp1563
a(I16
I27
I0
tp1564
a(I16
I7
I0
tp1565
a(I16
I18
I0
tp1566
a(I16
I2
I0
tp1567
a(I16
I20
I0
tp1568
a(I16
I17
I0
tp1569
a(I19
I10
I0
tp1570
a(I19
I3
I0
tp1571
a(I19
I27
I0
tp1572
a(I19
I7
I0
tp1573
a(I19
I18
I0
tp1574
a(I19
I2
I0
tp1575
a(I19
I20
I0
tp1576
a(I19
I17
I0
tp1577
a(I0
I10
I0
tp1578
a(I0
I3
I0
tp1579
a(I0
I27
I0
tp1580
a(I0
I7
I0
tp1581
a(I0
I18
I0
tp1582
a(I0
I2
I0
tp1583
a(I0
I20
I0
tp1584
a(I0
I17
I0
tp1585
a(I4
I10
I1
tp1586
a(I2
I3
I1
tp1587
a(I13
I7
I1
tp1588
a(I1
I2
I1
tp1589
a(I1
I20
I0
tp1590
a(I1
I2
I1
tp1591
a(I1
I27
I0
tp1592
a(I1
I10
I1
tp1593
a(I17
I10
I0
tp1594
a(I17
I3
I0
tp1595
a(I17
I27
I0
tp1596
a(I17
I7
I0
tp1597
a(I17
I18
I0
tp1598
a(I17
I2
I0
tp1599
a(I17
I20
I0
tp1600
a(I17
I17
I0
tp1601
a(I18
I10
I0
tp1602
a(I18
I3
I0
tp1603
a(I18
I27
I0
tp1604
a(I18
I7
I0
tp1605
a(I18
I18
I0
tp1606
a(I18
I2
I0
tp1607
a(I18
I20
I0
tp1608
a(I18
I17
I0
tp1609
a(I14
I10
I0
tp1610
a(I14
I3
I0
tp1611
a(I14
I27
I0
tp1612
a(I14
I7
I0
tp1613
a(I14
I18
I0
tp1614
a(I14
I2
I0
tp1615
a(I14
I20
I0
tp1616
a(I14
I17
I0
tp1617
a(I9
I2
I1
tp1618
a(I5
I18
I1
tp1619
a(I13
I17
I1
tp1620
a(I2
I2
I1
tp1621
a(I16
I3
I1
tp1622
a(I12
I27
I1
tp1623
a(I6
I18
I1
tp1624
a(I1
I7
I1
tp1625
a(I14
I7
I1
tp1626
a(I1
I3
I0
tp1627
a(I9
I18
I1
tp1628
a(I14
I10
I0
tp1629
a(I4
I27
I1
tp1630
a(I1
I2
I1
tp1631
a(I0
I10
I1
tp1632
a(I10
I7
I1
tp1633
a(I19
I10
I0
tp1634
a(I19
I3
I0
tp1635
a(I19
I27
I0
tp1636
a(I19
I7
I0
tp1637
a(I19
I18
I0
tp1638
a(I19
I2
I0
tp1639
a(I19
I20
I0
tp1640
a(I19
I17
I0
tp1641
a(I1
I17
I1
tp1642
a(I12
I20
I1
tp1643
a(I4
I2
I1
tp1644
a(I9
I10
I0
tp1645
a(I9
I3
I0
tp1646
a(I9
I27
I0
tp1647
a(I9
I7
I0
tp1648
a(I9
I18
I0
tp1649
a(I9
I2
I0
tp1650
a(I9
I20
I0
tp1651
a(I9
I17
I0
tp1652
a(I5
I18
I1
tp1653
a(I18
I10
I0
tp1654
a(I18
I3
I0
tp1655
a(I18
I27
I0
tp1656
a(I18
I7
I0
tp1657
a(I18
I18
I0
tp1658
a(I18
I2
I0
tp1659
a(I18
I20
I0
tp1660
a(I18
I17
I0
tp1661
a(I12
I2
I0
tp1662
a(I14
I10
I0
tp1663
a(I14
I3
I0
tp1664
a(I14
I27
I0
tp1665
a(I14
I7
I0
tp1666
a(I14
I18
I0
tp1667
a(I14
I2
I0
tp1668
a(I14
I20
I0
tp1669
a(I14
I17
I0
tp1670
a(I2
I3
I1
tp1671
a(I1
I3
I0
tp1672
a(I1
I2
I1
tp1673
a(I5
I7
I0
tp1674
a(I5
I18
I1
tp1675
a(I5
I7
I0
tp1676
a(I2
I10
I0
tp1677
a(I2
I3
I0
tp1678
a(I2
I27
I0
tp1679
a(I2
I7
I0
tp1680
a(I2
I18
I0
tp1681
a(I2
I2
I0
tp1682
a(I2
I20
I0
tp1683
a(I2
I17
I0
tp1684
a(I7
I3
I1
tp1685
a(I3
I27
I1
tp1686
a(I7
I27
I0
tp1687
a(I12
I20
I1
tp1688
a(I4
I10
I0
tp1689
a(I4
I3
I0
tp1690
a(I4
I27
I0
tp1691
a(I4
I7
I0
tp1692
a(I4
I18
I0
tp1693
a(I4
I2
I0
tp1694
a(I4
I20
I0
tp1695
a(I4
I17
I0
tp1696
a(I7
I3
I1
tp1697
a(I8
I20
I1
tp1698
a(I8
I27
I0
tp1699
a(I7
I27
I0
tp1700
a(I18
I10
I0
tp1701
a(I18
I3
I0
tp1702
a(I18
I27
I0
tp1703
a(I18
I7
I0
tp1704
a(I18
I18
I0
tp1705
a(I18
I2
I0
tp1706
a(I18
I20
I0
tp1707
a(I18
I17
I0
tp1708
a(I10
I10
I0
tp1709
a(I10
I3
I0
tp1710
a(I10
I27
I0
tp1711
a(I10
I7
I0
tp1712
a(I10
I18
I0
tp1713
a(I10
I2
I0
tp1714
a(I10
I20
I0
tp1715
a(I10
I17
I0
tp1716
a(I14
I10
I0
tp1717
a(I14
I3
I0
tp1718
a(I14
I27
I0
tp1719
a(I14
I7
I0
tp1720
a(I14
I18
I0
tp1721
a(I14
I2
I0
tp1722
a(I14
I20
I0
tp1723
a(I14
I17
I0
tp1724
a(I9
I2
I1
tp1725
a(I7
I3
I1
tp1726
a(I19
I7
I1
tp1727
a(I3
I10
I0
tp1728
a(I3
I3
I0
tp1729
a(I3
I27
I0
tp1730
a(I3
I7
I0
tp1731
a(I3
I18
I0
tp1732
a(I3
I2
I0
tp1733
a(I3
I20
I0
tp1734
a(I3
I17
I0
tp1735
a(I5
I18
I1
tp1736
a(I17
I10
I0
tp1737
a(I17
I3
I0
tp1738
a(I17
I27
I0
tp1739
a(I17
I7
I0
tp1740
a(I17
I18
I0
tp1741
a(I17
I2
I0
tp1742
a(I17
I20
I0
tp1743
a(I17
I17
I0
tp1744
a(I10
I10
I0
tp1745
a(I10
I3
I0
tp1746
a(I10
I27
I0
tp1747
a(I10
I7
I0
tp1748
a(I10
I18
I0
tp1749
a(I10
I2
I0
tp1750
a(I10
I20
I0
tp1751
a(I10
I17
I0
tp1752
a(I19
I20
I0
tp1753
a(I9
I2
I1
tp1754
a(I12
I20
I1
tp1755
a(I16
I20
I1
tp1756
a(I8
I7
I1
tp1757
a(I8
I27
I0
tp1758
a(I4
I10
I0
tp1759
a(I4
I3
I0
tp1760
a(I4
I27
I0
tp1761
a(I4
I7
I0
tp1762
a(I4
I18
I0
tp1763
a(I4
I2
I0
tp1764
a(I4
I20
I0
tp1765
a(I4
I17
I0
tp1766
a(I8
I20
I1
tp1767
a(I11
I10
I0
tp1768
a(I11
I3
I0
tp1769
a(I11
I27
I0
tp1770
a(I11
I7
I0
tp1771
a(I11
I18
I0
tp1772
a(I11
I2
I0
tp1773
a(I11
I20
I0
tp1774
a(I11
I17
I0
tp1775
a(I8
I27
I0
tp1776
a(I17
I10
I0
tp1777
a(I17
I3
I0
tp1778
a(I17
I27
I0
tp1779
a(I17
I7
I0
tp1780
a(I17
I18
I0
tp1781
a(I17
I2
I0
tp1782
a(I17
I20
I0
tp1783
a(I17
I17
I0
tp1784
a(I13
I10
I0
tp1785
a(I13
I3
I0
tp1786
a(I13
I27
I0
tp1787
a(I13
I7
I0
tp1788
a(I13
I18
I0
tp1789
a(I13
I2
I0
tp1790
a(I13
I20
I0
tp1791
a(I13
I17
I0
tp1792
a(I9
I2
I1
tp1793
a(I11
I10
I0
tp1794
a(I11
I3
I0
tp1795
a(I11
I27
I0
tp1796
a(I11
I7
I0
tp1797
a(I11
I18
I0
tp1798
a(I11
I2
I0
tp1799
a(I11
I20
I0
tp1800
a(I11
I17
I0
tp1801
a(I2
I3
I1
tp1802
a(I1
I2
I1
tp1803
a(I1
I20
I0
tp1804
a(I1
I10
I1
tp1805
a(I5
I18
I1
tp1806
a(I1
I27
I0
tp1807
a(I5
I27
I0
tp1808
a(I18
I10
I0
tp1809
a(I18
I3
I0
tp1810
a(I18
I27
I0
tp1811
a(I18
I7
I0
tp1812
a(I18
I18
I0
tp1813
a(I18
I2
I0
tp1814
a(I18
I20
I0
tp1815
a(I18
I17
I0
tp1816
a(I6
I10
I0
tp1817
a(I6
I3
I0
tp1818
a(I6
I27
I0
tp1819
a(I6
I7
I0
tp1820
a(I6
I18
I0
tp1821
a(I6
I2
I0
tp1822
a(I6
I20
I0
tp1823
a(I6
I17
I0
tp1824
a(I1
I17
I1
tp1825
a(I9
I27
I0
tp1826
a(I19
I7
I1
tp1827
a(I7
I3
I1
tp1828
a(I2
I10
I0
tp1829
a(I2
I3
I0
tp1830
a(I2
I27
I0
tp1831
a(I2
I7
I0
tp1832
a(I2
I18
I0
tp1833
a(I2
I2
I0
tp1834
a(I2
I20
I0
tp1835
a(I2
I17
I0
tp1836
a(I11
I10
I0
tp1837
a(I11
I3
I0
tp1838
a(I11
I27
I0
tp1839
a(I11
I7
I0
tp1840
a(I11
I18
I0
tp1841
a(I11
I2
I0
tp1842
a(I11
I20
I0
tp1843
a(I11
I17
I0
tp1844
a(I10
I10
I0
tp1845
a(I10
I3
I0
tp1846
a(I10
I27
I0
tp1847
a(I10
I7
I0
tp1848
a(I10
I18
I0
tp1849
a(I10
I2
I0
tp1850
a(I10
I20
I0
tp1851
a(I10
I17
I0
tp1852
a(I4
I2
I1
tp1853
a(I5
I18
I1
tp1854
a(I4
I27
I0
tp1855
a(I5
I7
I0
tp1856
a(I5
I18
I1
tp1857
a(I13
I10
I0
tp1858
a(I13
I3
I0
tp1859
a(I13
I27
I0
tp1860
a(I13
I7
I0
tp1861
a(I13
I18
I0
tp1862
a(I13
I2
I0
tp1863
a(I13
I20
I0
tp1864
a(I13
I17
I0
tp1865
a(I15
I10
I0
tp1866
a(I15
I3
I0
tp1867
a(I15
I27
I0
tp1868
a(I15
I7
I0
tp1869
a(I15
I18
I0
tp1870
a(I15
I2
I0
tp1871
a(I15
I20
I0
tp1872
a(I15
I17
I0
tp1873
a(I7
I27
I0
tp1874
a(I6
I10
I0
tp1875
a(I6
I3
I0
tp1876
a(I6
I27
I0
tp1877
a(I6
I7
I0
tp1878
a(I6
I18
I0
tp1879
a(I6
I2
I0
tp1880
a(I6
I20
I0
tp1881
a(I6
I17
I0
tp1882
a(I7
I20
I1
tp1883
a(I18
I2
I1
tp1884
a(I0
I10
I0
tp1885
a(I0
I3
I0
tp1886
a(I0
I27
I0
tp1887
a(I0
I7
I0
tp1888
a(I0
I18
I0
tp1889
a(I0
I2
I0
tp1890
a(I0
I20
I0
tp1891
a(I0
I17
I0
tp1892
a(I1
I7
I1
tp1893
a(I19
I10
I0
tp1894
a(I19
I3
I0
tp1895
a(I19
I27
I0
tp1896
a(I19
I7
I0
tp1897
a(I19
I18
I0
tp1898
a(I19
I2
I0
tp1899
a(I19
I20
I0
tp1900
a(I19
I17
I0
tp1901
a(I1
I20
I0
tp1902
a(I14
I10
I0
tp1903
a(I14
I3
I0
tp1904
a(I14
I27
I0
tp1905
a(I14
I7
I0
tp1906
a(I14
I18
I0
tp1907
a(I14
I2
I0
tp1908
a(I14
I20
I0
tp1909
a(I14
I17
I0
tp1910
a(I5
I18
I1
tp1911
a(I11
I10
I0
tp1912
a(I11
I3
I0
tp1913
a(I11
I27
I0
tp1914
a(I11
I7
I0
tp1915
a(I11
I18
I0
tp1916
a(I11
I2
I0
tp1917
a(I11
I20
I0
tp1918
a(I11
I17
I0
tp1919
a(I17
I10
I0
tp1920
a(I17
I3
I0
tp1921
a(I17
I27
I0
tp1922
a(I17
I7
I0
tp1923
a(I17
I18
I0
tp1924
a(I17
I2
I0
tp1925
a(I17
I20
I0
tp1926
a(I17
I17
I0
tp1927
a(I9
I2
I1
tp1928
a(I4
I2
I1
tp1929
a(I18
I10
I1
tp1930
a(I18
I3
I1
tp1931
a(I18
I27
I1
tp1932
a(I18
I7
I1
tp1933
a(I18
I18
I1
tp1934
a(I18
I2
I1
tp1935
a(I18
I20
I1
tp1936
a(I18
I17
I1
tp1937
a(I1
I7
I1
tp1938
a(I4
I10
I0
tp1939
a(I4
I3
I0
tp1940
a(I4
I27
I0
tp1941
a(I4
I7
I0
tp1942
a(I4
I18
I0
tp1943
a(I4
I2
I0
tp1944
a(I4
I20
I0
tp1945
a(I4
I17
I0
tp1946
a(I8
I17
I1
tp1947
a(I16
I20
I1
tp1948
a(I3
I10
I0
tp1949
a(I3
I3
I0
tp1950
a(I3
I27
I0
tp1951
a(I3
I7
I0
tp1952
a(I3
I18
I0
tp1953
a(I3
I2
I0
tp1954
a(I3
I20
I0
tp1955
a(I3
I17
I0
tp1956
a(I16
I27
I0
tp1957
a(I7
I3
I1
tp1958
a(I11
I10
I0
tp1959
a(I11
I3
I0
tp1960
a(I11
I27
I0
tp1961
a(I11
I7
I0
tp1962
a(I11
I18
I0
tp1963
a(I11
I2
I0
tp1964
a(I11
I20
I0
tp1965
a(I11
I17
I0
tp1966
a(I0
I10
I0
tp1967
a(I0
I3
I0
tp1968
a(I0
I27
I0
tp1969
a(I0
I7
I0
tp1970
a(I0
I18
I0
tp1971
a(I0
I2
I0
tp1972
a(I0
I20
I0
tp1973
a(I0
I17
I0
tp1974
a(I18
I10
I0
tp1975
a(I18
I3
I0
tp1976
a(I18
I27
I0
tp1977
a(I18
I7
I0
tp1978
a(I18
I18
I0
tp1979
a(I18
I2
I0
tp1980
a(I18
I20
I0
tp1981
a(I18
I17
I0
tp1982
a(I5
I18
I1
tp1983
a(I19
I3
I1
tp1984
a(I7
I27
I0
tp1985
a(I16
I3
I1
tp1986
a(I16
I27
I0
tp1987
a(I8
I27
I0
tp1988
a(I12
I7
I1
tp1989
a(I7
I20
I1
tp1990
a(I5
I10
I1
tp1991
a(I19
I27
I1
tp1992
a(I10
I7
I1
tp1993
a(I9
I18
I1
tp1994
a(I2
I3
I1
tp1995
a(I12
I18
I0
tp1996
a(I0
I7
I1
tp1997
a(I13
I17
I1
tp1998
a(I12
I7
I1
tp1999
a(I3
I2
I1
tp2000
a(I5
I27
I0
tp2001
a(I17
I18
I1
tp2002
a(I18
I27
I1
tp2003
a(I7
I7
I1
tp2004
a(I5
I2
I1
tp2005
a(I3
I2
I1
tp2006
a(I11
I18
I1
tp2007
a(I9
I10
I1
tp2008
a(I15
I10
I1
tp2009
a(I10
I20
I1
tp2010
a(I8
I7
I1
tp2011
a(I1
I3
I1
tp2012
a(I0
I17
I1
tp2013
a(I12
I3
I1
tp2014
a(I3
I27
I0
tp2015
a(I11
I18
I0
tp2016
a(I19
I7
I1
tp2017
a(I14
I17
I1
tp2018
a(I14
I10
I0
tp2019
a(I14
I3
I0
tp2020
a(I14
I27
I0
tp2021
a(I14
I7
I0
tp2022
a(I14
I18
I0
tp2023
a(I14
I2
I0
tp2024
a(I14
I20
I0
tp2025
a(I14
I17
I0
tp2026
a(I19
I10
I0
tp2027
a(I19
I3
I0
tp2028
a(I19
I27
I0
tp2029
a(I19
I7
I0
tp2030
a(I19
I18
I0
tp2031
a(I19
I2
I0
tp2032
a(I19
I20
I0
tp2033
a(I19
I17
I0
tp2034
a(I7
I3
I1
tp2035
a(I11
I10
I0
tp2036
a(I11
I3
I0
tp2037
a(I11
I27
I0
tp2038
a(I11
I7
I0
tp2039
a(I11
I18
I0
tp2040
a(I11
I2
I0
tp2041
a(I11
I20
I0
tp2042
a(I11
I17
I0
tp2043
a(I9
I10
I0
tp2044
a(I9
I3
I0
tp2045
a(I9
I27
I0
tp2046
a(I9
I7
I0
tp2047
a(I9
I18
I0
tp2048
a(I9
I2
I0
tp2049
a(I9
I20
I0
tp2050
a(I9
I17
I0
tp2051
a(I1
I2
I1
tp2052
a(I1
I3
I0
tp2053
a(I1
I10
I1
tp2054
a(I1
I20
I0
tp2055
a(I1
I2
I1
tp2056
a(I3
I10
I0
tp2057
a(I3
I3
I0
tp2058
a(I3
I27
I0
tp2059
a(I3
I7
I0
tp2060
a(I3
I18
I0
tp2061
a(I3
I2
I0
tp2062
a(I3
I20
I0
tp2063
a(I3
I17
I0
tp2064
a(I10
I10
I0
tp2065
a(I10
I3
I0
tp2066
a(I10
I27
I0
tp2067
a(I10
I7
I0
tp2068
a(I10
I18
I0
tp2069
a(I10
I2
I0
tp2070
a(I10
I20
I0
tp2071
a(I10
I17
I0
tp2072
a(I2
I10
I0
tp2073
a(I2
I3
I0
tp2074
a(I2
I27
I0
tp2075
a(I2
I7
I0
tp2076
a(I2
I18
I0
tp2077
a(I2
I2
I0
tp2078
a(I2
I20
I0
tp2079
a(I2
I17
I0
tp2080
a(I1
I20
I0
tp2081
a(I16
I20
I1
tp2082
a(I6
I2
I1
tp2083
a(I14
I10
I0
tp2084
a(I14
I3
I0
tp2085
a(I14
I27
I0
tp2086
a(I14
I7
I0
tp2087
a(I14
I18
I0
tp2088
a(I14
I2
I0
tp2089
a(I14
I20
I0
tp2090
a(I14
I17
I0
tp2091
a(I5
I18
I1
tp2092
a(I15
I10
I0
tp2093
a(I15
I3
I0
tp2094
a(I15
I27
I0
tp2095
a(I15
I7
I0
tp2096
a(I15
I18
I0
tp2097
a(I15
I2
I0
tp2098
a(I15
I20
I0
tp2099
a(I15
I17
I0
tp2100
a(I16
I20
I1
tp2101
a(I8
I3
I1
tp2102
a(I18
I10
I0
tp2103
a(I18
I3
I0
tp2104
a(I18
I27
I0
tp2105
a(I18
I7
I0
tp2106
a(I18
I18
I0
tp2107
a(I18
I2
I0
tp2108
a(I18
I20
I0
tp2109
a(I18
I17
I0
tp2110
a(I17
I10
I0
tp2111
a(I17
I3
I0
tp2112
a(I17
I27
I0
tp2113
a(I17
I7
I0
tp2114
a(I17
I18
I0
tp2115
a(I17
I2
I0
tp2116
a(I17
I20
I0
tp2117
a(I17
I17
I0
tp2118
a(I9
I2
I1
tp2119
a(I11
I10
I0
tp2120
a(I11
I3
I0
tp2121
a(I11
I27
I0
tp2122
a(I11
I7
I0
tp2123
a(I11
I18
I0
tp2124
a(I11
I2
I0
tp2125
a(I11
I20
I0
tp2126
a(I11
I17
I0
tp2127
a(I9
I27
I0
tp2128
a(I5
I7
I0
tp2129
a(I13
I7
I1
tp2130
a(I12
I20
I1
tp2131
a(I3
I2
I1
tp2132
a(I15
I10
I1
tp2133
a(I4
I17
I1
tp2134
a(I6
I10
I0
tp2135
a(I6
I3
I0
tp2136
a(I6
I27
I0
tp2137
a(I6
I7
I0
tp2138
a(I6
I18
I0
tp2139
a(I6
I2
I0
tp2140
a(I6
I20
I0
tp2141
a(I6
I17
I0
tp2142
a(I15
I18
I0
tp2143
a(I10
I10
I1
tp2144
a(I11
I17
I1
tp2145
a(I5
I18
I1
tp2146
a(I16
I20
I1
tp2147
a(I15
I7
I1
tp2148
a(I2
I17
I1
tp2149
a(I3
I18
I1
tp2150
a(I16
I2
I0
tp2151
a(I4
I18
I0
tp2152
a(I1
I10
I1
tp2153
a(I12
I7
I1
tp2154
a(I0
I7
I1
tp2155
a(I10
I18
I1
tp2156
a(I1
I17
I1
tp2157
a(I2
I17
I1
tp2158
a(I4
I10
I1
tp2159
a(I10
I10
I0
tp2160
a(I1
I18
I0
tp2161
a(I16
I2
I1
tp2162
a(I10
I2
I1
tp2163
a(I5
I17
I1
tp2164
a(I14
I17
I1
tp2165
a(I11
I10
I1
tp2166
a(I8
I2
I1
tp2167
a(I6
I17
I1
tp2168
a(I15
I7
I1
tp2169
a(I17
I10
I1
tp2170
a(I9
I10
I1
tp2171
a(I4
I20
I1
tp2172
a(I10
I2
I1
tp2173
a(I10
I2
I0
tp2174
a(I15
I2
I0
tp2175
a(I0
I3
I1
tp2176
a(I8
I18
I1
tp2177
a(I16
I20
I1
tp2178
a(I3
I27
I1
tp2179
a(I6
I3
I1
tp2180
a(I18
I18
I1
tp2181
a(I13
I7
I1
tp2182
a(I15
I2
I1
tp2183
a(I10
I10
I0
tp2184
a(I10
I3
I0
tp2185
a(I10
I27
I0
tp2186
a(I10
I7
I0
tp2187
a(I10
I18
I0
tp2188
a(I10
I2
I0
tp2189
a(I10
I20
I0
tp2190
a(I10
I17
I0
tp2191
a(I17
I18
I1
tp2192
a(I9
I10
I0
tp2193
a(I9
I3
I0
tp2194
a(I9
I27
I0
tp2195
a(I9
I7
I0
tp2196
a(I9
I18
I0
tp2197
a(I9
I2
I0
tp2198
a(I9
I20
I0
tp2199
a(I9
I17
I0
tp2200
a(I17
I27
I0
tp2201
a(I8
I7
I1
tp2202
a(I1
I10
I1
tp2203
a(I1
I27
I0
tp2204
a(I1
I2
I1
tp2205
a(I1
I27
I0
tp2206
a(I1
I2
I1
tp2207
a(I1
I27
I0
tp2208
a(I1
I10
I1
tp2209
a(I1
I27
I0
tp2210
a(I1
I10
I1
tp2211
a(I1
I27
I0
tp2212
a(I0
I3
I1
tp2213
a(I3
I3
I1
tp2214
a(I14
I3
I1
tp2215
a(I15
I18
I1
tp2216
a(I8
I7
I1
tp2217
a(I6
I2
I1
tp2218
a(I8
I17
I0
tp2219
a(I17
I17
I1
tp2220
a(I6
I2
I0
tp2221
a(I17
I27
I0
tp2222
a(I8
I20
I1
tp2223
a(I19
I20
I1
tp2224
a(I15
I17
I0
tp2225
a(I17
I18
I1
tp2226
a(I19
I10
I0
tp2227
a(I18
I10
I0
tp2228
a(I18
I3
I0
tp2229
a(I18
I27
I0
tp2230
a(I18
I7
I0
tp2231
a(I18
I18
I0
tp2232
a(I18
I2
I0
tp2233
a(I18
I20
I0
tp2234
a(I18
I17
I0
tp2235
a(I17
I10
I0
tp2236
a(I17
I3
I0
tp2237
a(I17
I27
I0
tp2238
a(I17
I7
I0
tp2239
a(I17
I18
I0
tp2240
a(I17
I2
I0
tp2241
a(I17
I20
I0
tp2242
a(I17
I17
I0
tp2243
a(I12
I20
I1
tp2244
a(I13
I10
I0
tp2245
a(I13
I3
I0
tp2246
a(I13
I27
I0
tp2247
a(I13
I7
I0
tp2248
a(I13
I18
I0
tp2249
a(I13
I2
I0
tp2250
a(I13
I20
I0
tp2251
a(I13
I17
I0
tp2252
a(I1
I2
I1
tp2253
a(I1
I10
I1
tp2254
a(I1
I3
I1
tp2255
a(I1
I27
I1
tp2256
a(I1
I7
I1
tp2257
a(I1
I18
I1
tp2258
a(I1
I2
I1
tp2259
a(I1
I20
I1
tp2260
a(I1
I17
I1
tp2261
a(I9
I2
I1
tp2262
a(I10
I10
I0
tp2263
a(I10
I3
I0
tp2264
a(I10
I27
I0
tp2265
a(I10
I7
I0
tp2266
a(I10
I18
I0
tp2267
a(I10
I2
I0
tp2268
a(I10
I20
I0
tp2269
a(I10
I17
I0
tp2270
a(I7
I3
I1
tp2271
a(I0
I10
I0
tp2272
a(I0
I3
I0
tp2273
a(I0
I27
I0
tp2274
a(I0
I7
I0
tp2275
a(I0
I18
I0
tp2276
a(I0
I2
I0
tp2277
a(I0
I20
I0
tp2278
a(I0
I17
I0
tp2279
a(I6
I10
I0
tp2280
a(I6
I3
I0
tp2281
a(I6
I27
I0
tp2282
a(I6
I7
I0
tp2283
a(I6
I18
I0
tp2284
a(I6
I2
I0
tp2285
a(I6
I20
I0
tp2286
a(I6
I17
I0
tp2287
a(I14
I10
I0
tp2288
a(I14
I3
I0
tp2289
a(I14
I27
I0
tp2290
a(I14
I7
I0
tp2291
a(I14
I18
I0
tp2292
a(I14
I2
I0
tp2293
a(I14
I20
I0
tp2294
a(I14
I17
I0
tp2295
a(I12
I2
I0
tp2296
a(I16
I18
I1
tp2297
a(I16
I10
I1
tp2298
a(I16
I3
I1
tp2299
a(I16
I27
I1
tp2300
a(I16
I7
I1
tp2301
a(I16
I18
I1
tp2302
a(I16
I2
I1
tp2303
a(I16
I20
I1
tp2304
a(I16
I17
I1
tp2305
a(I1
I2
I1
tp2306
a(I3
I10
I0
tp2307
a(I3
I3
I0
tp2308
a(I3
I27
I0
tp2309
a(I3
I7
I0
tp2310
a(I3
I18
I0
tp2311
a(I3
I2
I0
tp2312
a(I3
I20
I0
tp2313
a(I3
I17
I0
tp2314
a(I10
I10
I0
tp2315
a(I10
I3
I0
tp2316
a(I10
I27
I0
tp2317
a(I10
I7
I0
tp2318
a(I10
I18
I0
tp2319
a(I10
I2
I0
tp2320
a(I10
I20
I0
tp2321
a(I10
I17
I0
tp2322
a(I1
I27
I0
tp2323
a(I1
I10
I1
tp2324
a(I1
I7
I0
tp2325
a(I1
I3
I0
tp2326
a(I1
I10
I1
tp2327
a(I9
I10
I0
tp2328
a(I9
I3
I0
tp2329
a(I9
I27
I0
tp2330
a(I9
I7
I0
tp2331
a(I9
I18
I0
tp2332
a(I9
I2
I0
tp2333
a(I9
I20
I0
tp2334
a(I9
I17
I0
tp2335
a(I8
I3
I1
tp2336
a(I18
I2
I1
tp2337
a(I14
I10
I0
tp2338
a(I14
I3
I0
tp2339
a(I14
I27
I0
tp2340
a(I14
I7
I0
tp2341
a(I14
I18
I0
tp2342
a(I14
I2
I0
tp2343
a(I14
I20
I0
tp2344
a(I14
I17
I0
tp2345
a(I1
I7
I1
tp2346
a(I8
I10
I0
tp2347
a(I8
I3
I0
tp2348
a(I8
I27
I0
tp2349
a(I8
I7
I0
tp2350
a(I8
I18
I0
tp2351
a(I8
I2
I0
tp2352
a(I8
I20
I0
tp2353
a(I8
I17
I0
tp2354
a(I18
I10
I0
tp2355
a(I18
I3
I0
tp2356
a(I18
I27
I0
tp2357
a(I18
I7
I0
tp2358
a(I18
I18
I0
tp2359
a(I18
I2
I0
tp2360
a(I18
I20
I0
tp2361
a(I18
I17
I0
tp2362
a(I9
I20
I1
tp2363
a(I7
I10
I0
tp2364
a(I7
I3
I0
tp2365
a(I7
I27
I0
tp2366
a(I7
I7
I0
tp2367
a(I7
I18
I0
tp2368
a(I7
I2
I0
tp2369
a(I7
I20
I0
tp2370
a(I7
I17
I0
tp2371
a(I4
I7
I1
tp2372
a(I1
I10
I0
tp2373
a(I1
I3
I0
tp2374
a(I1
I27
I0
tp2375
a(I1
I7
I0
tp2376
a(I1
I18
I0
tp2377
a(I1
I2
I0
tp2378
a(I1
I20
I0
tp2379
a(I1
I17
I0
tp2380
a(I10
I2
I1
tp2381
a(I10
I10
I1
tp2382
a(I10
I3
I1
tp2383
a(I10
I27
I1
tp2384
a(I10
I7
I1
tp2385
a(I10
I18
I1
tp2386
a(I10
I2
I1
tp2387
a(I10
I20
I1
tp2388
a(I10
I17
I1
tp2389
a(I5
I17
I1
tp2390
a(I12
I17
I1
tp2391
a(I19
I10
I0
tp2392
a(I19
I3
I0
tp2393
a(I19
I27
I0
tp2394
a(I19
I7
I0
tp2395
a(I19
I18
I0
tp2396
a(I19
I2
I0
tp2397
a(I19
I20
I0
tp2398
a(I19
I17
I0
tp2399
a(I9
I2
I0
tp2400
a(I4
I20
I0
tp2401
a(I2
I20
I1
tp2402
a(I2
I10
I1
tp2403
a(I2
I3
I1
tp2404
a(I2
I27
I1
tp2405
a(I2
I7
I1
tp2406
a(I2
I18
I1
tp2407
a(I2
I2
I1
tp2408
a(I2
I20
I1
tp2409
a(I2
I17
I1
tp2410
a(I6
I10
I0
tp2411
a(I6
I3
I0
tp2412
a(I6
I27
I0
tp2413
a(I6
I7
I0
tp2414
a(I6
I18
I0
tp2415
a(I6
I2
I0
tp2416
a(I6
I20
I0
tp2417
a(I6
I17
I0
tp2418
a(I18
I10
I0
tp2419
a(I18
I3
I0
tp2420
a(I18
I27
I0
tp2421
a(I18
I7
I0
tp2422
a(I18
I18
I0
tp2423
a(I18
I2
I0
tp2424
a(I18
I20
I0
tp2425
a(I18
I17
I0
tp2426
a(I2
I10
I0
tp2427
a(I2
I3
I0
tp2428
a(I2
I27
I0
tp2429
a(I2
I7
I0
tp2430
a(I2
I18
I0
tp2431
a(I2
I2
I0
tp2432
a(I2
I20
I0
tp2433
a(I2
I17
I0
tp2434
a(I16
I10
I0
tp2435
a(I16
I3
I0
tp2436
a(I16
I27
I0
tp2437
a(I16
I7
I0
tp2438
a(I16
I18
I0
tp2439
a(I16
I2
I0
tp2440
a(I16
I20
I0
tp2441
a(I16
I17
I0
tp2442
a(I8
I10
I0
tp2443
a(I8
I3
I0
tp2444
a(I8
I27
I0
tp2445
a(I8
I7
I0
tp2446
a(I8
I18
I0
tp2447
a(I8
I2
I0
tp2448
a(I8
I20
I0
tp2449
a(I8
I17
I0
tp2450
a(I3
I10
I0
tp2451
a(I3
I3
I0
tp2452
a(I3
I27
I0
tp2453
a(I3
I7
I0
tp2454
a(I3
I18
I0
tp2455
a(I3
I2
I0
tp2456
a(I3
I20
I0
tp2457
a(I3
I17
I0
tp2458
a(I13
I10
I0
tp2459
a(I13
I3
I0
tp2460
a(I13
I27
I0
tp2461
a(I13
I7
I0
tp2462
a(I13
I18
I0
tp2463
a(I13
I2
I0
tp2464
a(I13
I20
I0
tp2465
a(I13
I17
I0
tp2466
a(I4
I10
I0
tp2467
a(I4
I3
I0
tp2468
a(I4
I27
I0
tp2469
a(I4
I7
I0
tp2470
a(I4
I18
I0
tp2471
a(I4
I2
I0
tp2472
a(I4
I20
I0
tp2473
a(I4
I17
I0
tp2474
a(I5
I10
I0
tp2475
a(I5
I3
I0
tp2476
a(I5
I27
I0
tp2477
a(I5
I7
I0
tp2478
a(I5
I18
I0
tp2479
a(I5
I2
I0
tp2480
a(I5
I20
I0
tp2481
a(I5
I17
I0
tp2482
a(I14
I10
I0
tp2483
a(I14
I3
I0
tp2484
a(I14
I27
I0
tp2485
a(I14
I7
I0
tp2486
a(I14
I18
I0
tp2487
a(I14
I2
I0
tp2488
a(I14
I20
I0
tp2489
a(I14
I17
I0
tp2490
a(I15
I10
I0
tp2491
a(I15
I3
I0
tp2492
a(I15
I27
I0
tp2493
a(I15
I7
I0
tp2494
a(I15
I18
I0
tp2495
a(I15
I2
I0
tp2496
a(I15
I20
I0
tp2497
a(I15
I17
I0
tp2498
a(I10
I10
I0
tp2499
a(I10
I3
I0
tp2500
a(I10
I27
I0
tp2501
a(I10
I7
I0
tp2502
a(I10
I18
I0
tp2503
a(I10
I2
I0
tp2504
a(I10
I20
I0
tp2505
a(I10
I17
I0
tp2506
a(I11
I10
I0
tp2507
a(I11
I3
I0
tp2508
a(I11
I27
I0
tp2509
a(I11
I7
I0
tp2510
a(I11
I18
I0
tp2511
a(I11
I2
I0
tp2512
a(I11
I20
I0
tp2513
a(I11
I17
I0
tp2514
a(I19
I10
I0
tp2515
a(I19
I3
I0
tp2516
a(I19
I27
I0
tp2517
a(I19
I7
I0
tp2518
a(I19
I18
I0
tp2519
a(I19
I2
I0
tp2520
a(I19
I20
I0
tp2521
a(I19
I17
I0
tp2522
a(I17
I10
I0
tp2523
a(I17
I3
I0
tp2524
a(I17
I27
I0
tp2525
a(I17
I7
I0
tp2526
a(I17
I18
I0
tp2527
a(I17
I2
I0
tp2528
a(I17
I20
I0
tp2529
a(I17
I17
I0
tp2530
a(I6
I10
I0
tp2531
a(I6
I3
I0
tp2532
a(I6
I27
I0
tp2533
a(I6
I7
I0
tp2534
a(I6
I18
I0
tp2535
a(I6
I2
I0
tp2536
a(I6
I20
I0
tp2537
a(I6
I17
I0
tp2538
a(I12
I20
I1
tp2539
a(I13
I10
I0
tp2540
a(I13
I3
I0
tp2541
a(I13
I27
I0
tp2542
a(I13
I7
I0
tp2543
a(I13
I18
I0
tp2544
a(I13
I2
I0
tp2545
a(I13
I20
I0
tp2546
a(I13
I17
I0
tp2547
a(I4
I2
I1
tp2548
a(I14
I10
I0
tp2549
a(I14
I3
I0
tp2550
a(I14
I27
I0
tp2551
a(I14
I7
I0
tp2552
a(I14
I18
I0
tp2553
a(I14
I2
I0
tp2554
a(I14
I20
I0
tp2555
a(I14
I17
I0
tp2556
a(I1
I2
I1
tp2557
a(I1
I18
I0
tp2558
a(I1
I7
I1
tp2559
a(I1
I10
I0
tp2560
a(I1
I7
I1
tp2561
a(I15
I20
I1
tp2562
a(I15
I27
I0
tp2563
a(I2
I10
I0
tp2564
a(I2
I3
I0
tp2565
a(I2
I27
I0
tp2566
a(I2
I7
I0
tp2567
a(I2
I18
I0
tp2568
a(I2
I2
I0
tp2569
a(I2
I20
I0
tp2570
a(I2
I17
I0
tp2571
a(I0
I10
I0
tp2572
a(I0
I3
I0
tp2573
a(I0
I27
I0
tp2574
a(I0
I7
I0
tp2575
a(I0
I18
I0
tp2576
a(I0
I2
I0
tp2577
a(I0
I20
I0
tp2578
a(I0
I17
I0
tp2579
a(I1
I3
I0
tp2580
a(I10
I5
I0
tp2581
a(I10
I14
I0
tp2582
a(I10
I8
I0
tp2583
a(I10
I15
I0
tp2584
a(I10
I1
I0
tp2585
a(I10
I30
I0
tp2586
a(I10
I29
I0
tp2587
a(I10
I31
I0
tp2588
a(I14
I5
I0
tp2589
a(I14
I14
I0
tp2590
a(I14
I8
I0
tp2591
a(I14
I15
I0
tp2592
a(I14
I1
I0
tp2593
a(I14
I30
I0
tp2594
a(I14
I29
I0
tp2595
a(I14
I31
I0
tp2596
a(I11
I5
I0
tp2597
a(I11
I14
I0
tp2598
a(I11
I8
I0
tp2599
a(I11
I15
I0
tp2600
a(I11
I1
I0
tp2601
a(I11
I30
I0
tp2602
a(I11
I29
I0
tp2603
a(I11
I31
I0
tp2604
a(I7
I14
I0
tp2605
a(I7
I31
I0
tp2606
a(I12
I31
I0
tp2607
a(I3
I5
I0
tp2608
a(I3
I14
I0
tp2609
a(I3
I8
I0
tp2610
a(I3
I15
I0
tp2611
a(I3
I1
I0
tp2612
a(I3
I30
I0
tp2613
a(I3
I29
I0
tp2614
a(I3
I31
I0
tp2615
a(I4
I15
I0
tp2616
a(I23
I5
I0
tp2617
a(I4
I31
I0
tp2618
a(I4
I30
I0
tp2619
a(I4
I1
I0
tp2620
a(I4
I8
I1
tp2621
a(I4
I5
I0
tp2622
a(I18
I31
I1
tp2623
a(I10
I8
I1
tp2624
a(I23
I15
I0
tp2625
a(I10
I31
I0
tp2626
a(I22
I15
I0
tp2627
a(I6
I5
I0
tp2628
a(I6
I14
I0
tp2629
a(I6
I8
I0
tp2630
a(I6
I15
I0
tp2631
a(I6
I1
I0
tp2632
a(I6
I30
I0
tp2633
a(I6
I29
I0
tp2634
a(I6
I31
I0
tp2635
a(I18
I29
I1
tp2636
a(I12
I14
I1
tp2637
a(I18
I8
I1
tp2638
a(I1
I1
I1
tp2639
a(I23
I29
I1
tp2640
a(I15
I29
I1
tp2641
a(I19
I5
I0
tp2642
a(I19
I14
I0
tp2643
a(I19
I8
I0
tp2644
a(I19
I15
I0
tp2645
a(I19
I1
I0
tp2646
a(I19
I30
I0
tp2647
a(I19
I29
I0
tp2648
a(I19
I31
I0
tp2649
a(I16
I14
I1
tp2650
a(I22
I29
I1
tp2651
a(I12
I31
I0
tp2652
a(I15
I5
I0
tp2653
a(I15
I14
I0
tp2654
a(I15
I8
I0
tp2655
a(I15
I15
I0
tp2656
a(I15
I1
I0
tp2657
a(I15
I30
I0
tp2658
a(I15
I29
I0
tp2659
a(I15
I31
I0
tp2660
a(I13
I5
I0
tp2661
a(I13
I14
I0
tp2662
a(I13
I8
I0
tp2663
a(I13
I15
I0
tp2664
a(I13
I1
I0
tp2665
a(I13
I30
I0
tp2666
a(I13
I29
I0
tp2667
a(I13
I31
I0
tp2668
a(I14
I5
I0
tp2669
a(I14
I14
I0
tp2670
a(I14
I8
I0
tp2671
a(I14
I15
I0
tp2672
a(I14
I1
I0
tp2673
a(I14
I30
I0
tp2674
a(I14
I29
I0
tp2675
a(I14
I31
I0
tp2676
a(I11
I5
I0
tp2677
a(I11
I14
I0
tp2678
a(I11
I8
I0
tp2679
a(I11
I15
I0
tp2680
a(I11
I1
I0
tp2681
a(I11
I30
I0
tp2682
a(I11
I29
I0
tp2683
a(I11
I31
I0
tp2684
a(I22
I14
I0
tp2685
a(I0
I30
I1
tp2686
a(I1
I8
I1
tp2687
a(I1
I29
I1
tp2688
a(I1
I31
I1
tp2689
a(I1
I8
I1
tp2690
a(I1
I31
I1
tp2691
a(I1
I29
I1
tp2692
a(I1
I5
I0
tp2693
a(I1
I14
I0
tp2694
a(I1
I8
I0
tp2695
a(I1
I15
I0
tp2696
a(I1
I1
I0
tp2697
a(I1
I30
I0
tp2698
a(I1
I29
I0
tp2699
a(I1
I31
I0
tp2700
a(I3
I5
I0
tp2701
a(I3
I14
I0
tp2702
a(I3
I8
I0
tp2703
a(I3
I15
I0
tp2704
a(I3
I1
I0
tp2705
a(I3
I30
I0
tp2706
a(I3
I29
I0
tp2707
a(I3
I31
I0
tp2708
a(I12
I30
I0
tp2709
a(I6
I5
I0
tp2710
a(I6
I14
I0
tp2711
a(I6
I8
I0
tp2712
a(I6
I15
I0
tp2713
a(I6
I1
I0
tp2714
a(I6
I30
I0
tp2715
a(I6
I29
I0
tp2716
a(I6
I31
I0
tp2717
a(I8
I8
I1
tp2718
a(I7
I8
I0
tp2719
a(I20
I14
I0
tp2720
a(I12
I31
I0
tp2721
a(I8
I8
I1
tp2722
a(I10
I5
I0
tp2723
a(I10
I14
I0
tp2724
a(I10
I8
I0
tp2725
a(I10
I15
I0
tp2726
a(I10
I1
I0
tp2727
a(I10
I30
I0
tp2728
a(I10
I29
I0
tp2729
a(I10
I31
I0
tp2730
a(I8
I8
I1
tp2731
a(I11
I5
I0
tp2732
a(I11
I14
I0
tp2733
a(I11
I8
I0
tp2734
a(I11
I15
I0
tp2735
a(I11
I1
I0
tp2736
a(I11
I30
I0
tp2737
a(I11
I29
I0
tp2738
a(I11
I31
I0
tp2739
a(I1
I30
I1
tp2740
a(I1
I30
I1
tp2741
a(I1
I5
I0
tp2742
a(I1
I14
I0
tp2743
a(I1
I8
I0
tp2744
a(I1
I15
I0
tp2745
a(I1
I1
I0
tp2746
a(I1
I30
I0
tp2747
a(I1
I29
I0
tp2748
a(I1
I31
I0
tp2749
a(I8
I5
I0
tp2750
a(I5
I29
I0
tp2751
a(I23
I8
I0
tp2752
a(I4
I31
I0
tp2753
a(I5
I30
I0
tp2754
a(I6
I5
I0
tp2755
a(I6
I14
I0
tp2756
a(I6
I8
I0
tp2757
a(I6
I15
I0
tp2758
a(I6
I1
I0
tp2759
a(I6
I30
I0
tp2760
a(I6
I29
I0
tp2761
a(I6
I31
I0
tp2762
a(I5
I15
I1
tp2763
a(I10
I5
I0
tp2764
a(I10
I14
I0
tp2765
a(I10
I8
I0
tp2766
a(I10
I15
I0
tp2767
a(I10
I1
I0
tp2768
a(I10
I30
I0
tp2769
a(I10
I29
I0
tp2770
a(I10
I31
I0
tp2771
a(I14
I29
I1
tp2772
a(I5
I1
I1
tp2773
a(I12
I31
I1
tp2774
a(I8
I8
I1
tp2775
a(I19
I1
I1
tp2776
a(I8
I1
I1
tp2777
a(I19
I15
I1
tp2778
a(I19
I5
I0
tp2779
a(I19
I29
I0
tp2780
a(I7
I31
I0
tp2781
a(I22
I5
I0
tp2782
a(I19
I8
I1
tp2783
a(I16
I14
I0
tp2784
a(I4
I30
I1
tp2785
a(I4
I5
I0
tp2786
a(I4
I14
I0
tp2787
a(I4
I8
I0
tp2788
a(I4
I15
I0
tp2789
a(I4
I1
I0
tp2790
a(I4
I30
I0
tp2791
a(I4
I29
I0
tp2792
a(I4
I31
I0
tp2793
a(I23
I8
I0
tp2794
a(I7
I1
I0
tp2795
a(I7
I8
I0
tp2796
a(I23
I30
I1
tp2797
a(I17
I5
I0
tp2798
a(I17
I14
I0
tp2799
a(I17
I8
I0
tp2800
a(I17
I15
I0
tp2801
a(I17
I1
I0
tp2802
a(I17
I30
I0
tp2803
a(I17
I29
I0
tp2804
a(I17
I31
I0
tp2805
a(I8
I1
I1
tp2806
a(I1
I1
I1
tp2807
a(I8
I1
I1
tp2808
a(I19
I31
I1
tp2809
a(I1
I31
I1
tp2810
a(I12
I31
I0
tp2811
a(I16
I31
I0
tp2812
a(I11
I5
I0
tp2813
a(I11
I14
I0
tp2814
a(I11
I8
I0
tp2815
a(I11
I15
I0
tp2816
a(I11
I1
I0
tp2817
a(I11
I30
I0
tp2818
a(I11
I29
I0
tp2819
a(I11
I31
I0
tp2820
a(I16
I30
I0
tp2821
a(I1
I29
I1
tp2822
a(I1
I31
I1
tp2823
a(I1
I8
I1
tp2824
a(I1
I30
I1
tp2825
a(I1
I14
I1
tp2826
a(I21
I30
I1
tp2827
a(I7
I1
I0
tp2828
a(I7
I31
I0
tp2829
a(I4
I15
I0
tp2830
a(I12
I30
I0
tp2831
a(I14
I5
I0
tp2832
a(I14
I14
I0
tp2833
a(I14
I8
I0
tp2834
a(I14
I15
I0
tp2835
a(I14
I1
I0
tp2836
a(I14
I30
I0
tp2837
a(I14
I29
I0
tp2838
a(I14
I31
I0
tp2839
a(I12
I30
I0
tp2840
a(I1
I29
I1
tp2841
a(I8
I8
I1
tp2842
a(I12
I31
I0
tp2843
a(I16
I31
I0
tp2844
a(I1
I29
I1
tp2845
a(I5
I30
I0
tp2846
a(I8
I8
I1
tp2847
a(I12
I15
I0
tp2848
a(I4
I5
I0
tp2849
a(I4
I14
I0
tp2850
a(I4
I8
I1
tp2851
a(I4
I29
I0
tp2852
a(I4
I1
I1
tp2853
a(I4
I29
I1
tp2854
a(I20
I31
I0
tp2855
a(I1
I31
I1
tp2856
a(I23
I8
I0
tp2857
a(I2
I5
I0
tp2858
a(I2
I14
I0
tp2859
a(I2
I8
I0
tp2860
a(I2
I15
I0
tp2861
a(I2
I1
I0
tp2862
a(I2
I30
I0
tp2863
a(I2
I29
I0
tp2864
a(I2
I31
I0
tp2865
a(I4
I31
I1
tp2866
a(I4
I8
I1
tp2867
a(I4
I8
I1
tp2868
a(I4
I5
I1
tp2869
a(I4
I5
I0
tp2870
a(I4
I14
I0
tp2871
a(I4
I8
I0
tp2872
a(I4
I15
I0
tp2873
a(I4
I1
I0
tp2874
a(I4
I30
I0
tp2875
a(I4
I29
I0
tp2876
a(I4
I31
I0
tp2877
a(I23
I29
I1
tp2878
a(I8
I5
I1
tp2879
a(I20
I5
I0
tp2880
a(I20
I14
I0
tp2881
a(I20
I8
I0
tp2882
a(I20
I15
I0
tp2883
a(I20
I1
I0
tp2884
a(I20
I30
I0
tp2885
a(I20
I29
I0
tp2886
a(I20
I31
I0
tp2887
a(I5
I14
I0
tp2888
a(I5
I30
I0
tp2889
a(I1
I1
I1
tp2890
a(I8
I30
I1
tp2891
a(I13
I15
I1
tp2892
a(I16
I30
I1
tp2893
a(I12
I14
I1
tp2894
a(I10
I29
I1
tp2895
a(I22
I31
I0
tp2896
a(I6
I5
I0
tp2897
a(I6
I14
I0
tp2898
a(I6
I8
I0
tp2899
a(I6
I15
I0
tp2900
a(I6
I1
I0
tp2901
a(I6
I30
I0
tp2902
a(I6
I29
I0
tp2903
a(I6
I31
I0
tp2904
a(I3
I14
I1
tp2905
a(I13
I1
I1
tp2906
a(I12
I30
I1
tp2907
a(I17
I5
I0
tp2908
a(I17
I14
I0
tp2909
a(I17
I8
I0
tp2910
a(I17
I15
I0
tp2911
a(I17
I1
I0
tp2912
a(I17
I30
I0
tp2913
a(I17
I29
I0
tp2914
a(I17
I31
I0
tp2915
a(I5
I15
I0
tp2916
a(I10
I14
I1
tp2917
a(I11
I5
I1
tp2918
a(I20
I5
I1
tp2919
a(I20
I14
I1
tp2920
a(I20
I8
I1
tp2921
a(I20
I15
I1
tp2922
a(I20
I1
I1
tp2923
a(I20
I30
I1
tp2924
a(I20
I29
I1
tp2925
a(I20
I31
I1
tp2926
a(I8
I5
I0
tp2927
a(I8
I14
I0
tp2928
a(I8
I8
I0
tp2929
a(I8
I15
I0
tp2930
a(I8
I1
I0
tp2931
a(I8
I30
I0
tp2932
a(I8
I29
I0
tp2933
a(I8
I31
I0
tp2934
a(I17
I5
I0
tp2935
a(I17
I14
I0
tp2936
a(I17
I8
I0
tp2937
a(I17
I15
I0
tp2938
a(I17
I1
I0
tp2939
a(I17
I30
I0
tp2940
a(I17
I29
I0
tp2941
a(I17
I31
I0
tp2942
a(I12
I30
I1
tp2943
a(I1
I8
I1
tp2944
a(I1
I8
I1
tp2945
a(I1
I15
I1
tp2946
a(I1
I5
I0
tp2947
a(I1
I14
I0
tp2948
a(I1
I8
I0
tp2949
a(I1
I15
I0
tp2950
a(I1
I1
I0
tp2951
a(I1
I30
I0
tp2952
a(I1
I29
I0
tp2953
a(I1
I31
I0
tp2954
a(I7
I31
I1
tp2955
a(I14
I31
I1
tp2956
a(I22
I5
I1
tp2957
a(I22
I14
I1
tp2958
a(I22
I8
I1
tp2959
a(I22
I15
I1
tp2960
a(I22
I1
I1
tp2961
a(I22
I30
I1
tp2962
a(I22
I29
I1
tp2963
a(I22
I31
I1
tp2964
a(I16
I30
I1
tp2965
a(I23
I5
I1
tp2966
a(I23
I14
I1
tp2967
a(I23
I8
I1
tp2968
a(I23
I15
I1
tp2969
a(I23
I1
I1
tp2970
a(I23
I30
I1
tp2971
a(I23
I29
I1
tp2972
a(I23
I31
I1
tp2973
a(I18
I30
I1
tp2974
a(I6
I30
I1
tp2975
a(I4
I29
I0
tp2976
a(I22
I29
I0
tp2977
a(I5
I8
I0
tp2978
a(I4
I5
I1
tp2979
a(I5
I30
I0
tp2980
a(I0
I5
I0
tp2981
a(I0
I14
I0
tp2982
a(I0
I8
I0
tp2983
a(I0
I15
I0
tp2984
a(I0
I1
I0
tp2985
a(I0
I30
I0
tp2986
a(I0
I29
I0
tp2987
a(I0
I31
I0
tp2988
a(I16
I31
I0
tp2989
a(I4
I1
I1
tp2990
a(I1
I29
I1
tp2991
a(I16
I30
I0
tp2992
a(I19
I5
I0
tp2993
a(I19
I14
I0
tp2994
a(I19
I8
I0
tp2995
a(I19
I15
I0
tp2996
a(I19
I1
I0
tp2997
a(I19
I30
I0
tp2998
a(I19
I29
I0
tp2999
a(I19
I31
I0
tp3000
a(I4
I15
I1
tp3001
a(I22
I1
I1
tp3002
a(I17
I5
I0
tp3003
a(I17
I14
I0
tp3004
a(I17
I8
I0
tp3005
a(I17
I15
I0
tp3006
a(I17
I1
I0
tp3007
a(I17
I30
I0
tp3008
a(I17
I29
I0
tp3009
a(I17
I31
I0
tp3010
a(I22
I29
I0
tp3011
a(I14
I1
I1
tp3012
a(I4
I8
I1
tp3013
a(I2
I8
I1
tp3014
a(I5
I30
I0
tp3015
a(I9
I5
I0
tp3016
a(I9
I14
I0
tp3017
a(I9
I8
I0
tp3018
a(I9
I15
I0
tp3019
a(I9
I1
I0
tp3020
a(I9
I30
I0
tp3021
a(I9
I29
I0
tp3022
a(I9
I31
I0
tp3023
a(I23
I5
I0
tp3024
a(I8
I5
I1
tp3025
a(I14
I15
I0
tp3026
a(I7
I1
I0
tp3027
a(I22
I5
I0
tp3028
a(I4
I1
I1
tp3029
a(I4
I15
I1
tp3030
a(I4
I5
I1
tp3031
a(I18
I5
I0
tp3032
a(I18
I14
I0
tp3033
a(I18
I8
I0
tp3034
a(I18
I15
I0
tp3035
a(I18
I1
I0
tp3036
a(I18
I30
I0
tp3037
a(I18
I29
I0
tp3038
a(I18
I31
I0
tp3039
a(I4
I8
I1
tp3040
a(I16
I31
I0
tp3041
a(I16
I30
I0
tp3042
a(I1
I31
I1
tp3043
a(I10
I31
I1
tp3044
a(I19
I5
I0
tp3045
a(I19
I14
I0
tp3046
a(I19
I8
I0
tp3047
a(I19
I15
I0
tp3048
a(I19
I1
I0
tp3049
a(I19
I30
I0
tp3050
a(I19
I29
I0
tp3051
a(I19
I31
I0
tp3052
a(I4
I31
I0
tp3053
a(I4
I5
I1
tp3054
a(I4
I1
I1
tp3055
a(I4
I8
I1
tp3056
a(I4
I14
I0
tp3057
a(I4
I30
I0
tp3058
a(I4
I15
I1
tp3059
a(I4
I29
I0
tp3060
a(I7
I31
I0
tp3061
a(I1
I31
I1
tp3062
a(I9
I5
I0
tp3063
a(I9
I14
I0
tp3064
a(I9
I8
I0
tp3065
a(I9
I15
I0
tp3066
a(I9
I1
I0
tp3067
a(I9
I30
I0
tp3068
a(I9
I29
I0
tp3069
a(I9
I31
I0
tp3070
a(I0
I14
I1
tp3071
a(I12
I30
I0
tp3072
a(I19
I8
I1
tp3073
a(I16
I14
I0
tp3074
a(I7
I14
I0
tp3075
a(I7
I1
I0
tp3076
a(I7
I31
I0
tp3077
a(I3
I29
I1
tp3078
a(I0
I30
I0
tp3079
a(I18
I5
I1
tp3080
a(I1
I31
I1
tp3081
a(I5
I30
I0
tp3082
a(I2
I8
I1
tp3083
a(I1
I29
I1
tp3084
a(I9
I30
I1
tp3085
a(I15
I5
I0
tp3086
a(I15
I14
I0
tp3087
a(I15
I8
I0
tp3088
a(I15
I15
I0
tp3089
a(I15
I1
I0
tp3090
a(I15
I30
I0
tp3091
a(I15
I29
I0
tp3092
a(I15
I31
I0
tp3093
a(I23
I5
I0
tp3094
a(I12
I31
I0
tp3095
a(I12
I30
I0
tp3096
a(I12
I8
I0
tp3097
a(I19
I8
I1
tp3098
a(I6
I5
I0
tp3099
a(I6
I14
I0
tp3100
a(I6
I8
I0
tp3101
a(I6
I15
I0
tp3102
a(I6
I1
I0
tp3103
a(I6
I30
I0
tp3104
a(I6
I29
I0
tp3105
a(I6
I31
I0
tp3106
a(I9
I5
I0
tp3107
a(I1
I14
I1
tp3108
a(I1
I8
I0
tp3109
a(I1
I14
I1
tp3110
a(I1
I29
I1
tp3111
a(I1
I31
I1
tp3112
a(I1
I1
I1
tp3113
a(I18
I5
I1
tp3114
a(I7
I8
I0
tp3115
a(I17
I5
I0
tp3116
a(I17
I14
I0
tp3117
a(I17
I8
I0
tp3118
a(I17
I15
I0
tp3119
a(I17
I1
I0
tp3120
a(I17
I30
I0
tp3121
a(I17
I29
I0
tp3122
a(I17
I31
I0
tp3123
a(I18
I15
I0
tp3124
a(I11
I5
I0
tp3125
a(I11
I14
I0
tp3126
a(I11
I8
I0
tp3127
a(I11
I15
I0
tp3128
a(I11
I1
I0
tp3129
a(I11
I30
I0
tp3130
a(I11
I29
I0
tp3131
a(I11
I31
I0
tp3132
a(I23
I31
I0
tp3133
a(I4
I30
I1
tp3134
a(I4
I29
I1
tp3135
a(I23
I30
I1
tp3136
a(I23
I5
I0
tp3137
a(I16
I30
I1
tp3138
a(I20
I30
I0
tp3139
a(I18
I1
I0
tp3140
a(I7
I31
I0
tp3141
a(I20
I31
I1
tp3142
a(I16
I14
I0
tp3143
a(I16
I31
I0
tp3144
a(I4
I1
I0
tp3145
a(I18
I5
I0
tp3146
a(I18
I14
I0
tp3147
a(I18
I8
I0
tp3148
a(I18
I15
I0
tp3149
a(I18
I1
I0
tp3150
a(I18
I30
I0
tp3151
a(I18
I29
I0
tp3152
a(I18
I31
I0
tp3153
a(I5
I29
I0
tp3154
a(I1
I30
I1
tp3155
a(I1
I30
I1
tp3156
a(I1
I29
I1
tp3157
a(I14
I5
I0
tp3158
a(I14
I14
I0
tp3159
a(I14
I8
I0
tp3160
a(I14
I15
I0
tp3161
a(I14
I1
I0
tp3162
a(I14
I30
I0
tp3163
a(I14
I29
I0
tp3164
a(I14
I31
I0
tp3165
a(I1
I31
I1
tp3166
a(I4
I31
I0
tp3167
a(I4
I5
I0
tp3168
a(I4
I15
I0
tp3169
a(I4
I8
I1
tp3170
a(I4
I29
I0
tp3171
a(I8
I29
I1
tp3172
a(I1
I8
I1
tp3173
a(I5
I5
I0
tp3174
a(I22
I5
I1
tp3175
a(I22
I14
I1
tp3176
a(I22
I8
I1
tp3177
a(I22
I15
I1
tp3178
a(I22
I1
I1
tp3179
a(I22
I30
I1
tp3180
a(I22
I29
I1
tp3181
a(I22
I31
I1
tp3182
a(I12
I31
I0
tp3183
a(I14
I5
I0
tp3184
a(I14
I14
I0
tp3185
a(I14
I8
I0
tp3186
a(I14
I15
I0
tp3187
a(I14
I1
I0
tp3188
a(I14
I30
I0
tp3189
a(I14
I29
I0
tp3190
a(I14
I31
I0
tp3191
a(I10
I8
I1
tp3192
a(I2
I8
I1
tp3193
a(I2
I31
I0
tp3194
a(I0
I5
I0
tp3195
a(I0
I14
I0
tp3196
a(I0
I8
I0
tp3197
a(I0
I15
I0
tp3198
a(I0
I1
I0
tp3199
a(I0
I30
I0
tp3200
a(I0
I29
I0
tp3201
a(I0
I31
I0
tp3202
a(I1
I8
I1
tp3203
a(I1
I8
I1
tp3204
a(I1
I30
I1
tp3205
a(I1
I29
I1
tp3206
a(I1
I31
I1
tp3207
a(I9
I5
I0
tp3208
a(I9
I14
I0
tp3209
a(I9
I8
I0
tp3210
a(I9
I15
I0
tp3211
a(I9
I1
I0
tp3212
a(I9
I30
I0
tp3213
a(I9
I29
I0
tp3214
a(I9
I31
I0
tp3215
a(I3
I5
I0
tp3216
a(I3
I14
I0
tp3217
a(I3
I8
I0
tp3218
a(I3
I15
I0
tp3219
a(I3
I1
I0
tp3220
a(I3
I30
I0
tp3221
a(I3
I29
I0
tp3222
a(I3
I31
I0
tp3223
a(I16
I31
I0
tp3224
a(I11
I5
I0
tp3225
a(I11
I14
I0
tp3226
a(I11
I8
I0
tp3227
a(I11
I15
I0
tp3228
a(I11
I1
I0
tp3229
a(I11
I30
I0
tp3230
a(I11
I29
I0
tp3231
a(I11
I31
I0
tp3232
a(I4
I1
I1
tp3233
a(I4
I31
I0
tp3234
a(I4
I15
I1
tp3235
a(I4
I29
I0
tp3236
a(I4
I5
I1
tp3237
a(I4
I8
I1
tp3238
a(I2
I8
I1
tp3239
a(I8
I8
I1
tp3240
a(I0
I5
I0
tp3241
a(I0
I14
I0
tp3242
a(I0
I8
I0
tp3243
a(I0
I15
I0
tp3244
a(I0
I1
I0
tp3245
a(I0
I30
I0
tp3246
a(I0
I29
I0
tp3247
a(I0
I31
I0
tp3248
a(I7
I31
I0
tp3249
a(I4
I30
I0
tp3250
a(I22
I5
I1
tp3251
a(I22
I14
I1
tp3252
a(I22
I8
I1
tp3253
a(I22
I15
I1
tp3254
a(I22
I1
I1
tp3255
a(I22
I30
I1
tp3256
a(I22
I29
I1
tp3257
a(I22
I31
I1
tp3258
a(I5
I30
I0
tp3259
a(I12
I14
I0
tp3260
a(I1
I8
I1
tp3261
a(I13
I5
I0
tp3262
a(I13
I14
I0
tp3263
a(I13
I8
I0
tp3264
a(I13
I15
I0
tp3265
a(I13
I1
I0
tp3266
a(I13
I30
I0
tp3267
a(I13
I29
I0
tp3268
a(I13
I31
I0
tp3269
a(I17
I5
I0
tp3270
a(I17
I14
I0
tp3271
a(I17
I8
I0
tp3272
a(I17
I15
I0
tp3273
a(I17
I1
I0
tp3274
a(I17
I30
I0
tp3275
a(I17
I29
I0
tp3276
a(I17
I31
I0
tp3277
a(I20
I30
I0
tp3278
a(I6
I5
I0
tp3279
a(I6
I14
I0
tp3280
a(I6
I8
I0
tp3281
a(I6
I15
I0
tp3282
a(I6
I1
I0
tp3283
a(I6
I30
I0
tp3284
a(I6
I29
I0
tp3285
a(I6
I31
I0
tp3286
a(I16
I30
I0
tp3287
a(I5
I5
I0
tp3288
a(I5
I14
I0
tp3289
a(I9
I5
I0
tp3290
a(I9
I14
I0
tp3291
a(I9
I8
I0
tp3292
a(I9
I15
I0
tp3293
a(I9
I1
I0
tp3294
a(I9
I30
I0
tp3295
a(I9
I29
I0
tp3296
a(I9
I31
I0
tp3297
a(I0
I5
I0
tp3298
a(I0
I14
I0
tp3299
a(I0
I8
I0
tp3300
a(I0
I15
I0
tp3301
a(I0
I1
I0
tp3302
a(I0
I30
I0
tp3303
a(I0
I29
I0
tp3304
a(I0
I31
I0
tp3305
a(I8
I8
I1
tp3306
a(I5
I15
I0
tp3307
a(I0
I14
I1
tp3308
a(I22
I5
I0
tp3309
a(I11
I5
I0
tp3310
a(I11
I14
I0
tp3311
a(I11
I8
I0
tp3312
a(I11
I15
I0
tp3313
a(I11
I1
I0
tp3314
a(I11
I30
I0
tp3315
a(I11
I29
I0
tp3316
a(I11
I31
I0
tp3317
a(I0
I15
I0
tp3318
a(I16
I31
I0
tp3319
a(I4
I1
I0
tp3320
a(I4
I5
I1
tp3321
a(I4
I30
I0
tp3322
a(I4
I15
I1
tp3323
a(I4
I31
I0
tp3324
a(I4
I29
I0
tp3325
a(I4
I8
I1
tp3326
a(I5
I5
I1
tp3327
a(I5
I14
I1
tp3328
a(I5
I8
I1
tp3329
a(I5
I15
I1
tp3330
a(I5
I1
I1
tp3331
a(I5
I30
I1
tp3332
a(I5
I29
I1
tp3333
a(I5
I31
I1
tp3334
a(I22
I14
I1
tp3335
a(I23
I8
I0
tp3336
a(I7
I14
I0
tp3337
a(I22
I14
I0
tp3338
a(I23
I31
I0
tp3339
a(I16
I30
I0
tp3340
a(I4
I14
I0
tp3341
a(I8
I5
I1
tp3342
a(I4
I15
I1
tp3343
a(I11
I5
I0
tp3344
a(I11
I14
I0
tp3345
a(I11
I8
I0
tp3346
a(I11
I15
I0
tp3347
a(I11
I1
I0
tp3348
a(I11
I30
I0
tp3349
a(I11
I29
I0
tp3350
a(I11
I31
I0
tp3351
a(I8
I8
I1
tp3352
a(I0
I5
I0
tp3353
a(I0
I14
I0
tp3354
a(I0
I8
I0
tp3355
a(I0
I15
I0
tp3356
a(I0
I1
I0
tp3357
a(I0
I30
I0
tp3358
a(I0
I29
I0
tp3359
a(I0
I31
I0
tp3360
a(I12
I31
I1
tp3361
a(I6
I5
I0
tp3362
a(I6
I14
I0
tp3363
a(I6
I8
I0
tp3364
a(I6
I15
I0
tp3365
a(I6
I1
I0
tp3366
a(I6
I30
I0
tp3367
a(I6
I29
I0
tp3368
a(I6
I31
I0
tp3369
a(I12
I14
I0
tp3370
a(I1
I29
I1
tp3371
a(I4
I30
I0
tp3372
a(I9
I14
I1
tp3373
a(I9
I15
I0
tp3374
a(I10
I8
I1
tp3375
a(I1
I31
I1
tp3376
a(I7
I31
I0
tp3377
a(I2
I8
I1
tp3378
a(I13
I5
I0
tp3379
a(I13
I14
I0
tp3380
a(I13
I8
I0
tp3381
a(I13
I15
I0
tp3382
a(I13
I1
I0
tp3383
a(I13
I30
I0
tp3384
a(I13
I29
I0
tp3385
a(I13
I31
I0
tp3386
a(I8
I8
I1
tp3387
a(I4
I31
I0
tp3388
a(I14
I5
I0
tp3389
a(I14
I14
I0
tp3390
a(I14
I8
I0
tp3391
a(I14
I15
I0
tp3392
a(I14
I1
I0
tp3393
a(I14
I30
I0
tp3394
a(I14
I29
I0
tp3395
a(I14
I31
I0
tp3396
a(I11
I5
I0
tp3397
a(I11
I14
I0
tp3398
a(I11
I8
I0
tp3399
a(I11
I15
I0
tp3400
a(I11
I1
I0
tp3401
a(I11
I30
I0
tp3402
a(I11
I29
I0
tp3403
a(I11
I31
I0
tp3404
a(I3
I5
I0
tp3405
a(I3
I14
I0
tp3406
a(I3
I8
I0
tp3407
a(I3
I15
I0
tp3408
a(I3
I1
I0
tp3409
a(I3
I30
I0
tp3410
a(I3
I29
I0
tp3411
a(I3
I31
I0
tp3412
a(I15
I5
I0
tp3413
a(I15
I14
I0
tp3414
a(I15
I8
I0
tp3415
a(I15
I15
I0
tp3416
a(I15
I1
I0
tp3417
a(I15
I30
I0
tp3418
a(I15
I29
I0
tp3419
a(I15
I31
I0
tp3420
a(I17
I5
I0
tp3421
a(I17
I14
I0
tp3422
a(I17
I8
I0
tp3423
a(I17
I15
I0
tp3424
a(I17
I1
I0
tp3425
a(I17
I30
I0
tp3426
a(I17
I29
I0
tp3427
a(I17
I31
I0
tp3428
a(I9
I31
I0
tp3429
a(I12
I30
I0
tp3430
a(I6
I5
I0
tp3431
a(I6
I14
I0
tp3432
a(I6
I8
I0
tp3433
a(I6
I15
I0
tp3434
a(I6
I1
I0
tp3435
a(I6
I30
I0
tp3436
a(I6
I29
I0
tp3437
a(I6
I31
I0
tp3438
a(I4
I5
I1
tp3439
a(I15
I5
I0
tp3440
a(I15
I14
I0
tp3441
a(I15
I8
I0
tp3442
a(I15
I15
I0
tp3443
a(I15
I1
I0
tp3444
a(I15
I30
I0
tp3445
a(I15
I29
I0
tp3446
a(I15
I31
I0
tp3447
a(I22
I5
I1
tp3448
a(I22
I14
I1
tp3449
a(I22
I8
I1
tp3450
a(I22
I15
I1
tp3451
a(I22
I1
I1
tp3452
a(I22
I30
I1
tp3453
a(I22
I29
I1
tp3454
a(I22
I31
I1
tp3455
a(I1
I14
I1
tp3456
a(I1
I30
I1
tp3457
a(I1
I31
I1
tp3458
a(I1
I8
I1
tp3459
a(I1
I15
I1
tp3460
a(I4
I14
I0
tp3461
a(I4
I15
I1
tp3462
a(I4
I8
I1
tp3463
a(I4
I8
I1
tp3464
a(I4
I5
I1
tp3465
a(I10
I5
I0
tp3466
a(I10
I14
I0
tp3467
a(I10
I8
I0
tp3468
a(I10
I15
I0
tp3469
a(I10
I1
I0
tp3470
a(I10
I30
I0
tp3471
a(I10
I29
I0
tp3472
a(I10
I31
I0
tp3473
a(I14
I5
I0
tp3474
a(I14
I14
I0
tp3475
a(I14
I8
I0
tp3476
a(I14
I15
I0
tp3477
a(I14
I1
I0
tp3478
a(I14
I30
I0
tp3479
a(I14
I29
I0
tp3480
a(I14
I31
I0
tp3481
a(I11
I5
I0
tp3482
a(I11
I14
I0
tp3483
a(I11
I8
I0
tp3484
a(I11
I15
I0
tp3485
a(I11
I1
I0
tp3486
a(I11
I30
I0
tp3487
a(I11
I29
I0
tp3488
a(I11
I31
I0
tp3489
a(I7
I14
I0
tp3490
a(I7
I31
I0
tp3491
a(I12
I31
I0
tp3492
a(I3
I5
I0
tp3493
a(I3
I14
I0
tp3494
a(I3
I8
I0
tp3495
a(I3
I15
I0
tp3496
a(I3
I1
I0
tp3497
a(I3
I30
I0
tp3498
a(I3
I29
I0
tp3499
a(I3
I31
I0
tp3500
a(I4
I15
I0
tp3501
a(I23
I5
I0
tp3502
a(I4
I31
I0
tp3503
a(I4
I30
I0
tp3504
a(I4
I1
I0
tp3505
a(I4
I8
I1
tp3506
a(I4
I5
I0
tp3507
a(I18
I31
I1
tp3508
a(I10
I8
I1
tp3509
a(I23
I15
I0
tp3510
a(I10
I31
I0
tp3511
a(I22
I15
I0
tp3512
a(I6
I5
I0
tp3513
a(I6
I14
I0
tp3514
a(I6
I8
I0
tp3515
a(I6
I15
I0
tp3516
a(I6
I1
I0
tp3517
a(I6
I30
I0
tp3518
a(I6
I29
I0
tp3519
a(I6
I31
I0
tp3520
a(I18
I29
I1
tp3521
a(I12
I14
I1
tp3522
a(I18
I8
I1
tp3523
a(I1
I1
I1
tp3524
a(I23
I29
I1
tp3525
a(I15
I29
I1
tp3526
a(I19
I5
I0
tp3527
a(I19
I14
I0
tp3528
a(I19
I8
I0
tp3529
a(I19
I15
I0
tp3530
a(I19
I1
I0
tp3531
a(I19
I30
I0
tp3532
a(I19
I29
I0
tp3533
a(I19
I31
I0
tp3534
a(I16
I14
I1
tp3535
a(I22
I29
I1
tp3536
a(I12
I31
I0
tp3537
a(I15
I5
I0
tp3538
a(I15
I14
I0
tp3539
a(I15
I8
I0
tp3540
a(I15
I15
I0
tp3541
a(I15
I1
I0
tp3542
a(I15
I30
I0
tp3543
a(I15
I29
I0
tp3544
a(I15
I31
I0
tp3545
a(I13
I5
I0
tp3546
a(I13
I14
I0
tp3547
a(I13
I8
I0
tp3548
a(I13
I15
I0
tp3549
a(I13
I1
I0
tp3550
a(I13
I30
I0
tp3551
a(I13
I29
I0
tp3552
a(I13
I31
I0
tp3553
a(I14
I5
I0
tp3554
a(I14
I14
I0
tp3555
a(I14
I8
I0
tp3556
a(I14
I15
I0
tp3557
a(I14
I1
I0
tp3558
a(I14
I30
I0
tp3559
a(I14
I29
I0
tp3560
a(I14
I31
I0
tp3561
a(I11
I5
I0
tp3562
a(I11
I14
I0
tp3563
a(I11
I8
I0
tp3564
a(I11
I15
I0
tp3565
a(I11
I1
I0
tp3566
a(I11
I30
I0
tp3567
a(I11
I29
I0
tp3568
a(I11
I31
I0
tp3569
a(I22
I14
I0
tp3570
a(I0
I30
I1
tp3571
a(I1
I8
I1
tp3572
a(I1
I29
I1
tp3573
a(I1
I31
I1
tp3574
a(I1
I8
I1
tp3575
a(I1
I31
I1
tp3576
a(I1
I29
I1
tp3577
a(I1
I5
I0
tp3578
a(I1
I14
I0
tp3579
a(I1
I8
I0
tp3580
a(I1
I15
I0
tp3581
a(I1
I1
I0
tp3582
a(I1
I30
I0
tp3583
a(I1
I29
I0
tp3584
a(I1
I31
I0
tp3585
a(I3
I5
I0
tp3586
a(I3
I14
I0
tp3587
a(I3
I8
I0
tp3588
a(I3
I15
I0
tp3589
a(I3
I1
I0
tp3590
a(I3
I30
I0
tp3591
a(I3
I29
I0
tp3592
a(I3
I31
I0
tp3593
a(I12
I30
I0
tp3594
a(I6
I5
I0
tp3595
a(I6
I14
I0
tp3596
a(I6
I8
I0
tp3597
a(I6
I15
I0
tp3598
a(I6
I1
I0
tp3599
a(I6
I30
I0
tp3600
a(I6
I29
I0
tp3601
a(I6
I31
I0
tp3602
a(I8
I8
I1
tp3603
a(I7
I8
I0
tp3604
a(I20
I14
I0
tp3605
a(I12
I31
I0
tp3606
a(I8
I8
I1
tp3607
a(I10
I5
I0
tp3608
a(I10
I14
I0
tp3609
a(I10
I8
I0
tp3610
a(I10
I15
I0
tp3611
a(I10
I1
I0
tp3612
a(I10
I30
I0
tp3613
a(I10
I29
I0
tp3614
a(I10
I31
I0
tp3615
a(I8
I8
I1
tp3616
a(I11
I5
I0
tp3617
a(I11
I14
I0
tp3618
a(I11
I8
I0
tp3619
a(I11
I15
I0
tp3620
a(I11
I1
I0
tp3621
a(I11
I30
I0
tp3622
a(I11
I29
I0
tp3623
a(I11
I31
I0
tp3624
a(I1
I30
I1
tp3625
a(I1
I30
I1
tp3626
a(I1
I5
I0
tp3627
a(I1
I14
I0
tp3628
a(I1
I8
I0
tp3629
a(I1
I15
I0
tp3630
a(I1
I1
I0
tp3631
a(I1
I30
I0
tp3632
a(I1
I29
I0
tp3633
a(I1
I31
I0
tp3634
a(I8
I5
I0
tp3635
a(I5
I29
I0
tp3636
a(I23
I8
I0
tp3637
a(I4
I31
I0
tp3638
a(I5
I30
I0
tp3639
a(I6
I5
I0
tp3640
a(I6
I14
I0
tp3641
a(I6
I8
I0
tp3642
a(I6
I15
I0
tp3643
a(I6
I1
I0
tp3644
a(I6
I30
I0
tp3645
a(I6
I29
I0
tp3646
a(I6
I31
I0
tp3647
a(I5
I15
I1
tp3648
a(I10
I5
I0
tp3649
a(I10
I14
I0
tp3650
a(I10
I8
I0
tp3651
a(I10
I15
I0
tp3652
a(I10
I1
I0
tp3653
a(I10
I30
I0
tp3654
a(I10
I29
I0
tp3655
a(I10
I31
I0
tp3656
a(I14
I29
I1
tp3657
a(I5
I1
I1
tp3658
a(I12
I31
I1
tp3659
a(I8
I8
I1
tp3660
a(I19
I1
I1
tp3661
a(I8
I1
I1
tp3662
a(I19
I15
I1
tp3663
a(I19
I5
I0
tp3664
a(I19
I29
I0
tp3665
a(I7
I31
I0
tp3666
a(I22
I5
I0
tp3667
a(I19
I8
I1
tp3668
a(I16
I14
I0
tp3669
a(I4
I30
I1
tp3670
a(I4
I5
I0
tp3671
a(I4
I14
I0
tp3672
a(I4
I8
I0
tp3673
a(I4
I15
I0
tp3674
a(I4
I1
I0
tp3675
a(I4
I30
I0
tp3676
a(I4
I29
I0
tp3677
a(I4
I31
I0
tp3678
a(I23
I8
I0
tp3679
a(I7
I1
I0
tp3680
a(I7
I8
I0
tp3681
a(I23
I30
I1
tp3682
a(I17
I5
I0
tp3683
a(I17
I14
I0
tp3684
a(I17
I8
I0
tp3685
a(I17
I15
I0
tp3686
a(I17
I1
I0
tp3687
a(I17
I30
I0
tp3688
a(I17
I29
I0
tp3689
a(I17
I31
I0
tp3690
a(I8
I1
I1
tp3691
a(I1
I1
I1
tp3692
a(I8
I1
I1
tp3693
a(I19
I31
I1
tp3694
a(I1
I31
I1
tp3695
a(I12
I31
I0
tp3696
a(I16
I31
I0
tp3697
a(I11
I5
I0
tp3698
a(I11
I14
I0
tp3699
a(I11
I8
I0
tp3700
a(I11
I15
I0
tp3701
a(I11
I1
I0
tp3702
a(I11
I30
I0
tp3703
a(I11
I29
I0
tp3704
a(I11
I31
I0
tp3705
a(I16
I30
I0
tp3706
a(I1
I29
I1
tp3707
a(I1
I31
I1
tp3708
a(I1
I8
I1
tp3709
a(I1
I30
I1
tp3710
a(I1
I14
I1
tp3711
a(I21
I30
I1
tp3712
a(I7
I1
I0
tp3713
a(I7
I31
I0
tp3714
a(I4
I15
I0
tp3715
a(I12
I30
I0
tp3716
a(I14
I5
I0
tp3717
a(I14
I14
I0
tp3718
a(I14
I8
I0
tp3719
a(I14
I15
I0
tp3720
a(I14
I1
I0
tp3721
a(I14
I30
I0
tp3722
a(I14
I29
I0
tp3723
a(I14
I31
I0
tp3724
a(I12
I30
I0
tp3725
a(I1
I29
I1
tp3726
a(I8
I8
I1
tp3727
a(I12
I31
I0
tp3728
a(I16
I31
I0
tp3729
a(I1
I29
I1
tp3730
a(I5
I30
I0
tp3731
a(I8
I8
I1
tp3732
a(I12
I15
I0
tp3733
a(I4
I5
I0
tp3734
a(I4
I14
I0
tp3735
a(I4
I8
I1
tp3736
a(I4
I29
I0
tp3737
a(I4
I1
I1
tp3738
a(I4
I29
I1
tp3739
a(I20
I31
I0
tp3740
a(I1
I31
I1
tp3741
a(I23
I8
I0
tp3742
a(I2
I5
I0
tp3743
a(I2
I14
I0
tp3744
a(I2
I8
I0
tp3745
a(I2
I15
I0
tp3746
a(I2
I1
I0
tp3747
a(I2
I30
I0
tp3748
a(I2
I29
I0
tp3749
a(I2
I31
I0
tp3750
a(I4
I31
I1
tp3751
a(I4
I8
I1
tp3752
a(I4
I8
I1
tp3753
a(I4
I5
I1
tp3754
a(I4
I5
I0
tp3755
a(I4
I14
I0
tp3756
a(I4
I8
I0
tp3757
a(I4
I15
I0
tp3758
a(I4
I1
I0
tp3759
a(I4
I30
I0
tp3760
a(I4
I29
I0
tp3761
a(I4
I31
I0
tp3762
a(I23
I29
I1
tp3763
a(I8
I5
I1
tp3764
a(I20
I5
I0
tp3765
a(I20
I14
I0
tp3766
a(I20
I8
I0
tp3767
a(I20
I15
I0
tp3768
a(I20
I1
I0
tp3769
a(I20
I30
I0
tp3770
a(I20
I29
I0
tp3771
a(I20
I31
I0
tp3772
a(I5
I14
I0
tp3773
a(I5
I30
I0
tp3774
a(I1
I1
I1
tp3775
a(I8
I30
I1
tp3776
a(I13
I15
I1
tp3777
a(I16
I30
I1
tp3778
a(I12
I14
I1
tp3779
a(I10
I29
I1
tp3780
a(I22
I31
I0
tp3781
a(I6
I5
I0
tp3782
a(I6
I14
I0
tp3783
a(I6
I8
I0
tp3784
a(I6
I15
I0
tp3785
a(I6
I1
I0
tp3786
a(I6
I30
I0
tp3787
a(I6
I29
I0
tp3788
a(I6
I31
I0
tp3789
a(I3
I14
I1
tp3790
a(I13
I1
I1
tp3791
a(I12
I30
I1
tp3792
a(I17
I5
I0
tp3793
a(I17
I14
I0
tp3794
a(I17
I8
I0
tp3795
a(I17
I15
I0
tp3796
a(I17
I1
I0
tp3797
a(I17
I30
I0
tp3798
a(I17
I29
I0
tp3799
a(I17
I31
I0
tp3800
a(I5
I15
I0
tp3801
a(I10
I14
I1
tp3802
a(I11
I5
I1
tp3803
a(I20
I5
I1
tp3804
a(I20
I14
I1
tp3805
a(I20
I8
I1
tp3806
a(I20
I15
I1
tp3807
a(I20
I1
I1
tp3808
a(I20
I30
I1
tp3809
a(I20
I29
I1
tp3810
a(I20
I31
I1
tp3811
a(I8
I5
I0
tp3812
a(I8
I14
I0
tp3813
a(I8
I8
I0
tp3814
a(I8
I15
I0
tp3815
a(I8
I1
I0
tp3816
a(I8
I30
I0
tp3817
a(I8
I29
I0
tp3818
a(I8
I31
I0
tp3819
a(I17
I5
I0
tp3820
a(I17
I14
I0
tp3821
a(I17
I8
I0
tp3822
a(I17
I15
I0
tp3823
a(I17
I1
I0
tp3824
a(I17
I30
I0
tp3825
a(I17
I29
I0
tp3826
a(I17
I31
I0
tp3827
a(I12
I30
I1
tp3828
a(I1
I8
I1
tp3829
a(I1
I8
I1
tp3830
a(I1
I15
I1
tp3831
a(I1
I5
I0
tp3832
a(I1
I14
I0
tp3833
a(I1
I8
I0
tp3834
a(I1
I15
I0
tp3835
a(I1
I1
I0
tp3836
a(I1
I30
I0
tp3837
a(I1
I29
I0
tp3838
a(I1
I31
I0
tp3839
a(I7
I31
I1
tp3840
a(I14
I31
I1
tp3841
a(I22
I5
I1
tp3842
a(I22
I14
I1
tp3843
a(I22
I8
I1
tp3844
a(I22
I15
I1
tp3845
a(I22
I1
I1
tp3846
a(I22
I30
I1
tp3847
a(I22
I29
I1
tp3848
a(I22
I31
I1
tp3849
a(I16
I30
I1
tp3850
a(I23
I5
I1
tp3851
a(I23
I14
I1
tp3852
a(I23
I8
I1
tp3853
a(I23
I15
I1
tp3854
a(I23
I1
I1
tp3855
a(I23
I30
I1
tp3856
a(I23
I29
I1
tp3857
a(I23
I31
I1
tp3858
a(I18
I30
I1
tp3859
a(I6
I30
I1
tp3860
a(I4
I29
I0
tp3861
a(I22
I29
I0
tp3862
a(I5
I8
I0
tp3863
a(I4
I5
I1
tp3864
a(I5
I30
I0
tp3865
a(I0
I5
I0
tp3866
a(I0
I14
I0
tp3867
a(I0
I8
I0
tp3868
a(I0
I15
I0
tp3869
a(I0
I1
I0
tp3870
a(I0
I30
I0
tp3871
a(I0
I29
I0
tp3872
a(I0
I31
I0
tp3873
a(I16
I31
I0
tp3874
a(I4
I1
I1
tp3875
a(I1
I29
I1
tp3876
a(I16
I30
I0
tp3877
a(I19
I5
I0
tp3878
a(I19
I14
I0
tp3879
a(I19
I8
I0
tp3880
a(I19
I15
I0
tp3881
a(I19
I1
I0
tp3882
a(I19
I30
I0
tp3883
a(I19
I29
I0
tp3884
a(I19
I31
I0
tp3885
a(I4
I15
I1
tp3886
a(I22
I1
I1
tp3887
a(I17
I5
I0
tp3888
a(I17
I14
I0
tp3889
a(I17
I8
I0
tp3890
a(I17
I15
I0
tp3891
a(I17
I1
I0
tp3892
a(I17
I30
I0
tp3893
a(I17
I29
I0
tp3894
a(I17
I31
I0
tp3895
a(I22
I29
I0
tp3896
a(I14
I1
I1
tp3897
a(I4
I8
I1
tp3898
a(I2
I8
I1
tp3899
a(I5
I30
I0
tp3900
a(I9
I5
I0
tp3901
a(I9
I14
I0
tp3902
a(I9
I8
I0
tp3903
a(I9
I15
I0
tp3904
a(I9
I1
I0
tp3905
a(I9
I30
I0
tp3906
a(I9
I29
I0
tp3907
a(I9
I31
I0
tp3908
a(I23
I5
I0
tp3909
a(I8
I5
I1
tp3910
a(I14
I15
I0
tp3911
a(I7
I1
I0
tp3912
a(I22
I5
I0
tp3913
a(I4
I1
I1
tp3914
a(I4
I15
I1
tp3915
a(I4
I5
I1
tp3916
a(I18
I5
I0
tp3917
a(I18
I14
I0
tp3918
a(I18
I8
I0
tp3919
a(I18
I15
I0
tp3920
a(I18
I1
I0
tp3921
a(I18
I30
I0
tp3922
a(I18
I29
I0
tp3923
a(I18
I31
I0
tp3924
a(I4
I8
I1
tp3925
a(I16
I31
I0
tp3926
a(I16
I30
I0
tp3927
a(I1
I31
I1
tp3928
a(I10
I31
I1
tp3929
a(I19
I5
I0
tp3930
a(I19
I14
I0
tp3931
a(I19
I8
I0
tp3932
a(I19
I15
I0
tp3933
a(I19
I1
I0
tp3934
a(I19
I30
I0
tp3935
a(I19
I29
I0
tp3936
a(I19
I31
I0
tp3937
a(I4
I31
I0
tp3938
a(I4
I5
I1
tp3939
a(I4
I1
I1
tp3940
a(I4
I8
I1
tp3941
a(I4
I14
I0
tp3942
a(I4
I30
I0
tp3943
a(I4
I15
I1
tp3944
a(I4
I29
I0
tp3945
a(I7
I31
I0
tp3946
a(I1
I31
I1
tp3947
a(I9
I5
I0
tp3948
a(I9
I14
I0
tp3949
a(I9
I8
I0
tp3950
a(I9
I15
I0
tp3951
a(I9
I1
I0
tp3952
a(I9
I30
I0
tp3953
a(I9
I29
I0
tp3954
a(I9
I31
I0
tp3955
a(I0
I14
I1
tp3956
a(I12
I30
I0
tp3957
a(I19
I8
I1
tp3958
a(I16
I14
I0
tp3959
a(I7
I14
I0
tp3960
a(I7
I1
I0
tp3961
a(I7
I31
I0
tp3962
a(I3
I29
I1
tp3963
a(I0
I30
I0
tp3964
a(I18
I5
I1
tp3965
a(I1
I31
I1
tp3966
a(I5
I30
I0
tp3967
a(I2
I8
I1
tp3968
a(I1
I29
I1
tp3969
a(I9
I30
I1
tp3970
a(I15
I5
I0
tp3971
a(I15
I14
I0
tp3972
a(I15
I8
I0
tp3973
a(I15
I15
I0
tp3974
a(I15
I1
I0
tp3975
a(I15
I30
I0
tp3976
a(I15
I29
I0
tp3977
a(I15
I31
I0
tp3978
a(I23
I5
I0
tp3979
a(I12
I31
I0
tp3980
a(I12
I30
I0
tp3981
a(I12
I8
I0
tp3982
a(I19
I8
I1
tp3983
a(I6
I5
I0
tp3984
a(I6
I14
I0
tp3985
a(I6
I8
I0
tp3986
a(I6
I15
I0
tp3987
a(I6
I1
I0
tp3988
a(I6
I30
I0
tp3989
a(I6
I29
I0
tp3990
a(I6
I31
I0
tp3991
a(I9
I5
I0
tp3992
a(I1
I14
I1
tp3993
a(I1
I8
I0
tp3994
a(I1
I14
I1
tp3995
a(I1
I29
I1
tp3996
a(I1
I31
I1
tp3997
a(I1
I1
I1
tp3998
a(I18
I5
I1
tp3999
a(I7
I8
I0
tp4000
a(I17
I5
I0
tp4001
a(I17
I14
I0
tp4002
a(I17
I8
I0
tp4003
a(I17
I15
I0
tp4004
a(I17
I1
I0
tp4005
a(I17
I30
I0
tp4006
a(I17
I29
I0
tp4007
a(I17
I31
I0
tp4008
a(I18
I15
I0
tp4009
a(I11
I5
I0
tp4010
a(I11
I14
I0
tp4011
a(I11
I8
I0
tp4012
a(I11
I15
I0
tp4013
a(I11
I1
I0
tp4014
a(I11
I30
I0
tp4015
a(I11
I29
I0
tp4016
a(I11
I31
I0
tp4017
a(I23
I31
I0
tp4018
a(I4
I30
I1
tp4019
a(I4
I29
I1
tp4020
a(I23
I30
I1
tp4021
a(I23
I5
I0
tp4022
a(I16
I30
I1
tp4023
a(I20
I30
I0
tp4024
a(I18
I1
I0
tp4025
a(I7
I31
I0
tp4026
a(I20
I31
I1
tp4027
a(I16
I14
I0
tp4028
a(I16
I31
I0
tp4029
a(I4
I1
I0
tp4030
a(I18
I5
I0
tp4031
a(I18
I14
I0
tp4032
a(I18
I8
I0
tp4033
a(I18
I15
I0
tp4034
a(I18
I1
I0
tp4035
a(I18
I30
I0
tp4036
a(I18
I29
I0
tp4037
a(I18
I31
I0
tp4038
a(I5
I29
I0
tp4039
a(I1
I30
I1
tp4040
a(I1
I30
I1
tp4041
a(I1
I29
I1
tp4042
a(I14
I5
I0
tp4043
a(I14
I14
I0
tp4044
a(I14
I8
I0
tp4045
a(I14
I15
I0
tp4046
a(I14
I1
I0
tp4047
a(I14
I30
I0
tp4048
a(I14
I29
I0
tp4049
a(I14
I31
I0
tp4050
a(I1
I31
I1
tp4051
a(I4
I31
I0
tp4052
a(I4
I5
I0
tp4053
a(I4
I15
I0
tp4054
a(I4
I8
I1
tp4055
a(I4
I29
I0
tp4056
a(I8
I29
I1
tp4057
a(I1
I8
I1
tp4058
a(I5
I5
I0
tp4059
a(I22
I5
I1
tp4060
a(I22
I14
I1
tp4061
a(I22
I8
I1
tp4062
a(I22
I15
I1
tp4063
a(I22
I1
I1
tp4064
a(I22
I30
I1
tp4065
a(I22
I29
I1
tp4066
a(I22
I31
I1
tp4067
a(I12
I31
I0
tp4068
a(I14
I5
I0
tp4069
a(I14
I14
I0
tp4070
a(I14
I8
I0
tp4071
a(I14
I15
I0
tp4072
a(I14
I1
I0
tp4073
a(I14
I30
I0
tp4074
a(I14
I29
I0
tp4075
a(I14
I31
I0
tp4076
a(I10
I8
I1
tp4077
a(I2
I8
I1
tp4078
a(I2
I31
I0
tp4079
a(I0
I5
I0
tp4080
a(I0
I14
I0
tp4081
a(I0
I8
I0
tp4082
a(I0
I15
I0
tp4083
a(I0
I1
I0
tp4084
a(I0
I30
I0
tp4085
a(I0
I29
I0
tp4086
a(I0
I31
I0
tp4087
a(I1
I8
I1
tp4088
a(I1
I8
I1
tp4089
a(I1
I30
I1
tp4090
a(I1
I29
I1
tp4091
a(I1
I31
I1
tp4092
a(I9
I5
I0
tp4093
a(I9
I14
I0
tp4094
a(I9
I8
I0
tp4095
a(I9
I15
I0
tp4096
a(I9
I1
I0
tp4097
a(I9
I30
I0
tp4098
a(I9
I29
I0
tp4099
a(I9
I31
I0
tp4100
a(I3
I5
I0
tp4101
a(I3
I14
I0
tp4102
a(I3
I8
I0
tp4103
a(I3
I15
I0
tp4104
a(I3
I1
I0
tp4105
a(I3
I30
I0
tp4106
a(I3
I29
I0
tp4107
a(I3
I31
I0
tp4108
a(I16
I31
I0
tp4109
a(I11
I5
I0
tp4110
a(I11
I14
I0
tp4111
a(I11
I8
I0
tp4112
a(I11
I15
I0
tp4113
a(I11
I1
I0
tp4114
a(I11
I30
I0
tp4115
a(I11
I29
I0
tp4116
a(I11
I31
I0
tp4117
a(I4
I1
I1
tp4118
a(I4
I31
I0
tp4119
a(I4
I15
I1
tp4120
a(I4
I29
I0
tp4121
a(I4
I5
I1
tp4122
a(I4
I8
I1
tp4123
a(I2
I8
I1
tp4124
a(I8
I8
I1
tp4125
a(I0
I5
I0
tp4126
a(I0
I14
I0
tp4127
a(I0
I8
I0
tp4128
a(I0
I15
I0
tp4129
a(I0
I1
I0
tp4130
a(I0
I30
I0
tp4131
a(I0
I29
I0
tp4132
a(I0
I31
I0
tp4133
a(I7
I31
I0
tp4134
a(I4
I30
I0
tp4135
a(I22
I5
I1
tp4136
a(I22
I14
I1
tp4137
a(I22
I8
I1
tp4138
a(I22
I15
I1
tp4139
a(I22
I1
I1
tp4140
a(I22
I30
I1
tp4141
a(I22
I29
I1
tp4142
a(I22
I31
I1
tp4143
a(I5
I30
I0
tp4144
a(I12
I14
I0
tp4145
a(I1
I8
I1
tp4146
a(I13
I5
I0
tp4147
a(I13
I14
I0
tp4148
a(I13
I8
I0
tp4149
a(I13
I15
I0
tp4150
a(I13
I1
I0
tp4151
a(I13
I30
I0
tp4152
a(I13
I29
I0
tp4153
a(I13
I31
I0
tp4154
a(I17
I5
I0
tp4155
a(I17
I14
I0
tp4156
a(I17
I8
I0
tp4157
a(I17
I15
I0
tp4158
a(I17
I1
I0
tp4159
a(I17
I30
I0
tp4160
a(I17
I29
I0
tp4161
a(I17
I31
I0
tp4162
a(I20
I30
I0
tp4163
a(I6
I5
I0
tp4164
a(I6
I14
I0
tp4165
a(I6
I8
I0
tp4166
a(I6
I15
I0
tp4167
a(I6
I1
I0
tp4168
a(I6
I30
I0
tp4169
a(I6
I29
I0
tp4170
a(I6
I31
I0
tp4171
a(I16
I30
I0
tp4172
a(I5
I5
I0
tp4173
a(I5
I14
I0
tp4174
a(I9
I5
I0
tp4175
a(I9
I14
I0
tp4176
a(I9
I8
I0
tp4177
a(I9
I15
I0
tp4178
a(I9
I1
I0
tp4179
a(I9
I30
I0
tp4180
a(I9
I29
I0
tp4181
a(I9
I31
I0
tp4182
a(I0
I5
I0
tp4183
a(I0
I14
I0
tp4184
a(I0
I8
I0
tp4185
a(I0
I15
I0
tp4186
a(I0
I1
I0
tp4187
a(I0
I30
I0
tp4188
a(I0
I29
I0
tp4189
a(I0
I31
I0
tp4190
a(I8
I8
I1
tp4191
a(I5
I15
I0
tp4192
a(I0
I14
I1
tp4193
a(I22
I5
I0
tp4194
a(I11
I5
I0
tp4195
a(I11
I14
I0
tp4196
a(I11
I8
I0
tp4197
a(I11
I15
I0
tp4198
a(I11
I1
I0
tp4199
a(I11
I30
I0
tp4200
a(I11
I29
I0
tp4201
a(I11
I31
I0
tp4202
a(I0
I15
I0
tp4203
a(I16
I31
I0
tp4204
a(I4
I1
I0
tp4205
a(I4
I5
I1
tp4206
a(I4
I30
I0
tp4207
a(I4
I15
I1
tp4208
a(I4
I31
I0
tp4209
a(I4
I29
I0
tp4210
a(I4
I8
I1
tp4211
a(I5
I5
I1
tp4212
a(I5
I14
I1
tp4213
a(I5
I8
I1
tp4214
a(I5
I15
I1
tp4215
a(I5
I1
I1
tp4216
a(I5
I30
I1
tp4217
a(I5
I29
I1
tp4218
a(I5
I31
I1
tp4219
a(I22
I14
I1
tp4220
a(I23
I8
I0
tp4221
a(I7
I14
I0
tp4222
a(I22
I14
I0
tp4223
a(I23
I31
I0
tp4224
a(I16
I30
I0
tp4225
a(I4
I14
I0
tp4226
a(I8
I5
I1
tp4227
a(I4
I15
I1
tp4228
a(I11
I5
I0
tp4229
a(I11
I14
I0
tp4230
a(I11
I8
I0
tp4231
a(I11
I15
I0
tp4232
a(I11
I1
I0
tp4233
a(I11
I30
I0
tp4234
a(I11
I29
I0
tp4235
a(I11
I31
I0
tp4236
a(I8
I8
I1
tp4237
a(I0
I5
I0
tp4238
a(I0
I14
I0
tp4239
a(I0
I8
I0
tp4240
a(I0
I15
I0
tp4241
a(I0
I1
I0
tp4242
a(I0
I30
I0
tp4243
a(I0
I29
I0
tp4244
a(I0
I31
I0
tp4245
a(I12
I31
I1
tp4246
a(I6
I5
I0
tp4247
a(I6
I14
I0
tp4248
a(I6
I8
I0
tp4249
a(I6
I15
I0
tp4250
a(I6
I1
I0
tp4251
a(I6
I30
I0
tp4252
a(I6
I29
I0
tp4253
a(I6
I31
I0
tp4254
a(I12
I14
I0
tp4255
a(I1
I29
I1
tp4256
a(I4
I30
I0
tp4257
a(I9
I14
I1
tp4258
a(I9
I15
I0
tp4259
a(I10
I8
I1
tp4260
a(I1
I31
I1
tp4261
a(I7
I31
I0
tp4262
a(I2
I8
I1
tp4263
a(I13
I5
I0
tp4264
a(I13
I14
I0
tp4265
a(I13
I8
I0
tp4266
a(I13
I15
I0
tp4267
a(I13
I1
I0
tp4268
a(I13
I30
I0
tp4269
a(I13
I29
I0
tp4270
a(I13
I31
I0
tp4271
a(I8
I8
I1
tp4272
a(I4
I31
I0
tp4273
a(I14
I5
I0
tp4274
a(I14
I14
I0
tp4275
a(I14
I8
I0
tp4276
a(I14
I15
I0
tp4277
a(I14
I1
I0
tp4278
a(I14
I30
I0
tp4279
a(I14
I29
I0
tp4280
a(I14
I31
I0
tp4281
a(I11
I5
I0
tp4282
a(I11
I14
I0
tp4283
a(I11
I8
I0
tp4284
a(I11
I15
I0
tp4285
a(I11
I1
I0
tp4286
a(I11
I30
I0
tp4287
a(I11
I29
I0
tp4288
a(I11
I31
I0
tp4289
a(I3
I5
I0
tp4290
a(I3
I14
I0
tp4291
a(I3
I8
I0
tp4292
a(I3
I15
I0
tp4293
a(I3
I1
I0
tp4294
a(I3
I30
I0
tp4295
a(I3
I29
I0
tp4296
a(I3
I31
I0
tp4297
a(I15
I5
I0
tp4298
a(I15
I14
I0
tp4299
a(I15
I8
I0
tp4300
a(I15
I15
I0
tp4301
a(I15
I1
I0
tp4302
a(I15
I30
I0
tp4303
a(I15
I29
I0
tp4304
a(I15
I31
I0
tp4305
a(I17
I5
I0
tp4306
a(I17
I14
I0
tp4307
a(I17
I8
I0
tp4308
a(I17
I15
I0
tp4309
a(I17
I1
I0
tp4310
a(I17
I30
I0
tp4311
a(I17
I29
I0
tp4312
a(I17
I31
I0
tp4313
a(I9
I31
I0
tp4314
a(I12
I30
I0
tp4315
a(I6
I5
I0
tp4316
a(I6
I14
I0
tp4317
a(I6
I8
I0
tp4318
a(I6
I15
I0
tp4319
a(I6
I1
I0
tp4320
a(I6
I30
I0
tp4321
a(I6
I29
I0
tp4322
a(I6
I31
I0
tp4323
a(I4
I5
I1
tp4324
a(I15
I5
I0
tp4325
a(I15
I14
I0
tp4326
a(I15
I8
I0
tp4327
a(I15
I15
I0
tp4328
a(I15
I1
I0
tp4329
a(I15
I30
I0
tp4330
a(I15
I29
I0
tp4331
a(I15
I31
I0
tp4332
a(I22
I5
I1
tp4333
a(I22
I14
I1
tp4334
a(I22
I8
I1
tp4335
a(I22
I15
I1
tp4336
a(I22
I1
I1
tp4337
a(I22
I30
I1
tp4338
a(I22
I29
I1
tp4339
a(I22
I31
I1
tp4340
a(I1
I14
I1
tp4341
a(I1
I30
I1
tp4342
a(I1
I31
I1
tp4343
a(I1
I8
I1
tp4344
a(I1
I15
I1
tp4345
a(I4
I14
I0
tp4346
a(I4
I15
I1
tp4347
a(I4
I8
I1
tp4348
a(I4
I8
I1
tp4349
a(I4
I5
I1
tp4350
a(I23
I16
I0
tp4351
a(I12
I0
I0
tp4352
a(I22
I21
I0
tp4353
a(I11
I21
I0
tp4354
a(I11
I24
I0
tp4355
a(I11
I19
I0
tp4356
a(I11
I23
I0
tp4357
a(I11
I16
I0
tp4358
a(I11
I0
I0
tp4359
a(I11
I4
I0
tp4360
a(I11
I9
I0
tp4361
a(I2
I4
I0
tp4362
a(I8
I21
I1
tp4363
a(I8
I24
I1
tp4364
a(I8
I19
I1
tp4365
a(I8
I23
I1
tp4366
a(I8
I16
I1
tp4367
a(I8
I0
I1
tp4368
a(I8
I4
I1
tp4369
a(I8
I9
I1
tp4370
a(I4
I0
I0
tp4371
a(I7
I19
I0
tp4372
a(I22
I19
I0
tp4373
a(I7
I24
I0
tp4374
a(I4
I19
I1
tp4375
a(I4
I16
I0
tp4376
a(I4
I9
I1
tp4377
a(I4
I23
I0
tp4378
a(I4
I4
I0
tp4379
a(I1
I19
I1
tp4380
a(I4
I9
I0
tp4381
a(I23
I23
I0
tp4382
a(I23
I4
I0
tp4383
a(I18
I23
I1
tp4384
a(I1
I21
I1
tp4385
a(I1
I16
I1
tp4386
a(I14
I21
I1
tp4387
a(I14
I16
I0
tp4388
a(I1
I23
I1
tp4389
a(I7
I9
I0
tp4390
a(I1
I24
I1
tp4391
a(I21
I0
I0
tp4392
a(I16
I19
I0
tp4393
a(I5
I16
I0
tp4394
a(I19
I21
I0
tp4395
a(I19
I24
I0
tp4396
a(I19
I19
I0
tp4397
a(I19
I23
I0
tp4398
a(I19
I16
I0
tp4399
a(I19
I0
I0
tp4400
a(I19
I4
I0
tp4401
a(I19
I9
I0
tp4402
a(I4
I0
I0
tp4403
a(I10
I21
I0
tp4404
a(I10
I24
I0
tp4405
a(I10
I19
I0
tp4406
a(I10
I23
I0
tp4407
a(I10
I16
I0
tp4408
a(I10
I0
I0
tp4409
a(I10
I4
I0
tp4410
a(I10
I9
I0
tp4411
a(I8
I21
I1
tp4412
a(I8
I24
I1
tp4413
a(I8
I19
I1
tp4414
a(I8
I23
I1
tp4415
a(I8
I16
I1
tp4416
a(I8
I0
I1
tp4417
a(I8
I4
I1
tp4418
a(I8
I9
I1
tp4419
a(I15
I21
I0
tp4420
a(I15
I24
I0
tp4421
a(I15
I19
I0
tp4422
a(I15
I23
I0
tp4423
a(I15
I16
I0
tp4424
a(I15
I0
I0
tp4425
a(I15
I4
I0
tp4426
a(I15
I9
I0
tp4427
a(I4
I21
I1
tp4428
a(I4
I23
I0
tp4429
a(I4
I9
I1
tp4430
a(I4
I4
I0
tp4431
a(I4
I16
I0
tp4432
a(I1
I4
I1
tp4433
a(I16
I0
I0
tp4434
a(I22
I21
I0
tp4435
a(I11
I21
I0
tp4436
a(I11
I24
I0
tp4437
a(I11
I19
I0
tp4438
a(I11
I23
I0
tp4439
a(I11
I16
I0
tp4440
a(I11
I0
I0
tp4441
a(I11
I4
I0
tp4442
a(I11
I9
I0
tp4443
a(I5
I21
I0
tp4444
a(I6
I21
I0
tp4445
a(I6
I24
I0
tp4446
a(I6
I19
I0
tp4447
a(I6
I23
I0
tp4448
a(I6
I16
I0
tp4449
a(I6
I0
I0
tp4450
a(I6
I4
I0
tp4451
a(I6
I9
I0
tp4452
a(I17
I21
I0
tp4453
a(I17
I24
I0
tp4454
a(I17
I19
I0
tp4455
a(I17
I23
I0
tp4456
a(I17
I16
I0
tp4457
a(I17
I0
I0
tp4458
a(I17
I4
I0
tp4459
a(I17
I9
I0
tp4460
a(I1
I24
I1
tp4461
a(I22
I21
I1
tp4462
a(I2
I21
I1
tp4463
a(I16
I9
I0
tp4464
a(I20
I4
I0
tp4465
a(I16
I23
I0
tp4466
a(I18
I0
I1
tp4467
a(I12
I9
I0
tp4468
a(I23
I21
I1
tp4469
a(I23
I24
I1
tp4470
a(I23
I19
I1
tp4471
a(I23
I23
I1
tp4472
a(I23
I16
I1
tp4473
a(I23
I0
I1
tp4474
a(I23
I4
I1
tp4475
a(I23
I9
I1
tp4476
a(I4
I4
I1
tp4477
a(I20
I0
I0
tp4478
a(I1
I21
I1
tp4479
a(I0
I21
I0
tp4480
a(I0
I24
I0
tp4481
a(I0
I19
I0
tp4482
a(I0
I23
I0
tp4483
a(I0
I16
I0
tp4484
a(I0
I0
I0
tp4485
a(I0
I4
I0
tp4486
a(I0
I9
I0
tp4487
a(I12
I0
I1
tp4488
a(I11
I21
I0
tp4489
a(I11
I24
I0
tp4490
a(I11
I19
I0
tp4491
a(I11
I23
I0
tp4492
a(I11
I16
I0
tp4493
a(I11
I0
I0
tp4494
a(I11
I4
I0
tp4495
a(I11
I9
I0
tp4496
a(I6
I21
I0
tp4497
a(I6
I24
I0
tp4498
a(I6
I19
I0
tp4499
a(I6
I23
I0
tp4500
a(I6
I16
I0
tp4501
a(I6
I0
I0
tp4502
a(I6
I4
I0
tp4503
a(I6
I9
I0
tp4504
a(I20
I19
I0
tp4505
a(I14
I9
I1
tp4506
a(I12
I9
I1
tp4507
a(I5
I23
I0
tp4508
a(I4
I9
I0
tp4509
a(I21
I21
I1
tp4510
a(I21
I24
I1
tp4511
a(I21
I19
I1
tp4512
a(I21
I23
I1
tp4513
a(I21
I16
I1
tp4514
a(I21
I0
I1
tp4515
a(I21
I4
I1
tp4516
a(I21
I9
I1
tp4517
a(I7
I21
I1
tp4518
a(I16
I0
I0
tp4519
a(I19
I21
I0
tp4520
a(I19
I24
I0
tp4521
a(I19
I19
I0
tp4522
a(I19
I23
I0
tp4523
a(I19
I16
I0
tp4524
a(I19
I0
I0
tp4525
a(I19
I4
I0
tp4526
a(I19
I9
I0
tp4527
a(I12
I24
I0
tp4528
a(I22
I21
I1
tp4529
a(I14
I16
I1
tp4530
a(I16
I0
I0
tp4531
a(I5
I21
I0
tp4532
a(I3
I21
I0
tp4533
a(I3
I24
I0
tp4534
a(I3
I19
I0
tp4535
a(I3
I23
I0
tp4536
a(I3
I16
I0
tp4537
a(I3
I0
I0
tp4538
a(I3
I4
I0
tp4539
a(I3
I9
I0
tp4540
a(I18
I19
I1
tp4541
a(I20
I19
I0
tp4542
a(I9
I9
I1
tp4543
a(I2
I21
I1
tp4544
a(I2
I0
I0
tp4545
a(I0
I21
I0
tp4546
a(I0
I24
I0
tp4547
a(I0
I19
I0
tp4548
a(I0
I23
I0
tp4549
a(I0
I16
I0
tp4550
a(I0
I0
I0
tp4551
a(I0
I4
I0
tp4552
a(I0
I9
I0
tp4553
a(I13
I21
I0
tp4554
a(I13
I24
I0
tp4555
a(I13
I19
I0
tp4556
a(I13
I23
I0
tp4557
a(I13
I16
I0
tp4558
a(I13
I0
I0
tp4559
a(I13
I4
I0
tp4560
a(I13
I9
I0
tp4561
a(I20
I9
I0
tp4562
a(I21
I23
I0
tp4563
a(I10
I21
I0
tp4564
a(I10
I24
I0
tp4565
a(I10
I19
I0
tp4566
a(I10
I23
I0
tp4567
a(I10
I16
I0
tp4568
a(I10
I0
I0
tp4569
a(I10
I4
I0
tp4570
a(I10
I9
I0
tp4571
a(I20
I4
I0
tp4572
a(I6
I21
I0
tp4573
a(I6
I24
I0
tp4574
a(I6
I19
I0
tp4575
a(I6
I23
I0
tp4576
a(I6
I16
I0
tp4577
a(I6
I0
I0
tp4578
a(I6
I4
I0
tp4579
a(I6
I9
I0
tp4580
a(I11
I21
I1
tp4581
a(I2
I21
I1
tp4582
a(I11
I16
I0
tp4583
a(I15
I16
I1
tp4584
a(I13
I23
I1
tp4585
a(I1
I19
I1
tp4586
a(I1
I16
I0
tp4587
a(I1
I21
I0
tp4588
a(I1
I9
I0
tp4589
a(I1
I24
I0
tp4590
a(I1
I9
I0
tp4591
a(I1
I19
I0
tp4592
a(I1
I19
I0
tp4593
a(I1
I16
I0
tp4594
a(I1
I0
I0
tp4595
a(I2
I9
I1
tp4596
a(I6
I21
I0
tp4597
a(I6
I24
I0
tp4598
a(I6
I19
I0
tp4599
a(I6
I23
I0
tp4600
a(I6
I16
I0
tp4601
a(I6
I0
I0
tp4602
a(I6
I4
I0
tp4603
a(I6
I9
I0
tp4604
a(I23
I21
I1
tp4605
a(I23
I24
I1
tp4606
a(I23
I19
I1
tp4607
a(I23
I23
I1
tp4608
a(I23
I16
I1
tp4609
a(I23
I0
I1
tp4610
a(I23
I4
I1
tp4611
a(I23
I9
I1
tp4612
a(I20
I21
I1
tp4613
a(I11
I9
I1
tp4614
a(I1
I19
I1
tp4615
a(I1
I23
I1
tp4616
a(I1
I21
I1
tp4617
a(I1
I16
I1
tp4618
a(I1
I24
I1
tp4619
a(I20
I24
I1
tp4620
a(I13
I23
I1
tp4621
a(I22
I21
I1
tp4622
a(I8
I24
I0
tp4623
a(I20
I9
I1
tp4624
a(I2
I21
I1
tp4625
a(I6
I21
I0
tp4626
a(I6
I24
I0
tp4627
a(I6
I19
I0
tp4628
a(I6
I23
I0
tp4629
a(I6
I16
I0
tp4630
a(I6
I0
I0
tp4631
a(I6
I4
I0
tp4632
a(I6
I9
I0
tp4633
a(I12
I19
I1
tp4634
a(I23
I21
I0
tp4635
a(I2
I0
I0
tp4636
a(I4
I16
I1
tp4637
a(I4
I0
I1
tp4638
a(I4
I0
I1
tp4639
a(I4
I0
I1
tp4640
a(I1
I24
I1
tp4641
a(I7
I24
I1
tp4642
a(I2
I19
I1
tp4643
a(I3
I4
I1
tp4644
a(I8
I0
I0
tp4645
a(I8
I19
I0
tp4646
a(I12
I24
I0
tp4647
a(I15
I21
I0
tp4648
a(I15
I24
I0
tp4649
a(I15
I19
I0
tp4650
a(I15
I23
I0
tp4651
a(I15
I16
I0
tp4652
a(I15
I0
I0
tp4653
a(I15
I4
I0
tp4654
a(I15
I9
I0
tp4655
a(I20
I0
I0
tp4656
a(I5
I9
I0
tp4657
a(I5
I23
I0
tp4658
a(I4
I4
I0
tp4659
a(I4
I9
I0
tp4660
a(I4
I0
I1
tp4661
a(I4
I19
I0
tp4662
a(I4
I23
I0
tp4663
a(I2
I4
I0
tp4664
a(I2
I21
I0
tp4665
a(I7
I9
I0
tp4666
a(I9
I9
I1
tp4667
a(I1
I16
I1
tp4668
a(I18
I4
I1
tp4669
a(I2
I9
I1
tp4670
a(I13
I9
I1
tp4671
a(I13
I16
I1
tp4672
a(I1
I23
I1
tp4673
a(I23
I24
I0
tp4674
a(I12
I16
I1
tp4675
a(I11
I24
I1
tp4676
a(I1
I24
I1
tp4677
a(I3
I0
I1
tp4678
a(I1
I4
I1
tp4679
a(I11
I4
I1
tp4680
a(I12
I19
I1
tp4681
a(I2
I0
I1
tp4682
a(I1
I16
I1
tp4683
a(I9
I21
I0
tp4684
a(I9
I24
I0
tp4685
a(I9
I19
I0
tp4686
a(I9
I23
I0
tp4687
a(I9
I16
I0
tp4688
a(I9
I0
I0
tp4689
a(I9
I4
I0
tp4690
a(I9
I9
I0
tp4691
a(I18
I21
I0
tp4692
a(I18
I24
I0
tp4693
a(I18
I19
I0
tp4694
a(I18
I23
I0
tp4695
a(I18
I16
I0
tp4696
a(I18
I0
I0
tp4697
a(I18
I4
I0
tp4698
a(I18
I9
I0
tp4699
a(I21
I19
I0
tp4700
a(I7
I19
I1
tp4701
a(I7
I4
I1
tp4702
a(I21
I21
I1
tp4703
a(I21
I24
I1
tp4704
a(I21
I19
I1
tp4705
a(I21
I23
I1
tp4706
a(I21
I16
I1
tp4707
a(I21
I0
I1
tp4708
a(I21
I4
I1
tp4709
a(I21
I9
I1
tp4710
a(I22
I21
I1
tp4711
a(I16
I16
I1
tp4712
a(I7
I24
I1
tp4713
a(I23
I21
I1
tp4714
a(I23
I24
I1
tp4715
a(I23
I19
I1
tp4716
a(I23
I23
I1
tp4717
a(I23
I16
I1
tp4718
a(I23
I0
I1
tp4719
a(I23
I4
I1
tp4720
a(I23
I9
I1
tp4721
a(I15
I16
I1
tp4722
a(I15
I24
I1
tp4723
a(I5
I16
I1
tp4724
a(I4
I21
I1
tp4725
a(I3
I16
I1
tp4726
a(I15
I0
I1
tp4727
a(I20
I4
I0
tp4728
a(I8
I24
I0
tp4729
a(I12
I16
I0
tp4730
a(I1
I23
I0
tp4731
a(I1
I19
I1
tp4732
a(I1
I24
I0
tp4733
a(I1
I4
I0
tp4734
a(I1
I21
I0
tp4735
a(I1
I0
I0
tp4736
a(I1
I0
I0
tp4737
a(I1
I0
I0
tp4738
a(I1
I9
I0
tp4739
a(I1
I16
I1
tp4740
a(I17
I0
I1
tp4741
a(I7
I16
I1
tp4742
a(I18
I0
I1
tp4743
a(I0
I0
I1
tp4744
a(I11
I24
I1
tp4745
a(I19
I9
I1
tp4746
a(I1
I19
I1
tp4747
a(I19
I16
I1
tp4748
a(I19
I4
I1
tp4749
a(I22
I21
I1
tp4750
a(I12
I21
I1
tp4751
a(I11
I4
I1
tp4752
a(I13
I0
I1
tp4753
a(I21
I16
I0
tp4754
a(I9
I16
I1
tp4755
a(I8
I21
I1
tp4756
a(I8
I24
I1
tp4757
a(I8
I19
I1
tp4758
a(I8
I23
I1
tp4759
a(I8
I16
I1
tp4760
a(I8
I0
I1
tp4761
a(I8
I4
I1
tp4762
a(I8
I9
I1
tp4763
a(I2
I21
I0
tp4764
a(I19
I0
I1
tp4765
a(I12
I4
I0
tp4766
a(I15
I21
I0
tp4767
a(I15
I24
I0
tp4768
a(I15
I19
I0
tp4769
a(I15
I23
I0
tp4770
a(I15
I16
I0
tp4771
a(I15
I0
I0
tp4772
a(I15
I4
I0
tp4773
a(I15
I9
I0
tp4774
a(I1
I19
I1
tp4775
a(I1
I4
I1
tp4776
a(I1
I21
I1
tp4777
a(I1
I23
I1
tp4778
a(I1
I16
I1
tp4779
a(I20
I16
I0
tp4780
a(I19
I21
I0
tp4781
a(I21
I21
I1
tp4782
a(I21
I24
I1
tp4783
a(I21
I19
I1
tp4784
a(I21
I23
I1
tp4785
a(I21
I16
I1
tp4786
a(I21
I0
I1
tp4787
a(I21
I4
I1
tp4788
a(I21
I9
I1
tp4789
a(I13
I21
I0
tp4790
a(I13
I24
I0
tp4791
a(I13
I19
I0
tp4792
a(I13
I23
I0
tp4793
a(I13
I16
I0
tp4794
a(I13
I0
I0
tp4795
a(I13
I4
I0
tp4796
a(I13
I9
I0
tp4797
a(I22
I21
I0
tp4798
a(I16
I19
I0
tp4799
a(I12
I21
I0
tp4800
a(I18
I21
I0
tp4801
a(I18
I24
I0
tp4802
a(I18
I19
I0
tp4803
a(I18
I23
I0
tp4804
a(I18
I16
I0
tp4805
a(I18
I0
I0
tp4806
a(I18
I4
I0
tp4807
a(I18
I9
I0
tp4808
a(I3
I21
I0
tp4809
a(I3
I24
I0
tp4810
a(I3
I19
I0
tp4811
a(I3
I23
I0
tp4812
a(I3
I16
I0
tp4813
a(I3
I0
I0
tp4814
a(I3
I4
I0
tp4815
a(I3
I9
I0
tp4816
a(I7
I19
I0
tp4817
a(I1
I19
I0
tp4818
a(I1
I23
I0
tp4819
a(I1
I21
I1
tp4820
a(I1
I24
I1
tp4821
a(I1
I19
I1
tp4822
a(I1
I23
I1
tp4823
a(I1
I16
I1
tp4824
a(I1
I0
I1
tp4825
a(I1
I4
I1
tp4826
a(I1
I9
I1
tp4827
a(I22
I21
I0
tp4828
a(I20
I19
I0
tp4829
a(I20
I9
I0
tp4830
a(I15
I21
I0
tp4831
a(I15
I24
I0
tp4832
a(I15
I19
I0
tp4833
a(I15
I23
I0
tp4834
a(I15
I16
I0
tp4835
a(I15
I0
I0
tp4836
a(I15
I4
I0
tp4837
a(I15
I9
I0
tp4838
a(I21
I21
I1
tp4839
a(I21
I24
I1
tp4840
a(I21
I19
I1
tp4841
a(I21
I23
I1
tp4842
a(I21
I16
I1
tp4843
a(I21
I0
I1
tp4844
a(I21
I4
I1
tp4845
a(I21
I9
I1
tp4846
a(I7
I4
I0
tp4847
a(I12
I23
I0
tp4848
a(I13
I21
I0
tp4849
a(I13
I24
I0
tp4850
a(I13
I19
I0
tp4851
a(I13
I23
I0
tp4852
a(I13
I16
I0
tp4853
a(I13
I0
I0
tp4854
a(I13
I4
I0
tp4855
a(I13
I9
I0
tp4856
a(I22
I21
I1
tp4857
a(I5
I21
I0
tp4858
a(I2
I4
I0
tp4859
a(I8
I21
I1
tp4860
a(I8
I24
I1
tp4861
a(I8
I19
I1
tp4862
a(I8
I23
I1
tp4863
a(I8
I16
I1
tp4864
a(I8
I0
I1
tp4865
a(I8
I4
I1
tp4866
a(I8
I9
I1
tp4867
a(I2
I0
I0
tp4868
a(I20
I16
I0
tp4869
a(I16
I23
I0
tp4870
a(I1
I16
I1
tp4871
a(I21
I21
I1
tp4872
a(I21
I24
I1
tp4873
a(I21
I19
I1
tp4874
a(I21
I23
I1
tp4875
a(I21
I16
I1
tp4876
a(I21
I0
I1
tp4877
a(I21
I4
I1
tp4878
a(I21
I9
I1
tp4879
a(I23
I21
I1
tp4880
a(I23
I24
I1
tp4881
a(I23
I19
I1
tp4882
a(I23
I23
I1
tp4883
a(I23
I16
I1
tp4884
a(I23
I0
I1
tp4885
a(I23
I4
I1
tp4886
a(I23
I9
I1
tp4887
a(I11
I9
I1
tp4888
a(I2
I21
I0
tp4889
a(I10
I21
I0
tp4890
a(I10
I24
I0
tp4891
a(I10
I19
I0
tp4892
a(I10
I23
I0
tp4893
a(I10
I16
I0
tp4894
a(I10
I0
I0
tp4895
a(I10
I4
I0
tp4896
a(I10
I9
I0
tp4897
a(I23
I21
I1
tp4898
a(I23
I24
I1
tp4899
a(I23
I19
I1
tp4900
a(I23
I23
I1
tp4901
a(I23
I16
I1
tp4902
a(I23
I0
I1
tp4903
a(I23
I4
I1
tp4904
a(I23
I9
I1
tp4905
a(I5
I21
I0
tp4906
a(I17
I21
I0
tp4907
a(I17
I24
I0
tp4908
a(I17
I19
I0
tp4909
a(I17
I23
I0
tp4910
a(I17
I16
I0
tp4911
a(I17
I0
I0
tp4912
a(I17
I4
I0
tp4913
a(I17
I9
I0
tp4914
a(I1
I16
I1
tp4915
a(I2
I0
I0
tp4916
a(I1
I21
I0
tp4917
a(I1
I19
I1
tp4918
a(I1
I24
I0
tp4919
a(I1
I23
I0
tp4920
a(I1
I4
I0
tp4921
a(I8
I21
I1
tp4922
a(I8
I24
I1
tp4923
a(I8
I19
I1
tp4924
a(I8
I23
I1
tp4925
a(I8
I16
I1
tp4926
a(I8
I0
I1
tp4927
a(I8
I4
I1
tp4928
a(I8
I9
I1
tp4929
a(I7
I19
I0
tp4930
a(I15
I21
I0
tp4931
a(I15
I24
I0
tp4932
a(I15
I19
I0
tp4933
a(I15
I23
I0
tp4934
a(I15
I16
I0
tp4935
a(I15
I0
I0
tp4936
a(I15
I4
I0
tp4937
a(I15
I9
I0
tp4938
a(I16
I9
I0
tp4939
a(I5
I24
I0
tp4940
a(I2
I21
I0
tp4941
a(I12
I4
I0
tp4942
a(I4
I4
I0
tp4943
a(I6
I21
I0
tp4944
a(I6
I24
I0
tp4945
a(I6
I19
I0
tp4946
a(I6
I23
I0
tp4947
a(I6
I16
I0
tp4948
a(I6
I0
I0
tp4949
a(I6
I4
I0
tp4950
a(I6
I9
I0
tp4951
a(I8
I21
I1
tp4952
a(I8
I24
I1
tp4953
a(I8
I19
I1
tp4954
a(I8
I23
I1
tp4955
a(I8
I16
I1
tp4956
a(I8
I0
I1
tp4957
a(I8
I4
I1
tp4958
a(I8
I9
I1
tp4959
a(I4
I21
I0
tp4960
a(I24
I0
I1
tp4961
a(I4
I0
I0
tp4962
a(I4
I16
I0
tp4963
a(I24
I23
I0
tp4964
a(I1
I21
I1
tp4965
a(I1
I24
I1
tp4966
a(I1
I16
I1
tp4967
a(I1
I19
I1
tp4968
a(I1
I23
I1
tp4969
a(I20
I23
I0
tp4970
a(I1
I16
I1
tp4971
a(I16
I19
I0
tp4972
a(I12
I16
I0
tp4973
a(I23
I4
I0
tp4974
a(I1
I0
I1
tp4975
a(I1
I21
I1
tp4976
a(I1
I23
I0
tp4977
a(I1
I19
I0
tp4978
a(I1
I24
I1
tp4979
a(I19
I16
I1
tp4980
a(I15
I21
I0
tp4981
a(I15
I24
I0
tp4982
a(I15
I19
I0
tp4983
a(I15
I23
I0
tp4984
a(I15
I16
I0
tp4985
a(I15
I0
I0
tp4986
a(I15
I4
I0
tp4987
a(I15
I9
I0
tp4988
a(I6
I4
I1
tp4989
a(I20
I19
I0
tp4990
a(I2
I21
I0
tp4991
a(I3
I21
I0
tp4992
a(I3
I24
I0
tp4993
a(I3
I19
I0
tp4994
a(I3
I23
I0
tp4995
a(I3
I16
I0
tp4996
a(I3
I0
I0
tp4997
a(I3
I4
I0
tp4998
a(I3
I9
I0
tp4999
a(I16
I19
I0
tp5000
a(I14
I21
I1
tp5001
a(I21
I0
I0
tp5002
a(I20
I4
I0
tp5003
a(I4
I21
I0
tp5004
a(I4
I0
I0
tp5005
a(I4
I9
I0
tp5006
a(I4
I4
I0
tp5007
a(I4
I23
I0
tp5008
a(I22
I21
I0
tp5009
a(I1
I16
I1
tp5010
a(I12
I23
I0
tp5011
a(I20
I9
I1
tp5012
a(I19
I0
I1
tp5013
a(I13
I21
I0
tp5014
a(I13
I24
I0
tp5015
a(I13
I19
I0
tp5016
a(I13
I23
I0
tp5017
a(I13
I16
I0
tp5018
a(I13
I0
I0
tp5019
a(I13
I4
I0
tp5020
a(I13
I9
I0
tp5021
a(I5
I21
I0
tp5022
a(I18
I21
I0
tp5023
a(I18
I24
I0
tp5024
a(I18
I19
I0
tp5025
a(I18
I23
I0
tp5026
a(I18
I16
I0
tp5027
a(I18
I0
I0
tp5028
a(I18
I4
I0
tp5029
a(I18
I9
I0
tp5030
a(I11
I21
I0
tp5031
a(I11
I24
I0
tp5032
a(I11
I19
I0
tp5033
a(I11
I23
I0
tp5034
a(I11
I16
I0
tp5035
a(I11
I0
I0
tp5036
a(I11
I4
I0
tp5037
a(I11
I9
I0
tp5038
a(I7
I19
I0
tp5039
a(I8
I21
I1
tp5040
a(I8
I24
I1
tp5041
a(I8
I19
I1
tp5042
a(I8
I23
I1
tp5043
a(I8
I16
I1
tp5044
a(I8
I0
I1
tp5045
a(I8
I4
I1
tp5046
a(I8
I9
I1
tp5047
a(I21
I24
I0
tp5048
a(I5
I24
I0
tp5049
a(I10
I21
I0
tp5050
a(I10
I24
I0
tp5051
a(I10
I19
I0
tp5052
a(I10
I23
I0
tp5053
a(I10
I16
I0
tp5054
a(I10
I0
I0
tp5055
a(I10
I4
I0
tp5056
a(I10
I9
I0
tp5057
a(I12
I9
I0
tp5058
a(I22
I21
I0
tp5059
a(I1
I23
I1
tp5060
a(I22
I19
I0
tp5061
a(I21
I0
I0
tp5062
a(I15
I21
I0
tp5063
a(I15
I24
I0
tp5064
a(I15
I19
I0
tp5065
a(I15
I23
I0
tp5066
a(I15
I16
I0
tp5067
a(I15
I0
I0
tp5068
a(I15
I4
I0
tp5069
a(I15
I9
I0
tp5070
a(I4
I0
I1
tp5071
a(I0
I19
I1
tp5072
a(I7
I23
I1
tp5073
a(I23
I19
I0
tp5074
a(I7
I4
I1
tp5075
a(I12
I19
I1
tp5076
a(I13
I23
I1
tp5077
a(I23
I23
I0
tp5078
a(I13
I19
I1
tp5079
a(I12
I24
I1
tp5080
a(I8
I19
I0
tp5081
a(I6
I19
I1
tp5082
a(I2
I0
I1
tp5083
a(I22
I21
I1
tp5084
a(I5
I24
I1
tp5085
a(I8
I21
I1
tp5086
a(I8
I24
I1
tp5087
a(I8
I19
I1
tp5088
a(I8
I23
I1
tp5089
a(I8
I16
I1
tp5090
a(I8
I0
I1
tp5091
a(I8
I4
I1
tp5092
a(I8
I9
I1
tp5093
a(I1
I16
I1
tp5094
a(I21
I0
I0
tp5095
a(I15
I21
I0
tp5096
a(I15
I24
I0
tp5097
a(I15
I19
I0
tp5098
a(I15
I23
I0
tp5099
a(I15
I16
I0
tp5100
a(I15
I0
I0
tp5101
a(I15
I4
I0
tp5102
a(I15
I9
I0
tp5103
a(I4
I0
I0
tp5104
a(I7
I9
I0
tp5105
a(I3
I21
I0
tp5106
a(I3
I24
I0
tp5107
a(I3
I19
I0
tp5108
a(I3
I23
I0
tp5109
a(I3
I16
I0
tp5110
a(I3
I0
I0
tp5111
a(I3
I4
I0
tp5112
a(I3
I9
I0
tp5113
a(I2
I0
I0
tp5114
a(I14
I21
I1
tp5115
a(I4
I16
I0
tp5116
a(I11
I21
I0
tp5117
a(I11
I24
I0
tp5118
a(I11
I19
I0
tp5119
a(I11
I23
I0
tp5120
a(I11
I16
I0
tp5121
a(I11
I0
I0
tp5122
a(I11
I4
I0
tp5123
a(I11
I9
I0
tp5124
a(I4
I23
I0
tp5125
a(I19
I0
I1
tp5126
a(I5
I24
I0
tp5127
a(I4
I4
I0
tp5128
a(I5
I16
I0
tp5129
a(I11
I16
I1
tp5130
a(I5
I21
I0
tp5131
a(I13
I21
I0
tp5132
a(I13
I24
I0
tp5133
a(I13
I19
I0
tp5134
a(I13
I23
I0
tp5135
a(I13
I16
I0
tp5136
a(I13
I0
I0
tp5137
a(I13
I4
I0
tp5138
a(I13
I9
I0
tp5139
a(I6
I21
I0
tp5140
a(I6
I24
I0
tp5141
a(I6
I19
I0
tp5142
a(I6
I23
I0
tp5143
a(I6
I16
I0
tp5144
a(I6
I0
I0
tp5145
a(I6
I4
I0
tp5146
a(I6
I9
I0
tp5147
a(I14
I16
I1
tp5148
a(I7
I21
I0
tp5149
a(I15
I21
I0
tp5150
a(I15
I24
I0
tp5151
a(I15
I19
I0
tp5152
a(I15
I23
I0
tp5153
a(I15
I16
I0
tp5154
a(I15
I0
I0
tp5155
a(I15
I4
I0
tp5156
a(I15
I9
I0
tp5157
a(I16
I16
I0
tp5158
a(I5
I24
I0
tp5159
a(I8
I21
I1
tp5160
a(I8
I24
I1
tp5161
a(I8
I19
I1
tp5162
a(I8
I23
I1
tp5163
a(I8
I16
I1
tp5164
a(I8
I0
I1
tp5165
a(I8
I4
I1
tp5166
a(I8
I9
I1
tp5167
a(I5
I19
I0
tp5168
a(I4
I0
I0
tp5169
a(I2
I4
I0
tp5170
a(I18
I21
I0
tp5171
a(I18
I24
I0
tp5172
a(I18
I19
I0
tp5173
a(I18
I23
I0
tp5174
a(I18
I16
I0
tp5175
a(I18
I0
I0
tp5176
a(I18
I4
I0
tp5177
a(I18
I9
I0
tp5178
a(I1
I4
I1
tp5179
a(I14
I21
I0
tp5180
a(I14
I24
I0
tp5181
a(I14
I19
I0
tp5182
a(I14
I23
I0
tp5183
a(I14
I16
I0
tp5184
a(I14
I0
I0
tp5185
a(I14
I4
I0
tp5186
a(I14
I9
I0
tp5187
a(I6
I21
I0
tp5188
a(I6
I24
I0
tp5189
a(I6
I19
I0
tp5190
a(I6
I23
I0
tp5191
a(I6
I16
I0
tp5192
a(I6
I0
I0
tp5193
a(I6
I4
I0
tp5194
a(I6
I9
I0
tp5195
a(I22
I21
I1
tp5196
a(I23
I21
I1
tp5197
a(I23
I24
I1
tp5198
a(I23
I19
I1
tp5199
a(I23
I23
I1
tp5200
a(I23
I16
I1
tp5201
a(I23
I0
I1
tp5202
a(I23
I4
I1
tp5203
a(I23
I9
I1
tp5204
a(I9
I21
I0
tp5205
a(I9
I24
I0
tp5206
a(I9
I19
I0
tp5207
a(I9
I23
I0
tp5208
a(I9
I16
I0
tp5209
a(I9
I0
I0
tp5210
a(I9
I4
I0
tp5211
a(I9
I9
I0
tp5212
a(I0
I21
I0
tp5213
a(I0
I24
I0
tp5214
a(I0
I19
I0
tp5215
a(I0
I23
I0
tp5216
a(I0
I16
I0
tp5217
a(I0
I0
I0
tp5218
a(I0
I4
I0
tp5219
a(I0
I9
I0
tp5220
a(I17
I21
I0
tp5221
a(I17
I24
I0
tp5222
a(I17
I19
I0
tp5223
a(I17
I23
I0
tp5224
a(I17
I16
I0
tp5225
a(I17
I0
I0
tp5226
a(I17
I4
I0
tp5227
a(I17
I9
I0
tp5228
a(I12
I19
I0
tp5229
a(I8
I21
I1
tp5230
a(I8
I24
I1
tp5231
a(I8
I19
I1
tp5232
a(I8
I23
I1
tp5233
a(I8
I16
I1
tp5234
a(I8
I0
I1
tp5235
a(I8
I4
I1
tp5236
a(I8
I9
I1
tp5237
a(I4
I16
I0
tp5238
a(I16
I24
I1
tp5239
a(I18
I21
I0
tp5240
a(I18
I24
I0
tp5241
a(I18
I19
I0
tp5242
a(I18
I23
I0
tp5243
a(I18
I16
I0
tp5244
a(I18
I0
I0
tp5245
a(I18
I4
I0
tp5246
a(I18
I9
I0
tp5247
a(I21
I21
I1
tp5248
a(I21
I24
I1
tp5249
a(I21
I19
I1
tp5250
a(I21
I23
I1
tp5251
a(I21
I16
I1
tp5252
a(I21
I0
I1
tp5253
a(I21
I4
I1
tp5254
a(I21
I9
I1
tp5255
a(I15
I21
I0
tp5256
a(I15
I24
I0
tp5257
a(I15
I19
I0
tp5258
a(I15
I23
I0
tp5259
a(I15
I16
I0
tp5260
a(I15
I0
I0
tp5261
a(I15
I4
I0
tp5262
a(I15
I9
I0
tp5263
a(I7
I23
I0
tp5264
a(I3
I21
I0
tp5265
a(I3
I24
I0
tp5266
a(I3
I19
I0
tp5267
a(I3
I23
I0
tp5268
a(I3
I16
I0
tp5269
a(I3
I0
I0
tp5270
a(I3
I4
I0
tp5271
a(I3
I9
I0
tp5272
a(I1
I21
I1
tp5273
a(I5
I16
I0
tp5274
a(I5
I19
I0
tp5275
a(I1
I4
I1
tp5276
a(I1
I16
I1
tp5277
a(I1
I19
I1
tp5278
a(I1
I24
I0
tp5279
a(I1
I23
I0
tp5280
a(I8
I21
I1
tp5281
a(I8
I24
I1
tp5282
a(I8
I19
I1
tp5283
a(I8
I23
I1
tp5284
a(I8
I16
I1
tp5285
a(I8
I0
I1
tp5286
a(I8
I4
I1
tp5287
a(I8
I9
I1
tp5288
a(I22
I21
I0
tp5289
a(I1
I0
I1
tp5290
a(I4
I24
I0
tp5291
a(I1
I9
I1
tp5292
a(I21
I21
I1
tp5293
a(I21
I24
I1
tp5294
a(I21
I19
I1
tp5295
a(I21
I23
I1
tp5296
a(I21
I16
I1
tp5297
a(I21
I0
I1
tp5298
a(I21
I4
I1
tp5299
a(I21
I9
I1
tp5300
a(I12
I16
I1
tp5301
a(I23
I4
I0
tp5302
a(I16
I0
I1
tp5303
a(I8
I24
I0
tp5304
a(I12
I19
I1
tp5305
a(I1
I19
I1
tp5306
a(I15
I21
I0
tp5307
a(I15
I24
I0
tp5308
a(I15
I19
I0
tp5309
a(I15
I23
I0
tp5310
a(I15
I16
I0
tp5311
a(I15
I0
I0
tp5312
a(I15
I4
I0
tp5313
a(I15
I9
I0
tp5314
a(I18
I21
I0
tp5315
a(I18
I24
I0
tp5316
a(I18
I19
I0
tp5317
a(I18
I23
I0
tp5318
a(I18
I16
I0
tp5319
a(I18
I0
I0
tp5320
a(I18
I4
I0
tp5321
a(I18
I9
I0
tp5322
a(I23
I21
I1
tp5323
a(I23
I24
I1
tp5324
a(I23
I19
I1
tp5325
a(I23
I23
I1
tp5326
a(I23
I16
I1
tp5327
a(I23
I0
I1
tp5328
a(I23
I4
I1
tp5329
a(I23
I9
I1
tp5330
a(I1
I21
I0
tp5331
a(I1
I24
I0
tp5332
a(I1
I0
I0
tp5333
a(I1
I23
I0
tp5334
a(I1
I4
I0
tp5335
a(I12
I19
I0
tp5336
a(I15
I21
I0
tp5337
a(I15
I24
I0
tp5338
a(I15
I19
I0
tp5339
a(I15
I23
I0
tp5340
a(I15
I16
I0
tp5341
a(I15
I0
I0
tp5342
a(I15
I4
I0
tp5343
a(I15
I9
I0
tp5344
a(I1
I21
I1
tp5345
a(I6
I4
I1
tp5346
a(I10
I9
I1
tp5347
a(I6
I19
I0
tp5348
a(I20
I21
I0
tp5349
a(I21
I9
I0
tp5350
a(I22
I21
I0
tp5351
a(I21
I16
I0
tp5352
a(I4
I9
I1
tp5353
a(I1
I23
I1
tp5354
a(I8
I21
I1
tp5355
a(I8
I24
I1
tp5356
a(I8
I19
I1
tp5357
a(I8
I23
I1
tp5358
a(I8
I16
I1
tp5359
a(I8
I0
I1
tp5360
a(I8
I4
I1
tp5361
a(I8
I9
I1
tp5362
a(I23
I21
I0
tp5363
a(I10
I16
I1
tp5364
a(I1
I21
I1
tp5365
a(I1
I19
I1
tp5366
a(I1
I16
I1
tp5367
a(I1
I24
I0
tp5368
a(I1
I4
I1
tp5369
a(I1
I23
I1
tp5370
a(I16
I16
I0
tp5371
a(I3
I24
I1
tp5372
a(I4
I23
I0
tp5373
a(I5
I21
I0
tp5374
a(I14
I0
I1
tp5375
a(I6
I9
I1
tp5376
a(I8
I9
I0
tp5377
a(I20
I9
I1
tp5378
a(I5
I19
I1
tp5379
a(I5
I9
I0
tp5380
a(I23
I23
I0
tp5381
a(I7
I4
I0
tp5382
a(I14
I21
I0
tp5383
a(I14
I24
I0
tp5384
a(I14
I19
I0
tp5385
a(I14
I23
I0
tp5386
a(I14
I16
I0
tp5387
a(I14
I0
I0
tp5388
a(I14
I4
I0
tp5389
a(I14
I9
I0
tp5390
a(I0
I21
I0
tp5391
a(I0
I24
I0
tp5392
a(I0
I19
I0
tp5393
a(I0
I23
I0
tp5394
a(I0
I16
I0
tp5395
a(I0
I0
I0
tp5396
a(I0
I4
I0
tp5397
a(I0
I9
I0
tp5398
a(I1
I23
I1
tp5399
a(I1
I16
I1
tp5400
a(I1
I21
I1
tp5401
a(I4
I21
I0
tp5402
a(I4
I0
I1
tp5403
a(I1
I24
I1
tp5404
a(I1
I19
I1
tp5405
a(I8
I21
I1
tp5406
a(I8
I24
I1
tp5407
a(I8
I19
I1
tp5408
a(I8
I23
I1
tp5409
a(I8
I16
I1
tp5410
a(I8
I0
I1
tp5411
a(I8
I4
I1
tp5412
a(I8
I9
I1
tp5413
a(I12
I19
I0
tp5414
a(I4
I19
I1
tp5415
a(I7
I16
I0
tp5416
a(I16
I21
I0
tp5417
a(I5
I19
I0
tp5418
a(I10
I24
I1
tp5419
a(I12
I23
I0
tp5420
a(I13
I21
I0
tp5421
a(I13
I24
I0
tp5422
a(I13
I19
I0
tp5423
a(I13
I23
I0
tp5424
a(I13
I16
I0
tp5425
a(I13
I0
I0
tp5426
a(I13
I4
I0
tp5427
a(I13
I9
I0
tp5428
a(I4
I9
I1
tp5429
a(I5
I21
I0
tp5430
a(I21
I0
I0
tp5431
a(I8
I21
I1
tp5432
a(I8
I24
I1
tp5433
a(I8
I19
I1
tp5434
a(I8
I23
I1
tp5435
a(I8
I16
I1
tp5436
a(I8
I0
I1
tp5437
a(I8
I4
I1
tp5438
a(I8
I9
I1
tp5439
a(I1
I21
I0
tp5440
a(I1
I23
I0
tp5441
a(I23
I9
I0
tp5442
a(I22
I21
I0
tp5443
a(I1
I16
I1
tp5444
a(I7
I23
I1
tp5445
a(I2
I21
I1
tp5446
a(I2
I19
I0
tp5447
a(I8
I21
I1
tp5448
a(I8
I24
I1
tp5449
a(I8
I19
I1
tp5450
a(I8
I23
I1
tp5451
a(I8
I16
I1
tp5452
a(I8
I0
I1
tp5453
a(I8
I4
I1
tp5454
a(I8
I9
I1
tp5455
a(I20
I19
I0
tp5456
a(I4
I16
I0
tp5457
a(I4
I21
I0
tp5458
a(I5
I16
I0
tp5459
a(I5
I23
I0
tp5460
a(I4
I9
I0
tp5461
a(I12
I16
I0
tp5462
a(I16
I24
I0
tp5463
a(I14
I21
I1
tp5464
a(I4
I19
I0
tp5465
a(I11
I21
I0
tp5466
a(I11
I24
I0
tp5467
a(I11
I19
I0
tp5468
a(I11
I23
I0
tp5469
a(I11
I16
I0
tp5470
a(I11
I0
I0
tp5471
a(I11
I4
I0
tp5472
a(I11
I9
I0
tp5473
a(I3
I4
I1
tp5474
a(I12
I19
I1
tp5475
a(I11
I23
I1
tp5476
a(I11
I19
I1
tp5477
a(I11
I4
I1
tp5478
a(I3
I19
I1
tp5479
a(I23
I4
I0
tp5480
a(I14
I0
I1
tp5481
a(I23
I4
I0
tp5482
a(I4
I16
I1
tp5483
a(I19
I24
I1
tp5484
a(I20
I23
I1
tp5485
a(I2
I0
I1
tp5486
a(I4
I0
I1
tp5487
a(I15
I9
I1
tp5488
a(I16
I9
I1
tp5489
a(I1
I16
I1
tp5490
a(I15
I4
I1
tp5491
a(I21
I0
I0
tp5492
a(I6
I21
I1
tp5493
a(I7
I19
I1
tp5494
a(I20
I16
I1
tp5495
a(I21
I16
I0
tp5496
a(I1
I21
I1
tp5497
a(I5
I9
I0
tp5498
a(I5
I21
I0
tp5499
a(I10
I9
I1
tp5500
a(I4
I16
I0
tp5501
a(I16
I24
I1
tp5502
a(I4
I19
I0
tp5503
a(I2
I4
I1
tp5504
a(I22
I21
I1
tp5505
a(I13
I21
I0
tp5506
a(I13
I24
I0
tp5507
a(I13
I19
I0
tp5508
a(I13
I23
I0
tp5509
a(I13
I16
I0
tp5510
a(I13
I0
I0
tp5511
a(I13
I4
I0
tp5512
a(I13
I9
I0
tp5513
a(I4
I0
I1
tp5514
a(I4
I9
I1
tp5515
a(I19
I21
I0
tp5516
a(I19
I24
I0
tp5517
a(I19
I19
I0
tp5518
a(I19
I23
I0
tp5519
a(I19
I16
I0
tp5520
a(I19
I0
I0
tp5521
a(I19
I4
I0
tp5522
a(I19
I9
I0
tp5523
a(I8
I0
I0
tp5524
a(I0
I21
I0
tp5525
a(I0
I24
I0
tp5526
a(I0
I19
I0
tp5527
a(I0
I23
I0
tp5528
a(I0
I16
I0
tp5529
a(I0
I0
I0
tp5530
a(I0
I4
I0
tp5531
a(I0
I9
I0
tp5532
a(I18
I4
I1
tp5533
a(I10
I21
I0
tp5534
a(I10
I24
I0
tp5535
a(I10
I19
I0
tp5536
a(I10
I23
I0
tp5537
a(I10
I16
I0
tp5538
a(I10
I0
I0
tp5539
a(I10
I4
I0
tp5540
a(I10
I9
I0
tp5541
a(I18
I19
I1
tp5542
a(I7
I0
I1
tp5543
a(I18
I24
I0
tp5544
a(I18
I0
I0
tp5545
a(I8
I4
I1
tp5546
a(I16
I24
I0
tp5547
a(I0
I21
I0
tp5548
a(I0
I24
I0
tp5549
a(I0
I19
I0
tp5550
a(I0
I23
I0
tp5551
a(I0
I16
I0
tp5552
a(I0
I0
I0
tp5553
a(I0
I4
I0
tp5554
a(I0
I9
I0
tp5555
a(I2
I0
I0
tp5556
a(I20
I9
I0
tp5557
a(I12
I19
I0
tp5558
a(I1
I21
I0
tp5559
a(I1
I4
I1
tp5560
a(I1
I23
I1
tp5561
a(I1
I24
I1
tp5562
a(I1
I19
I1
tp5563
a(I1
I16
I1
tp5564
a(I1
I0
I0
tp5565
a(I17
I21
I0
tp5566
a(I17
I24
I0
tp5567
a(I17
I19
I0
tp5568
a(I17
I23
I0
tp5569
a(I17
I16
I0
tp5570
a(I17
I0
I0
tp5571
a(I17
I4
I0
tp5572
a(I17
I9
I0
tp5573
a(I4
I4
I0
tp5574
a(I6
I21
I0
tp5575
a(I6
I24
I0
tp5576
a(I6
I19
I0
tp5577
a(I6
I23
I0
tp5578
a(I6
I16
I0
tp5579
a(I6
I0
I0
tp5580
a(I6
I4
I0
tp5581
a(I6
I9
I0
tp5582
a(I16
I21
I0
tp5583
a(I20
I21
I0
tp5584
a(I5
I16
I0
tp5585
a(I20
I16
I0
tp5586
a(I1
I23
I1
tp5587
a(I1
I16
I1
tp5588
a(I1
I4
I1
tp5589
a(I1
I21
I1
tp5590
a(I1
I19
I1
tp5591
a(I1
I24
I1
tp5592
a(I23
I21
I0
tp5593
a(I8
I21
I1
tp5594
a(I8
I24
I1
tp5595
a(I8
I19
I1
tp5596
a(I8
I23
I1
tp5597
a(I8
I16
I1
tp5598
a(I8
I0
I1
tp5599
a(I8
I4
I1
tp5600
a(I8
I9
I1
tp5601
a(I20
I9
I0
tp5602
a(I20
I23
I0
tp5603
a(I20
I19
I0
tp5604
a(I13
I19
I1
tp5605
a(I9
I9
I1
tp5606
a(I10
I21
I0
tp5607
a(I10
I24
I0
tp5608
a(I10
I19
I0
tp5609
a(I10
I23
I0
tp5610
a(I10
I16
I0
tp5611
a(I10
I0
I0
tp5612
a(I10
I4
I0
tp5613
a(I10
I9
I0
tp5614
a(I13
I4
I0
tp5615
a(I9
I16
I1
tp5616
a(I6
I21
I0
tp5617
a(I6
I24
I0
tp5618
a(I6
I19
I0
tp5619
a(I6
I23
I0
tp5620
a(I6
I16
I0
tp5621
a(I6
I0
I0
tp5622
a(I6
I4
I0
tp5623
a(I6
I9
I0
tp5624
a(I5
I21
I0
tp5625
a(I18
I23
I1
tp5626
a(I1
I21
I0
tp5627
a(I23
I23
I0
tp5628
a(I4
I23
I0
tp5629
a(I17
I21
I0
tp5630
a(I17
I24
I0
tp5631
a(I17
I19
I0
tp5632
a(I17
I23
I0
tp5633
a(I17
I16
I0
tp5634
a(I17
I0
I0
tp5635
a(I17
I4
I0
tp5636
a(I17
I9
I0
tp5637
a(I1
I24
I0
tp5638
a(I12
I23
I0
tp5639
a(I11
I21
I0
tp5640
a(I11
I24
I0
tp5641
a(I11
I19
I0
tp5642
a(I11
I23
I0
tp5643
a(I11
I16
I0
tp5644
a(I11
I0
I0
tp5645
a(I11
I4
I0
tp5646
a(I11
I9
I0
tp5647
a(I11
I21
I0
tp5648
a(I11
I24
I0
tp5649
a(I11
I19
I0
tp5650
a(I11
I23
I0
tp5651
a(I11
I16
I0
tp5652
a(I11
I0
I0
tp5653
a(I11
I4
I0
tp5654
a(I11
I9
I0
tp5655
a(I1
I19
I1
tp5656
a(I21
I0
I0
tp5657
a(I7
I21
I1
tp5658
a(I15
I21
I0
tp5659
a(I15
I24
I0
tp5660
a(I15
I19
I0
tp5661
a(I15
I23
I0
tp5662
a(I15
I16
I0
tp5663
a(I15
I0
I0
tp5664
a(I15
I4
I0
tp5665
a(I15
I9
I0
tp5666
a(I1
I16
I1
tp5667
a(I1
I23
I1
tp5668
a(I23
I9
I0
tp5669
a(I1
I21
I1
tp5670
a(I23
I4
I0
tp5671
a(I1
I24
I1
tp5672
a(I23
I16
I0
tp5673
a(I23
I19
I1
tp5674
a(I23
I19
I0
tp5675
a(I23
I16
I1
tp5676
a(I22
I21
I1
tp5677
a(I5
I23
I0
tp5678
a(I5
I16
I0
tp5679
a(I5
I21
I0
tp5680
a(I12
I24
I0
tp5681
a(I23
I21
I1
tp5682
a(I23
I24
I1
tp5683
a(I23
I19
I1
tp5684
a(I23
I23
I1
tp5685
a(I23
I16
I1
tp5686
a(I23
I0
I1
tp5687
a(I23
I4
I1
tp5688
a(I23
I9
I1
tp5689
a(I1
I4
I1
tp5690
a(I1
I0
I1
tp5691
a(I1
I24
I1
tp5692
a(I1
I21
I1
tp5693
a(I5
I9
I0
tp5694
a(I8
I23
I0
tp5695
a(I18
I19
I1
tp5696
a(I20
I19
I0
tp5697
a(I13
I21
I0
tp5698
a(I13
I24
I0
tp5699
a(I13
I19
I0
tp5700
a(I13
I23
I0
tp5701
a(I13
I16
I0
tp5702
a(I13
I0
I0
tp5703
a(I13
I4
I0
tp5704
a(I13
I9
I0
tp5705
a(I7
I23
I1
tp5706
a(I1
I21
I0
tp5707
a(I2
I4
I0
tp5708
a(I12
I0
I0
tp5709
a(I17
I21
I0
tp5710
a(I17
I24
I0
tp5711
a(I17
I19
I0
tp5712
a(I17
I23
I0
tp5713
a(I17
I16
I0
tp5714
a(I17
I0
I0
tp5715
a(I17
I4
I0
tp5716
a(I17
I9
I0
tp5717
a(I4
I23
I0
tp5718
a(I4
I19
I0
tp5719
a(I4
I0
I0
tp5720
a(I4
I16
I0
tp5721
a(I4
I9
I0
tp5722
a(I6
I21
I0
tp5723
a(I6
I24
I0
tp5724
a(I6
I19
I0
tp5725
a(I6
I23
I0
tp5726
a(I6
I16
I0
tp5727
a(I6
I0
I0
tp5728
a(I6
I4
I0
tp5729
a(I6
I9
I0
tp5730
a(I2
I21
I0
tp5731
a(I20
I21
I0
tp5732
a(I9
I9
I1
tp5733
a(I16
I9
I0
tp5734
a(I13
I21
I0
tp5735
a(I13
I24
I0
tp5736
a(I13
I19
I0
tp5737
a(I13
I23
I0
tp5738
a(I13
I16
I0
tp5739
a(I13
I0
I0
tp5740
a(I13
I4
I0
tp5741
a(I13
I9
I0
tp5742
a(I17
I21
I0
tp5743
a(I17
I24
I0
tp5744
a(I17
I19
I0
tp5745
a(I17
I23
I0
tp5746
a(I17
I16
I0
tp5747
a(I17
I0
I0
tp5748
a(I17
I4
I0
tp5749
a(I17
I9
I0
tp5750
a(I8
I21
I1
tp5751
a(I8
I24
I1
tp5752
a(I8
I19
I1
tp5753
a(I8
I23
I1
tp5754
a(I8
I16
I1
tp5755
a(I8
I0
I1
tp5756
a(I8
I4
I1
tp5757
a(I8
I9
I1
tp5758
a(I16
I21
I0
tp5759
a(I20
I23
I0
tp5760
a(I1
I19
I0
tp5761
a(I1
I4
I0
tp5762
a(I1
I21
I1
tp5763
a(I1
I24
I1
tp5764
a(I1
I19
I1
tp5765
a(I1
I23
I1
tp5766
a(I1
I16
I1
tp5767
a(I1
I0
I1
tp5768
a(I1
I4
I1
tp5769
a(I1
I9
I1
tp5770
a(I5
I4
I0
tp5771
a(I4
I0
I0
tp5772
a(I4
I23
I0
tp5773
a(I4
I4
I0
tp5774
a(I4
I19
I0
tp5775
a(I4
I9
I0
tp5776
a(I8
I16
I0
tp5777
a(I8
I9
I0
tp5778
a(I21
I9
I0
tp5779
a(I22
I21
I1
tp5780
a(I14
I23
I1
tp5781
a(I4
I0
I1
tp5782
a(I5
I21
I1
tp5783
a(I9
I4
I1
tp5784
a(I12
I19
I1
tp5785
a(I20
I0
I1
tp5786
a(I21
I19
I0
tp5787
a(I21
I19
I1
tp5788
a(I21
I19
I0
tp5789
a(I21
I19
I1
tp5790
a(I21
I19
I0
tp5791
a(I19
I0
I1
tp5792
a(I2
I9
I0
tp5793
a(I23
I19
I0
tp5794
a(I7
I16
I0
tp5795
a(I18
I23
I1
tp5796
a(I5
I9
I0
tp5797
a(I1
I24
I1
tp5798
a(I1
I16
I1
tp5799
a(I5
I0
I0
tp5800
a(I5
I19
I0
tp5801
a(I11
I21
I0
tp5802
a(I11
I24
I0
tp5803
a(I11
I19
I0
tp5804
a(I11
I23
I0
tp5805
a(I11
I16
I0
tp5806
a(I11
I0
I0
tp5807
a(I11
I4
I0
tp5808
a(I11
I9
I0
tp5809
a(I8
I0
I0
tp5810
a(I2
I21
I0
tp5811
a(I5
I21
I0
tp5812
a(I1
I23
I1
tp5813
a(I8
I21
I1
tp5814
a(I8
I24
I1
tp5815
a(I8
I19
I1
tp5816
a(I8
I23
I1
tp5817
a(I8
I16
I1
tp5818
a(I8
I0
I1
tp5819
a(I8
I4
I1
tp5820
a(I8
I9
I1
tp5821
a(I7
I0
I1
tp5822
a(I21
I21
I1
tp5823
a(I21
I24
I1
tp5824
a(I21
I19
I1
tp5825
a(I21
I23
I1
tp5826
a(I21
I16
I1
tp5827
a(I21
I0
I1
tp5828
a(I21
I4
I1
tp5829
a(I21
I9
I1
tp5830
a(I3
I23
I1
tp5831
a(I13
I21
I0
tp5832
a(I13
I24
I0
tp5833
a(I13
I19
I0
tp5834
a(I13
I23
I0
tp5835
a(I13
I16
I0
tp5836
a(I13
I0
I0
tp5837
a(I13
I4
I0
tp5838
a(I13
I9
I0
tp5839
a(I16
I16
I0
tp5840
a(I4
I0
I0
tp5841
a(I4
I19
I0
tp5842
a(I14
I21
I0
tp5843
a(I14
I24
I0
tp5844
a(I14
I19
I0
tp5845
a(I14
I23
I0
tp5846
a(I14
I16
I0
tp5847
a(I14
I0
I0
tp5848
a(I14
I4
I0
tp5849
a(I14
I9
I0
tp5850
a(I19
I24
I1
tp5851
a(I12
I24
I0
tp5852
a(I19
I4
I1
tp5853
a(I3
I19
I1
tp5854
a(I2
I9
I0
tp5855
a(I11
I21
I0
tp5856
a(I11
I24
I0
tp5857
a(I11
I19
I0
tp5858
a(I11
I23
I0
tp5859
a(I11
I16
I0
tp5860
a(I11
I0
I0
tp5861
a(I11
I4
I0
tp5862
a(I11
I9
I0
tp5863
a(I16
I19
I1
tp5864
a(I5
I4
I0
tp5865
a(I5
I19
I0
tp5866
a(I15
I21
I0
tp5867
a(I15
I24
I0
tp5868
a(I15
I19
I0
tp5869
a(I15
I23
I0
tp5870
a(I15
I16
I0
tp5871
a(I15
I0
I0
tp5872
a(I15
I4
I0
tp5873
a(I15
I9
I0
tp5874
a(I4
I0
I1
tp5875
a(I6
I21
I0
tp5876
a(I6
I24
I0
tp5877
a(I6
I19
I0
tp5878
a(I6
I23
I0
tp5879
a(I6
I16
I0
tp5880
a(I6
I0
I0
tp5881
a(I6
I4
I0
tp5882
a(I6
I9
I0
tp5883
a(I21
I0
I0
tp5884
a(I11
I21
I0
tp5885
a(I11
I24
I0
tp5886
a(I11
I19
I0
tp5887
a(I11
I23
I0
tp5888
a(I11
I16
I0
tp5889
a(I11
I0
I0
tp5890
a(I11
I4
I0
tp5891
a(I11
I9
I0
tp5892
a(I20
I9
I0
tp5893
a(I8
I21
I1
tp5894
a(I8
I24
I1
tp5895
a(I8
I19
I1
tp5896
a(I8
I23
I1
tp5897
a(I8
I16
I1
tp5898
a(I8
I0
I1
tp5899
a(I8
I4
I1
tp5900
a(I8
I9
I1
tp5901
a(I12
I24
I0
tp5902
a(I5
I21
I0
tp5903
a(I22
I21
I0
tp5904
a(I21
I0
I0
tp5905
a(I22
I19
I0
tp5906
a(I21
I0
I0
tp5907
a(I14
I21
I1
tp5908
a(I23
I19
I0
tp5909
a(I1
I16
I1
tp5910
a(I11
I21
I0
tp5911
a(I11
I24
I0
tp5912
a(I11
I19
I0
tp5913
a(I11
I23
I0
tp5914
a(I11
I16
I0
tp5915
a(I11
I0
I0
tp5916
a(I11
I4
I0
tp5917
a(I11
I9
I0
tp5918
a(I22
I21
I0
tp5919
a(I22
I19
I0
tp5920
a(I22
I16
I0
tp5921
a(I22
I24
I0
tp5922
a(I1
I21
I0
tp5923
a(I16
I9
I0
tp5924
a(I16
I21
I1
tp5925
a(I22
I23
I0
tp5926
a(I10
I21
I0
tp5927
a(I10
I24
I0
tp5928
a(I10
I19
I0
tp5929
a(I10
I23
I0
tp5930
a(I10
I16
I0
tp5931
a(I10
I0
I0
tp5932
a(I10
I4
I0
tp5933
a(I10
I9
I0
tp5934
a(I22
I4
I0
tp5935
a(I1
I23
I1
tp5936
a(I13
I21
I0
tp5937
a(I13
I24
I0
tp5938
a(I13
I19
I0
tp5939
a(I13
I23
I0
tp5940
a(I13
I16
I0
tp5941
a(I13
I0
I0
tp5942
a(I13
I4
I0
tp5943
a(I13
I9
I0
tp5944
a(I22
I21
I1
tp5945
a(I2
I9
I0
tp5946
a(I1
I19
I1
tp5947
a(I21
I0
I0
tp5948
a(I19
I0
I1
tp5949
a(I8
I21
I1
tp5950
a(I8
I24
I1
tp5951
a(I8
I19
I1
tp5952
a(I8
I23
I1
tp5953
a(I8
I16
I1
tp5954
a(I8
I0
I1
tp5955
a(I8
I4
I1
tp5956
a(I8
I9
I1
tp5957
a(I14
I21
I0
tp5958
a(I14
I24
I0
tp5959
a(I14
I19
I0
tp5960
a(I14
I23
I0
tp5961
a(I14
I16
I0
tp5962
a(I14
I0
I0
tp5963
a(I14
I4
I0
tp5964
a(I14
I9
I0
tp5965
a(I5
I23
I0
tp5966
a(I1
I16
I1
tp5967
a(I1
I21
I0
tp5968
a(I1
I0
I0
tp5969
a(I1
I4
I1
tp5970
a(I1
I24
I0
tp5971
a(I18
I4
I1
tp5972
a(I0
I21
I0
tp5973
a(I0
I24
I0
tp5974
a(I0
I19
I0
tp5975
a(I0
I23
I0
tp5976
a(I0
I16
I0
tp5977
a(I0
I0
I0
tp5978
a(I0
I4
I0
tp5979
a(I0
I9
I0
tp5980
a(I1
I16
I1
tp5981
a(I8
I21
I1
tp5982
a(I8
I24
I1
tp5983
a(I8
I19
I1
tp5984
a(I8
I23
I1
tp5985
a(I8
I16
I1
tp5986
a(I8
I0
I1
tp5987
a(I8
I4
I1
tp5988
a(I8
I9
I1
tp5989
a(I22
I21
I0
tp5990
a(I1
I21
I1
tp5991
a(I1
I24
I1
tp5992
a(I1
I19
I1
tp5993
a(I1
I23
I1
tp5994
a(I12
I16
I0
tp5995
a(I18
I24
I1
tp5996
a(I23
I23
I0
tp5997
a(I14
I21
I1
tp5998
a(I11
I21
I0
tp5999
a(I11
I24
I0
tp6000
a(I11
I19
I0
tp6001
a(I11
I23
I0
tp6002
a(I11
I16
I0
tp6003
a(I11
I0
I0
tp6004
a(I11
I4
I0
tp6005
a(I11
I9
I0
tp6006
a(I3
I21
I0
tp6007
a(I3
I24
I0
tp6008
a(I3
I19
I0
tp6009
a(I3
I23
I0
tp6010
a(I3
I16
I0
tp6011
a(I3
I0
I0
tp6012
a(I3
I4
I0
tp6013
a(I3
I9
I0
tp6014
a(I12
I21
I1
tp6015
a(I2
I4
I1
tp6016
a(I2
I19
I1
tp6017
a(I4
I0
I1
tp6018
a(I15
I23
I1
tp6019
a(I5
I24
I1
tp6020
a(I17
I24
I1
tp6021
a(I17
I4
I1
tp6022
a(I9
I16
I1
tp6023
a(I8
I21
I0
tp6024
a(I3
I24
I1
tp6025
a(I3
I4
I1
tp6026
a(I17
I19
I1
tp6027
a(I15
I19
I1
tp6028
a(I9
I23
I1
tp6029
a(I14
I21
I0
tp6030
a(I14
I24
I0
tp6031
a(I14
I19
I0
tp6032
a(I14
I23
I0
tp6033
a(I14
I16
I0
tp6034
a(I14
I0
I0
tp6035
a(I14
I4
I0
tp6036
a(I14
I9
I0
tp6037
a(I18
I19
I1
tp6038
a(I15
I21
I0
tp6039
a(I15
I24
I0
tp6040
a(I15
I19
I0
tp6041
a(I15
I23
I0
tp6042
a(I15
I16
I0
tp6043
a(I15
I0
I0
tp6044
a(I15
I4
I0
tp6045
a(I15
I9
I0
tp6046
a(I3
I21
I0
tp6047
a(I3
I24
I0
tp6048
a(I3
I19
I0
tp6049
a(I3
I23
I0
tp6050
a(I3
I16
I0
tp6051
a(I3
I0
I0
tp6052
a(I3
I4
I0
tp6053
a(I3
I9
I0
tp6054
a(I11
I21
I0
tp6055
a(I11
I24
I0
tp6056
a(I11
I19
I0
tp6057
a(I11
I23
I0
tp6058
a(I11
I16
I0
tp6059
a(I11
I0
I0
tp6060
a(I11
I4
I0
tp6061
a(I11
I9
I0
tp6062
a(I4
I4
I0
tp6063
a(I4
I19
I0
tp6064
a(I4
I9
I0
tp6065
a(I4
I0
I0
tp6066
a(I4
I23
I0
tp6067
a(I1
I19
I1
tp6068
a(I2
I21
I0
tp6069
a(I23
I23
I0
tp6070
a(I23
I23
I0
tp6071
a(I4
I21
I0
tp6072
a(I23
I21
I1
tp6073
a(I23
I24
I1
tp6074
a(I23
I19
I1
tp6075
a(I23
I23
I1
tp6076
a(I23
I16
I1
tp6077
a(I23
I0
I1
tp6078
a(I23
I4
I1
tp6079
a(I23
I9
I1
tp6080
a(I22
I21
I1
tp6081
a(I2
I21
I1
tp6082
a(I1
I23
I1
tp6083
a(I5
I9
I1
tp6084
a(I15
I21
I0
tp6085
a(I15
I24
I0
tp6086
a(I15
I19
I0
tp6087
a(I15
I23
I0
tp6088
a(I15
I16
I0
tp6089
a(I15
I0
I0
tp6090
a(I15
I4
I0
tp6091
a(I15
I9
I0
tp6092
a(I14
I21
I0
tp6093
a(I14
I24
I0
tp6094
a(I14
I19
I0
tp6095
a(I14
I23
I0
tp6096
a(I14
I16
I0
tp6097
a(I14
I0
I0
tp6098
a(I14
I4
I0
tp6099
a(I14
I9
I0
tp6100
a(I2
I0
I1
tp6101
a(I7
I24
I1
tp6102
a(I12
I4
I1
tp6103
a(I2
I19
I1
tp6104
a(I10
I21
I0
tp6105
a(I10
I24
I0
tp6106
a(I10
I19
I0
tp6107
a(I10
I23
I0
tp6108
a(I10
I16
I0
tp6109
a(I10
I0
I0
tp6110
a(I10
I4
I0
tp6111
a(I10
I9
I0
tp6112
a(I13
I21
I0
tp6113
a(I13
I24
I0
tp6114
a(I13
I19
I0
tp6115
a(I13
I23
I0
tp6116
a(I13
I16
I0
tp6117
a(I13
I0
I0
tp6118
a(I13
I4
I0
tp6119
a(I13
I9
I0
tp6120
a(I20
I19
I1
tp6121
a(I18
I21
I0
tp6122
a(I18
I24
I0
tp6123
a(I18
I19
I0
tp6124
a(I18
I23
I0
tp6125
a(I18
I16
I0
tp6126
a(I18
I0
I0
tp6127
a(I18
I4
I0
tp6128
a(I18
I9
I0
tp6129
a.