(lp0
(lp1
(dp2
S'action'
p3
cnumpy.core.multiarray
scalar
p4
(cnumpy
dtype
p5
(S'S4'
p6
I0
I1
tp7
Rp8
(I3
S'|'
p9
NNNI4
I1
I0
tp10
bS'walk'
p11
tp12
Rp13
sS'recipient'
p14
NsS'patient'
p15
NsS'goal'
p16
g4
(g5
(S'S4'
p17
I0
I1
tp18
Rp19
(I3
S'|'
p20
NNNI4
I1
I0
tp21
bS'3406'
p22
tp23
Rp24
sS'source'
p25
Nsa(dp26
g3
g4
(g5
(S'S5'
p27
I0
I1
tp28
Rp29
(I3
S'|'
p30
NNNI5
I1
I0
tp31
bS'bring'
p32
tp33
Rp34
sg14
S's'
p35
sg15
g4
(g5
(S'S7'
p36
I0
I1
tp37
Rp38
(I3
S'|'
p39
NNNI7
I1
I0
tp40
bS'oidx_12'
p41
tp42
Rp43
sg16
Nsg25
Nsa(dp44
g3
g4
(g5
(S'S5'
p45
I0
I1
tp46
Rp47
(I3
S'|'
p48
NNNI5
I1
I0
tp49
bS'bring'
p50
tp51
Rp52
sg14
S'p'
p53
sg15
S'oidx_11'
p54
sg16
Nsg25
Nsaa(lp55
(dp56
S'all'
p57
(lp58
S'you should move to the lounge'
p59
asg15
(lp60
sg16
(lp61
S'the lounge'
p62
asg25
(lp63
sg3
(lp64
sg14
(lp65
sa(dp66
g57
(lp67
S'take the spice to richard rogue secretary'
p68
asg15
(lp69
S'spice'
p70
aS'spice'
p71
aS'nothing'
p72
aS'spice'
p73
aS'a bottle of spice'
p74
aS'spice'
p75
aS'spice'
p76
aS'bottle of spice'
p77
aS'a'
p78
asg16
(lp79
sg25
(lp80
sg3
(lp81
sg14
(lp82
sa(dp83
g57
(lp84
S'pickup sytrofoam from w and deliver to lounge'
p85
asg15
(lp86
sg16
(lp87
sg25
(lp88
sg3
(lp89
sg14
(lp90
saa(lp91
(g4
(g5
(S'S5'
p92
I0
I1
tp93
Rp94
(I3
S'|'
p95
NNNI5
I1
I0
tp96
bS'block'
p97
tp98
Rp99
I10
I0
tp100
a(g99
I3
I0
tp101
a(g99
I27
I0
tp102
a(g99
I7
I0
tp103
a(g99
I18
I0
tp104
a(g99
I2
I0
tp105
a(g99
I20
I0
tp106
a(g99
I17
I0
tp107
a(g4
(g5
(S'S5'
p108
I0
I1
tp109
Rp110
(I3
S'|'
p111
NNNI5
I1
I0
tp112
bS'spice'
p113
tp114
Rp115
I10
I0
tp116
a(g115
I3
I0
tp117
a(g115
I27
I0
tp118
a(g115
I7
I0
tp119
a(g115
I18
I0
tp120
a(g115
I2
I0
tp121
a(g115
I20
I0
tp122
a(g115
I17
I0
tp123
a(g4
(g5
(S'S6'
p124
I0
I1
tp125
Rp126
(I3
S'|'
p127
NNNI6
I1
I0
tp128
bS'coffee'
p129
tp130
Rp131
I2
I1
tp132
a(g4
(g5
(S'S3'
p133
I0
I1
tp134
Rp135
(I3
S'|'
p136
NNNI3
I1
I0
tp137
bS'can'
p138
tp139
Rp140
I10
I1
tp141
a(g4
(g5
(S'S4'
p142
I0
I1
tp143
Rp144
(I3
S'|'
p145
NNNI4
I1
I0
tp146
bS'blue'
p147
tp148
Rp149
I18
I1
tp150
a(g4
(g5
(S'S9'
p151
I0
I1
tp152
Rp153
(I3
S'|'
p154
NNNI9
I1
I0
tp155
bS'styrofoam'
p156
tp157
Rp158
I20
I1
tp159
a(g4
(g5
(S'S6'
p160
I0
I1
tp161
Rp162
(I3
S'|'
p163
NNNI6
I1
I0
tp164
bS'yellow'
p165
tp166
Rp167
I10
I0
tp168
a(g167
I3
I0
tp169
a(g167
I27
I0
tp170
a(g167
I7
I0
tp171
a(g167
I18
I0
tp172
a(g167
I2
I0
tp173
a(g167
I20
I0
tp174
a(g167
I17
I0
tp175
a(g4
(g5
(S'S4'
p176
I0
I1
tp177
Rp178
(I3
S'|'
p179
NNNI4
I1
I0
tp180
bS'long'
p181
tp182
Rp183
I10
I0
tp184
a(g183
I3
I0
tp185
a(g183
I27
I0
tp186
a(g183
I7
I0
tp187
a(g183
I18
I0
tp188
a(g183
I2
I0
tp189
a(g183
I20
I0
tp190
a(g183
I17
I0
tp191
a(g4
(g5
(S'S6'
p192
I0
I1
tp193
Rp194
(I3
S'|'
p195
NNNI6
I1
I0
tp196
bS'column'
p197
tp198
Rp199
I3
I1
tp200
a(g4
(g5
(S'S5'
p201
I0
I1
tp202
Rp203
(I3
S'|'
p204
NNNI5
I1
I0
tp205
bS'tower'
p206
tp207
Rp208
I10
I0
tp209
a(g208
I3
I0
tp210
a(g208
I27
I0
tp211
a(g208
I7
I0
tp212
a(g208
I18
I0
tp213
a(g208
I2
I0
tp214
a(g208
I20
I0
tp215
a(g208
I17
I0
tp216
aa(lp217
(S'bottle'
p218
S'container'
p219
I01
tp220
aa.