(lp0
(lp1
(dp2
S'action'
p3
cnumpy.core.multiarray
scalar
p4
(cnumpy
dtype
p5
(S'S4'
p6
I0
I1
tp7
Rp8
(I3
S'|'
p9
NNNI4
I1
I0
tp10
bS'move'
p11
tp12
Rp13
sS'recipient'
p14
NsS'patient'
p15
S'oidx_10'
p16
sS'goal'
p17
S'3414a'
p18
sS'source'
p19
S'3508'
p20
sa(dp21
g3
g4
(g5
(S'S5'
p22
I0
I1
tp23
Rp24
(I3
S'|'
p25
NNNI5
I1
I0
tp26
bS'bring'
p27
tp28
Rp29
sg14
g4
(g5
(S'S1'
p30
I0
I1
tp31
Rp32
(I3
S'|'
p33
NNNI1
I1
I0
tp34
bS'r'
p35
tp36
Rp37
sg15
g4
(g5
(S'S7'
p38
I0
I1
tp39
Rp40
(I3
S'|'
p41
NNNI7
I1
I0
tp42
bS'oidx_22'
p43
tp44
Rp45
sg17
Nsg19
Nsa(dp46
g3
g4
(g5
(S'S4'
p47
I0
I1
tp48
Rp49
(I3
S'|'
p50
NNNI4
I1
I0
tp51
bS'walk'
p52
tp53
Rp54
sg14
Nsg15
Nsg17
g4
(g5
(S'S4'
p55
I0
I1
tp56
Rp57
(I3
S'|'
p58
NNNI4
I1
I0
tp59
bS'3518'
p60
tp61
Rp62
sg19
Nsaa(lp63
(dp64
S'all'
p65
(lp66
S'go the the lab that is located between the printer and the kitchen'
p67
asg15
(lp68
sg17
(lp69
sg19
(lp70
sg3
(lp71
sg14
(lp72
sa(dp73
g65
(lp74
S'relocate the object to richard'
p75
asg15
(lp76
sg17
(lp77
sg19
(lp78
sg3
(lp79
sg14
(lp80
S'no'
p81
aS'deliver the medicine to richard'
p82
aS'no'
p83
aS'richard'
p84
asa(dp85
g65
(lp86
S'get the bottle from the pod and deliver it to david'
p87
asg15
(lp88
sg17
(lp89
S'pod'
p90
aS'go to pod'
p91
aS'pod'
p92
aS'go to the pod at the southeast corner'
p93
aS'go to the pod below the lab'
p94
aS'go to the southeast pod'
p95
aS'go to the pod'
p96
aS'pod'
p97
asg19
(lp98
sg3
(lp99
sg14
(lp100
saa(lp101
(g4
(g5
(S'S5'
p102
I0
I1
tp103
Rp104
(I3
S'|'
p105
NNNI5
I1
I0
tp106
bS'white'
p107
tp108
Rp109
I10
I0
tp110
a(g109
I3
I0
tp111
a(g109
I27
I0
tp112
a(g109
I7
I0
tp113
a(g109
I18
I0
tp114
a(g109
I2
I0
tp115
a(g109
I20
I0
tp116
a(g109
I17
I0
tp117
a(g4
(g5
(S'S9'
p118
I0
I1
tp119
Rp120
(I3
S'|'
p121
NNNI9
I1
I0
tp122
bS'container'
p123
tp124
Rp125
I2
I1
tp126
a(g4
(g5
(S'S3'
p127
I0
I1
tp128
Rp129
(I3
S'|'
p130
NNNI3
I1
I0
tp131
bS'can'
p132
tp133
Rp134
I2
I1
tp135
a(g4
(g5
(S'S9'
p136
I0
I1
tp137
Rp138
(I3
S'|'
p139
NNNI9
I1
I0
tp140
bS'rectangle'
p141
tp142
Rp143
I10
I0
tp144
a(g143
I3
I0
tp145
a(g143
I27
I0
tp146
a(g143
I7
I0
tp147
a(g143
I18
I0
tp148
a(g143
I2
I0
tp149
a(g143
I20
I0
tp150
a(g143
I17
I0
tp151
a(g4
(g5
(S'S9'
p152
I0
I1
tp153
Rp154
(I3
S'|'
p155
NNNI9
I1
I0
tp156
bS'container'
p157
tp158
Rp159
I27
I0
tp160
a(g4
(g5
(S'S9'
p161
I0
I1
tp162
Rp163
(I3
S'|'
p164
NNNI9
I1
I0
tp165
bS'container'
p166
tp167
Rp168
I10
I0
tp169
a(g168
I3
I0
tp170
a(g168
I27
I0
tp171
a(g168
I7
I0
tp172
a(g168
I18
I0
tp173
a(g168
I2
I0
tp174
a(g168
I20
I0
tp175
a(g168
I17
I0
tp176
a(g4
(g5
(S'S9'
p177
I0
I1
tp178
Rp179
(I3
S'|'
p180
NNNI9
I1
I0
tp181
bS'styrofoam'
p182
tp183
Rp184
I20
I1
tp185
a(g4
(g5
(S'S5'
p186
I0
I1
tp187
Rp188
(I3
S'|'
p189
NNNI5
I1
I0
tp190
bS'block'
p191
tp192
Rp193
I10
I0
tp194
a(g193
I3
I0
tp195
a(g193
I27
I0
tp196
a(g193
I7
I0
tp197
a(g193
I18
I0
tp198
a(g193
I2
I0
tp199
a(g193
I20
I0
tp200
a(g193
I17
I0
tp201
a(g4
(g5
(S'S5'
p202
I0
I1
tp203
Rp204
(I3
S'|'
p205
NNNI5
I1
I0
tp206
bS'peach'
p207
tp208
Rp209
I10
I0
tp210
a(g209
I3
I0
tp211
a(g209
I27
I0
tp212
a(g209
I7
I0
tp213
a(g209
I18
I0
tp214
a(g209
I2
I0
tp215
a(g209
I20
I0
tp216
a(g209
I17
I0
tp217
a(g4
(g5
(S'S4'
p218
I0
I1
tp219
Rp220
(I3
S'|'
p221
NNNI4
I1
I0
tp222
bS'long'
p223
tp224
Rp225
I3
I1
tp226
aa(lp227
(S'object'
p228
S'container'
p229
I01
tp230
a(S'medicine'
p231
S'coffee'
p232
I00
tp233
a(g231
S'spices'
p234
I00
tp235
aa.