(lp0
(lp1
(dp2
S'action'
p3
cnumpy.core.multiarray
scalar
p4
(cnumpy
dtype
p5
(S'S4'
p6
I0
I1
tp7
Rp8
(I3
S'|'
p9
NNNI4
I1
I0
tp10
bS'walk'
p11
tp12
Rp13
sS'recipient'
p14
NsS'patient'
p15
NsS'goal'
p16
g4
(g5
(S'S4'
p17
I0
I1
tp18
Rp19
(I3
S'|'
p20
NNNI4
I1
I0
tp21
bS'3512'
p22
tp23
Rp24
sS'source'
p25
Nsa(dp26
g3
g4
(g5
(S'S5'
p27
I0
I1
tp28
Rp29
(I3
S'|'
p30
NNNI5
I1
I0
tp31
bS'bring'
p32
tp33
Rp34
sg14
g4
(g5
(S'S1'
p35
I0
I1
tp36
Rp37
(I3
S'|'
p38
NNNI1
I1
I0
tp39
bS'd'
p40
tp41
Rp42
sg15
g4
(g5
(S'S7'
p43
I0
I1
tp44
Rp45
(I3
S'|'
p46
NNNI7
I1
I0
tp47
bS'oidx_25'
p48
tp49
Rp50
sg16
Nsg25
Nsa(dp51
g3
g4
(g5
(S'S5'
p52
I0
I1
tp53
Rp54
(I3
S'|'
p55
NNNI5
I1
I0
tp56
bS'bring'
p57
tp58
Rp59
sg14
g4
(g5
(S'S1'
p60
I0
I1
tp61
Rp62
(I3
S'|'
p63
NNNI1
I1
I0
tp64
bS'w'
p65
tp66
Rp67
sg15
S'oidx_12'
p68
sg16
Nsg25
Nsaa(lp69
(dp70
S'all'
p71
(lp72
S'go to the office of richard rogue'
p73
asg15
(lp74
sg16
(lp75
S'to office r'
p76
aS'to the office of richard rogue'
p77
asg25
(lp78
sg3
(lp79
sg14
(lp80
sa(dp81
g71
(lp82
S'you need to give david daniel the jar a spices'
p83
asg15
(lp84
S'a container of pepper'
p85
asg16
(lp86
sg25
(lp87
sg3
(lp88
sg14
(lp89
S'to david daniels'
p90
asa(dp91
g71
(lp92
S'take the cleaning wipes to the lab in front of office w'
p93
asg15
(lp94
sg16
(lp95
sg25
(lp96
sg3
(lp97
sg14
(lp98
S'to a lab'
p99
aS'to a lab'
p100
aS'person w'
p101
aS'to walter ward'
p102
asaa(lp103
(g4
(g5
(S'S3'
p104
I0
I1
tp105
Rp106
(I3
S'|'
p107
NNNI3
I1
I0
tp108
bS'can'
p109
tp110
Rp111
I2
I1
tp112
a(g4
(g5
(S'S6'
p113
I0
I1
tp114
Rp115
(I3
S'|'
p116
NNNI6
I1
I0
tp117
bS'yellow'
p118
tp119
Rp120
I10
I0
tp121
a(g120
I3
I0
tp122
a(g120
I27
I0
tp123
a(g120
I7
I0
tp124
a(g120
I18
I0
tp125
a(g120
I2
I0
tp126
a(g120
I20
I0
tp127
a(g120
I17
I0
tp128
a(g4
(g5
(S'S5'
p129
I0
I1
tp130
Rp131
(I3
S'|'
p132
NNNI5
I1
I0
tp133
bS'peach'
p134
tp135
Rp136
I10
I0
tp137
a(g136
I3
I0
tp138
a(g136
I27
I0
tp139
a(g136
I7
I0
tp140
a(g136
I18
I0
tp141
a(g136
I2
I0
tp142
a(g136
I20
I0
tp143
a(g136
I17
I0
tp144
a(g4
(g5
(S'S6'
p145
I0
I1
tp146
Rp147
(I3
S'|'
p148
NNNI6
I1
I0
tp149
bS'column'
p150
tp151
Rp152
I3
I1
tp153
a(g4
(g5
(S'S5'
p154
I0
I1
tp155
Rp156
(I3
S'|'
p157
NNNI5
I1
I0
tp158
bS'tower'
p159
tp160
Rp161
I7
I1
tp162
a(g4
(g5
(S'S5'
p163
I0
I1
tp164
Rp165
(I3
S'|'
p166
NNNI5
I1
I0
tp167
bS'spice'
p168
tp169
Rp170
I10
I0
tp171
a(g170
I3
I0
tp172
a(g170
I27
I0
tp173
a(g170
I7
I0
tp174
a(g170
I18
I0
tp175
a(g170
I2
I0
tp176
a(g170
I20
I0
tp177
a(g170
I17
I0
tp178
a(g4
(g5
(S'S9'
p179
I0
I1
tp180
Rp181
(I3
S'|'
p182
NNNI9
I1
I0
tp183
bS'container'
p184
tp185
Rp186
I10
I1
tp187
a(g4
(g5
(S'S9'
p188
I0
I1
tp189
Rp190
(I3
S'|'
p191
NNNI9
I1
I0
tp192
bS'container'
p193
tp194
Rp195
I27
I0
tp196
a(g4
(g5
(S'S9'
p197
I0
I1
tp198
Rp199
(I3
S'|'
p200
NNNI9
I1
I0
tp201
bS'container'
p202
tp203
Rp204
I2
I1
tp205
a(g4
(g5
(S'S9'
p206
I0
I1
tp207
Rp208
(I3
S'|'
p209
NNNI9
I1
I0
tp210
bS'container'
p211
tp212
Rp213
I3
I0
tp214
a(g4
(g5
(S'S8'
p215
I0
I1
tp216
Rp217
(I3
S'|'
p218
NNNI8
I1
I0
tp219
bS'cylinder'
p220
tp221
Rp222
I20
I1
tp223
a(g4
(g5
(S'S5'
p224
I0
I1
tp225
Rp226
(I3
S'|'
p227
NNNI5
I1
I0
tp228
bS'tower'
p229
tp230
Rp231
I27
I0
tp232
a(g4
(g5
(S'S6'
p233
I0
I1
tp234
Rp235
(I3
S'|'
p236
NNNI6
I1
I0
tp237
bS'column'
p238
tp239
Rp240
I27
I0
tp241
a(g4
(g5
(S'S8'
p242
I0
I1
tp243
Rp244
(I3
S'|'
p245
NNNI8
I1
I0
tp246
bS'pringles'
p247
tp248
Rp249
I27
I1
tp250
a(g4
(g5
(S'S5'
p251
I0
I1
tp252
Rp253
(I3
S'|'
p254
NNNI5
I1
I0
tp255
bS'white'
p256
tp257
Rp258
I10
I0
tp259
a(g258
I3
I0
tp260
a(g258
I27
I0
tp261
a(g258
I7
I0
tp262
a(g258
I18
I0
tp263
a(g258
I2
I0
tp264
a(g258
I20
I0
tp265
a(g258
I17
I0
tp266
aa(lp267
(S'jar'
p268
S'container'
p269
I01
tp270
a(S'pepper'
p271
S'spice'
p272
I01
tp273
a(S'wipes'
p274
S'empty'
p275
I00
tp276
aa.