(lp0
(I0
I0
I01
tp1
a(I1
I0
I00
tp2
a(I2
I0
I00
tp3
a(I3
I0
I00
tp4
a(I4
I0
I00
tp5
a(I5
I0
I00
tp6
a(I6
I0
I00
tp7
a(I7
I0
I00
tp8
a(I8
I0
I00
tp9
a(I9
I0
I00
tp10
a(I10
I0
I00
tp11
a(I11
I0
I00
tp12
a(I12
I0
I00
tp13
a(I13
I0
I00
tp14
a(I14
I0
I00
tp15
a(I15
I0
I00
tp16
a(I16
I0
I00
tp17
a(I17
I0
I00
tp18
a(I18
I0
I01
tp19
a(I19
I0
I00
tp20
a(I20
I0
I00
tp21
a(I21
I0
I01
tp22
a(I22
I0
I00
tp23
a(I23
I0
I01
tp24
a(I24
I0
I00
tp25
a(I25
I0
I01
tp26
a(I26
I0
I01
tp27
a(I27
I0
I00
tp28
a(I28
I0
I00
tp29
a(I29
I0
I00
tp30
a(I30
I0
I01
tp31
a(I31
I0
I00
tp32
a(I32
I0
I00
tp33
a(I33
I0
I01
tp34
a(I34
I0
I01
tp35
a(I35
I0
I01
tp36
a(I36
I0
I00
tp37
a(I37
I0
I01
tp38
a(I38
I0
I00
tp39
a(I39
I0
I01
tp40
a(I40
I0
I01
tp41
a(I41
I0
I00
tp42
a(I42
I0
I00
tp43
a(I43
I0
I00
tp44
a(I44
I0
I00
tp45
a(I45
I0
I00
tp46
a(I46
I0
I00
tp47
a(I47
I0
I00
tp48
a(I48
I0
I00
tp49
a(I49
I0
I00
tp50
a(I50
I0
I00
tp51
a(I51
I0
I00
tp52
a(I52
I0
I01
tp53
a(I53
I0
I00
tp54
a(I54
I0
I00
tp55
a(I55
I0
I00
tp56
a(I56
I0
I00
tp57
a(I57
I0
I00
tp58
a(I58
I0
I00
tp59
a(I59
I0
I01
tp60
a(I60
I0
I00
tp61
a(I61
I0
I01
tp62
a(I62
I0
I00
tp63
a(I63
I0
I00
tp64
a(I64
I0
I00
tp65
a(I65
I0
I00
tp66
a(I66
I0
I00
tp67
a(I67
I0
I00
tp68
a(I68
I0
I00
tp69
a(I69
I0
I00
tp70
a(I70
I0
I00
tp71
a(I71
I0
I00
tp72
a(I72
I0
I01
tp73
a(I73
I0
I00
tp74
a(I74
I0
I00
tp75
a(I75
I0
I00
tp76
a(I76
I0
I01
tp77
a(I77
I0
I01
tp78
a(I78
I0
I00
tp79
a(I79
I0
I00
tp80
a(I80
I0
I00
tp81
a(I0
I1
I01
tp82
a(I1
I1
I00
tp83
a(I2
I1
I00
tp84
a(I3
I1
I00
tp85
a(I4
I1
I00
tp86
a(I5
I1
I00
tp87
a(I6
I1
I00
tp88
a(I7
I1
I00
tp89
a(I8
I1
I00
tp90
a(I9
I1
I00
tp91
a(I10
I1
I01
tp92
a(I11
I1
I00
tp93
a(I12
I1
I01
tp94
a(I13
I1
I00
tp95
a(I14
I1
I00
tp96
a(I15
I1
I00
tp97
a(I16
I1
I00
tp98
a(I17
I1
I00
tp99
a(I18
I1
I01
tp100
a(I19
I1
I00
tp101
a(I20
I1
I01
tp102
a(I21
I1
I01
tp103
a(I22
I1
I00
tp104
a(I23
I1
I01
tp105
a(I24
I1
I00
tp106
a(I25
I1
I00
tp107
a(I26
I1
I00
tp108
a(I27
I1
I00
tp109
a(I28
I1
I01
tp110
a(I29
I1
I00
tp111
a(I30
I1
I01
tp112
a(I31
I1
I00
tp113
a(I32
I1
I00
tp114
a(I33
I1
I00
tp115
a(I34
I1
I01
tp116
a(I35
I1
I00
tp117
a(I36
I1
I00
tp118
a(I37
I1
I01
tp119
a(I38
I1
I00
tp120
a(I39
I1
I01
tp121
a(I40
I1
I01
tp122
a(I41
I1
I00
tp123
a(I42
I1
I00
tp124
a(I43
I1
I01
tp125
a(I44
I1
I00
tp126
a(I45
I1
I00
tp127
a(I46
I1
I01
tp128
a(I47
I1
I00
tp129
a(I48
I1
I00
tp130
a(I49
I1
I00
tp131
a(I50
I1
I00
tp132
a(I51
I1
I01
tp133
a(I52
I1
I00
tp134
a(I53
I1
I00
tp135
a(I54
I1
I00
tp136
a(I55
I1
I00
tp137
a(I56
I1
I00
tp138
a(I57
I1
I00
tp139
a(I58
I1
I00
tp140
a(I59
I1
I01
tp141
a(I60
I1
I00
tp142
a(I61
I1
I01
tp143
a(I62
I1
I00
tp144
a(I63
I1
I00
tp145
a(I64
I1
I00
tp146
a(I65
I1
I00
tp147
a(I66
I1
I00
tp148
a(I67
I1
I00
tp149
a(I68
I1
I01
tp150
a(I69
I1
I00
tp151
a(I70
I1
I00
tp152
a(I71
I1
I00
tp153
a(I72
I1
I01
tp154
a(I73
I1
I01
tp155
a(I74
I1
I01
tp156
a(I75
I1
I00
tp157
a(I76
I1
I01
tp158
a(I77
I1
I01
tp159
a(I78
I1
I01
tp160
a(I79
I1
I00
tp161
a(I80
I1
I00
tp162
a(I0
I2
I01
tp163
a(I1
I2
I00
tp164
a(I2
I2
I00
tp165
a(I3
I2
I00
tp166
a(I4
I2
I00
tp167
a(I5
I2
I00
tp168
a(I6
I2
I00
tp169
a(I7
I2
I00
tp170
a(I8
I2
I00
tp171
a(I9
I2
I00
tp172
a(I10
I2
I01
tp173
a(I11
I2
I01
tp174
a(I12
I2
I00
tp175
a(I13
I2
I00
tp176
a(I14
I2
I01
tp177
a(I15
I2
I01
tp178
a(I16
I2
I01
tp179
a(I17
I2
I00
tp180
a(I18
I2
I00
tp181
a(I19
I2
I00
tp182
a(I20
I2
I00
tp183
a(I21
I2
I01
tp184
a(I22
I2
I00
tp185
a(I23
I2
I00
tp186
a(I24
I2
I00
tp187
a(I25
I2
I01
tp188
a(I26
I2
I00
tp189
a(I27
I2
I00
tp190
a(I28
I2
I00
tp191
a(I29
I2
I00
tp192
a(I30
I2
I01
tp193
a(I31
I2
I00
tp194
a(I32
I2
I00
tp195
a(I33
I2
I00
tp196
a(I34
I2
I01
tp197
a(I35
I2
I00
tp198
a(I36
I2
I00
tp199
a(I37
I2
I01
tp200
a(I38
I2
I00
tp201
a(I39
I2
I01
tp202
a(I40
I2
I00
tp203
a(I41
I2
I00
tp204
a(I42
I2
I00
tp205
a(I43
I2
I00
tp206
a(I44
I2
I00
tp207
a(I45
I2
I00
tp208
a(I46
I2
I00
tp209
a(I47
I2
I00
tp210
a(I48
I2
I00
tp211
a(I49
I2
I00
tp212
a(I50
I2
I00
tp213
a(I51
I2
I01
tp214
a(I52
I2
I00
tp215
a(I53
I2
I00
tp216
a(I54
I2
I01
tp217
a(I55
I2
I00
tp218
a(I56
I2
I00
tp219
a(I57
I2
I00
tp220
a(I58
I2
I00
tp221
a(I59
I2
I01
tp222
a(I60
I2
I01
tp223
a(I61
I2
I01
tp224
a(I62
I2
I00
tp225
a(I63
I2
I00
tp226
a(I64
I2
I00
tp227
a(I65
I2
I00
tp228
a(I66
I2
I00
tp229
a(I67
I2
I00
tp230
a(I68
I2
I01
tp231
a(I69
I2
I00
tp232
a(I70
I2
I01
tp233
a(I71
I2
I00
tp234
a(I72
I2
I00
tp235
a(I73
I2
I00
tp236
a(I74
I2
I01
tp237
a(I75
I2
I00
tp238
a(I76
I2
I01
tp239
a(I77
I2
I01
tp240
a(I78
I2
I00
tp241
a(I79
I2
I00
tp242
a(I80
I2
I00
tp243
a(I0
I3
I00
tp244
a(I1
I3
I00
tp245
a(I2
I3
I00
tp246
a(I3
I3
I00
tp247
a(I4
I3
I01
tp248
a(I5
I3
I00
tp249
a(I6
I3
I00
tp250
a(I7
I3
I00
tp251
a(I8
I3
I00
tp252
a(I9
I3
I00
tp253
a(I10
I3
I00
tp254
a(I11
I3
I00
tp255
a(I12
I3
I00
tp256
a(I13
I3
I00
tp257
a(I14
I3
I01
tp258
a(I15
I3
I00
tp259
a(I16
I3
I00
tp260
a(I17
I3
I00
tp261
a(I18
I3
I00
tp262
a(I19
I3
I00
tp263
a(I20
I3
I01
tp264
a(I21
I3
I00
tp265
a(I22
I3
I01
tp266
a(I23
I3
I00
tp267
a(I24
I3
I00
tp268
a(I25
I3
I00
tp269
a(I26
I3
I00
tp270
a(I27
I3
I00
tp271
a(I28
I3
I00
tp272
a(I29
I3
I00
tp273
a(I30
I3
I00
tp274
a(I31
I3
I00
tp275
a(I32
I3
I01
tp276
a(I33
I3
I00
tp277
a(I34
I3
I00
tp278
a(I35
I3
I00
tp279
a(I36
I3
I00
tp280
a(I37
I3
I01
tp281
a(I38
I3
I00
tp282
a(I39
I3
I00
tp283
a(I40
I3
I01
tp284
a(I41
I3
I00
tp285
a(I42
I3
I01
tp286
a(I43
I3
I00
tp287
a(I44
I3
I01
tp288
a(I45
I3
I01
tp289
a(I46
I3
I00
tp290
a(I47
I3
I01
tp291
a(I48
I3
I00
tp292
a(I49
I3
I00
tp293
a(I50
I3
I00
tp294
a(I51
I3
I00
tp295
a(I52
I3
I00
tp296
a(I53
I3
I01
tp297
a(I54
I3
I00
tp298
a(I55
I3
I00
tp299
a(I56
I3
I00
tp300
a(I57
I3
I00
tp301
a(I58
I3
I01
tp302
a(I59
I3
I01
tp303
a(I60
I3
I00
tp304
a(I61
I3
I00
tp305
a(I62
I3
I00
tp306
a(I63
I3
I00
tp307
a(I64
I3
I01
tp308
a(I65
I3
I00
tp309
a(I66
I3
I00
tp310
a(I67
I3
I00
tp311
a(I68
I3
I00
tp312
a(I69
I3
I00
tp313
a(I70
I3
I00
tp314
a(I71
I3
I01
tp315
a(I72
I3
I00
tp316
a(I73
I3
I00
tp317
a(I74
I3
I01
tp318
a(I75
I3
I00
tp319
a(I76
I3
I00
tp320
a(I77
I3
I01
tp321
a(I78
I3
I00
tp322
a(I79
I3
I00
tp323
a(I80
I3
I00
tp324
a(I0
I4
I00
tp325
a(I1
I4
I00
tp326
a(I2
I4
I01
tp327
a(I3
I4
I01
tp328
a(I4
I4
I00
tp329
a(I5
I4
I00
tp330
a(I6
I4
I00
tp331
a(I7
I4
I00
tp332
a(I8
I4
I00
tp333
a(I9
I4
I00
tp334
a(I10
I4
I00
tp335
a(I11
I4
I00
tp336
a(I12
I4
I00
tp337
a(I13
I4
I00
tp338
a(I14
I4
I00
tp339
a(I15
I4
I00
tp340
a(I16
I4
I00
tp341
a(I17
I4
I00
tp342
a(I18
I4
I00
tp343
a(I19
I4
I00
tp344
a(I20
I4
I00
tp345
a(I21
I4
I00
tp346
a(I22
I4
I00
tp347
a(I23
I4
I00
tp348
a(I24
I4
I00
tp349
a(I25
I4
I00
tp350
a(I26
I4
I00
tp351
a(I27
I4
I00
tp352
a(I28
I4
I00
tp353
a(I29
I4
I00
tp354
a(I30
I4
I01
tp355
a(I31
I4
I00
tp356
a(I32
I4
I00
tp357
a(I33
I4
I00
tp358
a(I34
I4
I00
tp359
a(I35
I4
I00
tp360
a(I36
I4
I00
tp361
a(I37
I4
I00
tp362
a(I38
I4
I00
tp363
a(I39
I4
I01
tp364
a(I40
I4
I01
tp365
a(I41
I4
I00
tp366
a(I42
I4
I00
tp367
a(I43
I4
I00
tp368
a(I44
I4
I01
tp369
a(I45
I4
I00
tp370
a(I46
I4
I00
tp371
a(I47
I4
I00
tp372
a(I48
I4
I01
tp373
a(I49
I4
I01
tp374
a(I50
I4
I00
tp375
a(I51
I4
I01
tp376
a(I52
I4
I00
tp377
a(I53
I4
I01
tp378
a(I54
I4
I00
tp379
a(I55
I4
I00
tp380
a(I56
I4
I01
tp381
a(I57
I4
I00
tp382
a(I58
I4
I00
tp383
a(I59
I4
I00
tp384
a(I60
I4
I00
tp385
a(I61
I4
I00
tp386
a(I62
I4
I00
tp387
a(I63
I4
I01
tp388
a(I64
I4
I00
tp389
a(I65
I4
I00
tp390
a(I66
I4
I00
tp391
a(I67
I4
I00
tp392
a(I68
I4
I00
tp393
a(I69
I4
I00
tp394
a(I70
I4
I00
tp395
a(I71
I4
I00
tp396
a(I72
I4
I00
tp397
a(I73
I4
I00
tp398
a(I74
I4
I00
tp399
a(I75
I4
I00
tp400
a(I76
I4
I00
tp401
a(I77
I4
I01
tp402
a(I78
I4
I00
tp403
a(I79
I4
I00
tp404
a(I80
I4
I01
tp405
a(I0
I5
I01
tp406
a(I1
I5
I00
tp407
a(I2
I5
I01
tp408
a(I3
I5
I01
tp409
a(I4
I5
I00
tp410
a(I5
I5
I00
tp411
a(I6
I5
I00
tp412
a(I7
I5
I01
tp413
a(I8
I5
I00
tp414
a(I9
I5
I00
tp415
a(I10
I5
I00
tp416
a(I11
I5
I00
tp417
a(I12
I5
I00
tp418
a(I13
I5
I00
tp419
a(I14
I5
I00
tp420
a(I15
I5
I00
tp421
a(I16
I5
I00
tp422
a(I17
I5
I00
tp423
a(I18
I5
I00
tp424
a(I19
I5
I00
tp425
a(I20
I5
I00
tp426
a(I21
I5
I01
tp427
a(I22
I5
I00
tp428
a(I23
I5
I00
tp429
a(I24
I5
I00
tp430
a(I25
I5
I01
tp431
a(I26
I5
I00
tp432
a(I27
I5
I00
tp433
a(I28
I5
I00
tp434
a(I29
I5
I00
tp435
a(I30
I5
I01
tp436
a(I31
I5
I00
tp437
a(I32
I5
I01
tp438
a(I33
I5
I00
tp439
a(I34
I5
I01
tp440
a(I35
I5
I00
tp441
a(I36
I5
I00
tp442
a(I37
I5
I01
tp443
a(I38
I5
I00
tp444
a(I39
I5
I01
tp445
a(I40
I5
I01
tp446
a(I41
I5
I00
tp447
a(I42
I5
I00
tp448
a(I43
I5
I00
tp449
a(I44
I5
I01
tp450
a(I45
I5
I00
tp451
a(I46
I5
I01
tp452
a(I47
I5
I00
tp453
a(I48
I5
I00
tp454
a(I49
I5
I00
tp455
a(I50
I5
I00
tp456
a(I51
I5
I00
tp457
a(I52
I5
I00
tp458
a(I53
I5
I00
tp459
a(I54
I5
I00
tp460
a(I55
I5
I00
tp461
a(I56
I5
I00
tp462
a(I57
I5
I00
tp463
a(I58
I5
I00
tp464
a(I59
I5
I01
tp465
a(I60
I5
I00
tp466
a(I61
I5
I01
tp467
a(I62
I5
I00
tp468
a(I63
I5
I00
tp469
a(I64
I5
I01
tp470
a(I65
I5
I01
tp471
a(I66
I5
I00
tp472
a(I67
I5
I00
tp473
a(I68
I5
I01
tp474
a(I69
I5
I00
tp475
a(I70
I5
I00
tp476
a(I71
I5
I01
tp477
a(I72
I5
I00
tp478
a(I73
I5
I00
tp479
a(I74
I5
I01
tp480
a(I75
I5
I00
tp481
a(I76
I5
I01
tp482
a(I77
I5
I01
tp483
a(I78
I5
I01
tp484
a(I79
I5
I00
tp485
a(I80
I5
I00
tp486
a(I0
I6
I01
tp487
a(I1
I6
I00
tp488
a(I2
I6
I00
tp489
a(I3
I6
I01
tp490
a(I4
I6
I00
tp491
a(I5
I6
I00
tp492
a(I6
I6
I00
tp493
a(I7
I6
I00
tp494
a(I8
I6
I00
tp495
a(I9
I6
I00
tp496
a(I10
I6
I00
tp497
a(I11
I6
I00
tp498
a(I12
I6
I00
tp499
a(I13
I6
I00
tp500
a(I14
I6
I00
tp501
a(I15
I6
I00
tp502
a(I16
I6
I00
tp503
a(I17
I6
I00
tp504
a(I18
I6
I00
tp505
a(I19
I6
I01
tp506
a(I20
I6
I00
tp507
a(I21
I6
I00
tp508
a(I22
I6
I00
tp509
a(I23
I6
I01
tp510
a(I24
I6
I00
tp511
a(I25
I6
I01
tp512
a(I26
I6
I00
tp513
a(I27
I6
I00
tp514
a(I28
I6
I00
tp515
a(I29
I6
I00
tp516
a(I30
I6
I01
tp517
a(I31
I6
I00
tp518
a(I32
I6
I00
tp519
a(I33
I6
I00
tp520
a(I34
I6
I00
tp521
a(I35
I6
I01
tp522
a(I36
I6
I00
tp523
a(I37
I6
I01
tp524
a(I38
I6
I00
tp525
a(I39
I6
I01
tp526
a(I40
I6
I01
tp527
a(I41
I6
I00
tp528
a(I42
I6
I00
tp529
a(I43
I6
I00
tp530
a(I44
I6
I00
tp531
a(I45
I6
I00
tp532
a(I46
I6
I00
tp533
a(I47
I6
I00
tp534
a(I48
I6
I00
tp535
a(I49
I6
I00
tp536
a(I50
I6
I00
tp537
a(I51
I6
I01
tp538
a(I52
I6
I01
tp539
a(I53
I6
I00
tp540
a(I54
I6
I00
tp541
a(I55
I6
I01
tp542
a(I56
I6
I01
tp543
a(I57
I6
I00
tp544
a(I58
I6
I00
tp545
a(I59
I6
I01
tp546
a(I60
I6
I00
tp547
a(I61
I6
I00
tp548
a(I62
I6
I00
tp549
a(I63
I6
I00
tp550
a(I64
I6
I00
tp551
a(I65
I6
I01
tp552
a(I66
I6
I00
tp553
a(I67
I6
I00
tp554
a(I68
I6
I00
tp555
a(I69
I6
I00
tp556
a(I70
I6
I00
tp557
a(I71
I6
I00
tp558
a(I72
I6
I01
tp559
a(I73
I6
I00
tp560
a(I74
I6
I01
tp561
a(I75
I6
I00
tp562
a(I76
I6
I00
tp563
a(I77
I6
I01
tp564
a(I78
I6
I00
tp565
a(I79
I6
I01
tp566
a(I80
I6
I00
tp567
a(I0
I7
I01
tp568
a(I1
I7
I01
tp569
a(I2
I7
I00
tp570
a(I3
I7
I01
tp571
a(I4
I7
I00
tp572
a(I5
I7
I01
tp573
a(I6
I7
I00
tp574
a(I7
I7
I01
tp575
a(I8
I7
I00
tp576
a(I9
I7
I00
tp577
a(I10
I7
I00
tp578
a(I11
I7
I00
tp579
a(I12
I7
I00
tp580
a(I13
I7
I00
tp581
a(I14
I7
I00
tp582
a(I15
I7
I00
tp583
a(I16
I7
I01
tp584
a(I17
I7
I00
tp585
a(I18
I7
I00
tp586
a(I19
I7
I00
tp587
a(I20
I7
I00
tp588
a(I21
I7
I01
tp589
a(I22
I7
I01
tp590
a(I23
I7
I00
tp591
a(I24
I7
I00
tp592
a(I25
I7
I00
tp593
a(I26
I7
I00
tp594
a(I27
I7
I00
tp595
a(I28
I7
I00
tp596
a(I29
I7
I00
tp597
a(I30
I7
I01
tp598
a(I31
I7
I01
tp599
a(I32
I7
I01
tp600
a(I33
I7
I00
tp601
a(I34
I7
I01
tp602
a(I35
I7
I00
tp603
a(I36
I7
I00
tp604
a(I37
I7
I01
tp605
a(I38
I7
I00
tp606
a(I39
I7
I01
tp607
a(I40
I7
I01
tp608
a(I41
I7
I00
tp609
a(I42
I7
I00
tp610
a(I43
I7
I01
tp611
a(I44
I7
I01
tp612
a(I45
I7
I00
tp613
a(I46
I7
I00
tp614
a(I47
I7
I01
tp615
a(I48
I7
I01
tp616
a(I49
I7
I00
tp617
a(I50
I7
I00
tp618
a(I51
I7
I00
tp619
a(I52
I7
I00
tp620
a(I53
I7
I01
tp621
a(I54
I7
I01
tp622
a(I55
I7
I00
tp623
a(I56
I7
I01
tp624
a(I57
I7
I00
tp625
a(I58
I7
I00
tp626
a(I59
I7
I01
tp627
a(I60
I7
I01
tp628
a(I61
I7
I01
tp629
a(I62
I7
I00
tp630
a(I63
I7
I00
tp631
a(I64
I7
I00
tp632
a(I65
I7
I00
tp633
a(I66
I7
I00
tp634
a(I67
I7
I01
tp635
a(I68
I7
I01
tp636
a(I69
I7
I00
tp637
a(I70
I7
I00
tp638
a(I71
I7
I01
tp639
a(I72
I7
I00
tp640
a(I73
I7
I00
tp641
a(I74
I7
I01
tp642
a(I75
I7
I00
tp643
a(I76
I7
I01
tp644
a(I77
I7
I01
tp645
a(I78
I7
I00
tp646
a(I79
I7
I00
tp647
a(I80
I7
I00
tp648
a(I0
I8
I00
tp649
a(I1
I8
I00
tp650
a(I2
I8
I00
tp651
a(I3
I8
I00
tp652
a(I4
I8
I00
tp653
a(I5
I8
I00
tp654
a(I6
I8
I00
tp655
a(I7
I8
I00
tp656
a(I8
I8
I00
tp657
a(I9
I8
I00
tp658
a(I10
I8
I00
tp659
a(I11
I8
I00
tp660
a(I12
I8
I00
tp661
a(I13
I8
I00
tp662
a(I14
I8
I00
tp663
a(I15
I8
I01
tp664
a(I16
I8
I00
tp665
a(I17
I8
I00
tp666
a(I18
I8
I01
tp667
a(I19
I8
I00
tp668
a(I20
I8
I01
tp669
a(I21
I8
I01
tp670
a(I22
I8
I01
tp671
a(I23
I8
I00
tp672
a(I24
I8
I00
tp673
a(I25
I8
I01
tp674
a(I26
I8
I00
tp675
a(I27
I8
I00
tp676
a(I28
I8
I00
tp677
a(I29
I8
I00
tp678
a(I30
I8
I01
tp679
a(I31
I8
I00
tp680
a(I32
I8
I00
tp681
a(I33
I8
I00
tp682
a(I34
I8
I01
tp683
a(I35
I8
I00
tp684
a(I36
I8
I00
tp685
a(I37
I8
I01
tp686
a(I38
I8
I00
tp687
a(I39
I8
I00
tp688
a(I40
I8
I01
tp689
a(I41
I8
I00
tp690
a(I42
I8
I00
tp691
a(I43
I8
I01
tp692
a(I44
I8
I01
tp693
a(I45
I8
I01
tp694
a(I46
I8
I00
tp695
a(I47
I8
I00
tp696
a(I48
I8
I00
tp697
a(I49
I8
I00
tp698
a(I50
I8
I00
tp699
a(I51
I8
I00
tp700
a(I52
I8
I00
tp701
a(I53
I8
I01
tp702
a(I54
I8
I00
tp703
a(I55
I8
I00
tp704
a(I56
I8
I00
tp705
a(I57
I8
I00
tp706
a(I58
I8
I00
tp707
a(I59
I8
I01
tp708
a(I60
I8
I00
tp709
a(I61
I8
I01
tp710
a(I62
I8
I00
tp711
a(I63
I8
I00
tp712
a(I64
I8
I00
tp713
a(I65
I8
I01
tp714
a(I66
I8
I00
tp715
a(I67
I8
I00
tp716
a(I68
I8
I00
tp717
a(I69
I8
I00
tp718
a(I70
I8
I00
tp719
a(I71
I8
I01
tp720
a(I72
I8
I00
tp721
a(I73
I8
I00
tp722
a(I74
I8
I00
tp723
a(I75
I8
I00
tp724
a(I76
I8
I01
tp725
a(I77
I8
I01
tp726
a(I78
I8
I00
tp727
a(I79
I8
I00
tp728
a(I80
I8
I00
tp729
a(I0
I9
I01
tp730
a(I1
I9
I00
tp731
a(I2
I9
I00
tp732
a(I3
I9
I00
tp733
a(I4
I9
I00
tp734
a(I5
I9
I00
tp735
a(I6
I9
I00
tp736
a(I7
I9
I00
tp737
a(I8
I9
I00
tp738
a(I9
I9
I00
tp739
a(I10
I9
I00
tp740
a(I11
I9
I01
tp741
a(I12
I9
I00
tp742
a(I13
I9
I00
tp743
a(I14
I9
I00
tp744
a(I15
I9
I01
tp745
a(I16
I9
I00
tp746
a(I17
I9
I00
tp747
a(I18
I9
I00
tp748
a(I19
I9
I00
tp749
a(I20
I9
I00
tp750
a(I21
I9
I00
tp751
a(I22
I9
I00
tp752
a(I23
I9
I00
tp753
a(I24
I9
I00
tp754
a(I25
I9
I01
tp755
a(I26
I9
I00
tp756
a(I27
I9
I00
tp757
a(I28
I9
I00
tp758
a(I29
I9
I00
tp759
a(I30
I9
I01
tp760
a(I31
I9
I00
tp761
a(I32
I9
I00
tp762
a(I33
I9
I01
tp763
a(I34
I9
I00
tp764
a(I35
I9
I01
tp765
a(I36
I9
I00
tp766
a(I37
I9
I01
tp767
a(I38
I9
I01
tp768
a(I39
I9
I01
tp769
a(I40
I9
I01
tp770
a(I41
I9
I00
tp771
a(I42
I9
I00
tp772
a(I43
I9
I00
tp773
a(I44
I9
I00
tp774
a(I45
I9
I00
tp775
a(I46
I9
I00
tp776
a(I47
I9
I00
tp777
a(I48
I9
I00
tp778
a(I49
I9
I00
tp779
a(I50
I9
I00
tp780
a(I51
I9
I01
tp781
a(I52
I9
I00
tp782
a(I53
I9
I00
tp783
a(I54
I9
I00
tp784
a(I55
I9
I00
tp785
a(I56
I9
I01
tp786
a(I57
I9
I00
tp787
a(I58
I9
I00
tp788
a(I59
I9
I01
tp789
a(I60
I9
I01
tp790
a(I61
I9
I00
tp791
a(I62
I9
I00
tp792
a(I63
I9
I00
tp793
a(I64
I9
I00
tp794
a(I65
I9
I00
tp795
a(I66
I9
I00
tp796
a(I67
I9
I00
tp797
a(I68
I9
I01
tp798
a(I69
I9
I00
tp799
a(I70
I9
I01
tp800
a(I71
I9
I00
tp801
a(I72
I9
I00
tp802
a(I73
I9
I00
tp803
a(I74
I9
I00
tp804
a(I75
I9
I00
tp805
a(I76
I9
I00
tp806
a(I77
I9
I01
tp807
a(I78
I9
I00
tp808
a(I79
I9
I00
tp809
a(I80
I9
I00
tp810
a(I0
I10
I01
tp811
a(I1
I10
I00
tp812
a(I2
I10
I00
tp813
a(I3
I10
I01
tp814
a(I4
I10
I00
tp815
a(I5
I10
I00
tp816
a(I6
I10
I00
tp817
a(I7
I10
I00
tp818
a(I8
I10
I01
tp819
a(I9
I10
I00
tp820
a(I10
I10
I00
tp821
a(I11
I10
I00
tp822
a(I12
I10
I00
tp823
a(I13
I10
I00
tp824
a(I14
I10
I00
tp825
a(I15
I10
I00
tp826
a(I16
I10
I00
tp827
a(I17
I10
I00
tp828
a(I18
I10
I00
tp829
a(I19
I10
I00
tp830
a(I20
I10
I00
tp831
a(I21
I10
I00
tp832
a(I22
I10
I00
tp833
a(I23
I10
I00
tp834
a(I24
I10
I00
tp835
a(I25
I10
I00
tp836
a(I26
I10
I01
tp837
a(I27
I10
I00
tp838
a(I28
I10
I00
tp839
a(I29
I10
I00
tp840
a(I30
I10
I01
tp841
a(I31
I10
I00
tp842
a(I32
I10
I00
tp843
a(I33
I10
I01
tp844
a(I34
I10
I01
tp845
a(I35
I10
I01
tp846
a(I36
I10
I00
tp847
a(I37
I10
I01
tp848
a(I38
I10
I00
tp849
a(I39
I10
I01
tp850
a(I40
I10
I01
tp851
a(I41
I10
I00
tp852
a(I42
I10
I00
tp853
a(I43
I10
I00
tp854
a(I44
I10
I00
tp855
a(I45
I10
I00
tp856
a(I46
I10
I00
tp857
a(I47
I10
I01
tp858
a(I48
I10
I01
tp859
a(I49
I10
I00
tp860
a(I50
I10
I00
tp861
a(I51
I10
I01
tp862
a(I52
I10
I01
tp863
a(I53
I10
I00
tp864
a(I54
I10
I00
tp865
a(I55
I10
I00
tp866
a(I56
I10
I01
tp867
a(I57
I10
I00
tp868
a(I58
I10
I00
tp869
a(I59
I10
I00
tp870
a(I60
I10
I01
tp871
a(I61
I10
I00
tp872
a(I62
I10
I00
tp873
a(I63
I10
I00
tp874
a(I64
I10
I00
tp875
a(I65
I10
I00
tp876
a(I66
I10
I00
tp877
a(I67
I10
I00
tp878
a(I68
I10
I00
tp879
a(I69
I10
I00
tp880
a(I70
I10
I01
tp881
a(I71
I10
I00
tp882
a(I72
I10
I00
tp883
a(I73
I10
I01
tp884
a(I74
I10
I00
tp885
a(I75
I10
I00
tp886
a(I76
I10
I00
tp887
a(I77
I10
I01
tp888
a(I78
I10
I00
tp889
a(I79
I10
I00
tp890
a(I80
I10
I00
tp891
a(I0
I11
I01
tp892
a(I1
I11
I00
tp893
a(I2
I11
I01
tp894
a(I3
I11
I01
tp895
a(I4
I11
I01
tp896
a(I5
I11
I00
tp897
a(I6
I11
I00
tp898
a(I7
I11
I00
tp899
a(I8
I11
I00
tp900
a(I9
I11
I00
tp901
a(I10
I11
I00
tp902
a(I11
I11
I00
tp903
a(I12
I11
I01
tp904
a(I13
I11
I00
tp905
a(I14
I11
I00
tp906
a(I15
I11
I00
tp907
a(I16
I11
I00
tp908
a(I17
I11
I00
tp909
a(I18
I11
I01
tp910
a(I19
I11
I00
tp911
a(I20
I11
I00
tp912
a(I21
I11
I01
tp913
a(I22
I11
I01
tp914
a(I23
I11
I00
tp915
a(I24
I11
I00
tp916
a(I25
I11
I01
tp917
a(I26
I11
I00
tp918
a(I27
I11
I00
tp919
a(I28
I11
I00
tp920
a(I29
I11
I00
tp921
a(I30
I11
I01
tp922
a(I31
I11
I00
tp923
a(I32
I11
I00
tp924
a(I33
I11
I00
tp925
a(I34
I11
I01
tp926
a(I35
I11
I00
tp927
a(I36
I11
I00
tp928
a(I37
I11
I01
tp929
a(I38
I11
I00
tp930
a(I39
I11
I01
tp931
a(I40
I11
I01
tp932
a(I41
I11
I00
tp933
a(I42
I11
I00
tp934
a(I43
I11
I00
tp935
a(I44
I11
I01
tp936
a(I45
I11
I01
tp937
a(I46
I11
I00
tp938
a(I47
I11
I00
tp939
a(I48
I11
I00
tp940
a(I49
I11
I00
tp941
a(I50
I11
I00
tp942
a(I51
I11
I00
tp943
a(I52
I11
I00
tp944
a(I53
I11
I01
tp945
a(I54
I11
I01
tp946
a(I55
I11
I00
tp947
a(I56
I11
I00
tp948
a(I57
I11
I00
tp949
a(I58
I11
I00
tp950
a(I59
I11
I01
tp951
a(I60
I11
I00
tp952
a(I61
I11
I01
tp953
a(I62
I11
I00
tp954
a(I63
I11
I01
tp955
a(I64
I11
I00
tp956
a(I65
I11
I01
tp957
a(I66
I11
I00
tp958
a(I67
I11
I00
tp959
a(I68
I11
I00
tp960
a(I69
I11
I00
tp961
a(I70
I11
I01
tp962
a(I71
I11
I00
tp963
a(I72
I11
I01
tp964
a(I73
I11
I00
tp965
a(I74
I11
I00
tp966
a(I75
I11
I00
tp967
a(I76
I11
I01
tp968
a(I77
I11
I01
tp969
a(I78
I11
I00
tp970
a(I79
I11
I00
tp971
a(I80
I11
I00
tp972
a(I0
I12
I01
tp973
a(I1
I12
I00
tp974
a(I2
I12
I00
tp975
a(I3
I12
I00
tp976
a(I4
I12
I00
tp977
a(I5
I12
I00
tp978
a(I6
I12
I00
tp979
a(I7
I12
I00
tp980
a(I8
I12
I00
tp981
a(I9
I12
I00
tp982
a(I10
I12
I00
tp983
a(I11
I12
I00
tp984
a(I12
I12
I00
tp985
a(I13
I12
I00
tp986
a(I14
I12
I00
tp987
a(I15
I12
I00
tp988
a(I16
I12
I00
tp989
a(I17
I12
I00
tp990
a(I18
I12
I00
tp991
a(I19
I12
I00
tp992
a(I20
I12
I00
tp993
a(I21
I12
I00
tp994
a(I22
I12
I00
tp995
a(I23
I12
I00
tp996
a(I24
I12
I00
tp997
a(I25
I12
I01
tp998
a(I26
I12
I00
tp999
a(I27
I12
I00
tp1000
a(I28
I12
I00
tp1001
a(I29
I12
I01
tp1002
a(I30
I12
I01
tp1003
a(I31
I12
I00
tp1004
a(I32
I12
I01
tp1005
a(I33
I12
I01
tp1006
a(I34
I12
I00
tp1007
a(I35
I12
I01
tp1008
a(I36
I12
I00
tp1009
a(I37
I12
I01
tp1010
a(I38
I12
I00
tp1011
a(I39
I12
I01
tp1012
a(I40
I12
I01
tp1013
a(I41
I12
I00
tp1014
a(I42
I12
I00
tp1015
a(I43
I12
I00
tp1016
a(I44
I12
I01
tp1017
a(I45
I12
I00
tp1018
a(I46
I12
I00
tp1019
a(I47
I12
I00
tp1020
a(I48
I12
I00
tp1021
a(I49
I12
I00
tp1022
a(I50
I12
I00
tp1023
a(I51
I12
I01
tp1024
a(I52
I12
I01
tp1025
a(I53
I12
I00
tp1026
a(I54
I12
I00
tp1027
a(I55
I12
I00
tp1028
a(I56
I12
I00
tp1029
a(I57
I12
I00
tp1030
a(I58
I12
I00
tp1031
a(I59
I12
I01
tp1032
a(I60
I12
I00
tp1033
a(I61
I12
I00
tp1034
a(I62
I12
I00
tp1035
a(I63
I12
I00
tp1036
a(I64
I12
I01
tp1037
a(I65
I12
I00
tp1038
a(I66
I12
I00
tp1039
a(I67
I12
I00
tp1040
a(I68
I12
I00
tp1041
a(I69
I12
I00
tp1042
a(I70
I12
I01
tp1043
a(I71
I12
I01
tp1044
a(I72
I12
I00
tp1045
a(I73
I12
I00
tp1046
a(I74
I12
I01
tp1047
a(I75
I12
I00
tp1048
a(I76
I12
I00
tp1049
a(I77
I12
I01
tp1050
a(I78
I12
I00
tp1051
a(I79
I12
I00
tp1052
a(I80
I12
I00
tp1053
a(I0
I13
I01
tp1054
a(I1
I13
I00
tp1055
a(I2
I13
I01
tp1056
a(I3
I13
I01
tp1057
a(I4
I13
I00
tp1058
a(I5
I13
I00
tp1059
a(I6
I13
I00
tp1060
a(I7
I13
I00
tp1061
a(I8
I13
I00
tp1062
a(I9
I13
I00
tp1063
a(I10
I13
I00
tp1064
a(I11
I13
I00
tp1065
a(I12
I13
I00
tp1066
a(I13
I13
I00
tp1067
a(I14
I13
I00
tp1068
a(I15
I13
I00
tp1069
a(I16
I13
I00
tp1070
a(I17
I13
I01
tp1071
a(I18
I13
I00
tp1072
a(I19
I13
I00
tp1073
a(I20
I13
I00
tp1074
a(I21
I13
I01
tp1075
a(I22
I13
I01
tp1076
a(I23
I13
I00
tp1077
a(I24
I13
I00
tp1078
a(I25
I13
I01
tp1079
a(I26
I13
I00
tp1080
a(I27
I13
I00
tp1081
a(I28
I13
I00
tp1082
a(I29
I13
I01
tp1083
a(I30
I13
I01
tp1084
a(I31
I13
I00
tp1085
a(I32
I13
I01
tp1086
a(I33
I13
I00
tp1087
a(I34
I13
I01
tp1088
a(I35
I13
I00
tp1089
a(I36
I13
I00
tp1090
a(I37
I13
I01
tp1091
a(I38
I13
I00
tp1092
a(I39
I13
I01
tp1093
a(I40
I13
I01
tp1094
a(I41
I13
I00
tp1095
a(I42
I13
I01
tp1096
a(I43
I13
I00
tp1097
a(I44
I13
I01
tp1098
a(I45
I13
I00
tp1099
a(I46
I13
I00
tp1100
a(I47
I13
I00
tp1101
a(I48
I13
I01
tp1102
a(I49
I13
I00
tp1103
a(I50
I13
I00
tp1104
a(I51
I13
I01
tp1105
a(I52
I13
I00
tp1106
a(I53
I13
I01
tp1107
a(I54
I13
I00
tp1108
a(I55
I13
I00
tp1109
a(I56
I13
I01
tp1110
a(I57
I13
I00
tp1111
a(I58
I13
I00
tp1112
a(I59
I13
I01
tp1113
a(I60
I13
I01
tp1114
a(I61
I13
I00
tp1115
a(I62
I13
I00
tp1116
a(I63
I13
I00
tp1117
a(I64
I13
I00
tp1118
a(I65
I13
I01
tp1119
a(I66
I13
I00
tp1120
a(I67
I13
I00
tp1121
a(I68
I13
I01
tp1122
a(I69
I13
I00
tp1123
a(I70
I13
I00
tp1124
a(I71
I13
I01
tp1125
a(I72
I13
I00
tp1126
a(I73
I13
I00
tp1127
a(I74
I13
I00
tp1128
a(I75
I13
I00
tp1129
a(I76
I13
I00
tp1130
a(I77
I13
I01
tp1131
a(I78
I13
I00
tp1132
a(I79
I13
I00
tp1133
a(I80
I13
I00
tp1134
a(I0
I14
I01
tp1135
a(I1
I14
I00
tp1136
a(I2
I14
I00
tp1137
a(I3
I14
I01
tp1138
a(I4
I14
I00
tp1139
a(I5
I14
I00
tp1140
a(I6
I14
I00
tp1141
a(I7
I14
I00
tp1142
a(I8
I14
I00
tp1143
a(I9
I14
I00
tp1144
a(I10
I14
I00
tp1145
a(I11
I14
I00
tp1146
a(I12
I14
I01
tp1147
a(I13
I14
I00
tp1148
a(I14
I14
I00
tp1149
a(I15
I14
I00
tp1150
a(I16
I14
I00
tp1151
a(I17
I14
I00
tp1152
a(I18
I14
I00
tp1153
a(I19
I14
I01
tp1154
a(I20
I14
I00
tp1155
a(I21
I14
I00
tp1156
a(I22
I14
I00
tp1157
a(I23
I14
I01
tp1158
a(I24
I14
I00
tp1159
a(I25
I14
I01
tp1160
a(I26
I14
I00
tp1161
a(I27
I14
I00
tp1162
a(I28
I14
I00
tp1163
a(I29
I14
I00
tp1164
a(I30
I14
I01
tp1165
a(I31
I14
I00
tp1166
a(I32
I14
I00
tp1167
a(I33
I14
I00
tp1168
a(I34
I14
I00
tp1169
a(I35
I14
I00
tp1170
a(I36
I14
I00
tp1171
a(I37
I14
I01
tp1172
a(I38
I14
I00
tp1173
a(I39
I14
I01
tp1174
a(I40
I14
I01
tp1175
a(I41
I14
I00
tp1176
a(I42
I14
I00
tp1177
a(I43
I14
I00
tp1178
a(I44
I14
I01
tp1179
a(I45
I14
I00
tp1180
a(I46
I14
I00
tp1181
a(I47
I14
I00
tp1182
a(I48
I14
I00
tp1183
a(I49
I14
I00
tp1184
a(I50
I14
I01
tp1185
a(I51
I14
I01
tp1186
a(I52
I14
I01
tp1187
a(I53
I14
I00
tp1188
a(I54
I14
I00
tp1189
a(I55
I14
I00
tp1190
a(I56
I14
I00
tp1191
a(I57
I14
I00
tp1192
a(I58
I14
I00
tp1193
a(I59
I14
I01
tp1194
a(I60
I14
I00
tp1195
a(I61
I14
I00
tp1196
a(I62
I14
I00
tp1197
a(I63
I14
I01
tp1198
a(I64
I14
I00
tp1199
a(I65
I14
I01
tp1200
a(I66
I14
I00
tp1201
a(I67
I14
I00
tp1202
a(I68
I14
I00
tp1203
a(I69
I14
I00
tp1204
a(I70
I14
I00
tp1205
a(I71
I14
I00
tp1206
a(I72
I14
I01
tp1207
a(I73
I14
I00
tp1208
a(I74
I14
I00
tp1209
a(I75
I14
I00
tp1210
a(I76
I14
I00
tp1211
a(I77
I14
I01
tp1212
a(I78
I14
I00
tp1213
a(I79
I14
I01
tp1214
a(I80
I14
I00
tp1215
a(I0
I15
I01
tp1216
a(I1
I15
I00
tp1217
a(I2
I15
I00
tp1218
a(I3
I15
I01
tp1219
a(I4
I15
I00
tp1220
a(I5
I15
I00
tp1221
a(I6
I15
I00
tp1222
a(I7
I15
I01
tp1223
a(I8
I15
I00
tp1224
a(I9
I15
I00
tp1225
a(I10
I15
I00
tp1226
a(I11
I15
I00
tp1227
a(I12
I15
I01
tp1228
a(I13
I15
I00
tp1229
a(I14
I15
I00
tp1230
a(I15
I15
I00
tp1231
a(I16
I15
I00
tp1232
a(I17
I15
I00
tp1233
a(I18
I15
I00
tp1234
a(I19
I15
I00
tp1235
a(I20
I15
I00
tp1236
a(I21
I15
I01
tp1237
a(I22
I15
I00
tp1238
a(I23
I15
I00
tp1239
a(I24
I15
I00
tp1240
a(I25
I15
I01
tp1241
a(I26
I15
I00
tp1242
a(I27
I15
I00
tp1243
a(I28
I15
I01
tp1244
a(I29
I15
I00
tp1245
a(I30
I15
I01
tp1246
a(I31
I15
I00
tp1247
a(I32
I15
I01
tp1248
a(I33
I15
I00
tp1249
a(I34
I15
I01
tp1250
a(I35
I15
I00
tp1251
a(I36
I15
I00
tp1252
a(I37
I15
I01
tp1253
a(I38
I15
I00
tp1254
a(I39
I15
I01
tp1255
a(I40
I15
I01
tp1256
a(I41
I15
I00
tp1257
a(I42
I15
I00
tp1258
a(I43
I15
I00
tp1259
a(I44
I15
I01
tp1260
a(I45
I15
I00
tp1261
a(I46
I15
I01
tp1262
a(I47
I15
I00
tp1263
a(I48
I15
I00
tp1264
a(I49
I15
I00
tp1265
a(I50
I15
I00
tp1266
a(I51
I15
I00
tp1267
a(I52
I15
I00
tp1268
a(I53
I15
I00
tp1269
a(I54
I15
I00
tp1270
a(I55
I15
I00
tp1271
a(I56
I15
I00
tp1272
a(I57
I15
I00
tp1273
a(I58
I15
I01
tp1274
a(I59
I15
I01
tp1275
a(I60
I15
I00
tp1276
a(I61
I15
I01
tp1277
a(I62
I15
I00
tp1278
a(I63
I15
I00
tp1279
a(I64
I15
I00
tp1280
a(I65
I15
I01
tp1281
a(I66
I15
I00
tp1282
a(I67
I15
I00
tp1283
a(I68
I15
I01
tp1284
a(I69
I15
I00
tp1285
a(I70
I15
I00
tp1286
a(I71
I15
I01
tp1287
a(I72
I15
I00
tp1288
a(I73
I15
I01
tp1289
a(I74
I15
I00
tp1290
a(I75
I15
I00
tp1291
a(I76
I15
I01
tp1292
a(I77
I15
I01
tp1293
a(I78
I15
I01
tp1294
a(I79
I15
I01
tp1295
a(I80
I15
I00
tp1296
a(I0
I16
I01
tp1297
a(I1
I16
I00
tp1298
a(I2
I16
I00
tp1299
a(I3
I16
I00
tp1300
a(I4
I16
I00
tp1301
a(I5
I16
I00
tp1302
a(I6
I16
I00
tp1303
a(I7
I16
I00
tp1304
a(I8
I16
I00
tp1305
a(I9
I16
I00
tp1306
a(I10
I16
I00
tp1307
a(I11
I16
I00
tp1308
a(I12
I16
I00
tp1309
a(I13
I16
I00
tp1310
a(I14
I16
I00
tp1311
a(I15
I16
I00
tp1312
a(I16
I16
I00
tp1313
a(I17
I16
I00
tp1314
a(I18
I16
I00
tp1315
a(I19
I16
I01
tp1316
a(I20
I16
I00
tp1317
a(I21
I16
I00
tp1318
a(I22
I16
I01
tp1319
a(I23
I16
I00
tp1320
a(I24
I16
I00
tp1321
a(I25
I16
I00
tp1322
a(I26
I16
I00
tp1323
a(I27
I16
I00
tp1324
a(I28
I16
I00
tp1325
a(I29
I16
I00
tp1326
a(I30
I16
I01
tp1327
a(I31
I16
I00
tp1328
a(I32
I16
I00
tp1329
a(I33
I16
I01
tp1330
a(I34
I16
I00
tp1331
a(I35
I16
I00
tp1332
a(I36
I16
I00
tp1333
a(I37
I16
I01
tp1334
a(I38
I16
I00
tp1335
a(I39
I16
I01
tp1336
a(I40
I16
I01
tp1337
a(I41
I16
I00
tp1338
a(I42
I16
I01
tp1339
a(I43
I16
I00
tp1340
a(I44
I16
I00
tp1341
a(I45
I16
I01
tp1342
a(I46
I16
I00
tp1343
a(I47
I16
I00
tp1344
a(I48
I16
I00
tp1345
a(I49
I16
I00
tp1346
a(I50
I16
I00
tp1347
a(I51
I16
I01
tp1348
a(I52
I16
I01
tp1349
a(I53
I16
I00
tp1350
a(I54
I16
I00
tp1351
a(I55
I16
I00
tp1352
a(I56
I16
I01
tp1353
a(I57
I16
I00
tp1354
a(I58
I16
I01
tp1355
a(I59
I16
I01
tp1356
a(I60
I16
I00
tp1357
a(I61
I16
I00
tp1358
a(I62
I16
I00
tp1359
a(I63
I16
I00
tp1360
a(I64
I16
I00
tp1361
a(I65
I16
I00
tp1362
a(I66
I16
I00
tp1363
a(I67
I16
I00
tp1364
a(I68
I16
I00
tp1365
a(I69
I16
I00
tp1366
a(I70
I16
I00
tp1367
a(I71
I16
I01
tp1368
a(I72
I16
I00
tp1369
a(I73
I16
I00
tp1370
a(I74
I16
I01
tp1371
a(I75
I16
I00
tp1372
a(I76
I16
I00
tp1373
a(I77
I16
I01
tp1374
a(I78
I16
I00
tp1375
a(I79
I16
I00
tp1376
a(I80
I16
I00
tp1377
a(I0
I17
I00
tp1378
a(I1
I17
I00
tp1379
a(I2
I17
I00
tp1380
a(I3
I17
I00
tp1381
a(I4
I17
I00
tp1382
a(I5
I17
I00
tp1383
a(I6
I17
I00
tp1384
a(I7
I17
I00
tp1385
a(I8
I17
I00
tp1386
a(I9
I17
I00
tp1387
a(I10
I17
I01
tp1388
a(I11
I17
I00
tp1389
a(I12
I17
I00
tp1390
a(I13
I17
I00
tp1391
a(I14
I17
I00
tp1392
a(I15
I17
I00
tp1393
a(I16
I17
I00
tp1394
a(I17
I17
I00
tp1395
a(I18
I17
I00
tp1396
a(I19
I17
I00
tp1397
a(I20
I17
I00
tp1398
a(I21
I17
I00
tp1399
a(I22
I17
I00
tp1400
a(I23
I17
I00
tp1401
a(I24
I17
I00
tp1402
a(I25
I17
I00
tp1403
a(I26
I17
I00
tp1404
a(I27
I17
I00
tp1405
a(I28
I17
I01
tp1406
a(I29
I17
I00
tp1407
a(I30
I17
I01
tp1408
a(I31
I17
I00
tp1409
a(I32
I17
I00
tp1410
a(I33
I17
I00
tp1411
a(I34
I17
I00
tp1412
a(I35
I17
I00
tp1413
a(I36
I17
I01
tp1414
a(I37
I17
I01
tp1415
a(I38
I17
I00
tp1416
a(I39
I17
I01
tp1417
a(I40
I17
I01
tp1418
a(I41
I17
I00
tp1419
a(I42
I17
I00
tp1420
a(I43
I17
I00
tp1421
a(I44
I17
I00
tp1422
a(I45
I17
I00
tp1423
a(I46
I17
I00
tp1424
a(I47
I17
I00
tp1425
a(I48
I17
I01
tp1426
a(I49
I17
I00
tp1427
a(I50
I17
I00
tp1428
a(I51
I17
I01
tp1429
a(I52
I17
I00
tp1430
a(I53
I17
I00
tp1431
a(I54
I17
I00
tp1432
a(I55
I17
I00
tp1433
a(I56
I17
I01
tp1434
a(I57
I17
I00
tp1435
a(I58
I17
I00
tp1436
a(I59
I17
I01
tp1437
a(I60
I17
I00
tp1438
a(I61
I17
I00
tp1439
a(I62
I17
I00
tp1440
a(I63
I17
I01
tp1441
a(I64
I17
I00
tp1442
a(I65
I17
I00
tp1443
a(I66
I17
I00
tp1444
a(I67
I17
I00
tp1445
a(I68
I17
I00
tp1446
a(I69
I17
I00
tp1447
a(I70
I17
I01
tp1448
a(I71
I17
I00
tp1449
a(I72
I17
I00
tp1450
a(I73
I17
I01
tp1451
a(I74
I17
I00
tp1452
a(I75
I17
I00
tp1453
a(I76
I17
I00
tp1454
a(I77
I17
I01
tp1455
a(I78
I17
I00
tp1456
a(I79
I17
I01
tp1457
a(I80
I17
I00
tp1458
a(I0
I18
I00
tp1459
a(I1
I18
I00
tp1460
a(I2
I18
I00
tp1461
a(I3
I18
I01
tp1462
a(I4
I18
I00
tp1463
a(I5
I18
I00
tp1464
a(I6
I18
I00
tp1465
a(I7
I18
I00
tp1466
a(I8
I18
I00
tp1467
a(I9
I18
I00
tp1468
a(I10
I18
I00
tp1469
a(I11
I18
I00
tp1470
a(I12
I18
I00
tp1471
a(I13
I18
I00
tp1472
a(I14
I18
I00
tp1473
a(I15
I18
I00
tp1474
a(I16
I18
I00
tp1475
a(I17
I18
I00
tp1476
a(I18
I18
I00
tp1477
a(I19
I18
I00
tp1478
a(I20
I18
I00
tp1479
a(I21
I18
I00
tp1480
a(I22
I18
I00
tp1481
a(I23
I18
I00
tp1482
a(I24
I18
I00
tp1483
a(I25
I18
I01
tp1484
a(I26
I18
I01
tp1485
a(I27
I18
I00
tp1486
a(I28
I18
I00
tp1487
a(I29
I18
I01
tp1488
a(I30
I18
I01
tp1489
a(I31
I18
I00
tp1490
a(I32
I18
I00
tp1491
a(I33
I18
I01
tp1492
a(I34
I18
I00
tp1493
a(I35
I18
I01
tp1494
a(I36
I18
I01
tp1495
a(I37
I18
I01
tp1496
a(I38
I18
I00
tp1497
a(I39
I18
I01
tp1498
a(I40
I18
I01
tp1499
a(I41
I18
I00
tp1500
a(I42
I18
I00
tp1501
a(I43
I18
I00
tp1502
a(I44
I18
I00
tp1503
a(I45
I18
I00
tp1504
a(I46
I18
I00
tp1505
a(I47
I18
I00
tp1506
a(I48
I18
I00
tp1507
a(I49
I18
I00
tp1508
a(I50
I18
I00
tp1509
a(I51
I18
I01
tp1510
a(I52
I18
I00
tp1511
a(I53
I18
I00
tp1512
a(I54
I18
I00
tp1513
a(I55
I18
I00
tp1514
a(I56
I18
I01
tp1515
a(I57
I18
I00
tp1516
a(I58
I18
I00
tp1517
a(I59
I18
I01
tp1518
a(I60
I18
I01
tp1519
a(I61
I18
I00
tp1520
a(I62
I18
I00
tp1521
a(I63
I18
I00
tp1522
a(I64
I18
I00
tp1523
a(I65
I18
I00
tp1524
a(I66
I18
I00
tp1525
a(I67
I18
I00
tp1526
a(I68
I18
I00
tp1527
a(I69
I18
I00
tp1528
a(I70
I18
I00
tp1529
a(I71
I18
I00
tp1530
a(I72
I18
I00
tp1531
a(I73
I18
I01
tp1532
a(I74
I18
I00
tp1533
a(I75
I18
I00
tp1534
a(I76
I18
I00
tp1535
a(I77
I18
I01
tp1536
a(I78
I18
I00
tp1537
a(I79
I18
I01
tp1538
a(I80
I18
I00
tp1539
a(I0
I19
I01
tp1540
a(I1
I19
I01
tp1541
a(I2
I19
I01
tp1542
a(I3
I19
I01
tp1543
a(I4
I19
I00
tp1544
a(I5
I19
I00
tp1545
a(I6
I19
I00
tp1546
a(I7
I19
I00
tp1547
a(I8
I19
I00
tp1548
a(I9
I19
I00
tp1549
a(I10
I19
I00
tp1550
a(I11
I19
I00
tp1551
a(I12
I19
I00
tp1552
a(I13
I19
I00
tp1553
a(I14
I19
I00
tp1554
a(I15
I19
I00
tp1555
a(I16
I19
I01
tp1556
a(I17
I19
I00
tp1557
a(I18
I19
I00
tp1558
a(I19
I19
I00
tp1559
a(I20
I19
I00
tp1560
a(I21
I19
I00
tp1561
a(I22
I19
I01
tp1562
a(I23
I19
I00
tp1563
a(I24
I19
I00
tp1564
a(I25
I19
I00
tp1565
a(I26
I19
I00
tp1566
a(I27
I19
I00
tp1567
a(I28
I19
I00
tp1568
a(I29
I19
I00
tp1569
a(I30
I19
I01
tp1570
a(I31
I19
I00
tp1571
a(I32
I19
I00
tp1572
a(I33
I19
I00
tp1573
a(I34
I19
I00
tp1574
a(I35
I19
I00
tp1575
a(I36
I19
I00
tp1576
a(I37
I19
I01
tp1577
a(I38
I19
I00
tp1578
a(I39
I19
I01
tp1579
a(I40
I19
I01
tp1580
a(I41
I19
I00
tp1581
a(I42
I19
I00
tp1582
a(I43
I19
I00
tp1583
a(I44
I19
I01
tp1584
a(I45
I19
I00
tp1585
a(I46
I19
I00
tp1586
a(I47
I19
I01
tp1587
a(I48
I19
I01
tp1588
a(I49
I19
I00
tp1589
a(I50
I19
I00
tp1590
a(I51
I19
I01
tp1591
a(I52
I19
I01
tp1592
a(I53
I19
I01
tp1593
a(I54
I19
I01
tp1594
a(I55
I19
I00
tp1595
a(I56
I19
I01
tp1596
a(I57
I19
I00
tp1597
a(I58
I19
I00
tp1598
a(I59
I19
I01
tp1599
a(I60
I19
I01
tp1600
a(I61
I19
I00
tp1601
a(I62
I19
I00
tp1602
a(I63
I19
I00
tp1603
a(I64
I19
I00
tp1604
a(I65
I19
I00
tp1605
a(I66
I19
I00
tp1606
a(I67
I19
I00
tp1607
a(I68
I19
I01
tp1608
a(I69
I19
I00
tp1609
a(I70
I19
I00
tp1610
a(I71
I19
I01
tp1611
a(I72
I19
I00
tp1612
a(I73
I19
I00
tp1613
a(I74
I19
I01
tp1614
a(I75
I19
I00
tp1615
a(I76
I19
I00
tp1616
a(I77
I19
I01
tp1617
a(I78
I19
I00
tp1618
a(I79
I19
I00
tp1619
a(I80
I19
I00
tp1620
a(I0
I20
I00
tp1621
a(I1
I20
I00
tp1622
a(I2
I20
I00
tp1623
a(I3
I20
I01
tp1624
a(I4
I20
I00
tp1625
a(I5
I20
I00
tp1626
a(I6
I20
I01
tp1627
a(I7
I20
I00
tp1628
a(I8
I20
I00
tp1629
a(I9
I20
I00
tp1630
a(I10
I20
I00
tp1631
a(I11
I20
I00
tp1632
a(I12
I20
I00
tp1633
a(I13
I20
I00
tp1634
a(I14
I20
I00
tp1635
a(I15
I20
I00
tp1636
a(I16
I20
I00
tp1637
a(I17
I20
I00
tp1638
a(I18
I20
I00
tp1639
a(I19
I20
I00
tp1640
a(I20
I20
I00
tp1641
a(I21
I20
I00
tp1642
a(I22
I20
I00
tp1643
a(I23
I20
I00
tp1644
a(I24
I20
I01
tp1645
a(I25
I20
I01
tp1646
a(I26
I20
I00
tp1647
a(I27
I20
I01
tp1648
a(I28
I20
I00
tp1649
a(I29
I20
I00
tp1650
a(I30
I20
I00
tp1651
a(I31
I20
I00
tp1652
a(I32
I20
I01
tp1653
a(I33
I20
I01
tp1654
a(I34
I20
I00
tp1655
a(I35
I20
I00
tp1656
a(I36
I20
I00
tp1657
a(I37
I20
I01
tp1658
a(I38
I20
I00
tp1659
a(I39
I20
I01
tp1660
a(I40
I20
I01
tp1661
a(I41
I20
I00
tp1662
a(I42
I20
I01
tp1663
a(I43
I20
I00
tp1664
a(I44
I20
I01
tp1665
a(I45
I20
I00
tp1666
a(I46
I20
I00
tp1667
a(I47
I20
I00
tp1668
a(I48
I20
I00
tp1669
a(I49
I20
I00
tp1670
a(I50
I20
I00
tp1671
a(I51
I20
I00
tp1672
a(I52
I20
I00
tp1673
a(I53
I20
I00
tp1674
a(I54
I20
I00
tp1675
a(I55
I20
I00
tp1676
a(I56
I20
I00
tp1677
a(I57
I20
I00
tp1678
a(I58
I20
I00
tp1679
a(I59
I20
I01
tp1680
a(I60
I20
I00
tp1681
a(I61
I20
I00
tp1682
a(I62
I20
I00
tp1683
a(I63
I20
I00
tp1684
a(I64
I20
I01
tp1685
a(I65
I20
I00
tp1686
a(I66
I20
I00
tp1687
a(I67
I20
I01
tp1688
a(I68
I20
I00
tp1689
a(I69
I20
I01
tp1690
a(I70
I20
I00
tp1691
a(I71
I20
I01
tp1692
a(I72
I20
I00
tp1693
a(I73
I20
I00
tp1694
a(I74
I20
I01
tp1695
a(I75
I20
I00
tp1696
a(I76
I20
I00
tp1697
a(I77
I20
I01
tp1698
a(I78
I20
I00
tp1699
a(I79
I20
I00
tp1700
a(I80
I20
I00
tp1701
a(I0
I21
I01
tp1702
a(I1
I21
I00
tp1703
a(I2
I21
I00
tp1704
a(I3
I21
I00
tp1705
a(I4
I21
I00
tp1706
a(I5
I21
I00
tp1707
a(I6
I21
I00
tp1708
a(I7
I21
I00
tp1709
a(I8
I21
I00
tp1710
a(I9
I21
I01
tp1711
a(I10
I21
I00
tp1712
a(I11
I21
I00
tp1713
a(I12
I21
I00
tp1714
a(I13
I21
I00
tp1715
a(I14
I21
I00
tp1716
a(I15
I21
I00
tp1717
a(I16
I21
I00
tp1718
a(I17
I21
I00
tp1719
a(I18
I21
I01
tp1720
a(I19
I21
I00
tp1721
a(I20
I21
I01
tp1722
a(I21
I21
I00
tp1723
a(I22
I21
I01
tp1724
a(I23
I21
I00
tp1725
a(I24
I21
I00
tp1726
a(I25
I21
I00
tp1727
a(I26
I21
I01
tp1728
a(I27
I21
I00
tp1729
a(I28
I21
I00
tp1730
a(I29
I21
I00
tp1731
a(I30
I21
I00
tp1732
a(I31
I21
I00
tp1733
a(I32
I21
I00
tp1734
a(I33
I21
I00
tp1735
a(I34
I21
I00
tp1736
a(I35
I21
I01
tp1737
a(I36
I21
I01
tp1738
a(I37
I21
I01
tp1739
a(I38
I21
I00
tp1740
a(I39
I21
I01
tp1741
a(I40
I21
I01
tp1742
a(I41
I21
I00
tp1743
a(I42
I21
I00
tp1744
a(I43
I21
I01
tp1745
a(I44
I21
I01
tp1746
a(I45
I21
I00
tp1747
a(I46
I21
I00
tp1748
a(I47
I21
I00
tp1749
a(I48
I21
I01
tp1750
a(I49
I21
I00
tp1751
a(I50
I21
I00
tp1752
a(I51
I21
I01
tp1753
a(I52
I21
I01
tp1754
a(I53
I21
I00
tp1755
a(I54
I21
I00
tp1756
a(I55
I21
I00
tp1757
a(I56
I21
I01
tp1758
a(I57
I21
I00
tp1759
a(I58
I21
I00
tp1760
a(I59
I21
I01
tp1761
a(I60
I21
I01
tp1762
a(I61
I21
I01
tp1763
a(I62
I21
I00
tp1764
a(I63
I21
I00
tp1765
a(I64
I21
I00
tp1766
a(I65
I21
I00
tp1767
a(I66
I21
I00
tp1768
a(I67
I21
I00
tp1769
a(I68
I21
I00
tp1770
a(I69
I21
I00
tp1771
a(I70
I21
I01
tp1772
a(I71
I21
I01
tp1773
a(I72
I21
I00
tp1774
a(I73
I21
I01
tp1775
a(I74
I21
I01
tp1776
a(I75
I21
I01
tp1777
a(I76
I21
I00
tp1778
a(I77
I21
I01
tp1779
a(I78
I21
I00
tp1780
a(I79
I21
I01
tp1781
a(I80
I21
I00
tp1782
a(I0
I22
I00
tp1783
a(I1
I22
I00
tp1784
a(I2
I22
I00
tp1785
a(I3
I22
I00
tp1786
a(I4
I22
I00
tp1787
a(I5
I22
I00
tp1788
a(I6
I22
I00
tp1789
a(I7
I22
I00
tp1790
a(I8
I22
I00
tp1791
a(I9
I22
I01
tp1792
a(I10
I22
I01
tp1793
a(I11
I22
I00
tp1794
a(I12
I22
I00
tp1795
a(I13
I22
I00
tp1796
a(I14
I22
I01
tp1797
a(I15
I22
I00
tp1798
a(I16
I22
I00
tp1799
a(I17
I22
I00
tp1800
a(I18
I22
I00
tp1801
a(I19
I22
I01
tp1802
a(I20
I22
I00
tp1803
a(I21
I22
I00
tp1804
a(I22
I22
I01
tp1805
a(I23
I22
I00
tp1806
a(I24
I22
I00
tp1807
a(I25
I22
I01
tp1808
a(I26
I22
I00
tp1809
a(I27
I22
I00
tp1810
a(I28
I22
I00
tp1811
a(I29
I22
I00
tp1812
a(I30
I22
I01
tp1813
a(I31
I22
I00
tp1814
a(I32
I22
I01
tp1815
a(I33
I22
I01
tp1816
a(I34
I22
I00
tp1817
a(I35
I22
I00
tp1818
a(I36
I22
I00
tp1819
a(I37
I22
I01
tp1820
a(I38
I22
I00
tp1821
a(I39
I22
I00
tp1822
a(I40
I22
I01
tp1823
a(I41
I22
I01
tp1824
a(I42
I22
I00
tp1825
a(I43
I22
I00
tp1826
a(I44
I22
I01
tp1827
a(I45
I22
I00
tp1828
a(I46
I22
I00
tp1829
a(I47
I22
I00
tp1830
a(I48
I22
I01
tp1831
a(I49
I22
I00
tp1832
a(I50
I22
I00
tp1833
a(I51
I22
I01
tp1834
a(I52
I22
I00
tp1835
a(I53
I22
I00
tp1836
a(I54
I22
I00
tp1837
a(I55
I22
I00
tp1838
a(I56
I22
I00
tp1839
a(I57
I22
I00
tp1840
a(I58
I22
I00
tp1841
a(I59
I22
I01
tp1842
a(I60
I22
I00
tp1843
a(I61
I22
I00
tp1844
a(I62
I22
I00
tp1845
a(I63
I22
I00
tp1846
a(I64
I22
I00
tp1847
a(I65
I22
I00
tp1848
a(I66
I22
I00
tp1849
a(I67
I22
I00
tp1850
a(I68
I22
I00
tp1851
a(I69
I22
I00
tp1852
a(I70
I22
I01
tp1853
a(I71
I22
I01
tp1854
a(I72
I22
I00
tp1855
a(I73
I22
I00
tp1856
a(I74
I22
I00
tp1857
a(I75
I22
I01
tp1858
a(I76
I22
I00
tp1859
a(I77
I22
I01
tp1860
a(I78
I22
I00
tp1861
a(I79
I22
I01
tp1862
a(I80
I22
I00
tp1863
a(I0
I23
I00
tp1864
a(I1
I23
I01
tp1865
a(I2
I23
I01
tp1866
a(I3
I23
I01
tp1867
a(I4
I23
I00
tp1868
a(I5
I23
I00
tp1869
a(I6
I23
I00
tp1870
a(I7
I23
I00
tp1871
a(I8
I23
I00
tp1872
a(I9
I23
I00
tp1873
a(I10
I23
I00
tp1874
a(I11
I23
I00
tp1875
a(I12
I23
I00
tp1876
a(I13
I23
I00
tp1877
a(I14
I23
I00
tp1878
a(I15
I23
I00
tp1879
a(I16
I23
I00
tp1880
a(I17
I23
I00
tp1881
a(I18
I23
I00
tp1882
a(I19
I23
I00
tp1883
a(I20
I23
I00
tp1884
a(I21
I23
I00
tp1885
a(I22
I23
I00
tp1886
a(I23
I23
I00
tp1887
a(I24
I23
I00
tp1888
a(I25
I23
I00
tp1889
a(I26
I23
I01
tp1890
a(I27
I23
I01
tp1891
a(I28
I23
I00
tp1892
a(I29
I23
I00
tp1893
a(I30
I23
I01
tp1894
a(I31
I23
I00
tp1895
a(I32
I23
I00
tp1896
a(I33
I23
I00
tp1897
a(I34
I23
I00
tp1898
a(I35
I23
I01
tp1899
a(I36
I23
I01
tp1900
a(I37
I23
I01
tp1901
a(I38
I23
I00
tp1902
a(I39
I23
I01
tp1903
a(I40
I23
I01
tp1904
a(I41
I23
I00
tp1905
a(I42
I23
I01
tp1906
a(I43
I23
I00
tp1907
a(I44
I23
I01
tp1908
a(I45
I23
I00
tp1909
a(I46
I23
I00
tp1910
a(I47
I23
I00
tp1911
a(I48
I23
I01
tp1912
a(I49
I23
I00
tp1913
a(I50
I23
I00
tp1914
a(I51
I23
I01
tp1915
a(I52
I23
I00
tp1916
a(I53
I23
I00
tp1917
a(I54
I23
I00
tp1918
a(I55
I23
I00
tp1919
a(I56
I23
I01
tp1920
a(I57
I23
I00
tp1921
a(I58
I23
I00
tp1922
a(I59
I23
I01
tp1923
a(I60
I23
I01
tp1924
a(I61
I23
I00
tp1925
a(I62
I23
I00
tp1926
a(I63
I23
I00
tp1927
a(I64
I23
I00
tp1928
a(I65
I23
I00
tp1929
a(I66
I23
I00
tp1930
a(I67
I23
I00
tp1931
a(I68
I23
I00
tp1932
a(I69
I23
I00
tp1933
a(I70
I23
I01
tp1934
a(I71
I23
I00
tp1935
a(I72
I23
I00
tp1936
a(I73
I23
I01
tp1937
a(I74
I23
I01
tp1938
a(I75
I23
I00
tp1939
a(I76
I23
I00
tp1940
a(I77
I23
I01
tp1941
a(I78
I23
I00
tp1942
a(I79
I23
I01
tp1943
a(I80
I23
I00
tp1944
a.